(lp0
(S'filename'
p1
S'ql_mean'
p2
S'ql_abs_uncert'
p3
S'tof_mean'
p4
S'tof_abs_uncert'
p5
S'qs_mean'
p6
S'qs_abs_uncert'
p7
S'counts'
p8
tp9
a(S'bvert_4MeV_0tilt_115rot_det10.npy'
p10
F0.0677
F0.0013
F22.1617
F0.1142
F0.0335
F0.0007
cnumpy.core.multiarray
scalar
p11
(cnumpy
dtype
p12
(S'f8'
p13
I0
I1
tp14
Rp15
(I3
S'<'
p16
NNNI-1
I-1
I0
tp17
bS'\x00\x00\x00\x00\x00\xc0^@'
p18
tp19
Rp20
tp21
a(S'bvert_4MeV_0tilt_115rot_det11.npy'
p22
F0.2285
F0.003
F26.573
F0.0987
F0.1253
F0.0018
g11
(g15
S'\x00\x00\x00\x00\x00\x80`@'
p23
tp24
Rp25
tp26
a(S'bvert_4MeV_0tilt_115rot_det12.npy'
p27
F0.5203
F0.005
F26.3741
F0.0922
F0.3021
F0.0033
g11
(g15
S'\x00\x00\x00\x00\x00\xc0b@'
p28
tp29
Rp30
tp31
a(S'bvert_4MeV_0tilt_115rot_det13.npy'
p32
F0.8965
F0.0096
F31.5533
F0.1417
F0.5417
F0.0064
g11
(g15
S'\x00\x00\x00\x00\x00\xc0^@'
p33
tp34
Rp35
tp36
a(S'bvert_4MeV_0tilt_115rot_det14.npy'
p37
F1.3459
F0.0124
F40.5997
F0.2158
F0.8297
F0.0084
g11
(g15
S'\x00\x00\x00\x00\x00\x80Y@'
p38
tp39
Rp40
tp41
a(S'bvert_4MeV_0tilt_115rot_det15.npy'
p42
F1.6487
F0.024
F63.4445
F0.5283
F1.028
F0.0158
g11
(g15
S'\x00\x00\x00\x00\x00@Q@'
p43
tp44
Rp45
tp46
a(S'bvert_4MeV_0tilt_115rot_det4.npy'
p47
F1.3949
F0.0235
F63.5363
F0.7067
F0.8863
F0.0158
g11
(g15
S'\x00\x00\x00\x00\x00\x00U@'
p48
tp49
Rp50
tp51
a(S'bvert_4MeV_0tilt_115rot_det5.npy'
p52
F1.1396
F0.0093
F38.694
F0.2308
F0.7156
F0.0068
g11
(g15
S'\x00\x00\x00\x00\x00\x80Y@'
p53
tp54
Rp55
tp56
a(S'bvert_4MeV_0tilt_115rot_det6.npy'
p57
F0.74
F0.006
F28.7939
F0.1447
F0.4465
F0.0041
g11
(g15
S'\x00\x00\x00\x00\x00``@'
p58
tp59
Rp60
tp61
a(S'bvert_4MeV_0tilt_115rot_det7.npy'
p62
F0.4183
F0.0042
F25.6257
F0.1123
F0.2401
F0.003
g11
(g15
S'\x00\x00\x00\x00\x00@c@'
p63
tp64
Rp65
tp66
a(S'bvert_4MeV_0tilt_115rot_det8.npy'
p67
F0.1892
F0.0024
F25.8293
F0.0998
F0.0995
F0.0014
g11
(g15
S'\x00\x00\x00\x00\x00\x00b@'
p68
tp69
Rp70
tp71
a(S'bvert_4MeV_0tilt_115rot_det9.npy'
p72
F0.0593
F0.0011
F23.9332
F0.096
F0.0285
F0.0006
g11
(g15
S'\x00\x00\x00\x00\x00\x00_@'
p73
tp74
Rp75
tp76
a(S'bvert_4MeV_0tilt_135rot_det10.npy'
p77
F0.0622
F0.0013
F22.3234
F0.0949
F0.03
F0.0007
g11
(g15
S'\x00\x00\x00\x00\x00\x00`@'
p78
tp79
Rp80
tp81
a(S'bvert_4MeV_0tilt_135rot_det11.npy'
p82
F0.2094
F0.0028
F26.5083
F0.1001
F0.1123
F0.0016
g11
(g15
S'\x00\x00\x00\x00\x00@`@'
p83
tp84
Rp85
tp86
a(S'bvert_4MeV_0tilt_135rot_det12.npy'
p87
F0.4762
F0.0047
F26.4829
F0.098
F0.2772
F0.0031
g11
(g15
S'\x00\x00\x00\x00\x00\x80b@'
p88
tp89
Rp90
tp91
a(S'bvert_4MeV_0tilt_135rot_det13.npy'
p92
F0.8589
F0.0078
F31.5957
F0.1373
F0.5233
F0.0052
g11
(g15
S'\x00\x00\x00\x00\x00\xc0]@'
p93
tp94
Rp95
tp96
a(S'bvert_4MeV_0tilt_135rot_det14.npy'
p97
F1.2373
F0.0112
F40.6472
F0.1909
F0.7752
F0.0078
g11
(g15
S'\x00\x00\x00\x00\x00\xc0_@'
p98
tp99
Rp100
tp101
a(S'bvert_4MeV_0tilt_135rot_det15.npy'
p102
F1.6293
F0.0199
F65.2713
F0.6086
F1.0331
F0.0136
g11
(g15
S'\x00\x00\x00\x00\x00@T@'
p103
tp104
Rp105
tp106
a(S'bvert_4MeV_0tilt_135rot_det4.npy'
p107
F1.5665
F0.0199
F63.297
F0.6513
F0.988
F0.014
g11
(g15
S'\x00\x00\x00\x00\x00\x80R@'
p108
tp109
Rp110
tp111
a(S'bvert_4MeV_0tilt_135rot_det5.npy'
p112
F1.2335
F0.0113
F38.8813
F0.2312
F0.7687
F0.0077
g11
(g15
S'\x00\x00\x00\x00\x00\x00]@'
p113
tp114
Rp115
tp116
a(S'bvert_4MeV_0tilt_135rot_det6.npy'
p117
F0.7962
F0.0094
F29.2342
F0.1505
F0.4858
F0.0067
g11
(g15
S'\x00\x00\x00\x00\x00@[@'
p118
tp119
Rp120
tp121
a(S'bvert_4MeV_0tilt_135rot_det7.npy'
p122
F0.4521
F0.0052
F25.4791
F0.1065
F0.2607
F0.0033
g11
(g15
S'\x00\x00\x00\x00\x00\x80b@'
p123
tp124
Rp125
tp126
a(S'bvert_4MeV_0tilt_135rot_det8.npy'
p127
F0.2005
F0.0028
F25.8195
F0.1024
F0.1084
F0.0017
g11
(g15
S'\x00\x00\x00\x00\x00\xc0\\@'
p128
tp129
Rp130
tp131
a(S'bvert_4MeV_0tilt_135rot_det9.npy'
p132
F0.0592
F0.0012
F23.7304
F0.1021
F0.0282
F0.0006
g11
(g15
S'\x00\x00\x00\x00\x00@a@'
p133
tp134
Rp135
tp136
a(S'bvert_4MeV_0tilt_145rot_det10.npy'
p137
F0.0593
F0.0014
F22.3183
F0.12
F0.0278
F0.0008
g11
(g15
S'\x00\x00\x00\x00\x00\x00Z@'
p138
tp139
Rp140
tp141
a(S'bvert_4MeV_0tilt_145rot_det11.npy'
p142
F0.2024
F0.0028
F26.5577
F0.0941
F0.1091
F0.0016
g11
(g15
S'\x00\x00\x00\x00\x00\x00^@'
p143
tp144
Rp145
tp146
a(S'bvert_4MeV_0tilt_145rot_det12.npy'
p147
F0.4592
F0.0045
F26.562
F0.0923
F0.2641
F0.0028
g11
(g15
S'\x00\x00\x00\x00\x00\x00_@'
p148
tp149
Rp150
tp151
a(S'bvert_4MeV_0tilt_145rot_det13.npy'
p152
F0.812
F0.0069
F31.6172
F0.1306
F0.4957
F0.005
g11
(g15
S'\x00\x00\x00\x00\x00\xc0^@'
p153
tp154
Rp155
tp156
a(S'bvert_4MeV_0tilt_145rot_det14.npy'
p157
F1.2167
F0.0114
F40.9771
F0.2596
F0.7723
F0.0082
g11
(g15
S'\x00\x00\x00\x00\x00\xc0X@'
p158
tp159
Rp160
tp161
a(S'bvert_4MeV_0tilt_145rot_det15.npy'
p162
F1.5729
F0.0226
F64.5474
F0.6224
F1.0063
F0.016
g11
(g15
S'\x00\x00\x00\x00\x00\x00I@'
p163
tp164
Rp165
tp166
a(S'bvert_4MeV_0tilt_145rot_det4.npy'
p167
F1.5908
F0.0288
F63.5459
F0.6768
F0.9935
F0.0195
g11
(g15
S'\x00\x00\x00\x00\x00\x00L@'
p168
tp169
Rp170
tp171
a(S'bvert_4MeV_0tilt_145rot_det5.npy'
p172
F1.2451
F0.0122
F38.7208
F0.1902
F0.7726
F0.0083
g11
(g15
S'\x00\x00\x00\x00\x00\x80_@'
p173
tp174
Rp175
tp176
a(S'bvert_4MeV_0tilt_145rot_det6.npy'
p177
F0.856
F0.0079
F28.9304
F0.1532
F0.5213
F0.0056
g11
(g15
S'\x00\x00\x00\x00\x00@[@'
p178
tp179
Rp180
tp181
a(S'bvert_4MeV_0tilt_145rot_det7.npy'
p182
F0.4667
F0.0045
F25.4997
F0.1113
F0.2703
F0.0029
g11
(g15
S'\x00\x00\x00\x00\x00@`@'
p183
tp184
Rp185
tp186
a(S'bvert_4MeV_0tilt_145rot_det8.npy'
p187
F0.2088
F0.003
F25.6766
F0.0919
F0.1118
F0.0018
g11
(g15
S'\x00\x00\x00\x00\x00\x00`@'
p188
tp189
Rp190
tp191
a(S'bvert_4MeV_0tilt_145rot_det9.npy'
p192
F0.0599
F0.0013
F23.9816
F0.1004
F0.0282
F0.0006
g11
(g15
S'\x00\x00\x00\x00\x00``@'
p193
tp194
Rp195
tp196
a(S'bvert_4MeV_0tilt_15rot_det10.npy'
p197
F0.0654
F0.0011
F22.1573
F0.1025
F0.0337
F0.0006
g11
(g15
S'\x00\x00\x00\x00\x00\xe0`@'
p198
tp199
Rp200
tp201
a(S'bvert_4MeV_0tilt_15rot_det11.npy'
p202
F0.2013
F0.0021
F26.5354
F0.0889
F0.1094
F0.0013
g11
(g15
S'\x00\x00\x00\x00\x00@b@'
p203
tp204
Rp205
tp206
a(S'bvert_4MeV_0tilt_15rot_det12.npy'
p207
F0.4155
F0.0039
F26.5353
F0.0973
F0.2389
F0.0026
g11
(g15
S'\x00\x00\x00\x00\x00 d@'
p208
tp209
Rp210
tp211
a(S'bvert_4MeV_0tilt_15rot_det13.npy'
p212
F0.7049
F0.0059
F31.5607
F0.1264
F0.4251
F0.004
g11
(g15
S'\x00\x00\x00\x00\x00\xe0a@'
p213
tp214
Rp215
tp216
a(S'bvert_4MeV_0tilt_15rot_det14.npy'
p217
F1.0148
F0.01
F41.0883
F0.2358
F0.6336
F0.0071
g11
(g15
S'\x00\x00\x00\x00\x00\xc0\\@'
p218
tp219
Rp220
tp221
a(S'bvert_4MeV_0tilt_15rot_det15.npy'
p222
F1.3241
F0.0167
F64.2451
F0.6443
F0.8439
F0.0116
g11
(g15
S'\x00\x00\x00\x00\x00\xc0R@'
p223
tp224
Rp225
tp226
a(S'bvert_4MeV_0tilt_15rot_det4.npy'
p227
F1.513
F0.0174
F64.2607
F0.6355
F0.9716
F0.0127
g11
(g15
S'\x00\x00\x00\x00\x00\x00W@'
p228
tp229
Rp230
tp231
a(S'bvert_4MeV_0tilt_15rot_det5.npy'
p232
F1.2382
F0.0129
F39.5927
F0.244
F0.7752
F0.0091
g11
(g15
S'\x00\x00\x00\x00\x00\x00Y@'
p233
tp234
Rp235
tp236
a(S'bvert_4MeV_0tilt_15rot_det6.npy'
p237
F0.8832
F0.0081
F29.3432
F0.1477
F0.5394
F0.0053
g11
(g15
S'\x00\x00\x00\x00\x00@b@'
p238
tp239
Rp240
tp241
a(S'bvert_4MeV_0tilt_15rot_det7.npy'
p242
F0.5425
F0.0058
F25.637
F0.1247
F0.3107
F0.0037
g11
(g15
S'\x00\x00\x00\x00\x00@a@'
p243
tp244
Rp245
tp246
a(S'bvert_4MeV_0tilt_15rot_det8.npy'
p247
F0.2598
F0.0034
F25.6523
F0.095
F0.1398
F0.0022
g11
(g15
S'\x00\x00\x00\x00\x00\xe0a@'
p248
tp249
Rp250
tp251
a(S'bvert_4MeV_0tilt_15rot_det9.npy'
p252
F0.0795
F0.0013
F23.6909
F0.0836
F0.0413
F0.0007
g11
(g15
S'\x00\x00\x00\x00\x00\xa0c@'
p253
tp254
Rp255
tp256
a(S'bvert_4MeV_0tilt_25rot_det10.npy'
p257
F0.0688
F0.0013
F22.0403
F0.0967
F0.0351
F0.0007
g11
(g15
S'\x00\x00\x00\x00\x00\x00`@'
p258
tp259
Rp260
tp261
a(S'bvert_4MeV_0tilt_25rot_det11.npy'
p262
F0.2086
F0.0027
F26.7789
F0.0925
F0.113
F0.0015
g11
(g15
S'\x00\x00\x00\x00\x00 b@'
p263
tp264
Rp265
tp266
a(S'bvert_4MeV_0tilt_25rot_det12.npy'
p267
F0.4443
F0.004
F26.5784
F0.0838
F0.2567
F0.0026
g11
(g15
S'\x00\x00\x00\x00\x00 d@'
p268
tp269
Rp270
tp271
a(S'bvert_4MeV_0tilt_25rot_det13.npy'
p272
F0.7126
F0.0067
F31.3631
F0.1358
F0.4309
F0.0045
g11
(g15
S'\x00\x00\x00\x00\x00``@'
p273
tp274
Rp275
tp276
a(S'bvert_4MeV_0tilt_25rot_det14.npy'
p277
F0.9997
F0.0096
F40.9215
F0.2072
F0.6261
F0.0067
g11
(g15
S'\x00\x00\x00\x00\x00 a@'
p278
tp279
Rp280
tp281
a(S'bvert_4MeV_0tilt_25rot_det15.npy'
p282
F1.2874
F0.0141
F64.7231
F0.4765
F0.8167
F0.0098
g11
(g15
S'\x00\x00\x00\x00\x00\x80S@'
p283
tp284
Rp285
tp286
a(S'bvert_4MeV_0tilt_25rot_det4.npy'
p287
F1.4653
F0.0199
F64.7184
F0.6118
F0.9445
F0.014
g11
(g15
S'\x00\x00\x00\x00\x00\x00R@'
p288
tp289
Rp290
tp291
a(S'bvert_4MeV_0tilt_25rot_det5.npy'
p292
F1.2019
F0.0125
F38.5944
F0.2735
F0.7605
F0.0088
g11
(g15
S'\x00\x00\x00\x00\x00\xc0T@'
p293
tp294
Rp295
tp296
a(S'bvert_4MeV_0tilt_25rot_det6.npy'
p297
F0.8646
F0.0069
F29.3146
F0.1413
F0.5273
F0.0047
g11
(g15
S'\x00\x00\x00\x00\x00`c@'
p298
tp299
Rp300
tp301
a(S'bvert_4MeV_0tilt_25rot_det7.npy'
p302
F0.5353
F0.0047
F25.5316
F0.0975
F0.3111
F0.0031
g11
(g15
S'\x00\x00\x00\x00\x00`d@'
p303
tp304
Rp305
tp306
a(S'bvert_4MeV_0tilt_25rot_det8.npy'
p307
F0.2574
F0.0033
F25.9789
F0.1074
F0.1402
F0.002
g11
(g15
S'\x00\x00\x00\x00\x00@`@'
p308
tp309
Rp310
tp311
a(S'bvert_4MeV_0tilt_25rot_det9.npy'
p312
F0.0833
F0.0015
F23.7994
F0.1057
F0.0428
F0.0008
g11
(g15
S'\x00\x00\x00\x00\x00\xc0_@'
p313
tp314
Rp315
tp316
a(S'bvert_4MeV_0tilt_315rot_det10.npy'
p317
F0.0673
F0.0011
F22.2653
F0.0805
F0.0344
F0.0006
g11
(g15
S'\x00\x00\x00\x00\x00\xc0b@'
p318
tp319
Rp320
tp321
a(S'bvert_4MeV_0tilt_315rot_det11.npy'
p322
F0.2168
F0.0025
F26.6056
F0.0867
F0.1193
F0.0015
g11
(g15
S'\x00\x00\x00\x00\x00\x00d@'
p323
tp324
Rp325
tp326
a(S'bvert_4MeV_0tilt_315rot_det12.npy'
p327
F0.4876
F0.0046
F26.5353
F0.1078
F0.2849
F0.003
g11
(g15
S'\x00\x00\x00\x00\x00\xa0`@'
p328
tp329
Rp330
tp331
a(S'bvert_4MeV_0tilt_315rot_det13.npy'
p332
F0.8619
F0.0074
F31.3162
F0.1451
F0.5303
F0.0052
g11
(g15
S'\x00\x00\x00\x00\x00\xc0]@'
p333
tp334
Rp335
tp336
a(S'bvert_4MeV_0tilt_315rot_det14.npy'
p337
F1.2545
F0.0141
F41.6786
F0.2353
F0.7903
F0.0098
g11
(g15
S'\x00\x00\x00\x00\x00@\\@'
p338
tp339
Rp340
tp341
a(S'bvert_4MeV_0tilt_315rot_det15.npy'
p342
F1.6054
F0.0191
F66.0926
F0.5242
F1.0252
F0.013
g11
(g15
S'\x00\x00\x00\x00\x00\x00U@'
p343
tp344
Rp345
tp346
a(S'bvert_4MeV_0tilt_315rot_det4.npy'
p347
F1.5993
F0.0168
F64.5342
F0.6177
F1.01
F0.0116
g11
(g15
S'\x00\x00\x00\x00\x00\xc0W@'
p348
tp349
Rp350
tp351
a(S'bvert_4MeV_0tilt_315rot_det5.npy'
p352
F1.219
F0.0108
F38.9528
F0.1979
F0.7602
F0.0073
g11
(g15
S'\x00\x00\x00\x00\x00\x80^@'
p353
tp354
Rp355
tp356
a(S'bvert_4MeV_0tilt_315rot_det6.npy'
p357
F0.8144
F0.0081
F29.0255
F0.1363
F0.4962
F0.0056
g11
(g15
S'\x00\x00\x00\x00\x00\xa0a@'
p358
tp359
Rp360
tp361
a(S'bvert_4MeV_0tilt_315rot_det7.npy'
p362
F0.4453
F0.0042
F25.5087
F0.1116
F0.2588
F0.0027
g11
(g15
S'\x00\x00\x00\x00\x00`c@'
p363
tp364
Rp365
tp366
a(S'bvert_4MeV_0tilt_315rot_det8.npy'
p367
F0.209
F0.003
F25.8432
F0.1012
F0.1135
F0.0018
g11
(g15
S'\x00\x00\x00\x00\x00 a@'
p368
tp369
Rp370
tp371
a(S'bvert_4MeV_0tilt_315rot_det9.npy'
p372
F0.0638
F0.0011
F23.9048
F0.0994
F0.0322
F0.0006
g11
(g15
S'\x00\x00\x00\x00\x00@a@'
p373
tp374
Rp375
tp376
a(S'bvert_4MeV_0tilt_335rot_det10.npy'
p377
F0.062
F0.0011
F22.2389
F0.1038
F0.0312
F0.0006
g11
(g15
S'\x00\x00\x00\x00\x00\x00a@'
p378
tp379
Rp380
tp381
a(S'bvert_4MeV_0tilt_335rot_det11.npy'
p382
F0.197
F0.0026
F26.5503
F0.0923
F0.1064
F0.0015
g11
(g15
S'\x00\x00\x00\x00\x00@`@'
p383
tp384
Rp385
tp386
a(S'bvert_4MeV_0tilt_335rot_det12.npy'
p387
F0.4398
F0.0045
F26.4832
F0.1044
F0.2547
F0.0029
g11
(g15
S'\x00\x00\x00\x00\x00@a@'
p388
tp389
Rp390
tp391
a(S'bvert_4MeV_0tilt_335rot_det13.npy'
p392
F0.7761
F0.0072
F31.5202
F0.1297
F0.4742
F0.0049
g11
(g15
S'\x00\x00\x00\x00\x00\xe0`@'
p393
tp394
Rp395
tp396
a(S'bvert_4MeV_0tilt_335rot_det14.npy'
p397
F1.1752
F0.0125
F40.9473
F0.2391
F0.7395
F0.0089
g11
(g15
S'\x00\x00\x00\x00\x00\x80X@'
p398
tp399
Rp400
tp401
a(S'bvert_4MeV_0tilt_335rot_det15.npy'
p402
F1.5258
F0.0186
F65.4122
F0.7069
F0.9778
F0.0132
g11
(g15
S'\x00\x00\x00\x00\x00\x00U@'
p403
tp404
Rp405
tp406
a(S'bvert_4MeV_0tilt_335rot_det4.npy'
p407
F1.6501
F0.0197
F64.9452
F0.5755
F1.0271
F0.0133
g11
(g15
S'\x00\x00\x00\x00\x00\x80T@'
p408
tp409
Rp410
tp411
a(S'bvert_4MeV_0tilt_335rot_det5.npy'
p412
F1.3171
F0.0111
F38.9713
F0.2055
F0.8137
F0.0076
g11
(g15
S'\x00\x00\x00\x00\x00\xc0_@'
p413
tp414
Rp415
tp416
a(S'bvert_4MeV_0tilt_335rot_det6.npy'
p417
F0.889
F0.0077
F29.0394
F0.135
F0.537
F0.0049
g11
(g15
S'\x00\x00\x00\x00\x00 c@'
p418
tp419
Rp420
tp421
a(S'bvert_4MeV_0tilt_335rot_det7.npy'
p422
F0.4976
F0.0056
F25.4558
F0.1077
F0.2894
F0.0036
g11
(g15
S'\x00\x00\x00\x00\x00\xe0c@'
p423
tp424
Rp425
tp426
a(S'bvert_4MeV_0tilt_335rot_det8.npy'
p427
F0.2252
F0.003
F25.8586
F0.0918
F0.1242
F0.0018
g11
(g15
S'\x00\x00\x00\x00\x00\x80a@'
p428
tp429
Rp430
tp431
a(S'bvert_4MeV_0tilt_335rot_det9.npy'
p432
F0.0689
F0.0013
F23.851
F0.0988
F0.036
F0.0007
g11
(g15
S'\x00\x00\x00\x00\x00\xe0a@'
p433
tp434
Rp435
tp436
a(S'bvert_4MeV_0tilt_345rot_det10.npy'
p437
F0.0632
F0.0011
F22.3014
F0.0966
F0.0319
F0.0006
g11
(g15
S'\x00\x00\x00\x00\x00 `@'
p438
tp439
Rp440
tp441
a(S'bvert_4MeV_0tilt_345rot_det11.npy'
p442
F0.1939
F0.0024
F26.7858
F0.0891
F0.1042
F0.0015
g11
(g15
S'\x00\x00\x00\x00\x00\xe0b@'
p443
tp444
Rp445
tp446
a(S'bvert_4MeV_0tilt_345rot_det12.npy'
p447
F0.4316
F0.0043
F26.5865
F0.0907
F0.2489
F0.0027
g11
(g15
S'\x00\x00\x00\x00\x00\x00d@'
p448
tp449
Rp450
tp451
a(S'bvert_4MeV_0tilt_345rot_det13.npy'
p452
F0.7611
F0.0069
F31.4384
F0.131
F0.4637
F0.0047
g11
(g15
S'\x00\x00\x00\x00\x00\xc0`@'
p453
tp454
Rp455
tp456
a(S'bvert_4MeV_0tilt_345rot_det14.npy'
p457
F1.1178
F0.0107
F41.3138
F0.2234
F0.7071
F0.0075
g11
(g15
S'\x00\x00\x00\x00\x00\x80[@'
p458
tp459
Rp460
tp461
a(S'bvert_4MeV_0tilt_345rot_det15.npy'
p462
F1.4772
F0.0207
F64.2892
F0.6038
F0.9492
F0.0147
g11
(g15
S'\x00\x00\x00\x00\x00\x00O@'
p463
tp464
Rp465
tp466
a(S'bvert_4MeV_0tilt_345rot_det4.npy'
p467
F1.6572
F0.0179
F63.5666
F0.727
F1.0434
F0.0125
g11
(g15
S'\x00\x00\x00\x00\x00\x00R@'
p468
tp469
Rp470
tp471
a(S'bvert_4MeV_0tilt_345rot_det5.npy'
p472
F1.3238
F0.0123
F39.0498
F0.2434
F0.8151
F0.0083
g11
(g15
S'\x00\x00\x00\x00\x00\xc0X@'
p473
tp474
Rp475
tp476
a(S'bvert_4MeV_0tilt_345rot_det6.npy'
p477
F0.8985
F0.0085
F29.1833
F0.1509
F0.5378
F0.0053
g11
(g15
S'\x00\x00\x00\x00\x00\xa0a@'
p478
tp479
Rp480
tp481
a(S'bvert_4MeV_0tilt_345rot_det7.npy'
p482
F0.5192
F0.005
F25.5642
F0.1118
F0.3001
F0.0032
g11
(g15
S'\x00\x00\x00\x00\x00@c@'
p483
tp484
Rp485
tp486
a(S'bvert_4MeV_0tilt_345rot_det8.npy'
p487
F0.2335
F0.0029
F25.9183
F0.0981
F0.1282
F0.0017
g11
(g15
S'\x00\x00\x00\x00\x00\x00b@'
p488
tp489
Rp490
tp491
a(S'bvert_4MeV_0tilt_345rot_det9.npy'
p492
F0.0724
F0.0011
F23.8283
F0.0968
F0.0377
F0.0007
g11
(g15
S'\x00\x00\x00\x00\x00@a@'
p493
tp494
Rp495
tp496
a(S'bvert_4MeV_0tilt_355rot_det10.npy'
p497
F0.0623
F0.0011
F22.1177
F0.0876
F0.0314
F0.0006
g11
(g15
S'\x00\x00\x00\x00\x00 c@'
p498
tp499
Rp500
tp501
a(S'bvert_4MeV_0tilt_355rot_det11.npy'
p502
F0.1945
F0.0025
F26.7582
F0.0854
F0.1047
F0.0014
g11
(g15
S'\x00\x00\x00\x00\x00`e@'
p503
tp504
Rp505
tp506
a(S'bvert_4MeV_0tilt_355rot_det12.npy'
p507
F0.4187
F0.0045
F26.4475
F0.1159
F0.2425
F0.0029
g11
(g15
S'\x00\x00\x00\x00\x00\xa0a@'
p508
tp509
Rp510
tp511
a(S'bvert_4MeV_0tilt_355rot_det13.npy'
p512
F0.7289
F0.0068
F31.556
F0.1278
F0.4404
F0.0046
g11
(g15
S'\x00\x00\x00\x00\x00\x80a@'
p513
tp514
Rp515
tp516
a(S'bvert_4MeV_0tilt_355rot_det14.npy'
p517
F1.067
F0.0094
F40.9718
F0.2086
F0.6678
F0.0065
g11
(g15
S'\x00\x00\x00\x00\x00\x80^@'
p518
tp519
Rp520
tp521
a(S'bvert_4MeV_0tilt_355rot_det15.npy'
p522
F1.4098
F0.0195
F65.0603
F0.6746
F0.9098
F0.0135
g11
(g15
S'\x00\x00\x00\x00\x00\x00Q@'
p523
tp524
Rp525
tp526
a(S'bvert_4MeV_0tilt_355rot_det4.npy'
p527
F1.6268
F0.0199
F63.2379
F0.6093
F1.0387
F0.0133
g11
(g15
S'\x00\x00\x00\x00\x00\x80U@'
p528
tp529
Rp530
tp531
a(S'bvert_4MeV_0tilt_355rot_det5.npy'
p532
F1.3198
F0.0146
F38.8071
F0.2268
F0.819
F0.0102
g11
(g15
S'\x00\x00\x00\x00\x00@X@'
p533
tp534
Rp535
tp536
a(S'bvert_4MeV_0tilt_355rot_det6.npy'
p537
F0.931
F0.0087
F29.1989
F0.1448
F0.5589
F0.0056
g11
(g15
S'\x00\x00\x00\x00\x00\x80a@'
p538
tp539
Rp540
tp541
a(S'bvert_4MeV_0tilt_355rot_det7.npy'
p542
F0.5549
F0.0053
F25.4739
F0.1089
F0.3199
F0.0033
g11
(g15
S'\x00\x00\x00\x00\x00`c@'
p543
tp544
Rp545
tp546
a(S'bvert_4MeV_0tilt_355rot_det8.npy'
p547
F0.251
F0.0032
F25.66
F0.1098
F0.1381
F0.0019
g11
(g15
S'\x00\x00\x00\x00\x00\x80b@'
p548
tp549
Rp550
tp551
a(S'bvert_4MeV_0tilt_355rot_det9.npy'
p552
F0.0773
F0.0014
F23.7932
F0.0989
F0.0406
F0.0008
g11
(g15
S'\x00\x00\x00\x00\x00`c@'
p553
tp554
Rp555
tp556
a(S'bvert_4MeV_0tilt_35rot_det10.npy'
p557
F0.0743
F0.0015
F22.154
F0.1024
F0.0385
F0.0008
g11
(g15
S'\x00\x00\x00\x00\x00\x00]@'
p558
tp559
Rp560
tp561
a(S'bvert_4MeV_0tilt_35rot_det11.npy'
p562
F0.2179
F0.0028
F26.5166
F0.0906
F0.119
F0.0017
g11
(g15
S'\x00\x00\x00\x00\x00``@'
p563
tp564
Rp565
tp566
a(S'bvert_4MeV_0tilt_35rot_det12.npy'
p567
F0.451
F0.0041
F26.3839
F0.0944
F0.2605
F0.0027
g11
(g15
S'\x00\x00\x00\x00\x00@d@'
p568
tp569
Rp570
tp571
a(S'bvert_4MeV_0tilt_35rot_det13.npy'
p572
F0.7467
F0.0061
F31.5533
F0.1313
F0.4512
F0.0042
g11
(g15
S'\x00\x00\x00\x00\x00\xc0a@'
p573
tp574
Rp575
tp576
a(S'bvert_4MeV_0tilt_35rot_det14.npy'
p577
F1.0276
F0.0114
F41.0865
F0.2592
F0.642
F0.0077
g11
(g15
S'\x00\x00\x00\x00\x00\x00Y@'
p578
tp579
Rp580
tp581
a(S'bvert_4MeV_0tilt_35rot_det15.npy'
p582
F1.2958
F0.0143
F63.4331
F0.5345
F0.8268
F0.0105
g11
(g15
S'\x00\x00\x00\x00\x00\x80T@'
p583
tp584
Rp585
tp586
a(S'bvert_4MeV_0tilt_35rot_det4.npy'
p587
F1.3777
F0.0201
F63.7729
F0.6625
F0.8825
F0.0139
g11
(g15
S'\x00\x00\x00\x00\x00\xc0R@'
p588
tp589
Rp590
tp591
a(S'bvert_4MeV_0tilt_35rot_det5.npy'
p592
F1.1689
F0.0108
F38.8881
F0.2133
F0.738
F0.0077
g11
(g15
S'\x00\x00\x00\x00\x00\x80^@'
p593
tp594
Rp595
tp596
a(S'bvert_4MeV_0tilt_35rot_det6.npy'
p597
F0.8194
F0.0086
F29.134
F0.1448
F0.5018
F0.0059
g11
(g15
S'\x00\x00\x00\x00\x00`a@'
p598
tp599
Rp600
tp601
a(S'bvert_4MeV_0tilt_35rot_det7.npy'
p602
F0.5115
F0.005
F25.6267
F0.0981
F0.2969
F0.0033
g11
(g15
S'\x00\x00\x00\x00\x00\xe0a@'
p603
tp604
Rp605
tp606
a(S'bvert_4MeV_0tilt_35rot_det8.npy'
p607
F0.2556
F0.003
F25.6428
F0.0958
F0.1418
F0.0019
g11
(g15
S'\x00\x00\x00\x00\x00\xe0`@'
p608
tp609
Rp610
tp611
a(S'bvert_4MeV_0tilt_35rot_det9.npy'
p612
F0.0798
F0.0018
F23.6725
F0.114
F0.0401
F0.001
g11
(g15
S'\x00\x00\x00\x00\x00\x00^@'
p613
tp614
Rp615
tp616
a(S'bvert_4MeV_0tilt_45rot_det10.npy'
p617
F0.0719
F0.0012
F22.0332
F0.106
F0.037
F0.0007
g11
(g15
S'\x00\x00\x00\x00\x00\x00^@'
p618
tp619
Rp620
tp621
a(S'bvert_4MeV_0tilt_45rot_det11.npy'
p622
F0.2302
F0.0029
F26.4667
F0.095
F0.1259
F0.0018
g11
(g15
S'\x00\x00\x00\x00\x00\x80_@'
p623
tp624
Rp625
tp626
a(S'bvert_4MeV_0tilt_45rot_det12.npy'
p627
F0.4832
F0.0048
F26.5264
F0.1094
F0.2825
F0.0035
g11
(g15
S'\x00\x00\x00\x00\x00 `@'
p628
tp629
Rp630
tp631
a(S'bvert_4MeV_0tilt_45rot_det13.npy'
p632
F0.7723
F0.0072
F31.4757
F0.148
F0.4674
F0.0048
g11
(g15
S'\x00\x00\x00\x00\x00\xc0\\@'
p633
tp634
Rp635
tp636
a(S'bvert_4MeV_0tilt_45rot_det14.npy'
p637
F1.0889
F0.0111
F41.2229
F0.2165
F0.6839
F0.0083
g11
(g15
S'\x00\x00\x00\x00\x00@X@'
p638
tp639
Rp640
tp641
a(S'bvert_4MeV_0tilt_45rot_det15.npy'
p642
F1.3337
F0.0177
F64.8136
F0.6129
F0.8514
F0.0125
g11
(g15
S'\x00\x00\x00\x00\x00\xc0P@'
p643
tp644
Rp645
tp646
a(S'bvert_4MeV_0tilt_45rot_det4.npy'
p647
F1.3653
F0.0163
F62.8032
F0.6037
F0.8781
F0.0115
g11
(g15
S'\x00\x00\x00\x00\x00\x80S@'
p648
tp649
Rp650
tp651
a(S'bvert_4MeV_0tilt_45rot_det5.npy'
p652
F1.1247
F0.0113
F39.1805
F0.2222
F0.7084
F0.0078
g11
(g15
S'\x00\x00\x00\x00\x00\xc0Y@'
p653
tp654
Rp655
tp656
a(S'bvert_4MeV_0tilt_45rot_det6.npy'
p657
F0.7968
F0.0076
F29.3028
F0.1686
F0.4866
F0.0052
g11
(g15
S'\x00\x00\x00\x00\x00\x00\\@'
p658
tp659
Rp660
tp661
a(S'bvert_4MeV_0tilt_45rot_det7.npy'
p662
F0.4885
F0.0057
F25.5182
F0.111
F0.2864
F0.0036
g11
(g15
S'\x00\x00\x00\x00\x00\x80a@'
p663
tp664
Rp665
tp666
a(S'bvert_4MeV_0tilt_45rot_det8.npy'
p667
F0.2418
F0.0029
F25.9082
F0.0896
F0.1336
F0.0018
g11
(g15
S'\x00\x00\x00\x00\x00\x80a@'
p668
tp669
Rp670
tp671
a(S'bvert_4MeV_0tilt_45rot_det9.npy'
p672
F0.0814
F0.0015
F23.6878
F0.098
F0.0411
F0.0008
g11
(g15
S'\x00\x00\x00\x00\x00@b@'
p673
tp674
Rp675
tp676
a(S'bvert_4MeV_0tilt_55rot_det10.npy'
p677
F0.0777
F0.0012
F22.1052
F0.0866
F0.0398
F0.0007
g11
(g15
S'\x00\x00\x00\x00\x00\x00d@'
p678
tp679
Rp680
tp681
a(S'bvert_4MeV_0tilt_55rot_det11.npy'
p682
F0.2457
F0.0029
F26.4342
F0.0913
F0.1341
F0.0017
g11
(g15
S'\x00\x00\x00\x00\x00\x80a@'
p683
tp684
Rp685
tp686
a(S'bvert_4MeV_0tilt_55rot_det12.npy'
p687
F0.5039
F0.0046
F26.3727
F0.1165
F0.293
F0.003
g11
(g15
S'\x00\x00\x00\x00\x00 `@'
p688
tp689
Rp690
tp691
a(S'bvert_4MeV_0tilt_55rot_det13.npy'
p692
F0.8068
F0.0071
F31.2689
F0.1392
F0.4876
F0.0048
g11
(g15
S'\x00\x00\x00\x00\x00\x00[@'
p693
tp694
Rp695
tp696
a(S'bvert_4MeV_0tilt_55rot_det14.npy'
p697
F1.1075
F0.0119
F40.74
F0.2377
F0.6935
F0.0084
g11
(g15
S'\x00\x00\x00\x00\x00@Y@'
p698
tp699
Rp700
tp701
a(S'bvert_4MeV_0tilt_55rot_det15.npy'
p702
F1.3909
F0.0154
F64.6644
F0.7013
F0.8925
F0.0109
g11
(g15
S'\x00\x00\x00\x00\x00@P@'
p703
tp704
Rp705
tp706
a(S'bvert_4MeV_0tilt_55rot_det4.npy'
p707
F1.3052
F0.0153
F63.0229
F0.5838
F0.8324
F0.0112
g11
(g15
S'\x00\x00\x00\x00\x00\x00U@'
p708
tp709
Rp710
tp711
a(S'bvert_4MeV_0tilt_55rot_det5.npy'
p712
F1.068
F0.009
F39.1947
F0.222
F0.6693
F0.0066
g11
(g15
S'\x00\x00\x00\x00\x00\x80Y@'
p713
tp714
Rp715
tp716
a(S'bvert_4MeV_0tilt_55rot_det6.npy'
p717
F0.7716
F0.0074
F29.356
F0.166
F0.4699
F0.0049
g11
(g15
S'\x00\x00\x00\x00\x00\x80^@'
p718
tp719
Rp720
tp721
a(S'bvert_4MeV_0tilt_55rot_det7.npy'
p722
F0.4774
F0.005
F25.5351
F0.1079
F0.2791
F0.0033
g11
(g15
S'\x00\x00\x00\x00\x00@a@'
p723
tp724
Rp725
tp726
a(S'bvert_4MeV_0tilt_55rot_det8.npy'
p727
F0.2355
F0.0031
F25.9648
F0.094
F0.1297
F0.0018
g11
(g15
S'\x00\x00\x00\x00\x00\xc0b@'
p728
tp729
Rp730
tp731
a(S'bvert_4MeV_0tilt_55rot_det9.npy'
p732
F0.0748
F0.0015
F23.8187
F0.1118
F0.0383
F0.0008
g11
(g15
S'\x00\x00\x00\x00\x00\xc0\\@'
p733
tp734
Rp735
tp736
a(S'bvert_4MeV_0tilt_5rot_det10.npy'
p737
F0.0644
F0.001
F22.1821
F0.095
F0.0324
F0.0005
g11
(g15
S'\x00\x00\x00\x00\x00\xe0b@'
p738
tp739
Rp740
tp741
a(S'bvert_4MeV_0tilt_5rot_det11.npy'
p742
F0.1986
F0.0025
F26.6394
F0.0939
F0.1075
F0.0015
g11
(g15
S'\x00\x00\x00\x00\x00\x00a@'
p743
tp744
Rp745
tp746
a(S'bvert_4MeV_0tilt_5rot_det12.npy'
p747
F0.4137
F0.0046
F26.5079
F0.1026
F0.2372
F0.0029
g11
(g15
S'\x00\x00\x00\x00\x00\x00a@'
p748
tp749
Rp750
tp751
a(S'bvert_4MeV_0tilt_5rot_det13.npy'
p752
F0.6932
F0.0059
F31.638
F0.1214
F0.4168
F0.0039
g11
(g15
S'\x00\x00\x00\x00\x00\xa0c@'
p753
tp754
Rp755
tp756
a(S'bvert_4MeV_0tilt_5rot_det14.npy'
p757
F1.0374
F0.0097
F41.1189
F0.24
F0.6465
F0.0069
g11
(g15
S'\x00\x00\x00\x00\x00\xc0[@'
p758
tp759
Rp760
tp761
a(S'bvert_4MeV_0tilt_5rot_det15.npy'
p762
F1.3574
F0.0188
F66.0431
F0.5753
F0.8717
F0.0132
g11
(g15
S'\x00\x00\x00\x00\x00\xc0R@'
p763
tp764
Rp765
tp766
a(S'bvert_4MeV_0tilt_5rot_det4.npy'
p767
F1.5788
F0.0192
F65.4623
F0.6989
F1.0138
F0.0137
g11
(g15
S'\x00\x00\x00\x00\x00\x00O@'
p768
tp769
Rp770
tp771
a(S'bvert_4MeV_0tilt_5rot_det5.npy'
p772
F1.283
F0.0123
F38.937
F0.2133
F0.7973
F0.0084
g11
(g15
S'\x00\x00\x00\x00\x00@]@'
p773
tp774
Rp775
tp776
a(S'bvert_4MeV_0tilt_5rot_det6.npy'
p777
F0.9328
F0.0074
F28.8085
F0.1576
F0.5626
F0.005
g11
(g15
S'\x00\x00\x00\x00\x00\x00b@'
p778
tp779
Rp780
tp781
a(S'bvert_4MeV_0tilt_5rot_det7.npy'
p782
F0.5437
F0.0048
F25.5887
F0.1178
F0.3112
F0.003
g11
(g15
S'\x00\x00\x00\x00\x00`b@'
p783
tp784
Rp785
tp786
a(S'bvert_4MeV_0tilt_5rot_det8.npy'
p787
F0.259
F0.0032
F25.5475
F0.0886
F0.141
F0.0019
g11
(g15
S'\x00\x00\x00\x00\x00`b@'
p788
tp789
Rp790
tp791
a(S'bvert_4MeV_0tilt_5rot_det9.npy'
p792
F0.0789
F0.0013
F23.5748
F0.1008
F0.0418
F0.0008
g11
(g15
S'\x00\x00\x00\x00\x00``@'
p793
tp794
Rp795
tp796
a(S'bvert_4MeV_0tilt_75rot_det10.npy'
p797
F0.0799
F0.0014
F22.0678
F0.0941
F0.0409
F0.0008
g11
(g15
S'\x00\x00\x00\x00\x00@c@'
p798
tp799
Rp800
tp801
a(S'bvert_4MeV_0tilt_75rot_det11.npy'
p802
F0.2667
F0.0033
F26.2769
F0.0947
F0.1461
F0.002
g11
(g15
S'\x00\x00\x00\x00\x00\xc0]@'
p803
tp804
Rp805
tp806
a(S'bvert_4MeV_0tilt_75rot_det12.npy'
p807
F0.5525
F0.0053
F26.255
F0.0987
F0.3177
F0.0034
g11
(g15
S'\x00\x00\x00\x00\x00@a@'
p808
tp809
Rp810
tp811
a(S'bvert_4MeV_0tilt_75rot_det13.npy'
p812
F0.8617
F0.0085
F31.5109
F0.1325
F0.5172
F0.0054
g11
(g15
S'\x00\x00\x00\x00\x00\xa0a@'
p813
tp814
Rp815
tp816
a(S'bvert_4MeV_0tilt_75rot_det14.npy'
p817
F1.2035
F0.0115
F41.1953
F0.2491
F0.752
F0.0081
g11
(g15
S'\x00\x00\x00\x00\x00\x80Y@'
p818
tp819
Rp820
tp821
a(S'bvert_4MeV_0tilt_75rot_det15.npy'
p822
F1.4505
F0.0221
F64.931
F0.7787
F0.9287
F0.0161
g11
(g15
S'\x00\x00\x00\x00\x00\x80H@'
p823
tp824
Rp825
tp826
a(S'bvert_4MeV_0tilt_75rot_det4.npy'
p827
F1.2732
F0.0164
F63.5629
F0.6832
F0.8053
F0.0123
g11
(g15
S'\x00\x00\x00\x00\x00@S@'
p828
tp829
Rp830
tp831
a(S'bvert_4MeV_0tilt_75rot_det5.npy'
p832
F1.0145
F0.0111
F38.8503
F0.2115
F0.6324
F0.008
g11
(g15
S'\x00\x00\x00\x00\x00\x80[@'
p833
tp834
Rp835
tp836
a(S'bvert_4MeV_0tilt_75rot_det6.npy'
p837
F0.722
F0.0054
F28.9986
F0.1433
F0.4355
F0.0039
g11
(g15
S'\x00\x00\x00\x00\x00\xa0c@'
p838
tp839
Rp840
tp841
a(S'bvert_4MeV_0tilt_75rot_det7.npy'
p842
F0.4359
F0.0046
F25.7122
F0.1089
F0.251
F0.003
g11
(g15
S'\x00\x00\x00\x00\x00\xe0a@'
p843
tp844
Rp845
tp846
a(S'bvert_4MeV_0tilt_75rot_det8.npy'
p847
F0.2097
F0.0027
F25.7392
F0.0849
F0.1135
F0.0016
g11
(g15
S'\x00\x00\x00\x00\x00\x80d@'
p848
tp849
Rp850
tp851
a(S'bvert_4MeV_0tilt_75rot_det9.npy'
p852
F0.0681
F0.0013
F23.9379
F0.1103
F0.0342
F0.0007
g11
(g15
S'\x00\x00\x00\x00\x00\xc0\\@'
p853
tp854
Rp855
tp856
a(S'bvert_4MeV_0tilt_95rot_det10.npy'
p857
F0.0745
F0.0013
F21.691
F0.1063
F0.0378
F0.0007
g11
(g15
S'\x00\x00\x00\x00\x00\x80a@'
p858
tp859
Rp860
tp861
a(S'bvert_4MeV_0tilt_95rot_det11.npy'
p862
F0.2539
F0.0029
F26.516
F0.0867
F0.1391
F0.0017
g11
(g15
S'\x00\x00\x00\x00\x00@c@'
p863
tp864
Rp865
tp866
a(S'bvert_4MeV_0tilt_95rot_det12.npy'
p867
F0.5563
F0.0053
F26.4823
F0.1061
F0.3202
F0.0035
g11
(g15
S'\x00\x00\x00\x00\x00 b@'
p868
tp869
Rp870
tp871
a(S'bvert_4MeV_0tilt_95rot_det13.npy'
p872
F0.9437
F0.0083
F31.1583
F0.1157
F0.5662
F0.0056
g11
(g15
S'\x00\x00\x00\x00\x00 b@'
p873
tp874
Rp875
tp876
a(S'bvert_4MeV_0tilt_95rot_det14.npy'
p877
F1.3058
F0.0117
F40.7757
F0.2336
F0.802
F0.0081
g11
(g15
S'\x00\x00\x00\x00\x00@[@'
p878
tp879
Rp880
tp881
a(S'bvert_4MeV_0tilt_95rot_det15.npy'
p882
F1.6057
F0.0169
F64.1523
F0.5745
F1.0134
F0.0116
g11
(g15
S'\x00\x00\x00\x00\x00\x00U@'
p883
tp884
Rp885
tp886
a(S'bvert_4MeV_0tilt_95rot_det4.npy'
p887
F1.3558
F0.0163
F62.4434
F0.6231
F0.8694
F0.0111
g11
(g15
S'\x00\x00\x00\x00\x00@R@'
p888
tp889
Rp890
tp891
a(S'bvert_4MeV_0tilt_95rot_det5.npy'
p892
F1.0691
F0.0084
F39.2801
F0.2398
F0.669
F0.0058
g11
(g15
S'\x00\x00\x00\x00\x00\xc0X@'
p893
tp894
Rp895
tp896
a(S'bvert_4MeV_0tilt_95rot_det6.npy'
p897
F0.7158
F0.006
F29.1006
F0.155
F0.4312
F0.0044
g11
(g15
S'\x00\x00\x00\x00\x00`a@'
p898
tp899
Rp900
tp901
a(S'bvert_4MeV_0tilt_95rot_det7.npy'
p902
F0.405
F0.0044
F25.5263
F0.1094
F0.2311
F0.0028
g11
(g15
S'\x00\x00\x00\x00\x00\xa0`@'
p903
tp904
Rp905
tp906
a(S'bvert_4MeV_0tilt_95rot_det8.npy'
p907
F0.1967
F0.0025
F25.9543
F0.0857
F0.1041
F0.0014
g11
(g15
S'\x00\x00\x00\x00\x00\xc0a@'
p908
tp909
Rp910
tp911
a(S'bvert_4MeV_0tilt_95rot_det9.npy'
p912
F0.0616
F0.001
F23.9179
F0.0909
F0.0302
F0.0005
g11
(g15
S'\x00\x00\x00\x00\x00\xe0a@'
p913
tp914
Rp915
tp916
a(S'bvert_4MeV_15tilt_115rot_det10.npy'
p917
F0.0703
F0.0012
F22.1347
F0.0903
F0.0351
F0.0007
g11
(g15
S'\x00\x00\x00\x00\x00 e@'
p918
tp919
Rp920
tp921
a(S'bvert_4MeV_15tilt_115rot_det11.npy'
p922
F0.2359
F0.003
F26.475
F0.0895
F0.129
F0.0018
g11
(g15
S'\x00\x00\x00\x00\x00@b@'
p923
tp924
Rp925
tp926
a(S'bvert_4MeV_15tilt_115rot_det12.npy'
p927
F0.5275
F0.0048
F26.5158
F0.0989
F0.3074
F0.003
g11
(g15
S'\x00\x00\x00\x00\x00\xc0`@'
p928
tp929
Rp930
tp931
a(S'bvert_4MeV_15tilt_115rot_det13.npy'
p932
F0.902
F0.0076
F31.7532
F0.1421
F0.5451
F0.0049
g11
(g15
S'\x00\x00\x00\x00\x00\x80`@'
p933
tp934
Rp935
tp936
a(S'bvert_4MeV_15tilt_115rot_det14.npy'
p937
F1.3285
F0.0096
F41.3712
F0.2063
F0.8227
F0.0065
g11
(g15
S'\x00\x00\x00\x00\x00\xa0b@'
p938
tp939
Rp940
tp941
a(S'bvert_4MeV_15tilt_115rot_det15.npy'
p942
F1.6928
F0.0183
F65.5568
F0.6582
F1.0614
F0.013
g11
(g15
S'\x00\x00\x00\x00\x00@R@'
p943
tp944
Rp945
tp946
a(S'bvert_4MeV_15tilt_115rot_det4.npy'
p947
F1.4922
F0.0207
F62.6055
F0.5998
F0.9591
F0.0144
g11
(g15
S'\x00\x00\x00\x00\x00\x00W@'
p948
tp949
Rp950
tp951
a(S'bvert_4MeV_15tilt_115rot_det5.npy'
p952
F1.1428
F0.0112
F38.8553
F0.2133
F0.7169
F0.0077
g11
(g15
S'\x00\x00\x00\x00\x00\x00_@'
p953
tp954
Rp955
tp956
a(S'bvert_4MeV_15tilt_115rot_det6.npy'
p957
F0.7479
F0.0065
F28.9361
F0.1435
F0.4531
F0.0043
g11
(g15
S'\x00\x00\x00\x00\x00@a@'
p958
tp959
Rp960
tp961
a(S'bvert_4MeV_15tilt_115rot_det7.npy'
p962
F0.4269
F0.0044
F25.6095
F0.0979
F0.2449
F0.0027
g11
(g15
S'\x00\x00\x00\x00\x00\xa0d@'
p963
tp964
Rp965
tp966
a(S'bvert_4MeV_15tilt_115rot_det8.npy'
p967
F0.1905
F0.0023
F25.7566
F0.1032
F0.1009
F0.0014
g11
(g15
S'\x00\x00\x00\x00\x00\x80_@'
p968
tp969
Rp970
tp971
a(S'bvert_4MeV_15tilt_115rot_det9.npy'
p972
F0.061
F0.0011
F23.8542
F0.0896
F0.0298
F0.0006
g11
(g15
S'\x00\x00\x00\x00\x00\xc0c@'
p973
tp974
Rp975
tp976
a(S'bvert_4MeV_15tilt_135rot_det10.npy'
p977
F0.0656
F0.0012
F22.2719
F0.0915
F0.0321
F0.0007
g11
(g15
S'\x00\x00\x00\x00\x00\xc0c@'
p978
tp979
Rp980
tp981
a(S'bvert_4MeV_15tilt_135rot_det11.npy'
p982
F0.2166
F0.0026
F26.7498
F0.0836
F0.1177
F0.0016
g11
(g15
S'\x00\x00\x00\x00\x00\xa0b@'
p983
tp984
Rp985
tp986
a(S'bvert_4MeV_15tilt_135rot_det12.npy'
p987
F0.4894
F0.0045
F26.6772
F0.099
F0.2866
F0.0031
g11
(g15
S'\x00\x00\x00\x00\x00\x00a@'
p988
tp989
Rp990
tp991
a(S'bvert_4MeV_15tilt_135rot_det13.npy'
p992
F0.839
F0.0082
F31.6001
F0.1503
F0.5133
F0.0055
g11
(g15
S'\x00\x00\x00\x00\x00\x80\\@'
p993
tp994
Rp995
tp996
a(S'bvert_4MeV_15tilt_135rot_det14.npy'
p997
F1.271
F0.0111
F41.0514
F0.1966
F0.7992
F0.0078
g11
(g15
S'\x00\x00\x00\x00\x00\x00\\@'
p998
tp999
Rp1000
tp1001
a(S'bvert_4MeV_15tilt_135rot_det15.npy'
p1002
F1.6094
F0.0203
F65.2724
F0.5969
F1.0237
F0.0139
g11
(g15
S'\x00\x00\x00\x00\x00@V@'
p1003
tp1004
Rp1005
tp1006
a(S'bvert_4MeV_15tilt_135rot_det4.npy'
p1007
F1.6372
F0.0146
F61.4219
F0.5755
F1.039
F0.0103
g11
(g15
S'\x00\x00\x00\x00\x00@S@'
p1008
tp1009
Rp1010
tp1011
a(S'bvert_4MeV_15tilt_135rot_det5.npy'
p1012
F1.2279
F0.012
F39.0554
F0.2233
F0.7659
F0.0085
g11
(g15
S'\x00\x00\x00\x00\x00\xc0Z@'
p1013
tp1014
Rp1015
tp1016
a(S'bvert_4MeV_15tilt_135rot_det6.npy'
p1017
F0.8228
F0.0068
F28.8502
F0.1356
F0.499
F0.0046
g11
(g15
S'\x00\x00\x00\x00\x00\xe0a@'
p1018
tp1019
Rp1020
tp1021
a(S'bvert_4MeV_15tilt_135rot_det7.npy'
p1022
F0.4388
F0.0057
F25.6034
F0.1155
F0.2524
F0.0036
g11
(g15
S'\x00\x00\x00\x00\x00\xe0b@'
p1023
tp1024
Rp1025
tp1026
a(S'bvert_4MeV_15tilt_135rot_det8.npy'
p1027
F0.2014
F0.0026
F25.7276
F0.0962
F0.1081
F0.0016
g11
(g15
S'\x00\x00\x00\x00\x00\x80c@'
p1028
tp1029
Rp1030
tp1031
a(S'bvert_4MeV_15tilt_135rot_det9.npy'
p1032
F0.0601
F0.0012
F23.9525
F0.105
F0.029
F0.0007
g11
(g15
S'\x00\x00\x00\x00\x00\xa0`@'
p1033
tp1034
Rp1035
tp1036
a(S'bvert_4MeV_15tilt_15rot_det10.npy'
p1037
F0.0646
F0.0012
F22.0765
F0.0857
F0.0323
F0.0007
g11
(g15
S'\x00\x00\x00\x00\x00@d@'
p1038
tp1039
Rp1040
tp1041
a(S'bvert_4MeV_15tilt_15rot_det11.npy'
p1042
F0.2032
F0.0022
F26.4309
F0.0896
F0.1096
F0.0014
g11
(g15
S'\x00\x00\x00\x00\x00\xe0a@'
p1043
tp1044
Rp1045
tp1046
a(S'bvert_4MeV_15tilt_15rot_det12.npy'
p1047
F0.4256
F0.004
F26.341
F0.0893
F0.2452
F0.0026
g11
(g15
S'\x00\x00\x00\x00\x00\xc0e@'
p1048
tp1049
Rp1050
tp1051
a(S'bvert_4MeV_15tilt_15rot_det13.npy'
p1052
F0.7266
F0.0064
F31.3971
F0.1254
F0.4387
F0.0042
g11
(g15
S'\x00\x00\x00\x00\x00\x00c@'
p1053
tp1054
Rp1055
tp1056
a(S'bvert_4MeV_15tilt_15rot_det14.npy'
p1057
F1.0289
F0.0101
F40.3573
F0.2255
F0.6427
F0.007
g11
(g15
S'\x00\x00\x00\x00\x00\x80^@'
p1058
tp1059
Rp1060
tp1061
a(S'bvert_4MeV_15tilt_15rot_det15.npy'
p1062
F1.3554
F0.0137
F65.6399
F0.6152
F0.8648
F0.0096
g11
(g15
S'\x00\x00\x00\x00\x00\x00W@'
p1063
tp1064
Rp1065
tp1066
a(S'bvert_4MeV_15tilt_15rot_det4.npy'
p1067
F1.5172
F0.0188
F63.2804
F0.521
F0.9739
F0.0136
g11
(g15
S'\x00\x00\x00\x00\x00@T@'
p1068
tp1069
Rp1070
tp1071
a(S'bvert_4MeV_15tilt_15rot_det5.npy'
p1072
F1.29
F0.0123
F39.4765
F0.2519
F0.8141
F0.0088
g11
(g15
S'\x00\x00\x00\x00\x00\x00W@'
p1073
tp1074
Rp1075
tp1076
a(S'bvert_4MeV_15tilt_15rot_det6.npy'
p1077
F0.9116
F0.0075
F29.1855
F0.1412
F0.5538
F0.005
g11
(g15
S'\x00\x00\x00\x00\x00\x80d@'
p1078
tp1079
Rp1080
tp1081
a(S'bvert_4MeV_15tilt_15rot_det7.npy'
p1082
F0.5557
F0.0049
F25.4511
F0.0989
F0.3204
F0.0032
g11
(g15
S'\x00\x00\x00\x00\x00 d@'
p1083
tp1084
Rp1085
tp1086
a(S'bvert_4MeV_15tilt_15rot_det8.npy'
p1087
F0.2655
F0.0028
F25.781
F0.0928
F0.1452
F0.0017
g11
(g15
S'\x00\x00\x00\x00\x00`f@'
p1088
tp1089
Rp1090
tp1091
a(S'bvert_4MeV_15tilt_15rot_det9.npy'
p1092
F0.0834
F0.0014
F23.6701
F0.0872
F0.0426
F0.0008
g11
(g15
S'\x00\x00\x00\x00\x00 c@'
p1093
tp1094
Rp1095
tp1096
a(S'bvert_4MeV_15tilt_25rot_det10.npy'
p1097
F0.0659
F0.0012
F22.0252
F0.0894
F0.0334
F0.0007
g11
(g15
S'\x00\x00\x00\x00\x00\xc0d@'
p1098
tp1099
Rp1100
tp1101
a(S'bvert_4MeV_15tilt_25rot_det11.npy'
p1102
F0.2148
F0.003
F26.5132
F0.0897
F0.1166
F0.0017
g11
(g15
S'\x00\x00\x00\x00\x00@b@'
p1103
tp1104
Rp1105
tp1106
a(S'bvert_4MeV_15tilt_25rot_det12.npy'
p1107
F0.4382
F0.0039
F26.4501
F0.0951
F0.2527
F0.0027
g11
(g15
S'\x00\x00\x00\x00\x00\xa0b@'
p1108
tp1109
Rp1110
tp1111
a(S'bvert_4MeV_15tilt_25rot_det13.npy'
p1112
F0.7285
F0.006
F31.3443
F0.1322
F0.4383
F0.0041
g11
(g15
S'\x00\x00\x00\x00\x00@c@'
p1113
tp1114
Rp1115
tp1116
a(S'bvert_4MeV_15tilt_25rot_det14.npy'
p1117
F1.04
F0.0105
F40.8884
F0.2068
F0.6485
F0.0069
g11
(g15
S'\x00\x00\x00\x00\x00\xe0a@'
p1118
tp1119
Rp1120
tp1121
a(S'bvert_4MeV_15tilt_25rot_det15.npy'
p1122
F1.3121
F0.0122
F64.2633
F0.5832
F0.8323
F0.0088
g11
(g15
S'\x00\x00\x00\x00\x00\x00T@'
p1123
tp1124
Rp1125
tp1126
a(S'bvert_4MeV_15tilt_25rot_det4.npy'
p1127
F1.4604
F0.0158
F63.3079
F0.5809
F0.9368
F0.0115
g11
(g15
S'\x00\x00\x00\x00\x00\x00X@'
p1128
tp1129
Rp1130
tp1131
a(S'bvert_4MeV_15tilt_25rot_det5.npy'
p1132
F1.2196
F0.0104
F39.0986
F0.2201
F0.7712
F0.0074
g11
(g15
S'\x00\x00\x00\x00\x00``@'
p1133
tp1134
Rp1135
tp1136
a(S'bvert_4MeV_15tilt_25rot_det6.npy'
p1137
F0.88
F0.0079
F29.3174
F0.1487
F0.5381
F0.0052
g11
(g15
S'\x00\x00\x00\x00\x00\xe0`@'
p1138
tp1139
Rp1140
tp1141
a(S'bvert_4MeV_15tilt_25rot_det7.npy'
p1142
F0.5331
F0.0051
F25.4954
F0.0946
F0.31
F0.0033
g11
(g15
S'\x00\x00\x00\x00\x00@g@'
p1143
tp1144
Rp1145
tp1146
a(S'bvert_4MeV_15tilt_25rot_det8.npy'
p1147
F0.263
F0.0028
F25.6125
F0.0919
F0.1438
F0.0016
g11
(g15
S'\x00\x00\x00\x00\x00 d@'
p1148
tp1149
Rp1150
tp1151
a(S'bvert_4MeV_15tilt_25rot_det9.npy'
p1152
F0.0853
F0.0014
F23.7558
F0.0971
F0.0439
F0.0008
g11
(g15
S'\x00\x00\x00\x00\x00\xc0b@'
p1153
tp1154
Rp1155
tp1156
a(S'bvert_4MeV_15tilt_315rot_det10.npy'
p1157
F0.0644
F0.0013
F22.326
F0.0874
F0.0314
F0.0007
g11
(g15
S'\x00\x00\x00\x00\x00\x80c@'
p1158
tp1159
Rp1160
tp1161
a(S'bvert_4MeV_15tilt_315rot_det11.npy'
p1162
F0.2168
F0.0029
F26.595
F0.0895
F0.1177
F0.0017
g11
(g15
S'\x00\x00\x00\x00\x00`c@'
p1163
tp1164
Rp1165
tp1166
a(S'bvert_4MeV_15tilt_315rot_det12.npy'
p1167
F0.4846
F0.0051
F26.4031
F0.0966
F0.2824
F0.0032
g11
(g15
S'\x00\x00\x00\x00\x00\x80d@'
p1168
tp1169
Rp1170
tp1171
a(S'bvert_4MeV_15tilt_315rot_det13.npy'
p1172
F0.8665
F0.0076
F31.4887
F0.1264
F0.5316
F0.0052
g11
(g15
S'\x00\x00\x00\x00\x00\xa0`@'
p1173
tp1174
Rp1175
tp1176
a(S'bvert_4MeV_15tilt_315rot_det14.npy'
p1177
F1.2476
F0.0115
F41.2524
F0.2237
F0.7856
F0.0081
g11
(g15
S'\x00\x00\x00\x00\x00\x00]@'
p1178
tp1179
Rp1180
tp1181
a(S'bvert_4MeV_15tilt_315rot_det15.npy'
p1182
F1.6249
F0.0172
F65.6365
F0.595
F1.0374
F0.0122
g11
(g15
S'\x00\x00\x00\x00\x00\x00P@'
p1183
tp1184
Rp1185
tp1186
a(S'bvert_4MeV_15tilt_315rot_det4.npy'
p1187
F1.6195
F0.0179
F64.0685
F0.5322
F1.0272
F0.0124
g11
(g15
S'\x00\x00\x00\x00\x00\x00Y@'
p1188
tp1189
Rp1190
tp1191
a(S'bvert_4MeV_15tilt_315rot_det5.npy'
p1192
F1.2316
F0.0125
F39.2346
F0.2189
F0.7713
F0.0087
g11
(g15
S'\x00\x00\x00\x00\x00`a@'
p1193
tp1194
Rp1195
tp1196
a(S'bvert_4MeV_15tilt_315rot_det6.npy'
p1197
F0.8233
F0.0092
F29.3913
F0.1787
F0.4977
F0.0062
g11
(g15
S'\x00\x00\x00\x00\x00\x80]@'
p1198
tp1199
Rp1200
tp1201
a(S'bvert_4MeV_15tilt_315rot_det7.npy'
p1202
F0.4641
F0.0049
F25.5317
F0.0994
F0.2682
F0.003
g11
(g15
S'\x00\x00\x00\x00\x00\x00e@'
p1203
tp1204
Rp1205
tp1206
a(S'bvert_4MeV_15tilt_315rot_det8.npy'
p1207
F0.2072
F0.0025
F25.8376
F0.1002
F0.111
F0.0016
g11
(g15
S'\x00\x00\x00\x00\x00 c@'
p1208
tp1209
Rp1210
tp1211
a(S'bvert_4MeV_15tilt_315rot_det9.npy'
p1212
F0.0648
F0.0012
F24.0534
F0.0944
F0.0318
F0.0007
g11
(g15
S'\x00\x00\x00\x00\x00\x00e@'
p1213
tp1214
Rp1215
tp1216
a(S'bvert_4MeV_15tilt_335rot_det10.npy'
p1217
F0.0606
F0.0013
F22.307
F0.1026
F0.0291
F0.0007
g11
(g15
S'\x00\x00\x00\x00\x00`a@'
p1218
tp1219
Rp1220
tp1221
a(S'bvert_4MeV_15tilt_335rot_det11.npy'
p1222
F0.2053
F0.0025
F26.3109
F0.0884
F0.1104
F0.0016
g11
(g15
S'\x00\x00\x00\x00\x00`b@'
p1223
tp1224
Rp1225
tp1226
a(S'bvert_4MeV_15tilt_335rot_det12.npy'
p1227
F0.4315
F0.0046
F26.4406
F0.094
F0.248
F0.0029
g11
(g15
S'\x00\x00\x00\x00\x00`c@'
p1228
tp1229
Rp1230
tp1231
a(S'bvert_4MeV_15tilt_335rot_det13.npy'
p1232
F0.7911
F0.0073
F31.2511
F0.1347
F0.4843
F0.0052
g11
(g15
S'\x00\x00\x00\x00\x00`a@'
p1233
tp1234
Rp1235
tp1236
a(S'bvert_4MeV_15tilt_335rot_det14.npy'
p1237
F1.1598
F0.0115
F40.6316
F0.2359
F0.732
F0.0079
g11
(g15
S'\x00\x00\x00\x00\x00@Y@'
p1238
tp1239
Rp1240
tp1241
a(S'bvert_4MeV_15tilt_335rot_det15.npy'
p1242
F1.4787
F0.0203
F65.0028
F0.5518
F0.9499
F0.0142
g11
(g15
S'\x00\x00\x00\x00\x00\x80X@'
p1243
tp1244
Rp1245
tp1246
a(S'bvert_4MeV_15tilt_335rot_det4.npy'
p1247
F1.7156
F0.0171
F63.7058
F0.5774
F1.0782
F0.0122
g11
(g15
S'\x00\x00\x00\x00\x00\x00V@'
p1248
tp1249
Rp1250
tp1251
a(S'bvert_4MeV_15tilt_335rot_det5.npy'
p1252
F1.3122
F0.0118
F39.1393
F0.2271
F0.8055
F0.0078
g11
(g15
S'\x00\x00\x00\x00\x00\x00_@'
p1253
tp1254
Rp1255
tp1256
a(S'bvert_4MeV_15tilt_335rot_det6.npy'
p1257
F0.8943
F0.008
F29.0304
F0.147
F0.5374
F0.0053
g11
(g15
S'\x00\x00\x00\x00\x00@_@'
p1258
tp1259
Rp1260
tp1261
a(S'bvert_4MeV_15tilt_335rot_det7.npy'
p1262
F0.5044
F0.005
F25.3732
F0.1121
F0.2923
F0.0032
g11
(g15
S'\x00\x00\x00\x00\x00 c@'
p1263
tp1264
Rp1265
tp1266
a(S'bvert_4MeV_15tilt_335rot_det8.npy'
p1267
F0.2296
F0.0028
F26.0215
F0.0965
F0.1254
F0.0016
g11
(g15
S'\x00\x00\x00\x00\x00\xa0a@'
p1268
tp1269
Rp1270
tp1271
a(S'bvert_4MeV_15tilt_335rot_det9.npy'
p1272
F0.0704
F0.0012
F23.7291
F0.0883
F0.0355
F0.0007
g11
(g15
S'\x00\x00\x00\x00\x00\xa0a@'
p1273
tp1274
Rp1275
tp1276
a(S'bvert_4MeV_15tilt_345rot_det10.npy'
p1277
F0.0592
F0.0012
F22.1572
F0.1004
F0.0286
F0.0006
g11
(g15
S'\x00\x00\x00\x00\x00\xe0`@'
p1278
tp1279
Rp1280
tp1281
a(S'bvert_4MeV_15tilt_345rot_det11.npy'
p1282
F0.1988
F0.0022
F26.5412
F0.0889
F0.1065
F0.0013
g11
(g15
S'\x00\x00\x00\x00\x00\xa0`@'
p1283
tp1284
Rp1285
tp1286
a(S'bvert_4MeV_15tilt_345rot_det12.npy'
p1287
F0.4284
F0.005
F26.3854
F0.1
F0.2465
F0.0032
g11
(g15
S'\x00\x00\x00\x00\x00@e@'
p1288
tp1289
Rp1290
tp1291
a(S'bvert_4MeV_15tilt_345rot_det13.npy'
p1292
F0.7471
F0.0064
F31.4768
F0.1306
F0.4546
F0.0044
g11
(g15
S'\x00\x00\x00\x00\x00\x80a@'
p1293
tp1294
Rp1295
tp1296
a(S'bvert_4MeV_15tilt_345rot_det14.npy'
p1297
F1.1232
F0.0102
F40.9489
F0.2109
F0.7078
F0.0073
g11
(g15
S'\x00\x00\x00\x00\x00@^@'
p1298
tp1299
Rp1300
tp1301
a(S'bvert_4MeV_15tilt_345rot_det15.npy'
p1302
F1.4527
F0.019
F64.9949
F0.5838
F0.9362
F0.0136
g11
(g15
S'\x00\x00\x00\x00\x00@Y@'
p1303
tp1304
Rp1305
tp1306
a(S'bvert_4MeV_15tilt_345rot_det4.npy'
p1307
F1.6915
F0.0169
F64.0279
F0.6096
F1.0716
F0.0118
g11
(g15
S'\x00\x00\x00\x00\x00\x00O@'
p1308
tp1309
Rp1310
tp1311
a(S'bvert_4MeV_15tilt_345rot_det5.npy'
p1312
F1.3466
F0.0114
F38.6965
F0.2251
F0.8276
F0.0077
g11
(g15
S'\x00\x00\x00\x00\x00\xc0Z@'
p1313
tp1314
Rp1315
tp1316
a(S'bvert_4MeV_15tilt_345rot_det6.npy'
p1317
F0.9235
F0.0079
F29.1821
F0.1421
F0.5537
F0.0052
g11
(g15
S'\x00\x00\x00\x00\x00\x00d@'
p1318
tp1319
Rp1320
tp1321
a(S'bvert_4MeV_15tilt_345rot_det7.npy'
p1322
F0.5296
F0.0058
F25.672
F0.0996
F0.3048
F0.0036
g11
(g15
S'\x00\x00\x00\x00\x00\x80e@'
p1323
tp1324
Rp1325
tp1326
a(S'bvert_4MeV_15tilt_345rot_det8.npy'
p1327
F0.2431
F0.003
F25.8229
F0.0865
F0.1326
F0.0018
g11
(g15
S'\x00\x00\x00\x00\x00\xc0c@'
p1328
tp1329
Rp1330
tp1331
a(S'bvert_4MeV_15tilt_345rot_det9.npy'
p1332
F0.0724
F0.0011
F23.7281
F0.0899
F0.037
F0.0006
g11
(g15
S'\x00\x00\x00\x00\x00\xe0e@'
p1333
tp1334
Rp1335
tp1336
a(S'bvert_4MeV_15tilt_355rot_det10.npy'
p1337
F0.0618
F0.0011
F22.06
F0.0915
F0.0299
F0.0006
g11
(g15
S'\x00\x00\x00\x00\x00\xc0a@'
p1338
tp1339
Rp1340
tp1341
a(S'bvert_4MeV_15tilt_355rot_det11.npy'
p1342
F0.1922
F0.0025
F26.5878
F0.0908
F0.1022
F0.0015
g11
(g15
S'\x00\x00\x00\x00\x00\x00a@'
p1343
tp1344
Rp1345
tp1346
a(S'bvert_4MeV_15tilt_355rot_det12.npy'
p1347
F0.4252
F0.0037
F26.3631
F0.0867
F0.2432
F0.0024
g11
(g15
S'\x00\x00\x00\x00\x00\xe0g@'
p1348
tp1349
Rp1350
tp1351
a(S'bvert_4MeV_15tilt_355rot_det13.npy'
p1352
F0.7559
F0.0058
F31.3413
F0.1285
F0.4567
F0.0039
g11
(g15
S'\x00\x00\x00\x00\x00\x80^@'
p1353
tp1354
Rp1355
tp1356
a(S'bvert_4MeV_15tilt_355rot_det14.npy'
p1357
F1.0566
F0.0121
F40.8926
F0.2262
F0.6646
F0.0085
g11
(g15
S'\x00\x00\x00\x00\x00@\\@'
p1358
tp1359
Rp1360
tp1361
a(S'bvert_4MeV_15tilt_355rot_det15.npy'
p1362
F1.4167
F0.0175
F66.141
F0.6604
F0.9077
F0.0125
g11
(g15
S'\x00\x00\x00\x00\x00\x00R@'
p1363
tp1364
Rp1365
tp1366
a(S'bvert_4MeV_15tilt_355rot_det4.npy'
p1367
F1.6565
F0.0199
F63.7022
F0.5576
F1.0576
F0.0139
g11
(g15
S'\x00\x00\x00\x00\x00@R@'
p1368
tp1369
Rp1370
tp1371
a(S'bvert_4MeV_15tilt_355rot_det5.npy'
p1372
F1.3472
F0.0122
F38.9225
F0.2142
F0.8381
F0.0083
g11
(g15
S'\x00\x00\x00\x00\x00@\\@'
p1373
tp1374
Rp1375
tp1376
a(S'bvert_4MeV_15tilt_355rot_det6.npy'
p1377
F0.929
F0.0086
F28.9859
F0.1608
F0.5556
F0.0055
g11
(g15
S'\x00\x00\x00\x00\x00\xc0a@'
p1378
tp1379
Rp1380
tp1381
a(S'bvert_4MeV_15tilt_355rot_det7.npy'
p1382
F0.5527
F0.0046
F25.496
F0.1024
F0.3186
F0.0031
g11
(g15
S'\x00\x00\x00\x00\x00 d@'
p1383
tp1384
Rp1385
tp1386
a(S'bvert_4MeV_15tilt_355rot_det8.npy'
p1387
F0.2501
F0.0027
F25.7551
F0.0881
F0.1367
F0.0016
g11
(g15
S'\x00\x00\x00\x00\x00 g@'
p1388
tp1389
Rp1390
tp1391
a(S'bvert_4MeV_15tilt_355rot_det9.npy'
p1392
F0.0781
F0.0015
F23.8867
F0.097
F0.0397
F0.0008
g11
(g15
S'\x00\x00\x00\x00\x00\x80b@'
p1393
tp1394
Rp1395
tp1396
a(S'bvert_4MeV_15tilt_35rot_det10.npy'
p1397
F0.0702
F0.0012
F22.1556
F0.0825
F0.0356
F0.0007
g11
(g15
S'\x00\x00\x00\x00\x00\x80e@'
p1398
tp1399
Rp1400
tp1401
a(S'bvert_4MeV_15tilt_35rot_det11.npy'
p1402
F0.2275
F0.0027
F26.3506
F0.0973
F0.1246
F0.0016
g11
(g15
S'\x00\x00\x00\x00\x00@_@'
p1403
tp1404
Rp1405
tp1406
a(S'bvert_4MeV_15tilt_35rot_det12.npy'
p1407
F0.4604
F0.0048
F26.4362
F0.0906
F0.2657
F0.0031
g11
(g15
S'\x00\x00\x00\x00\x00\x00e@'
p1408
tp1409
Rp1410
tp1411
a(S'bvert_4MeV_15tilt_35rot_det13.npy'
p1412
F0.7481
F0.0065
F31.4551
F0.1287
F0.4524
F0.0043
g11
(g15
S'\x00\x00\x00\x00\x00\xa0b@'
p1413
tp1414
Rp1415
tp1416
a(S'bvert_4MeV_15tilt_35rot_det14.npy'
p1417
F1.0593
F0.0094
F41.0256
F0.2367
F0.6615
F0.0066
g11
(g15
S'\x00\x00\x00\x00\x00@\\@'
p1418
tp1419
Rp1420
tp1421
a(S'bvert_4MeV_15tilt_35rot_det15.npy'
p1422
F1.2618
F0.0193
F64.6263
F0.6809
F0.8075
F0.013
g11
(g15
S'\x00\x00\x00\x00\x00\x00V@'
p1423
tp1424
Rp1425
tp1426
a(S'bvert_4MeV_15tilt_35rot_det4.npy'
p1427
F1.4322
F0.014
F64.169
F0.5784
F0.9257
F0.0105
g11
(g15
S'\x00\x00\x00\x00\x00\x80T@'
p1428
tp1429
Rp1430
tp1431
a(S'bvert_4MeV_15tilt_35rot_det5.npy'
p1432
F1.1894
F0.0113
F38.8437
F0.2127
F0.7526
F0.0078
g11
(g15
S'\x00\x00\x00\x00\x00\x80[@'
p1433
tp1434
Rp1435
tp1436
a(S'bvert_4MeV_15tilt_35rot_det6.npy'
p1437
F0.8206
F0.0084
F29.1004
F0.1334
F0.5005
F0.0058
g11
(g15
S'\x00\x00\x00\x00\x00@a@'
p1438
tp1439
Rp1440
tp1441
a(S'bvert_4MeV_15tilt_35rot_det7.npy'
p1442
F0.5187
F0.0055
F25.684
F0.1103
F0.3023
F0.0035
g11
(g15
S'\x00\x00\x00\x00\x00\xe0b@'
p1443
tp1444
Rp1445
tp1446
a(S'bvert_4MeV_15tilt_35rot_det8.npy'
p1447
F0.257
F0.003
F25.7511
F0.0949
F0.1415
F0.0018
g11
(g15
S'\x00\x00\x00\x00\x00@a@'
p1448
tp1449
Rp1450
tp1451
a(S'bvert_4MeV_15tilt_35rot_det9.npy'
p1452
F0.0814
F0.0013
F23.7185
F0.0826
F0.0418
F0.0007
g11
(g15
S'\x00\x00\x00\x00\x00`d@'
p1453
tp1454
Rp1455
tp1456
a(S'bvert_4MeV_15tilt_45rot_det10.npy'
p1457
F0.0754
F0.0013
F21.8313
F0.0902
F0.0385
F0.0007
g11
(g15
S'\x00\x00\x00\x00\x00@c@'
p1458
tp1459
Rp1460
tp1461
a(S'bvert_4MeV_15tilt_45rot_det11.npy'
p1462
F0.2339
F0.0032
F26.5298
F0.0896
F0.1269
F0.0019
g11
(g15
S'\x00\x00\x00\x00\x00@b@'
p1463
tp1464
Rp1465
tp1466
a(S'bvert_4MeV_15tilt_45rot_det12.npy'
p1467
F0.4729
F0.0044
F26.3853
F0.0917
F0.2728
F0.0029
g11
(g15
S'\x00\x00\x00\x00\x00\xe0c@'
p1468
tp1469
Rp1470
tp1471
a(S'bvert_4MeV_15tilt_45rot_det13.npy'
p1472
F0.7951
F0.0065
F31.1269
F0.1159
F0.4833
F0.0043
g11
(g15
S'\x00\x00\x00\x00\x00`c@'
p1473
tp1474
Rp1475
tp1476
a(S'bvert_4MeV_15tilt_45rot_det14.npy'
p1477
F1.0826
F0.0095
F40.4881
F0.1893
F0.6744
F0.0068
g11
(g15
S'\x00\x00\x00\x00\x00\x80a@'
p1478
tp1479
Rp1480
tp1481
a(S'bvert_4MeV_15tilt_45rot_det15.npy'
p1482
F1.3717
F0.0128
F64.8193
F0.638
F0.8765
F0.0091
g11
(g15
S'\x00\x00\x00\x00\x00\x00Q@'
p1483
tp1484
Rp1485
tp1486
a(S'bvert_4MeV_15tilt_45rot_det4.npy'
p1487
F1.3921
F0.0152
F63.3251
F0.6203
F0.8939
F0.011
g11
(g15
S'\x00\x00\x00\x00\x00\x00U@'
p1488
tp1489
Rp1490
tp1491
a(S'bvert_4MeV_15tilt_45rot_det5.npy'
p1492
F1.1441
F0.0102
F39.1579
F0.2181
F0.7201
F0.007
g11
(g15
S'\x00\x00\x00\x00\x00\xc0[@'
p1493
tp1494
Rp1495
tp1496
a(S'bvert_4MeV_15tilt_45rot_det6.npy'
p1497
F0.8199
F0.0059
F29.3718
F0.1442
F0.5012
F0.0041
g11
(g15
S'\x00\x00\x00\x00\x00\x00b@'
p1498
tp1499
Rp1500
tp1501
a(S'bvert_4MeV_15tilt_45rot_det7.npy'
p1502
F0.5039
F0.0048
F25.6204
F0.1116
F0.2946
F0.003
g11
(g15
S'\x00\x00\x00\x00\x00@b@'
p1503
tp1504
Rp1505
tp1506
a(S'bvert_4MeV_15tilt_45rot_det8.npy'
p1507
F0.2444
F0.0029
F25.6983
F0.0865
F0.1341
F0.0018
g11
(g15
S'\x00\x00\x00\x00\x00\xe0c@'
p1508
tp1509
Rp1510
tp1511
a(S'bvert_4MeV_15tilt_45rot_det9.npy'
p1512
F0.0814
F0.0013
F23.6973
F0.0913
F0.0418
F0.0007
g11
(g15
S'\x00\x00\x00\x00\x00\x80e@'
p1513
tp1514
Rp1515
tp1516
a(S'bvert_4MeV_15tilt_55rot_det10.npy'
p1517
F0.079
F0.0012
F22.0013
F0.0954
F0.0405
F0.0007
g11
(g15
S'\x00\x00\x00\x00\x00\x80d@'
p1518
tp1519
Rp1520
tp1521
a(S'bvert_4MeV_15tilt_55rot_det11.npy'
p1522
F0.2397
F0.003
F26.4599
F0.0927
F0.1305
F0.0018
g11
(g15
S'\x00\x00\x00\x00\x00\xa0a@'
p1523
tp1524
Rp1525
tp1526
a(S'bvert_4MeV_15tilt_55rot_det12.npy'
p1527
F0.5065
F0.0045
F26.4794
F0.1083
F0.2937
F0.0029
g11
(g15
S'\x00\x00\x00\x00\x00\xa0a@'
p1528
tp1529
Rp1530
tp1531
a(S'bvert_4MeV_15tilt_55rot_det13.npy'
p1532
F0.8122
F0.0074
F31.655
F0.1237
F0.4919
F0.0049
g11
(g15
S'\x00\x00\x00\x00\x00 b@'
p1533
tp1534
Rp1535
tp1536
a(S'bvert_4MeV_15tilt_55rot_det14.npy'
p1537
F1.1393
F0.0124
F40.9519
F0.219
F0.7123
F0.0084
g11
(g15
S'\x00\x00\x00\x00\x00\x80[@'
p1538
tp1539
Rp1540
tp1541
a(S'bvert_4MeV_15tilt_55rot_det15.npy'
p1542
F1.3557
F0.0202
F64.2318
F0.6389
F0.8623
F0.0139
g11
(g15
S'\x00\x00\x00\x00\x00\x00T@'
p1543
tp1544
Rp1545
tp1546
a(S'bvert_4MeV_15tilt_55rot_det4.npy'
p1547
F1.3412
F0.0134
F62.5479
F0.5127
F0.8584
F0.0097
g11
(g15
S'\x00\x00\x00\x00\x00@X@'
p1548
tp1549
Rp1550
tp1551
a(S'bvert_4MeV_15tilt_55rot_det5.npy'
p1552
F1.0908
F0.0093
F39.3171
F0.2056
F0.6858
F0.0067
g11
(g15
S'\x00\x00\x00\x00\x00\xc0]@'
p1553
tp1554
Rp1555
tp1556
a(S'bvert_4MeV_15tilt_55rot_det6.npy'
p1557
F0.7777
F0.007
F29.4274
F0.1406
F0.4755
F0.0047
g11
(g15
S'\x00\x00\x00\x00\x00`b@'
p1558
tp1559
Rp1560
tp1561
a(S'bvert_4MeV_15tilt_55rot_det7.npy'
p1562
F0.4742
F0.0047
F25.6989
F0.0999
F0.2767
F0.003
g11
(g15
S'\x00\x00\x00\x00\x00\x00e@'
p1563
tp1564
Rp1565
tp1566
a(S'bvert_4MeV_15tilt_55rot_det8.npy'
p1567
F0.237
F0.0027
F25.8395
F0.0861
F0.1309
F0.0016
g11
(g15
S'\x00\x00\x00\x00\x00\x80e@'
p1568
tp1569
Rp1570
tp1571
a(S'bvert_4MeV_15tilt_55rot_det9.npy'
p1572
F0.0792
F0.0015
F23.985
F0.106
F0.0407
F0.0008
g11
(g15
S'\x00\x00\x00\x00\x00\x00a@'
p1573
tp1574
Rp1575
tp1576
a(S'bvert_4MeV_15tilt_5rot_det10.npy'
p1577
F0.0611
F0.0012
F22.0039
F0.0941
F0.0298
F0.0006
g11
(g15
S'\x00\x00\x00\x00\x00\xa0b@'
p1578
tp1579
Rp1580
tp1581
a(S'bvert_4MeV_15tilt_5rot_det11.npy'
p1582
F0.1935
F0.0022
F26.3884
F0.0869
F0.1037
F0.0013
g11
(g15
S'\x00\x00\x00\x00\x00 c@'
p1583
tp1584
Rp1585
tp1586
a(S'bvert_4MeV_15tilt_5rot_det12.npy'
p1587
F0.4302
F0.0042
F26.4364
F0.0905
F0.2455
F0.0028
g11
(g15
S'\x00\x00\x00\x00\x00`d@'
p1588
tp1589
Rp1590
tp1591
a(S'bvert_4MeV_15tilt_5rot_det13.npy'
p1592
F0.7283
F0.0056
F31.3413
F0.1378
F0.4389
F0.0039
g11
(g15
S'\x00\x00\x00\x00\x00`a@'
p1593
tp1594
Rp1595
tp1596
a(S'bvert_4MeV_15tilt_5rot_det14.npy'
p1597
F1.0648
F0.0101
F40.9608
F0.2149
F0.6681
F0.0072
g11
(g15
S'\x00\x00\x00\x00\x00\xc0\\@'
p1598
tp1599
Rp1600
tp1601
a(S'bvert_4MeV_15tilt_5rot_det15.npy'
p1602
F1.379
F0.0203
F64.3083
F0.632
F0.8821
F0.0148
g11
(g15
S'\x00\x00\x00\x00\x00\xc0T@'
p1603
tp1604
Rp1605
tp1606
a(S'bvert_4MeV_15tilt_5rot_det4.npy'
p1607
F1.5821
F0.0184
F63.8846
F0.6724
F1.0138
F0.0129
g11
(g15
S'\x00\x00\x00\x00\x00@R@'
p1608
tp1609
Rp1610
tp1611
a(S'bvert_4MeV_15tilt_5rot_det5.npy'
p1612
F1.2992
F0.0113
F38.8313
F0.2404
F0.8107
F0.0081
g11
(g15
S'\x00\x00\x00\x00\x00\x00`@'
p1613
tp1614
Rp1615
tp1616
a(S'bvert_4MeV_15tilt_5rot_det6.npy'
p1617
F0.9301
F0.007
F29.3939
F0.1327
F0.5576
F0.0047
g11
(g15
S'\x00\x00\x00\x00\x00\xc0f@'
p1618
tp1619
Rp1620
tp1621
a(S'bvert_4MeV_15tilt_5rot_det7.npy'
p1622
F0.5607
F0.006
F25.6092
F0.1115
F0.3244
F0.0042
g11
(g15
S'\x00\x00\x00\x00\x00`d@'
p1623
tp1624
Rp1625
tp1626
a(S'bvert_4MeV_15tilt_5rot_det8.npy'
p1627
F0.2601
F0.0033
F25.6576
F0.0879
F0.1419
F0.0019
g11
(g15
S'\x00\x00\x00\x00\x00\xa0c@'
p1628
tp1629
Rp1630
tp1631
a(S'bvert_4MeV_15tilt_5rot_det9.npy'
p1632
F0.0796
F0.0018
F23.6957
F0.0955
F0.0408
F0.001
g11
(g15
S'\x00\x00\x00\x00\x00\x80c@'
p1633
tp1634
Rp1635
tp1636
a(S'bvert_4MeV_15tilt_75rot_det10.npy'
p1637
F0.0807
F0.0013
F22.0304
F0.0986
F0.0412
F0.0007
g11
(g15
S'\x00\x00\x00\x00\x00 c@'
p1638
tp1639
Rp1640
tp1641
a(S'bvert_4MeV_15tilt_75rot_det11.npy'
p1642
F0.2597
F0.003
F26.2778
F0.0949
F0.1409
F0.0018
g11
(g15
S'\x00\x00\x00\x00\x00\xc0a@'
p1643
tp1644
Rp1645
tp1646
a(S'bvert_4MeV_15tilt_75rot_det12.npy'
p1647
F0.5386
F0.0051
F26.3561
F0.0932
F0.3087
F0.0032
g11
(g15
S'\x00\x00\x00\x00\x00\xa0b@'
p1648
tp1649
Rp1650
tp1651
a(S'bvert_4MeV_15tilt_75rot_det13.npy'
p1652
F0.8694
F0.0081
F31.3707
F0.1325
F0.5233
F0.0054
g11
(g15
S'\x00\x00\x00\x00\x00\x00^@'
p1653
tp1654
Rp1655
tp1656
a(S'bvert_4MeV_15tilt_75rot_det14.npy'
p1657
F1.2377
F0.0129
F40.5325
F0.2368
F0.7758
F0.0092
g11
(g15
S'\x00\x00\x00\x00\x00\x80Z@'
p1658
tp1659
Rp1660
tp1661
a(S'bvert_4MeV_15tilt_75rot_det15.npy'
p1662
F1.4698
F0.0191
F64.3207
F0.633
F0.9373
F0.0133
g11
(g15
S'\x00\x00\x00\x00\x00@S@'
p1663
tp1664
Rp1665
tp1666
a(S'bvert_4MeV_15tilt_75rot_det4.npy'
p1667
F1.3331
F0.015
F63.3474
F0.5741
F0.8543
F0.0107
g11
(g15
S'\x00\x00\x00\x00\x00\x00W@'
p1668
tp1669
Rp1670
tp1671
a(S'bvert_4MeV_15tilt_75rot_det5.npy'
p1672
F1.0496
F0.0128
F39.1133
F0.235
F0.6569
F0.0089
g11
(g15
S'\x00\x00\x00\x00\x00\x80Y@'
p1673
tp1674
Rp1675
tp1676
a(S'bvert_4MeV_15tilt_75rot_det6.npy'
p1677
F0.7217
F0.0069
F29.0062
F0.1559
F0.4363
F0.0046
g11
(g15
S'\x00\x00\x00\x00\x00@\\@'
p1678
tp1679
Rp1680
tp1681
a(S'bvert_4MeV_15tilt_75rot_det7.npy'
p1682
F0.4451
F0.0053
F25.7326
F0.1205
F0.2577
F0.0034
g11
(g15
S'\x00\x00\x00\x00\x00 b@'
p1683
tp1684
Rp1685
tp1686
a(S'bvert_4MeV_15tilt_75rot_det8.npy'
p1687
F0.2152
F0.0027
F25.7248
F0.0985
F0.1159
F0.0017
g11
(g15
S'\x00\x00\x00\x00\x00``@'
p1688
tp1689
Rp1690
tp1691
a(S'bvert_4MeV_15tilt_75rot_det9.npy'
p1692
F0.0708
F0.0012
F23.8236
F0.09
F0.0359
F0.0007
g11
(g15
S'\x00\x00\x00\x00\x00@c@'
p1693
tp1694
Rp1695
tp1696
a(S'bvert_4MeV_15tilt_95rot_det10.npy'
p1697
F0.0752
F0.0015
F22.1732
F0.0936
F0.0387
F0.0008
g11
(g15
S'\x00\x00\x00\x00\x00\xc0b@'
p1698
tp1699
Rp1700
tp1701
a(S'bvert_4MeV_15tilt_95rot_det11.npy'
p1702
F0.2597
F0.0034
F26.4196
F0.0913
F0.1428
F0.0019
g11
(g15
S'\x00\x00\x00\x00\x00\x80`@'
p1703
tp1704
Rp1705
tp1706
a(S'bvert_4MeV_15tilt_95rot_det12.npy'
p1707
F0.5518
F0.0051
F26.4897
F0.0994
F0.3186
F0.0032
g11
(g15
S'\x00\x00\x00\x00\x00@c@'
p1708
tp1709
Rp1710
tp1711
a(S'bvert_4MeV_15tilt_95rot_det13.npy'
p1712
F0.9282
F0.008
F31.1718
F0.1243
F0.5543
F0.0053
g11
(g15
S'\x00\x00\x00\x00\x00\xa0`@'
p1713
tp1714
Rp1715
tp1716
a(S'bvert_4MeV_15tilt_95rot_det14.npy'
p1717
F1.3068
F0.0116
F40.8696
F0.2204
F0.8045
F0.0081
g11
(g15
S'\x00\x00\x00\x00\x00@_@'
p1718
tp1719
Rp1720
tp1721
a(S'bvert_4MeV_15tilt_95rot_det15.npy'
p1722
F1.606
F0.0192
F64.3255
F0.6036
F1.0088
F0.0131
g11
(g15
S'\x00\x00\x00\x00\x00\x80U@'
p1723
tp1724
Rp1725
tp1726
a(S'bvert_4MeV_15tilt_95rot_det4.npy'
p1727
F1.3641
F0.0185
F63.4201
F0.6531
F0.8707
F0.0133
g11
(g15
S'\x00\x00\x00\x00\x00@V@'
p1728
tp1729
Rp1730
tp1731
a(S'bvert_4MeV_15tilt_95rot_det5.npy'
p1732
F1.0627
F0.0124
F39.0084
F0.2511
F0.6648
F0.0087
g11
(g15
S'\x00\x00\x00\x00\x00@U@'
p1733
tp1734
Rp1735
tp1736
a(S'bvert_4MeV_15tilt_95rot_det6.npy'
p1737
F0.7167
F0.0066
F29.0312
F0.1356
F0.4306
F0.0044
g11
(g15
S'\x00\x00\x00\x00\x00@c@'
p1738
tp1739
Rp1740
tp1741
a(S'bvert_4MeV_15tilt_95rot_det7.npy'
p1742
F0.4296
F0.004
F25.5112
F0.1079
F0.2467
F0.0026
g11
(g15
S'\x00\x00\x00\x00\x00\xe0b@'
p1743
tp1744
Rp1745
tp1746
a(S'bvert_4MeV_15tilt_95rot_det8.npy'
p1747
F0.1971
F0.0029
F26.0306
F0.0966
F0.1057
F0.0017
g11
(g15
S'\x00\x00\x00\x00\x00\x80`@'
p1748
tp1749
Rp1750
tp1751
a(S'bvert_4MeV_15tilt_95rot_det9.npy'
p1752
F0.064
F0.0012
F24.0558
F0.0921
F0.0317
F0.0006
g11
(g15
S'\x00\x00\x00\x00\x00`c@'
p1753
tp1754
Rp1755
tp1756
a(S'bvert_4MeV_30tilt_115rot_det10.npy'
p1757
F0.0721
F0.0012
F22.1581
F0.0909
F0.0358
F0.0007
g11
(g15
S'\x00\x00\x00\x00\x00\xa0b@'
p1758
tp1759
Rp1760
tp1761
a(S'bvert_4MeV_30tilt_115rot_det11.npy'
p1762
F0.2446
F0.0026
F26.6512
F0.0828
F0.1327
F0.0016
g11
(g15
S'\x00\x00\x00\x00\x00 f@'
p1763
tp1764
Rp1765
tp1766
a(S'bvert_4MeV_30tilt_115rot_det12.npy'
p1767
F0.5354
F0.0052
F26.5188
F0.0899
F0.3121
F0.0037
g11
(g15
S'\x00\x00\x00\x00\x00\x00e@'
p1768
tp1769
Rp1770
tp1771
a(S'bvert_4MeV_30tilt_115rot_det13.npy'
p1772
F0.9171
F0.0077
F31.5536
F0.1184
F0.5555
F0.0052
g11
(g15
S'\x00\x00\x00\x00\x00 c@'
p1773
tp1774
Rp1775
tp1776
a(S'bvert_4MeV_30tilt_115rot_det14.npy'
p1777
F1.3167
F0.0107
F41.4681
F0.2115
F0.8164
F0.0074
g11
(g15
S'\x00\x00\x00\x00\x00\xc0`@'
p1778
tp1779
Rp1780
tp1781
a(S'bvert_4MeV_30tilt_115rot_det15.npy'
p1782
F1.6949
F0.0176
F64.842
F0.5506
F1.0644
F0.012
g11
(g15
S'\x00\x00\x00\x00\x00@W@'
p1783
tp1784
Rp1785
tp1786
a(S'bvert_4MeV_30tilt_115rot_det4.npy'
p1787
F1.5217
F0.015
F61.712
F0.5767
F0.9734
F0.0104
g11
(g15
S'\x00\x00\x00\x00\x00\x00X@'
p1788
tp1789
Rp1790
tp1791
a(S'bvert_4MeV_30tilt_115rot_det5.npy'
p1792
F1.1538
F0.0118
F38.9745
F0.2491
F0.7237
F0.0083
g11
(g15
S'\x00\x00\x00\x00\x00\xc0Y@'
p1793
tp1794
Rp1795
tp1796
a(S'bvert_4MeV_30tilt_115rot_det6.npy'
p1797
F0.7645
F0.0078
F29.129
F0.1283
F0.4605
F0.0052
g11
(g15
S'\x00\x00\x00\x00\x00@e@'
p1798
tp1799
Rp1800
tp1801
a(S'bvert_4MeV_30tilt_115rot_det7.npy'
p1802
F0.4419
F0.0044
F25.4174
F0.0954
F0.2535
F0.0029
g11
(g15
S'\x00\x00\x00\x00\x00@f@'
p1803
tp1804
Rp1805
tp1806
a(S'bvert_4MeV_30tilt_115rot_det8.npy'
p1807
F0.2007
F0.0025
F25.8098
F0.0909
F0.1062
F0.0015
g11
(g15
S'\x00\x00\x00\x00\x00@e@'
p1808
tp1809
Rp1810
tp1811
a(S'bvert_4MeV_30tilt_115rot_det9.npy'
p1812
F0.0612
F0.0011
F23.8237
F0.0924
F0.0286
F0.0006
g11
(g15
S'\x00\x00\x00\x00\x00@f@'
p1813
tp1814
Rp1815
tp1816
a(S'bvert_4MeV_30tilt_135rot_det10.npy'
p1817
F0.0714
F0.0012
F22.3666
F0.0856
F0.0343
F0.0006
g11
(g15
S'\x00\x00\x00\x00\x00\xa0e@'
p1818
tp1819
Rp1820
tp1821
a(S'bvert_4MeV_30tilt_135rot_det11.npy'
p1822
F0.2352
F0.0026
F26.6409
F0.088
F0.1271
F0.0016
g11
(g15
S'\x00\x00\x00\x00\x00\x00c@'
p1823
tp1824
Rp1825
tp1826
a(S'bvert_4MeV_30tilt_135rot_det12.npy'
p1827
F0.5031
F0.0047
F26.5958
F0.0884
F0.2927
F0.0032
g11
(g15
S'\x00\x00\x00\x00\x00\x00e@'
p1828
tp1829
Rp1830
tp1831
a(S'bvert_4MeV_30tilt_135rot_det13.npy'
p1832
F0.8734
F0.0076
F31.6619
F0.1164
F0.5311
F0.005
g11
(g15
S'\x00\x00\x00\x00\x00@c@'
p1833
tp1834
Rp1835
tp1836
a(S'bvert_4MeV_30tilt_135rot_det14.npy'
p1837
F1.2614
F0.0132
F41.3647
F0.231
F0.7855
F0.0091
g11
(g15
S'\x00\x00\x00\x00\x00\xc0\\@'
p1838
tp1839
Rp1840
tp1841
a(S'bvert_4MeV_30tilt_135rot_det15.npy'
p1842
F1.6416
F0.0174
F65.9322
F0.6313
F1.0417
F0.0127
g11
(g15
S'\x00\x00\x00\x00\x00\x80O@'
p1843
tp1844
Rp1845
tp1846
a(S'bvert_4MeV_30tilt_135rot_det4.npy'
p1847
F1.5527
F0.0237
F61.8156
F0.5004
F0.9813
F0.0157
g11
(g15
S'\x00\x00\x00\x00\x00\xc0Z@'
p1848
tp1849
Rp1850
tp1851
a(S'bvert_4MeV_30tilt_135rot_det5.npy'
p1852
F1.2429
F0.0105
F38.3541
F0.2149
F0.7742
F0.0072
g11
(g15
S'\x00\x00\x00\x00\x00 `@'
p1853
tp1854
Rp1855
tp1856
a(S'bvert_4MeV_30tilt_135rot_det6.npy'
p1857
F0.8236
F0.0086
F29.053
F0.1538
F0.4967
F0.0058
g11
(g15
S'\x00\x00\x00\x00\x00\x80b@'
p1858
tp1859
Rp1860
tp1861
a(S'bvert_4MeV_30tilt_135rot_det7.npy'
p1862
F0.462
F0.0042
F25.3409
F0.0934
F0.2642
F0.0026
g11
(g15
S'\x00\x00\x00\x00\x00\x00h@'
p1863
tp1864
Rp1865
tp1866
a(S'bvert_4MeV_30tilt_135rot_det8.npy'
p1867
F0.2093
F0.0026
F25.6425
F0.0916
F0.1129
F0.0016
g11
(g15
S'\x00\x00\x00\x00\x00\x80c@'
p1868
tp1869
Rp1870
tp1871
a(S'bvert_4MeV_30tilt_135rot_det9.npy'
p1872
F0.0603
F0.0013
F23.6973
F0.09
F0.0285
F0.0007
g11
(g15
S'\x00\x00\x00\x00\x00`d@'
p1873
tp1874
Rp1875
tp1876
a(S'bvert_4MeV_30tilt_15rot_det10.npy'
p1877
F0.0659
F0.0012
F22.1375
F0.1075
F0.0313
F0.0006
g11
(g15
S'\x00\x00\x00\x00\x00@_@'
p1878
tp1879
Rp1880
tp1881
a(S'bvert_4MeV_30tilt_15rot_det11.npy'
p1882
F0.2121
F0.0027
F26.6255
F0.0788
F0.1132
F0.0016
g11
(g15
S'\x00\x00\x00\x00\x00@e@'
p1883
tp1884
Rp1885
tp1886
a(S'bvert_4MeV_30tilt_15rot_det12.npy'
p1887
F0.4442
F0.0043
F26.3139
F0.0934
F0.2518
F0.0028
g11
(g15
S'\x00\x00\x00\x00\x00\xc0a@'
p1888
tp1889
Rp1890
tp1891
a(S'bvert_4MeV_30tilt_15rot_det13.npy'
p1892
F0.7629
F0.0062
F31.3571
F0.1186
F0.4589
F0.0042
g11
(g15
S'\x00\x00\x00\x00\x00\x80a@'
p1893
tp1894
Rp1895
tp1896
a(S'bvert_4MeV_30tilt_15rot_det14.npy'
p1897
F1.1014
F0.0119
F40.4943
F0.2247
F0.6859
F0.0085
g11
(g15
S'\x00\x00\x00\x00\x00\x80X@'
p1898
tp1899
Rp1900
tp1901
a(S'bvert_4MeV_30tilt_15rot_det15.npy'
p1902
F1.4078
F0.0161
F64.7304
F0.5873
F0.9046
F0.0113
g11
(g15
S'\x00\x00\x00\x00\x00\x00T@'
p1903
tp1904
Rp1905
tp1906
a(S'bvert_4MeV_30tilt_15rot_det4.npy'
p1907
F1.5442
F0.0176
F63.9692
F0.6587
F0.9913
F0.0128
g11
(g15
S'\x00\x00\x00\x00\x00\x00O@'
p1908
tp1909
Rp1910
tp1911
a(S'bvert_4MeV_30tilt_15rot_det5.npy'
p1912
F1.2648
F0.0103
F39.2357
F0.2214
F0.7945
F0.0072
g11
(g15
S'\x00\x00\x00\x00\x00\xc0^@'
p1913
tp1914
Rp1915
tp1916
a(S'bvert_4MeV_30tilt_15rot_det6.npy'
p1917
F0.9188
F0.0073
F29.4201
F0.1525
F0.5547
F0.0048
g11
(g15
S'\x00\x00\x00\x00\x00@a@'
p1918
tp1919
Rp1920
tp1921
a(S'bvert_4MeV_30tilt_15rot_det7.npy'
p1922
F0.5563
F0.0056
F25.6078
F0.1228
F0.3195
F0.0036
g11
(g15
S'\x00\x00\x00\x00\x00\x00_@'
p1923
tp1924
Rp1925
tp1926
a(S'bvert_4MeV_30tilt_15rot_det8.npy'
p1927
F0.262
F0.0037
F25.7057
F0.114
F0.1426
F0.0023
g11
(g15
S'\x00\x00\x00\x00\x00\x00\\@'
p1928
tp1929
Rp1930
tp1931
a(S'bvert_4MeV_30tilt_15rot_det9.npy'
p1932
F0.0804
F0.0021
F23.7097
F0.1097
F0.0406
F0.0011
g11
(g15
S'\x00\x00\x00\x00\x00 `@'
p1933
tp1934
Rp1935
tp1936
a(S'bvert_4MeV_30tilt_25rot_det10.npy'
p1937
F0.0692
F0.0013
F22.1583
F0.1021
F0.0337
F0.0007
g11
(g15
S'\x00\x00\x00\x00\x00\x00a@'
p1938
tp1939
Rp1940
tp1941
a(S'bvert_4MeV_30tilt_25rot_det11.npy'
p1942
F0.2182
F0.0031
F26.4822
F0.0878
F0.1172
F0.0018
g11
(g15
S'\x00\x00\x00\x00\x00@`@'
p1943
tp1944
Rp1945
tp1946
a(S'bvert_4MeV_30tilt_25rot_det12.npy'
p1947
F0.4563
F0.0048
F26.4423
F0.0924
F0.2604
F0.0031
g11
(g15
S'\x00\x00\x00\x00\x00@b@'
p1948
tp1949
Rp1950
tp1951
a(S'bvert_4MeV_30tilt_25rot_det13.npy'
p1952
F0.7629
F0.0063
F31.3321
F0.1279
F0.4601
F0.0042
g11
(g15
S'\x00\x00\x00\x00\x00\x80b@'
p1953
tp1954
Rp1955
tp1956
a(S'bvert_4MeV_30tilt_25rot_det14.npy'
p1957
F1.0983
F0.0107
F40.7958
F0.214
F0.6843
F0.0074
g11
(g15
S'\x00\x00\x00\x00\x00\xc0[@'
p1958
tp1959
Rp1960
tp1961
a(S'bvert_4MeV_30tilt_25rot_det15.npy'
p1962
F1.3515
F0.0195
F64.6509
F0.5443
F0.8598
F0.0133
g11
(g15
S'\x00\x00\x00\x00\x00\x00V@'
p1963
tp1964
Rp1965
tp1966
a(S'bvert_4MeV_30tilt_25rot_det4.npy'
p1967
F1.5202
F0.0159
F63.4276
F0.6314
F0.9779
F0.0115
g11
(g15
S'\x00\x00\x00\x00\x00@S@'
p1968
tp1969
Rp1970
tp1971
a(S'bvert_4MeV_30tilt_25rot_det5.npy'
p1972
F1.2186
F0.0144
F39.4598
F0.2457
F0.7718
F0.0102
g11
(g15
S'\x00\x00\x00\x00\x00\x00[@'
p1973
tp1974
Rp1975
tp1976
a(S'bvert_4MeV_30tilt_25rot_det6.npy'
p1977
F0.876
F0.0078
F29.044
F0.1396
F0.5324
F0.0053
g11
(g15
S'\x00\x00\x00\x00\x00\x00`@'
p1978
tp1979
Rp1980
tp1981
a(S'bvert_4MeV_30tilt_25rot_det7.npy'
p1982
F0.5397
F0.0051
F25.5594
F0.103
F0.312
F0.0034
g11
(g15
S'\x00\x00\x00\x00\x00\x00c@'
p1983
tp1984
Rp1985
tp1986
a(S'bvert_4MeV_30tilt_25rot_det8.npy'
p1987
F0.2569
F0.0031
F25.6792
F0.0946
F0.1386
F0.0018
g11
(g15
S'\x00\x00\x00\x00\x00\x80c@'
p1988
tp1989
Rp1990
tp1991
a(S'bvert_4MeV_30tilt_25rot_det9.npy'
p1992
F0.082
F0.0016
F23.8405
F0.0916
F0.0412
F0.0009
g11
(g15
S'\x00\x00\x00\x00\x00`a@'
p1993
tp1994
Rp1995
tp1996
a(S'bvert_4MeV_30tilt_315rot_det10.npy'
p1997
F0.0647
F0.0014
F22.1053
F0.0956
F0.0304
F0.0008
g11
(g15
S'\x00\x00\x00\x00\x00 b@'
p1998
tp1999
Rp2000
tp2001
a(S'bvert_4MeV_30tilt_315rot_det11.npy'
p2002
F0.217
F0.0029
F26.432
F0.0887
F0.1159
F0.0017
g11
(g15
S'\x00\x00\x00\x00\x00`c@'
p2003
tp2004
Rp2005
tp2006
a(S'bvert_4MeV_30tilt_315rot_det12.npy'
p2007
F0.4849
F0.0047
F26.2676
F0.0966
F0.2814
F0.0031
g11
(g15
S'\x00\x00\x00\x00\x00\xa0c@'
p2008
tp2009
Rp2010
tp2011
a(S'bvert_4MeV_30tilt_315rot_det13.npy'
p2012
F0.885
F0.0066
F31.3446
F0.1219
F0.5399
F0.0045
g11
(g15
S'\x00\x00\x00\x00\x00`a@'
p2013
tp2014
Rp2015
tp2016
a(S'bvert_4MeV_30tilt_315rot_det14.npy'
p2017
F1.2765
F0.0118
F40.9065
F0.218
F0.8011
F0.0084
g11
(g15
S'\x00\x00\x00\x00\x00\x00^@'
p2018
tp2019
Rp2020
tp2021
a(S'bvert_4MeV_30tilt_315rot_det15.npy'
p2022
F1.6733
F0.0166
F65.6792
F0.5169
F1.0613
F0.0116
g11
(g15
S'\x00\x00\x00\x00\x00\xc0T@'
p2023
tp2024
Rp2025
tp2026
a(S'bvert_4MeV_30tilt_315rot_det4.npy'
p2027
F1.6342
F0.0195
F63.9928
F0.6498
F1.0327
F0.0136
g11
(g15
S'\x00\x00\x00\x00\x00\xc0S@'
p2028
tp2029
Rp2030
tp2031
a(S'bvert_4MeV_30tilt_315rot_det5.npy'
p2032
F1.246
F0.0128
F39.2303
F0.2067
F0.778
F0.0087
g11
(g15
S'\x00\x00\x00\x00\x00\xc0X@'
p2033
tp2034
Rp2035
tp2036
a(S'bvert_4MeV_30tilt_315rot_det6.npy'
p2037
F0.8489
F0.0079
F29.2018
F0.154
F0.5145
F0.0053
g11
(g15
S'\x00\x00\x00\x00\x00\x00]@'
p2038
tp2039
Rp2040
tp2041
a(S'bvert_4MeV_30tilt_315rot_det7.npy'
p2042
F0.4845
F0.005
F25.7083
F0.1078
F0.2789
F0.0032
g11
(g15
S'\x00\x00\x00\x00\x00\xc0c@'
p2043
tp2044
Rp2045
tp2046
a(S'bvert_4MeV_30tilt_315rot_det8.npy'
p2047
F0.228
F0.0035
F25.8164
F0.0988
F0.1232
F0.0021
g11
(g15
S'\x00\x00\x00\x00\x00\x80`@'
p2048
tp2049
Rp2050
tp2051
a(S'bvert_4MeV_30tilt_315rot_det9.npy'
p2052
F0.0667
F0.0011
F23.6967
F0.0999
F0.0313
F0.0006
g11
(g15
S'\x00\x00\x00\x00\x00\xe0a@'
p2053
tp2054
Rp2055
tp2056
a(S'bvert_4MeV_30tilt_335rot_det10.npy'
p2057
F0.0634
F0.0013
F22.2851
F0.1057
F0.0292
F0.0007
g11
(g15
S'\x00\x00\x00\x00\x00\xc0Z@'
p2058
tp2059
Rp2060
tp2061
a(S'bvert_4MeV_30tilt_335rot_det11.npy'
p2062
F0.2056
F0.0028
F26.338
F0.0974
F0.1101
F0.0017
g11
(g15
S'\x00\x00\x00\x00\x00\x00_@'
p2063
tp2064
Rp2065
tp2066
a(S'bvert_4MeV_30tilt_335rot_det12.npy'
p2067
F0.4642
F0.0044
F26.4951
F0.1041
F0.2684
F0.0029
g11
(g15
S'\x00\x00\x00\x00\x00\x80_@'
p2068
tp2069
Rp2070
tp2071
a(S'bvert_4MeV_30tilt_335rot_det13.npy'
p2072
F0.7987
F0.0077
F31.2658
F0.1533
F0.4885
F0.0056
g11
(g15
S'\x00\x00\x00\x00\x00\x00_@'
p2073
tp2074
Rp2075
tp2076
a(S'bvert_4MeV_30tilt_335rot_det14.npy'
p2077
F1.1914
F0.0118
F40.7848
F0.2036
F0.7474
F0.0082
g11
(g15
S'\x00\x00\x00\x00\x00\x80[@'
p2078
tp2079
Rp2080
tp2081
a(S'bvert_4MeV_30tilt_335rot_det15.npy'
p2082
F1.5553
F0.0206
F64.1816
F0.6653
F0.999
F0.0151
g11
(g15
S'\x00\x00\x00\x00\x00\xc0R@'
p2083
tp2084
Rp2085
tp2086
a(S'bvert_4MeV_30tilt_335rot_det4.npy'
p2087
F1.6527
F0.0278
F63.5707
F0.6552
F1.0386
F0.0186
g11
(g15
S'\x00\x00\x00\x00\x00\x00N@'
p2088
tp2089
Rp2090
tp2091
a(S'bvert_4MeV_30tilt_335rot_det5.npy'
p2092
F1.319
F0.0133
F38.9039
F0.2659
F0.8107
F0.0092
g11
(g15
S'\x00\x00\x00\x00\x00@T@'
p2093
tp2094
Rp2095
tp2096
a(S'bvert_4MeV_30tilt_335rot_det6.npy'
p2097
F0.9025
F0.0094
F29.1899
F0.1437
F0.5416
F0.0061
g11
(g15
S'\x00\x00\x00\x00\x00\xc0_@'
p2098
tp2099
Rp2100
tp2101
a(S'bvert_4MeV_30tilt_335rot_det7.npy'
p2102
F0.5285
F0.0056
F25.7281
F0.1217
F0.3048
F0.0036
g11
(g15
S'\x00\x00\x00\x00\x00\xc0_@'
p2103
tp2104
Rp2105
tp2106
a(S'bvert_4MeV_30tilt_335rot_det8.npy'
p2107
F0.2315
F0.003
F25.8087
F0.097
F0.1248
F0.0018
g11
(g15
S'\x00\x00\x00\x00\x00\x00a@'
p2108
tp2109
Rp2110
tp2111
a(S'bvert_4MeV_30tilt_335rot_det9.npy'
p2112
F0.0695
F0.0014
F23.6916
F0.102
F0.0338
F0.0007
g11
(g15
S'\x00\x00\x00\x00\x00@\\@'
p2113
tp2114
Rp2115
tp2116
a(S'bvert_4MeV_30tilt_345rot_det10.npy'
p2117
F0.0622
F0.0008
F22.221
F0.1065
F0.0297
F0.0005
g11
(g15
S'\x00\x00\x00\x00\x00\xc0\\@'
p2118
tp2119
Rp2120
tp2121
a(S'bvert_4MeV_30tilt_345rot_det11.npy'
p2122
F0.2035
F0.0025
F26.4374
F0.1057
F0.1073
F0.0014
g11
(g15
S'\x00\x00\x00\x00\x00\xe0`@'
p2123
tp2124
Rp2125
tp2126
a(S'bvert_4MeV_30tilt_345rot_det12.npy'
p2127
F0.453
F0.0044
F26.3033
F0.096
F0.2601
F0.0029
g11
(g15
S'\x00\x00\x00\x00\x00\x80_@'
p2128
tp2129
Rp2130
tp2131
a(S'bvert_4MeV_30tilt_345rot_det13.npy'
p2132
F0.7952
F0.007
F31.0629
F0.143
F0.4836
F0.0047
g11
(g15
S'\x00\x00\x00\x00\x00\xc0]@'
p2133
tp2134
Rp2135
tp2136
a(S'bvert_4MeV_30tilt_345rot_det14.npy'
p2137
F1.1536
F0.0119
F40.8997
F0.2373
F0.7264
F0.0082
g11
(g15
S'\x00\x00\x00\x00\x00``@'
p2138
tp2139
Rp2140
tp2141
a(S'bvert_4MeV_30tilt_345rot_det15.npy'
p2142
F1.5304
F0.018
F65.0329
F0.6155
F0.981
F0.0125
g11
(g15
S'\x00\x00\x00\x00\x00\x80R@'
p2143
tp2144
Rp2145
tp2146
a(S'bvert_4MeV_30tilt_345rot_det4.npy'
p2147
F1.6952
F0.0172
F62.9818
F0.5513
F1.0665
F0.0119
g11
(g15
S'\x00\x00\x00\x00\x00\x00U@'
p2148
tp2149
Rp2150
tp2151
a(S'bvert_4MeV_30tilt_345rot_det5.npy'
p2152
F1.3508
F0.0139
F38.8287
F0.2495
F0.835
F0.0096
g11
(g15
S'\x00\x00\x00\x00\x00\xc0X@'
p2153
tp2154
Rp2155
tp2156
a(S'bvert_4MeV_30tilt_345rot_det6.npy'
p2157
F0.9377
F0.0096
F29.2914
F0.1551
F0.5602
F0.0062
g11
(g15
S'\x00\x00\x00\x00\x00``@'
p2158
tp2159
Rp2160
tp2161
a(S'bvert_4MeV_30tilt_345rot_det7.npy'
p2162
F0.5388
F0.0056
F25.6104
F0.0995
F0.3104
F0.0035
g11
(g15
S'\x00\x00\x00\x00\x00\x00e@'
p2163
tp2164
Rp2165
tp2166
a(S'bvert_4MeV_30tilt_345rot_det8.npy'
p2167
F0.247
F0.0028
F25.6167
F0.0909
F0.1336
F0.0016
g11
(g15
S'\x00\x00\x00\x00\x00@b@'
p2168
tp2169
Rp2170
tp2171
a(S'bvert_4MeV_30tilt_345rot_det9.npy'
p2172
F0.0744
F0.0015
F23.9554
F0.0972
F0.037
F0.0008
g11
(g15
S'\x00\x00\x00\x00\x00@c@'
p2173
tp2174
Rp2175
tp2176
a(S'bvert_4MeV_30tilt_355rot_det10.npy'
p2177
F0.0598
F0.0011
F22.0187
F0.0879
F0.0279
F0.0006
g11
(g15
S'\x00\x00\x00\x00\x00\xa0`@'
p2178
tp2179
Rp2180
tp2181
a(S'bvert_4MeV_30tilt_355rot_det11.npy'
p2182
F0.1967
F0.0025
F26.5345
F0.0873
F0.1044
F0.0016
g11
(g15
S'\x00\x00\x00\x00\x00@b@'
p2183
tp2184
Rp2185
tp2186
a(S'bvert_4MeV_30tilt_355rot_det12.npy'
p2187
F0.4445
F0.0041
F26.2998
F0.0951
F0.2544
F0.0027
g11
(g15
S'\x00\x00\x00\x00\x00 b@'
p2188
tp2189
Rp2190
tp2191
a(S'bvert_4MeV_30tilt_355rot_det13.npy'
p2192
F0.7934
F0.0064
F31.028
F0.152
F0.4809
F0.0044
g11
(g15
S'\x00\x00\x00\x00\x00\x80Z@'
p2193
tp2194
Rp2195
tp2196
a(S'bvert_4MeV_30tilt_355rot_det14.npy'
p2197
F1.1275
F0.0104
F40.9685
F0.2325
F0.7073
F0.0073
g11
(g15
S'\x00\x00\x00\x00\x00\xc0[@'
p2198
tp2199
Rp2200
tp2201
a(S'bvert_4MeV_30tilt_355rot_det15.npy'
p2202
F1.4746
F0.0145
F64.1891
F0.6299
F0.9417
F0.0101
g11
(g15
S'\x00\x00\x00\x00\x00@T@'
p2203
tp2204
Rp2205
tp2206
a(S'bvert_4MeV_30tilt_355rot_det4.npy'
p2207
F1.616
F0.0206
F62.888
F0.5721
F1.027
F0.0158
g11
(g15
S'\x00\x00\x00\x00\x00\x80U@'
p2208
tp2209
Rp2210
tp2211
a(S'bvert_4MeV_30tilt_355rot_det5.npy'
p2212
F1.3116
F0.0137
F39.1017
F0.2091
F0.8118
F0.0093
g11
(g15
S'\x00\x00\x00\x00\x00\xc0[@'
p2213
tp2214
Rp2215
tp2216
a(S'bvert_4MeV_30tilt_355rot_det6.npy'
p2217
F0.9168
F0.01
F29.2345
F0.164
F0.5445
F0.0066
g11
(g15
S'\x00\x00\x00\x00\x00@a@'
p2218
tp2219
Rp2220
tp2221
a(S'bvert_4MeV_30tilt_355rot_det7.npy'
p2222
F0.5456
F0.0054
F25.734
F0.1198
F0.3109
F0.0034
g11
(g15
S'\x00\x00\x00\x00\x00 b@'
p2223
tp2224
Rp2225
tp2226
a(S'bvert_4MeV_30tilt_355rot_det8.npy'
p2227
F0.249
F0.0043
F25.7722
F0.0894
F0.1361
F0.0026
g11
(g15
S'\x00\x00\x00\x00\x00@a@'
p2228
tp2229
Rp2230
tp2231
a(S'bvert_4MeV_30tilt_355rot_det9.npy'
p2232
F0.0763
F0.0016
F23.5993
F0.0948
F0.0376
F0.0009
g11
(g15
S'\x00\x00\x00\x00\x00@a@'
p2233
tp2234
Rp2235
tp2236
a(S'bvert_4MeV_30tilt_35rot_det10.npy'
p2237
F0.0738
F0.0014
F22.1126
F0.1159
F0.0368
F0.0007
g11
(g15
S'\x00\x00\x00\x00\x00\x80]@'
p2238
tp2239
Rp2240
tp2241
a(S'bvert_4MeV_30tilt_35rot_det11.npy'
p2242
F0.2256
F0.003
F26.4842
F0.0941
F0.1213
F0.0018
g11
(g15
S'\x00\x00\x00\x00\x00\x00\\@'
p2243
tp2244
Rp2245
tp2246
a(S'bvert_4MeV_30tilt_35rot_det12.npy'
p2247
F0.4639
F0.0044
F26.5246
F0.1005
F0.2654
F0.0027
g11
(g15
S'\x00\x00\x00\x00\x00`b@'
p2248
tp2249
Rp2250
tp2251
a(S'bvert_4MeV_30tilt_35rot_det13.npy'
p2252
F0.7681
F0.0073
F31.3653
F0.1373
F0.4645
F0.0049
g11
(g15
S'\x00\x00\x00\x00\x00@_@'
p2253
tp2254
Rp2255
tp2256
a(S'bvert_4MeV_30tilt_35rot_det14.npy'
p2257
F1.0907
F0.0105
F40.5316
F0.2487
F0.6824
F0.0072
g11
(g15
S'\x00\x00\x00\x00\x00@[@'
p2258
tp2259
Rp2260
tp2261
a(S'bvert_4MeV_30tilt_35rot_det15.npy'
p2262
F1.3304
F0.0209
F64.9875
F0.6602
F0.8506
F0.0151
g11
(g15
S'\x00\x00\x00\x00\x00@S@'
p2263
tp2264
Rp2265
tp2266
a(S'bvert_4MeV_30tilt_35rot_det4.npy'
p2267
F1.4428
F0.0184
F63.4979
F0.6768
F0.921
F0.013
g11
(g15
S'\x00\x00\x00\x00\x00\x00T@'
p2268
tp2269
Rp2270
tp2271
a(S'bvert_4MeV_30tilt_35rot_det5.npy'
p2272
F1.1954
F0.0112
F38.7916
F0.2583
F0.7532
F0.0079
g11
(g15
S'\x00\x00\x00\x00\x00\x00Z@'
p2273
tp2274
Rp2275
tp2276
a(S'bvert_4MeV_30tilt_35rot_det6.npy'
p2277
F0.8602
F0.0075
F29.2272
F0.157
F0.523
F0.0053
g11
(g15
S'\x00\x00\x00\x00\x00\x80^@'
p2278
tp2279
Rp2280
tp2281
a(S'bvert_4MeV_30tilt_35rot_det7.npy'
p2282
F0.5232
F0.0055
F25.5409
F0.1325
F0.3026
F0.0037
g11
(g15
S'\x00\x00\x00\x00\x00\x80\\@'
p2283
tp2284
Rp2285
tp2286
a(S'bvert_4MeV_30tilt_35rot_det8.npy'
p2287
F0.2477
F0.0035
F25.8279
F0.0974
F0.1349
F0.0021
g11
(g15
S'\x00\x00\x00\x00\x00\xe0a@'
p2288
tp2289
Rp2290
tp2291
a(S'bvert_4MeV_30tilt_35rot_det9.npy'
p2292
F0.08
F0.0014
F23.7113
F0.1017
F0.0396
F0.0008
g11
(g15
S'\x00\x00\x00\x00\x00\xc0a@'
p2293
tp2294
Rp2295
tp2296
a(S'bvert_4MeV_30tilt_45rot_det10.npy'
p2297
F0.0747
F0.0014
F22.1823
F0.0962
F0.0376
F0.0008
g11
(g15
S'\x00\x00\x00\x00\x00`a@'
p2298
tp2299
Rp2300
tp2301
a(S'bvert_4MeV_30tilt_45rot_det11.npy'
p2302
F0.2323
F0.0028
F26.4805
F0.0979
F0.1247
F0.0017
g11
(g15
S'\x00\x00\x00\x00\x00@a@'
p2303
tp2304
Rp2305
tp2306
a(S'bvert_4MeV_30tilt_45rot_det12.npy'
p2307
F0.4913
F0.0055
F26.6259
F0.1048
F0.2826
F0.0036
g11
(g15
S'\x00\x00\x00\x00\x00@^@'
p2308
tp2309
Rp2310
tp2311
a(S'bvert_4MeV_30tilt_45rot_det13.npy'
p2312
F0.8268
F0.0057
F31.3438
F0.1392
F0.5003
F0.004
g11
(g15
S'\x00\x00\x00\x00\x00\x00]@'
p2313
tp2314
Rp2315
tp2316
a(S'bvert_4MeV_30tilt_45rot_det14.npy'
p2317
F1.1148
F0.0128
F40.9614
F0.2318
F0.6993
F0.0089
g11
(g15
S'\x00\x00\x00\x00\x00\x00Y@'
p2318
tp2319
Rp2320
tp2321
a(S'bvert_4MeV_30tilt_45rot_det15.npy'
p2322
F1.447
F0.0143
F63.4072
F0.5573
F0.9275
F0.0106
g11
(g15
S'\x00\x00\x00\x00\x00\x00M@'
p2323
tp2324
Rp2325
tp2326
a(S'bvert_4MeV_30tilt_45rot_det4.npy'
p2327
F1.4368
F0.0156
F62.7554
F0.6672
F0.9242
F0.0111
g11
(g15
S'\x00\x00\x00\x00\x00\xc0P@'
p2328
tp2329
Rp2330
tp2331
a(S'bvert_4MeV_30tilt_45rot_det5.npy'
p2332
F1.1602
F0.0115
F38.898
F0.2548
F0.7304
F0.008
g11
(g15
S'\x00\x00\x00\x00\x00\x00Y@'
p2333
tp2334
Rp2335
tp2336
a(S'bvert_4MeV_30tilt_45rot_det6.npy'
p2337
F0.823
F0.007
F29.2454
F0.1548
F0.501
F0.0047
g11
(g15
S'\x00\x00\x00\x00\x00\x80`@'
p2338
tp2339
Rp2340
tp2341
a(S'bvert_4MeV_30tilt_45rot_det7.npy'
p2342
F0.5112
F0.0045
F25.5777
F0.0992
F0.2967
F0.0029
g11
(g15
S'\x00\x00\x00\x00\x00@c@'
p2343
tp2344
Rp2345
tp2346
a(S'bvert_4MeV_30tilt_45rot_det8.npy'
p2347
F0.2503
F0.0035
F25.7998
F0.1101
F0.1361
F0.0021
g11
(g15
S'\x00\x00\x00\x00\x00@[@'
p2348
tp2349
Rp2350
tp2351
a(S'bvert_4MeV_30tilt_45rot_det9.npy'
p2352
F0.0771
F0.0016
F23.8101
F0.1027
F0.0386
F0.0009
g11
(g15
S'\x00\x00\x00\x00\x00``@'
p2353
tp2354
Rp2355
tp2356
a(S'bvert_4MeV_30tilt_55rot_det10.npy'
p2357
F0.0767
F0.0015
F21.9605
F0.0894
F0.0385
F0.0008
g11
(g15
S'\x00\x00\x00\x00\x00\xe0a@'
p2358
tp2359
Rp2360
tp2361
a(S'bvert_4MeV_30tilt_55rot_det11.npy'
p2362
F0.2431
F0.0031
F26.5887
F0.1
F0.1324
F0.002
g11
(g15
S'\x00\x00\x00\x00\x00@^@'
p2363
tp2364
Rp2365
tp2366
a(S'bvert_4MeV_30tilt_55rot_det12.npy'
p2367
F0.5122
F0.0048
F26.3953
F0.1029
F0.295
F0.0032
g11
(g15
S'\x00\x00\x00\x00\x00\x00a@'
p2368
tp2369
Rp2370
tp2371
a(S'bvert_4MeV_30tilt_55rot_det13.npy'
p2372
F0.82
F0.0074
F31.3007
F0.1491
F0.4948
F0.005
g11
(g15
S'\x00\x00\x00\x00\x00\x00_@'
p2373
tp2374
Rp2375
tp2376
a(S'bvert_4MeV_30tilt_55rot_det14.npy'
p2377
F1.1505
F0.0137
F41.2595
F0.2531
F0.7154
F0.009
g11
(g15
S'\x00\x00\x00\x00\x00\x80V@'
p2378
tp2379
Rp2380
tp2381
a(S'bvert_4MeV_30tilt_55rot_det15.npy'
p2382
F1.4564
F0.0185
F64.402
F0.6492
F0.933
F0.013
g11
(g15
S'\x00\x00\x00\x00\x00\x80K@'
p2383
tp2384
Rp2385
tp2386
a(S'bvert_4MeV_30tilt_55rot_det4.npy'
p2387
F1.4203
F0.0191
F63.9769
F0.7202
F0.9112
F0.0132
g11
(g15
S'\x00\x00\x00\x00\x00\x00M@'
p2388
tp2389
Rp2390
tp2391
a(S'bvert_4MeV_30tilt_55rot_det5.npy'
p2392
F1.133
F0.011
F38.8261
F0.2297
F0.7121
F0.0079
g11
(g15
S'\x00\x00\x00\x00\x00\xc0X@'
p2393
tp2394
Rp2395
tp2396
a(S'bvert_4MeV_30tilt_55rot_det6.npy'
p2397
F0.7931
F0.0074
F29.252
F0.1564
F0.4813
F0.0049
g11
(g15
S'\x00\x00\x00\x00\x00\xa0`@'
p2398
tp2399
Rp2400
tp2401
a(S'bvert_4MeV_30tilt_55rot_det7.npy'
p2402
F0.4845
F0.005
F25.4548
F0.1191
F0.2817
F0.0032
g11
(g15
S'\x00\x00\x00\x00\x00\xc0_@'
p2403
tp2404
Rp2405
tp2406
a(S'bvert_4MeV_30tilt_55rot_det8.npy'
p2407
F0.2338
F0.0028
F25.8453
F0.0964
F0.1275
F0.0017
g11
(g15
S'\x00\x00\x00\x00\x00@`@'
p2408
tp2409
Rp2410
tp2411
a(S'bvert_4MeV_30tilt_55rot_det9.npy'
p2412
F0.074
F0.0015
F23.8041
F0.1057
F0.0371
F0.0008
g11
(g15
S'\x00\x00\x00\x00\x00\x00`@'
p2413
tp2414
Rp2415
tp2416
a(S'bvert_4MeV_30tilt_5rot_det10.npy'
p2417
F0.0629
F0.0012
F22.0734
F0.1051
F0.0296
F0.0007
g11
(g15
S'\x00\x00\x00\x00\x00\x80`@'
p2418
tp2419
Rp2420
tp2421
a(S'bvert_4MeV_30tilt_5rot_det11.npy'
p2422
F0.2052
F0.0027
F26.4924
F0.1003
F0.1096
F0.0016
g11
(g15
S'\x00\x00\x00\x00\x00@_@'
p2423
tp2424
Rp2425
tp2426
a(S'bvert_4MeV_30tilt_5rot_det12.npy'
p2427
F0.4427
F0.0047
F26.5765
F0.0881
F0.2514
F0.003
g11
(g15
S'\x00\x00\x00\x00\x00\x00c@'
p2428
tp2429
Rp2430
tp2431
a(S'bvert_4MeV_30tilt_5rot_det13.npy'
p2432
F0.7639
F0.0071
F31.4363
F0.1181
F0.4607
F0.0049
g11
(g15
S'\x00\x00\x00\x00\x00\xa0a@'
p2433
tp2434
Rp2435
tp2436
a(S'bvert_4MeV_30tilt_5rot_det14.npy'
p2437
F1.1215
F0.0108
F40.6527
F0.2241
F0.7035
F0.0073
g11
(g15
S'\x00\x00\x00\x00\x00\x00_@'
p2438
tp2439
Rp2440
tp2441
a(S'bvert_4MeV_30tilt_5rot_det15.npy'
p2442
F1.417
F0.0181
F64.4078
F0.7048
F0.9117
F0.0129
g11
(g15
S'\x00\x00\x00\x00\x00\x80Q@'
p2443
tp2444
Rp2445
tp2446
a(S'bvert_4MeV_30tilt_5rot_det4.npy'
p2447
F1.5914
F0.0208
F63.3873
F0.617
F1.0114
F0.0148
g11
(g15
S'\x00\x00\x00\x00\x00\x00R@'
p2448
tp2449
Rp2450
tp2451
a(S'bvert_4MeV_30tilt_5rot_det5.npy'
p2452
F1.3127
F0.014
F39.154
F0.246
F0.8135
F0.0095
g11
(g15
S'\x00\x00\x00\x00\x00\xc0T@'
p2453
tp2454
Rp2455
tp2456
a(S'bvert_4MeV_30tilt_5rot_det6.npy'
p2457
F0.955
F0.0083
F28.9461
F0.1405
F0.5765
F0.0055
g11
(g15
S'\x00\x00\x00\x00\x00\x00_@'
p2458
tp2459
Rp2460
tp2461
a(S'bvert_4MeV_30tilt_5rot_det7.npy'
p2462
F0.5469
F0.0056
F25.8354
F0.1043
F0.3114
F0.0036
g11
(g15
S'\x00\x00\x00\x00\x00\xa0a@'
p2463
tp2464
Rp2465
tp2466
a(S'bvert_4MeV_30tilt_5rot_det8.npy'
p2467
F0.2543
F0.0035
F25.8323
F0.0891
F0.1378
F0.002
g11
(g15
S'\x00\x00\x00\x00\x00\x80]@'
p2468
tp2469
Rp2470
tp2471
a(S'bvert_4MeV_30tilt_5rot_det9.npy'
p2472
F0.0786
F0.0015
F23.8451
F0.099
F0.0391
F0.0008
g11
(g15
S'\x00\x00\x00\x00\x00\xa0a@'
p2473
tp2474
Rp2475
tp2476
a(S'bvert_4MeV_30tilt_75rot_det10.npy'
p2477
F0.0782
F0.0013
F22.2443
F0.0796
F0.0391
F0.0007
g11
(g15
S'\x00\x00\x00\x00\x00 b@'
p2478
tp2479
Rp2480
tp2481
a(S'bvert_4MeV_30tilt_75rot_det11.npy'
p2482
F0.2542
F0.0031
F26.4318
F0.0918
F0.1376
F0.0019
g11
(g15
S'\x00\x00\x00\x00\x00\xc0b@'
p2483
tp2484
Rp2485
tp2486
a(S'bvert_4MeV_30tilt_75rot_det12.npy'
p2487
F0.5515
F0.0046
F26.304
F0.0929
F0.3154
F0.003
g11
(g15
S'\x00\x00\x00\x00\x00@b@'
p2488
tp2489
Rp2490
tp2491
a(S'bvert_4MeV_30tilt_75rot_det13.npy'
p2492
F0.8856
F0.0085
F31.5422
F0.139
F0.5313
F0.0056
g11
(g15
S'\x00\x00\x00\x00\x00@`@'
p2493
tp2494
Rp2495
tp2496
a(S'bvert_4MeV_30tilt_75rot_det14.npy'
p2497
F1.2231
F0.0125
F41.3063
F0.2483
F0.7605
F0.0088
g11
(g15
S'\x00\x00\x00\x00\x00\x00Y@'
p2498
tp2499
Rp2500
tp2501
a(S'bvert_4MeV_30tilt_75rot_det15.npy'
p2502
F1.5057
F0.0164
F64.3219
F0.5457
F0.9595
F0.0118
g11
(g15
S'\x00\x00\x00\x00\x00@S@'
p2503
tp2504
Rp2505
tp2506
a(S'bvert_4MeV_30tilt_75rot_det4.npy'
p2507
F1.3613
F0.0176
F62.9827
F0.5395
F0.8722
F0.012
g11
(g15
S'\x00\x00\x00\x00\x00@R@'
p2508
tp2509
Rp2510
tp2511
a(S'bvert_4MeV_30tilt_75rot_det5.npy'
p2512
F1.0843
F0.0124
F38.8874
F0.2397
F0.6815
F0.0086
g11
(g15
S'\x00\x00\x00\x00\x00\x00\\@'
p2513
tp2514
Rp2515
tp2516
a(S'bvert_4MeV_30tilt_75rot_det6.npy'
p2517
F0.7572
F0.0072
F29.0434
F0.147
F0.4565
F0.0047
g11
(g15
S'\x00\x00\x00\x00\x00@a@'
p2518
tp2519
Rp2520
tp2521
a(S'bvert_4MeV_30tilt_75rot_det7.npy'
p2522
F0.4546
F0.0043
F25.72
F0.1132
F0.2613
F0.0026
g11
(g15
S'\x00\x00\x00\x00\x00@c@'
p2523
tp2524
Rp2525
tp2526
a(S'bvert_4MeV_30tilt_75rot_det8.npy'
p2527
F0.2113
F0.003
F25.8193
F0.0947
F0.1131
F0.0018
g11
(g15
S'\x00\x00\x00\x00\x00\xa0a@'
p2528
tp2529
Rp2530
tp2531
a(S'bvert_4MeV_30tilt_75rot_det9.npy'
p2532
F0.0705
F0.0013
F23.854
F0.1023
F0.0344
F0.0007
g11
(g15
S'\x00\x00\x00\x00\x00``@'
p2533
tp2534
Rp2535
tp2536
a(S'bvert_4MeV_30tilt_95rot_det10.npy'
p2537
F0.0752
F0.0015
F22.2547
F0.0997
F0.0375
F0.0008
g11
(g15
S'\x00\x00\x00\x00\x00\xc0a@'
p2538
tp2539
Rp2540
tp2541
a(S'bvert_4MeV_30tilt_95rot_det11.npy'
p2542
F0.2529
F0.0032
F26.406
F0.0974
F0.1378
F0.0019
g11
(g15
S'\x00\x00\x00\x00\x00\xc0a@'
p2543
tp2544
Rp2545
tp2546
a(S'bvert_4MeV_30tilt_95rot_det12.npy'
p2547
F0.553
F0.0046
F26.4204
F0.0879
F0.3181
F0.0031
g11
(g15
S'\x00\x00\x00\x00\x00@d@'
p2548
tp2549
Rp2550
tp2551
a(S'bvert_4MeV_30tilt_95rot_det13.npy'
p2552
F0.9395
F0.0075
F31.722
F0.1439
F0.5628
F0.0053
g11
(g15
S'\x00\x00\x00\x00\x00@]@'
p2553
tp2554
Rp2555
tp2556
a(S'bvert_4MeV_30tilt_95rot_det14.npy'
p2557
F1.3216
F0.0142
F41.15
F0.251
F0.8132
F0.0098
g11
(g15
S'\x00\x00\x00\x00\x00\xc0Z@'
p2558
tp2559
Rp2560
tp2561
a(S'bvert_4MeV_30tilt_95rot_det15.npy'
p2562
F1.6161
F0.0203
F63.5907
F0.6257
F1.0243
F0.0138
g11
(g15
S'\x00\x00\x00\x00\x00\x80Q@'
p2563
tp2564
Rp2565
tp2566
a(S'bvert_4MeV_30tilt_95rot_det4.npy'
p2567
F1.3629
F0.0279
F62.6855
F0.6439
F0.8688
F0.0197
g11
(g15
S'\x00\x00\x00\x00\x00\x00T@'
p2568
tp2569
Rp2570
tp2571
a(S'bvert_4MeV_30tilt_95rot_det5.npy'
p2572
F1.0821
F0.0102
F38.9879
F0.2364
F0.6728
F0.0071
g11
(g15
S'\x00\x00\x00\x00\x00\xc0_@'
p2573
tp2574
Rp2575
tp2576
a(S'bvert_4MeV_30tilt_95rot_det6.npy'
p2577
F0.7401
F0.0077
F29.2672
F0.1451
F0.4439
F0.0051
g11
(g15
S'\x00\x00\x00\x00\x00\xa0b@'
p2578
tp2579
Rp2580
tp2581
a(S'bvert_4MeV_30tilt_95rot_det7.npy'
p2582
F0.443
F0.0051
F25.4987
F0.108
F0.2539
F0.0033
g11
(g15
S'\x00\x00\x00\x00\x00@c@'
p2583
tp2584
Rp2585
tp2586
a(S'bvert_4MeV_30tilt_95rot_det8.npy'
p2587
F0.2042
F0.0026
F25.7453
F0.1
F0.1094
F0.0015
g11
(g15
S'\x00\x00\x00\x00\x00`d@'
p2588
tp2589
Rp2590
tp2591
a(S'bvert_4MeV_30tilt_95rot_det9.npy'
p2592
F0.0639
F0.0013
F23.8597
F0.1069
F0.0307
F0.0007
g11
(g15
S'\x00\x00\x00\x00\x00`b@'
p2593
tp2594
Rp2595
tp2596
a(S'bvert_4MeV_45tilt_115rot_det10.npy'
p2597
F0.0798
F0.0012
F22.3021
F0.0946
F0.0397
F0.0007
g11
(g15
S'\x00\x00\x00\x00\x00\xa0b@'
p2598
tp2599
Rp2600
tp2601
a(S'bvert_4MeV_45tilt_115rot_det11.npy'
p2602
F0.2477
F0.003
F26.7677
F0.0824
F0.1347
F0.0019
g11
(g15
S'\x00\x00\x00\x00\x00 b@'
p2603
tp2604
Rp2605
tp2606
a(S'bvert_4MeV_45tilt_115rot_det12.npy'
p2607
F0.5404
F0.0054
F26.6508
F0.0911
F0.3136
F0.0034
g11
(g15
S'\x00\x00\x00\x00\x00`c@'
p2608
tp2609
Rp2610
tp2611
a(S'bvert_4MeV_45tilt_115rot_det13.npy'
p2612
F0.9227
F0.0069
F31.775
F0.1386
F0.556
F0.0047
g11
(g15
S'\x00\x00\x00\x00\x00@a@'
p2613
tp2614
Rp2615
tp2616
a(S'bvert_4MeV_45tilt_115rot_det14.npy'
p2617
F1.3293
F0.0134
F41.193
F0.2297
F0.8271
F0.0092
g11
(g15
S'\x00\x00\x00\x00\x00\xc0\\@'
p2618
tp2619
Rp2620
tp2621
a(S'bvert_4MeV_45tilt_115rot_det15.npy'
p2622
F1.6594
F0.0253
F65.7529
F0.6383
F1.0464
F0.0167
g11
(g15
S'\x00\x00\x00\x00\x00\x00V@'
p2623
tp2624
Rp2625
tp2626
a(S'bvert_4MeV_45tilt_115rot_det4.npy'
p2627
F1.5763
F0.0146
F61.347
F0.5267
F1.0042
F0.0102
g11
(g15
S'\x00\x00\x00\x00\x00\x00U@'
p2628
tp2629
Rp2630
tp2631
a(S'bvert_4MeV_45tilt_115rot_det5.npy'
p2632
F1.1999
F0.011
F38.4652
F0.1966
F0.7476
F0.0075
g11
(g15
S'\x00\x00\x00\x00\x00\xc0^@'
p2633
tp2634
Rp2635
tp2636
a(S'bvert_4MeV_45tilt_115rot_det6.npy'
p2637
F0.7849
F0.0089
F28.9627
F0.1278
F0.4721
F0.0058
g11
(g15
S'\x00\x00\x00\x00\x00@g@'
p2638
tp2639
Rp2640
tp2641
a(S'bvert_4MeV_45tilt_115rot_det7.npy'
p2642
F0.4638
F0.0046
F25.3479
F0.0871
F0.2657
F0.0029
g11
(g15
S'\x00\x00\x00\x00\x00\xc0f@'
p2643
tp2644
Rp2645
tp2646
a(S'bvert_4MeV_45tilt_115rot_det8.npy'
p2647
F0.2157
F0.0027
F25.6155
F0.0878
F0.115
F0.0016
g11
(g15
S'\x00\x00\x00\x00\x00\x80d@'
p2648
tp2649
Rp2650
tp2651
a(S'bvert_4MeV_45tilt_115rot_det9.npy'
p2652
F0.0651
F0.0014
F23.7447
F0.0915
F0.0312
F0.0008
g11
(g15
S'\x00\x00\x00\x00\x00\xa0c@'
p2653
tp2654
Rp2655
tp2656
a(S'bvert_4MeV_45tilt_135rot_det10.npy'
p2657
F0.0763
F0.0016
F22.4736
F0.0873
F0.0375
F0.0009
g11
(g15
S'\x00\x00\x00\x00\x00\xc0b@'
p2658
tp2659
Rp2660
tp2661
a(S'bvert_4MeV_45tilt_135rot_det11.npy'
p2662
F0.2477
F0.003
F26.6714
F0.085
F0.134
F0.0017
g11
(g15
S'\x00\x00\x00\x00\x00\xa0a@'
p2663
tp2664
Rp2665
tp2666
a(S'bvert_4MeV_45tilt_135rot_det12.npy'
p2667
F0.5291
F0.0048
F26.6498
F0.0813
F0.3085
F0.0035
g11
(g15
S'\x00\x00\x00\x00\x00@d@'
p2668
tp2669
Rp2670
tp2671
a(S'bvert_4MeV_45tilt_135rot_det13.npy'
p2672
F0.8906
F0.0085
F31.68
F0.1138
F0.5427
F0.0057
g11
(g15
S'\x00\x00\x00\x00\x00@a@'
p2673
tp2674
Rp2675
tp2676
a(S'bvert_4MeV_45tilt_135rot_det14.npy'
p2677
F1.2935
F0.0107
F41.3384
F0.2281
F0.81
F0.0074
g11
(g15
S'\x00\x00\x00\x00\x00\x80^@'
p2678
tp2679
Rp2680
tp2681
a(S'bvert_4MeV_45tilt_135rot_det15.npy'
p2682
F1.6552
F0.0233
F65.9974
F0.6261
F1.0477
F0.0162
g11
(g15
S'\x00\x00\x00\x00\x00\xc0R@'
p2683
tp2684
Rp2685
tp2686
a(S'bvert_4MeV_45tilt_135rot_det4.npy'
p2687
F1.5912
F0.0218
F62.1632
F0.616
F0.9996
F0.0151
g11
(g15
S'\x00\x00\x00\x00\x00\xc0S@'
p2688
tp2689
Rp2690
tp2691
a(S'bvert_4MeV_45tilt_135rot_det5.npy'
p2692
F1.2396
F0.012
F38.5703
F0.2063
F0.7673
F0.0081
g11
(g15
S'\x00\x00\x00\x00\x00\xc0]@'
p2693
tp2694
Rp2695
tp2696
a(S'bvert_4MeV_45tilt_135rot_det6.npy'
p2697
F0.8529
F0.0079
F28.6573
F0.1285
F0.5133
F0.0053
g11
(g15
S'\x00\x00\x00\x00\x00`c@'
p2698
tp2699
Rp2700
tp2701
a(S'bvert_4MeV_45tilt_135rot_det7.npy'
p2702
F0.4774
F0.0042
F25.3133
F0.0937
F0.2739
F0.0026
g11
(g15
S'\x00\x00\x00\x00\x00\x00f@'
p2703
tp2704
Rp2705
tp2706
a(S'bvert_4MeV_45tilt_135rot_det8.npy'
p2707
F0.2212
F0.003
F25.7798
F0.0967
F0.1178
F0.0018
g11
(g15
S'\x00\x00\x00\x00\x00`d@'
p2708
tp2709
Rp2710
tp2711
a(S'bvert_4MeV_45tilt_135rot_det9.npy'
p2712
F0.067
F0.0012
F23.7537
F0.0974
F0.0323
F0.0007
g11
(g15
S'\x00\x00\x00\x00\x00\xe0a@'
p2713
tp2714
Rp2715
tp2716
a(S'bvert_4MeV_45tilt_15rot_det10.npy'
p2717
F0.0692
F0.0013
F22.0747
F0.0861
F0.0343
F0.0007
g11
(g15
S'\x00\x00\x00\x00\x00`f@'
p2718
tp2719
Rp2720
tp2721
a(S'bvert_4MeV_45tilt_15rot_det11.npy'
p2722
F0.2149
F0.0025
F26.3489
F0.0882
F0.1155
F0.0014
g11
(g15
S'\x00\x00\x00\x00\x00@e@'
p2723
tp2724
Rp2725
tp2726
a(S'bvert_4MeV_45tilt_15rot_det12.npy'
p2727
F0.4736
F0.0044
F26.3868
F0.0945
F0.27
F0.0028
g11
(g15
S'\x00\x00\x00\x00\x00\xc0f@'
p2728
tp2729
Rp2730
tp2731
a(S'bvert_4MeV_45tilt_15rot_det13.npy'
p2732
F0.8006
F0.0063
F31.3137
F0.1213
F0.4824
F0.0043
g11
(g15
S'\x00\x00\x00\x00\x00\x80d@'
p2733
tp2734
Rp2735
tp2736
a(S'bvert_4MeV_45tilt_15rot_det14.npy'
p2737
F1.1362
F0.0089
F40.6006
F0.2015
F0.7124
F0.0061
g11
(g15
S'\x00\x00\x00\x00\x00\xe0b@'
p2738
tp2739
Rp2740
tp2741
a(S'bvert_4MeV_45tilt_15rot_det15.npy'
p2742
F1.5231
F0.0154
F64.6224
F0.5397
F0.9797
F0.0108
g11
(g15
S'\x00\x00\x00\x00\x00@X@'
p2743
tp2744
Rp2745
tp2746
a(S'bvert_4MeV_45tilt_15rot_det4.npy'
p2747
F1.5952
F0.0194
F62.4108
F0.6338
F1.02
F0.0139
g11
(g15
S'\x00\x00\x00\x00\x00\x00V@'
p2748
tp2749
Rp2750
tp2751
a(S'bvert_4MeV_45tilt_15rot_det5.npy'
p2752
F1.3085
F0.0127
F39.0882
F0.2473
F0.817
F0.0088
g11
(g15
S'\x00\x00\x00\x00\x00\x00Y@'
p2753
tp2754
Rp2755
tp2756
a(S'bvert_4MeV_45tilt_15rot_det6.npy'
p2757
F0.9291
F0.0075
F29.0485
F0.1426
F0.5601
F0.0051
g11
(g15
S'\x00\x00\x00\x00\x00\xa0a@'
p2758
tp2759
Rp2760
tp2761
a(S'bvert_4MeV_45tilt_15rot_det7.npy'
p2762
F0.5495
F0.0051
F25.6207
F0.1061
F0.3157
F0.0033
g11
(g15
S'\x00\x00\x00\x00\x00\x00c@'
p2763
tp2764
Rp2765
tp2766
a(S'bvert_4MeV_45tilt_15rot_det8.npy'
p2767
F0.2658
F0.0031
F25.7787
F0.0822
F0.1444
F0.0018
g11
(g15
S'\x00\x00\x00\x00\x00`f@'
p2768
tp2769
Rp2770
tp2771
a(S'bvert_4MeV_45tilt_15rot_det9.npy'
p2772
F0.0834
F0.0014
F23.7354
F0.0867
F0.0422
F0.0008
g11
(g15
S'\x00\x00\x00\x00\x00\xa0d@'
p2773
tp2774
Rp2775
tp2776
a(S'bvert_4MeV_45tilt_25rot_det10.npy'
p2777
F0.0714
F0.0014
F22.1899
F0.0885
F0.0347
F0.0007
g11
(g15
S'\x00\x00\x00\x00\x00\xc0a@'
p2778
tp2779
Rp2780
tp2781
a(S'bvert_4MeV_45tilt_25rot_det11.npy'
p2782
F0.2261
F0.0026
F26.5363
F0.0967
F0.1223
F0.0015
g11
(g15
S'\x00\x00\x00\x00\x00\x00b@'
p2783
tp2784
Rp2785
tp2786
a(S'bvert_4MeV_45tilt_25rot_det12.npy'
p2787
F0.4861
F0.0045
F26.3914
F0.087
F0.2796
F0.0028
g11
(g15
S'\x00\x00\x00\x00\x00\xe0e@'
p2788
tp2789
Rp2790
tp2791
a(S'bvert_4MeV_45tilt_25rot_det13.npy'
p2792
F0.8071
F0.0063
F31.1277
F0.1194
F0.4888
F0.0044
g11
(g15
S'\x00\x00\x00\x00\x00@b@'
p2793
tp2794
Rp2795
tp2796
a(S'bvert_4MeV_45tilt_25rot_det14.npy'
p2797
F1.144
F0.0108
F40.5347
F0.1825
F0.7126
F0.0076
g11
(g15
S'\x00\x00\x00\x00\x00\x80a@'
p2798
tp2799
Rp2800
tp2801
a(S'bvert_4MeV_45tilt_25rot_det15.npy'
p2802
F1.4598
F0.0188
F63.9616
F0.649
F0.9352
F0.0132
g11
(g15
S'\x00\x00\x00\x00\x00@R@'
p2803
tp2804
Rp2805
tp2806
a(S'bvert_4MeV_45tilt_25rot_det4.npy'
p2807
F1.5563
F0.0186
F61.9797
F0.6139
F0.995
F0.013
g11
(g15
S'\x00\x00\x00\x00\x00@U@'
p2808
tp2809
Rp2810
tp2811
a(S'bvert_4MeV_45tilt_25rot_det5.npy'
p2812
F1.3474
F0.0091
F38.9982
F0.2443
F0.849
F0.0066
g11
(g15
S'\x00\x00\x00\x00\x00@U@'
p2813
tp2814
Rp2815
tp2816
a(S'bvert_4MeV_45tilt_25rot_det6.npy'
p2817
F0.905
F0.0084
F28.9522
F0.1351
F0.5465
F0.0056
g11
(g15
S'\x00\x00\x00\x00\x00`c@'
p2818
tp2819
Rp2820
tp2821
a(S'bvert_4MeV_45tilt_25rot_det7.npy'
p2822
F0.5417
F0.0049
F25.7686
F0.0996
F0.3126
F0.0032
g11
(g15
S'\x00\x00\x00\x00\x00\xe0d@'
p2823
tp2824
Rp2825
tp2826
a(S'bvert_4MeV_45tilt_25rot_det8.npy'
p2827
F0.2587
F0.0028
F25.7501
F0.0784
F0.1409
F0.0016
g11
(g15
S'\x00\x00\x00\x00\x00\x80c@'
p2828
tp2829
Rp2830
tp2831
a(S'bvert_4MeV_45tilt_25rot_det9.npy'
p2832
F0.081
F0.0014
F23.8235
F0.0929
F0.0412
F0.0008
g11
(g15
S'\x00\x00\x00\x00\x00\xe0`@'
p2833
tp2834
Rp2835
tp2836
a(S'bvert_4MeV_45tilt_315rot_det10.npy'
p2837
F0.0677
F0.0013
F22.0193
F0.0874
F0.0327
F0.0007
g11
(g15
S'\x00\x00\x00\x00\x00\xe0f@'
p2838
tp2839
Rp2840
tp2841
a(S'bvert_4MeV_45tilt_315rot_det11.npy'
p2842
F0.228
F0.0026
F26.4822
F0.0771
F0.1231
F0.0015
g11
(g15
S'\x00\x00\x00\x00\x00\x80h@'
p2843
tp2844
Rp2845
tp2846
a(S'bvert_4MeV_45tilt_315rot_det12.npy'
p2847
F0.5095
F0.0046
F26.1147
F0.0861
F0.2974
F0.0029
g11
(g15
S'\x00\x00\x00\x00\x00`h@'
p2848
tp2849
Rp2850
tp2851
a(S'bvert_4MeV_45tilt_315rot_det13.npy'
p2852
F0.8577
F0.0083
F31.3175
F0.1236
F0.5213
F0.0057
g11
(g15
S'\x00\x00\x00\x00\x00`d@'
p2853
tp2854
Rp2855
tp2856
a(S'bvert_4MeV_45tilt_315rot_det14.npy'
p2857
F1.2697
F0.011
F40.9453
F0.2028
F0.7911
F0.0074
g11
(g15
S'\x00\x00\x00\x00\x00@a@'
p2858
tp2859
Rp2860
tp2861
a(S'bvert_4MeV_45tilt_315rot_det15.npy'
p2862
F1.6475
F0.0172
F65.0307
F0.4939
F1.0446
F0.0118
g11
(g15
S'\x00\x00\x00\x00\x00\xc0U@'
p2863
tp2864
Rp2865
tp2866
a(S'bvert_4MeV_45tilt_315rot_det4.npy'
p2867
F1.6197
F0.0196
F63.6511
F0.6371
F1.0215
F0.0132
g11
(g15
S'\x00\x00\x00\x00\x00@U@'
p2868
tp2869
Rp2870
tp2871
a(S'bvert_4MeV_45tilt_315rot_det5.npy'
p2872
F1.2895
F0.0129
F39.6016
F0.1882
F0.7982
F0.0084
g11
(g15
S'\x00\x00\x00\x00\x00\xa0a@'
p2873
tp2874
Rp2875
tp2876
a(S'bvert_4MeV_45tilt_315rot_det6.npy'
p2877
F0.8845
F0.0073
F29.4126
F0.1312
F0.5326
F0.0048
g11
(g15
S'\x00\x00\x00\x00\x00\xa0e@'
p2878
tp2879
Rp2880
tp2881
a(S'bvert_4MeV_45tilt_315rot_det7.npy'
p2882
F0.5077
F0.0046
F25.725
F0.0962
F0.2939
F0.003
g11
(g15
S'\x00\x00\x00\x00\x00\x00e@'
p2883
tp2884
Rp2885
tp2886
a(S'bvert_4MeV_45tilt_315rot_det8.npy'
p2887
F0.2428
F0.0026
F25.6652
F0.0827
F0.1311
F0.0016
g11
(g15
S'\x00\x00\x00\x00\x00\xe0d@'
p2888
tp2889
Rp2890
tp2891
a(S'bvert_4MeV_45tilt_315rot_det9.npy'
p2892
F0.0768
F0.0015
F23.9755
F0.0903
F0.0375
F0.0008
g11
(g15
S'\x00\x00\x00\x00\x00`e@'
p2893
tp2894
Rp2895
tp2896
a(S'bvert_4MeV_45tilt_335rot_det10.npy'
p2897
F0.0674
F0.0015
F21.8876
F0.0951
F0.0324
F0.0008
g11
(g15
S'\x00\x00\x00\x00\x00 `@'
p2898
tp2899
Rp2900
tp2901
a(S'bvert_4MeV_45tilt_335rot_det11.npy'
p2902
F0.2188
F0.0026
F26.461
F0.0963
F0.1172
F0.0016
g11
(g15
S'\x00\x00\x00\x00\x00@d@'
p2903
tp2904
Rp2905
tp2906
a(S'bvert_4MeV_45tilt_335rot_det12.npy'
p2907
F0.4773
F0.0053
F26.4231
F0.1021
F0.2745
F0.0035
g11
(g15
S'\x00\x00\x00\x00\x00@b@'
p2908
tp2909
Rp2910
tp2911
a(S'bvert_4MeV_45tilt_335rot_det13.npy'
p2912
F0.8477
F0.008
F31.167
F0.1455
F0.5178
F0.0062
g11
(g15
S'\x00\x00\x00\x00\x00\xc0[@'
p2913
tp2914
Rp2915
tp2916
a(S'bvert_4MeV_45tilt_335rot_det14.npy'
p2917
F1.2115
F0.011
F40.7824
F0.2451
F0.7617
F0.0076
g11
(g15
S'\x00\x00\x00\x00\x00\x00^@'
p2918
tp2919
Rp2920
tp2921
a(S'bvert_4MeV_45tilt_335rot_det15.npy'
p2922
F1.6061
F0.0162
F64.3262
F0.5977
F1.0327
F0.0115
g11
(g15
S'\x00\x00\x00\x00\x00\xc0Q@'
p2923
tp2924
Rp2925
tp2926
a(S'bvert_4MeV_45tilt_335rot_det4.npy'
p2927
F1.6652
F0.0204
F64.1688
F0.6723
F1.0413
F0.0134
g11
(g15
S'\x00\x00\x00\x00\x00\x80S@'
p2928
tp2929
Rp2930
tp2931
a(S'bvert_4MeV_45tilt_335rot_det5.npy'
p2932
F1.3583
F0.0111
F39.2021
F0.2528
F0.8396
F0.0074
g11
(g15
S'\x00\x00\x00\x00\x00\xc0Z@'
p2933
tp2934
Rp2935
tp2936
a(S'bvert_4MeV_45tilt_335rot_det6.npy'
p2937
F0.9116
F0.0101
F29.658
F0.1443
F0.5481
F0.0066
g11
(g15
S'\x00\x00\x00\x00\x00\x80^@'
p2938
tp2939
Rp2940
tp2941
a(S'bvert_4MeV_45tilt_335rot_det7.npy'
p2942
F0.5304
F0.0053
F25.648
F0.1143
F0.3057
F0.0033
g11
(g15
S'\x00\x00\x00\x00\x00\x80c@'
p2943
tp2944
Rp2945
tp2946
a(S'bvert_4MeV_45tilt_335rot_det8.npy'
p2947
F0.2459
F0.003
F25.9401
F0.096
F0.1346
F0.0017
g11
(g15
S'\x00\x00\x00\x00\x00\x00a@'
p2948
tp2949
Rp2950
tp2951
a(S'bvert_4MeV_45tilt_335rot_det9.npy'
p2952
F0.0736
F0.0018
F23.7689
F0.101
F0.0368
F0.0009
g11
(g15
S'\x00\x00\x00\x00\x00\xe0`@'
p2953
tp2954
Rp2955
tp2956
a(S'bvert_4MeV_45tilt_345rot_det10.npy'
p2957
F0.0682
F0.0011
F22.1087
F0.0777
F0.033
F0.0006
g11
(g15
S'\x00\x00\x00\x00\x00\xe0d@'
p2958
tp2959
Rp2960
tp2961
a(S'bvert_4MeV_45tilt_345rot_det11.npy'
p2962
F0.216
F0.0025
F26.4614
F0.083
F0.1153
F0.0015
g11
(g15
S'\x00\x00\x00\x00\x00\x00g@'
p2963
tp2964
Rp2965
tp2966
a(S'bvert_4MeV_45tilt_345rot_det12.npy'
p2967
F0.4732
F0.005
F26.0612
F0.0915
F0.2705
F0.0031
g11
(g15
S'\x00\x00\x00\x00\x00@d@'
p2968
tp2969
Rp2970
tp2971
a(S'bvert_4MeV_45tilt_345rot_det13.npy'
p2972
F0.8095
F0.0071
F31.2693
F0.1212
F0.4915
F0.0049
g11
(g15
S'\x00\x00\x00\x00\x00 f@'
p2973
tp2974
Rp2975
tp2976
a(S'bvert_4MeV_45tilt_345rot_det14.npy'
p2977
F1.2265
F0.0101
F40.2333
F0.2645
F0.7705
F0.0071
g11
(g15
S'\x00\x00\x00\x00\x00@V@'
p2978
tp2979
Rp2980
tp2981
a(S'bvert_4MeV_45tilt_345rot_det15.npy'
p2982
F1.5708
F0.0207
F64.5564
F0.5844
F1.0108
F0.0146
g11
(g15
S'\x00\x00\x00\x00\x00@Q@'
p2983
tp2984
Rp2985
tp2986
a(S'bvert_4MeV_45tilt_345rot_det4.npy'
p2987
F1.6806
F0.0162
F63.425
F0.5316
F1.0607
F0.0115
g11
(g15
S'\x00\x00\x00\x00\x00\x00U@'
p2988
tp2989
Rp2990
tp2991
a(S'bvert_4MeV_45tilt_345rot_det5.npy'
p2992
F1.3534
F0.0115
F39.5114
F0.2263
F0.833
F0.008
g11
(g15
S'\x00\x00\x00\x00\x00@^@'
p2993
tp2994
Rp2995
tp2996
a(S'bvert_4MeV_45tilt_345rot_det6.npy'
p2997
F0.9548
F0.007
F29.0301
F0.1512
F0.5738
F0.0048
g11
(g15
S'\x00\x00\x00\x00\x00\x80`@'
p2998
tp2999
Rp3000
tp3001
a(S'bvert_4MeV_45tilt_345rot_det7.npy'
p3002
F0.5508
F0.0053
F25.565
F0.1035
F0.3175
F0.0033
g11
(g15
S'\x00\x00\x00\x00\x00\xc0d@'
p3003
tp3004
Rp3005
tp3006
a(S'bvert_4MeV_45tilt_345rot_det8.npy'
p3007
F0.2549
F0.0029
F25.8702
F0.0862
F0.1392
F0.0017
g11
(g15
S'\x00\x00\x00\x00\x00`e@'
p3008
tp3009
Rp3010
tp3011
a(S'bvert_4MeV_45tilt_345rot_det9.npy'
p3012
F0.0796
F0.0013
F23.8483
F0.0952
F0.0397
F0.0007
g11
(g15
S'\x00\x00\x00\x00\x00\x80f@'
p3013
tp3014
Rp3015
tp3016
a(S'bvert_4MeV_45tilt_355rot_det10.npy'
p3017
F0.0666
F0.0011
F22.1163
F0.0888
F0.0321
F0.0006
g11
(g15
S'\x00\x00\x00\x00\x00\x00f@'
p3018
tp3019
Rp3020
tp3021
a(S'bvert_4MeV_45tilt_355rot_det11.npy'
p3022
F0.2137
F0.0032
F26.4525
F0.095
F0.1143
F0.0018
g11
(g15
S'\x00\x00\x00\x00\x00@`@'
p3023
tp3024
Rp3025
tp3026
a(S'bvert_4MeV_45tilt_355rot_det12.npy'
p3027
F0.4616
F0.0047
F26.3948
F0.0913
F0.2636
F0.0029
g11
(g15
S'\x00\x00\x00\x00\x00\x00c@'
p3028
tp3029
Rp3030
tp3031
a(S'bvert_4MeV_45tilt_355rot_det13.npy'
p3032
F0.808
F0.0067
F31.2564
F0.1279
F0.4906
F0.0044
g11
(g15
S'\x00\x00\x00\x00\x00\xa0c@'
p3033
tp3034
Rp3035
tp3036
a(S'bvert_4MeV_45tilt_355rot_det14.npy'
p3037
F1.1533
F0.0102
F40.3538
F0.1991
F0.7206
F0.007
g11
(g15
S'\x00\x00\x00\x00\x00 b@'
p3038
tp3039
Rp3040
tp3041
a(S'bvert_4MeV_45tilt_355rot_det15.npy'
p3042
F1.568
F0.0167
F63.6366
F0.6457
F1.0024
F0.0116
g11
(g15
S'\x00\x00\x00\x00\x00\x00Q@'
p3043
tp3044
Rp3045
tp3046
a(S'bvert_4MeV_45tilt_355rot_det4.npy'
p3047
F1.6478
F0.0194
F63.6235
F0.658
F1.0386
F0.0135
g11
(g15
S'\x00\x00\x00\x00\x00\x00R@'
p3048
tp3049
Rp3050
tp3051
a(S'bvert_4MeV_45tilt_355rot_det5.npy'
p3052
F1.3411
F0.0115
F39.0713
F0.2262
F0.8245
F0.0079
g11
(g15
S'\x00\x00\x00\x00\x00@]@'
p3053
tp3054
Rp3055
tp3056
a(S'bvert_4MeV_45tilt_355rot_det6.npy'
p3057
F0.9476
F0.009
F29.6361
F0.1742
F0.5694
F0.006
g11
(g15
S'\x00\x00\x00\x00\x00\x00^@'
p3058
tp3059
Rp3060
tp3061
a(S'bvert_4MeV_45tilt_355rot_det7.npy'
p3062
F0.5569
F0.0049
F25.6956
F0.0974
F0.32
F0.0032
g11
(g15
S'\x00\x00\x00\x00\x00\x00e@'
p3063
tp3064
Rp3065
tp3066
a(S'bvert_4MeV_45tilt_355rot_det8.npy'
p3067
F0.2523
F0.0031
F25.7631
F0.0986
F0.137
F0.0018
g11
(g15
S'\x00\x00\x00\x00\x00 a@'
p3068
tp3069
Rp3070
tp3071
a(S'bvert_4MeV_45tilt_355rot_det9.npy'
p3072
F0.0824
F0.0018
F23.8247
F0.0979
F0.0412
F0.0009
g11
(g15
S'\x00\x00\x00\x00\x00\xc0^@'
p3073
tp3074
Rp3075
tp3076
a(S'bvert_4MeV_45tilt_35rot_det10.npy'
p3077
F0.0718
F0.0014
F22.1429
F0.1104
F0.0364
F0.0007
g11
(g15
S'\x00\x00\x00\x00\x00@`@'
p3078
tp3079
Rp3080
tp3081
a(S'bvert_4MeV_45tilt_35rot_det11.npy'
p3082
F0.2306
F0.003
F26.4894
F0.101
F0.1243
F0.0018
g11
(g15
S'\x00\x00\x00\x00\x00\x80a@'
p3083
tp3084
Rp3085
tp3086
a(S'bvert_4MeV_45tilt_35rot_det12.npy'
p3087
F0.4856
F0.0048
F26.3276
F0.103
F0.278
F0.003
g11
(g15
S'\x00\x00\x00\x00\x00\xc0b@'
p3088
tp3089
Rp3090
tp3091
a(S'bvert_4MeV_45tilt_35rot_det13.npy'
p3092
F0.8095
F0.0079
F31.2567
F0.1265
F0.4883
F0.0052
g11
(g15
S'\x00\x00\x00\x00\x00\xc0c@'
p3093
tp3094
Rp3095
tp3096
a(S'bvert_4MeV_45tilt_35rot_det14.npy'
p3097
F1.1712
F0.0112
F40.8033
F0.2208
F0.7346
F0.0078
g11
(g15
S'\x00\x00\x00\x00\x00\x00^@'
p3098
tp3099
Rp3100
tp3101
a(S'bvert_4MeV_45tilt_35rot_det15.npy'
p3102
F1.4821
F0.0149
F64.0173
F0.6648
F0.9456
F0.0111
g11
(g15
S'\x00\x00\x00\x00\x00\xc0R@'
p3103
tp3104
Rp3105
tp3106
a(S'bvert_4MeV_45tilt_35rot_det4.npy'
p3107
F1.5386
F0.019
F63.3942
F0.6234
F0.9866
F0.0133
g11
(g15
S'\x00\x00\x00\x00\x00@R@'
p3108
tp3109
Rp3110
tp3111
a(S'bvert_4MeV_45tilt_35rot_det5.npy'
p3112
F1.2416
F0.0114
F38.8717
F0.224
F0.7822
F0.0077
g11
(g15
S'\x00\x00\x00\x00\x00\xc0X@'
p3113
tp3114
Rp3115
tp3116
a(S'bvert_4MeV_45tilt_35rot_det6.npy'
p3117
F0.8876
F0.0079
F29.2827
F0.1391
F0.5382
F0.0054
g11
(g15
S'\x00\x00\x00\x00\x00\x00_@'
p3118
tp3119
Rp3120
tp3121
a(S'bvert_4MeV_45tilt_35rot_det7.npy'
p3122
F0.5244
F0.0055
F25.5354
F0.1109
F0.3024
F0.0035
g11
(g15
S'\x00\x00\x00\x00\x00\x80a@'
p3123
tp3124
Rp3125
tp3126
a(S'bvert_4MeV_45tilt_35rot_det8.npy'
p3127
F0.2573
F0.0031
F25.5219
F0.1033
F0.1399
F0.0019
g11
(g15
S'\x00\x00\x00\x00\x00@`@'
p3128
tp3129
Rp3130
tp3131
a(S'bvert_4MeV_45tilt_35rot_det9.npy'
p3132
F0.0801
F0.0018
F24.0169
F0.1117
F0.0406
F0.0009
g11
(g15
S'\x00\x00\x00\x00\x00\x00]@'
p3133
tp3134
Rp3135
tp3136
a(S'bvert_4MeV_45tilt_45rot_det10.npy'
p3137
F0.0781
F0.0014
F22.036
F0.0901
F0.0393
F0.0008
g11
(g15
S'\x00\x00\x00\x00\x00\x00b@'
p3138
tp3139
Rp3140
tp3141
a(S'bvert_4MeV_45tilt_45rot_det11.npy'
p3142
F0.246
F0.0036
F26.6174
F0.1081
F0.1327
F0.0021
g11
(g15
S'\x00\x00\x00\x00\x00\x00`@'
p3143
tp3144
Rp3145
tp3146
a(S'bvert_4MeV_45tilt_45rot_det12.npy'
p3147
F0.5076
F0.0053
F26.4592
F0.0961
F0.2931
F0.0033
g11
(g15
S'\x00\x00\x00\x00\x00\x80a@'
p3148
tp3149
Rp3150
tp3151
a(S'bvert_4MeV_45tilt_45rot_det13.npy'
p3152
F0.8451
F0.0067
F31.24
F0.1266
F0.5102
F0.0046
g11
(g15
S'\x00\x00\x00\x00\x00\x00a@'
p3153
tp3154
Rp3155
tp3156
a(S'bvert_4MeV_45tilt_45rot_det14.npy'
p3157
F1.1684
F0.0139
F40.1898
F0.2502
F0.7315
F0.01
g11
(g15
S'\x00\x00\x00\x00\x00\xc0U@'
p3158
tp3159
Rp3160
tp3161
a(S'bvert_4MeV_45tilt_45rot_det15.npy'
p3162
F1.4998
F0.0156
F63.5388
F0.598
F0.9591
F0.0109
g11
(g15
S'\x00\x00\x00\x00\x00\x00P@'
p3163
tp3164
Rp3165
tp3166
a(S'bvert_4MeV_45tilt_45rot_det4.npy'
p3167
F1.4879
F0.0141
F64.0363
F0.6136
F0.9552
F0.0101
g11
(g15
S'\x00\x00\x00\x00\x00\x00T@'
p3168
tp3169
Rp3170
tp3171
a(S'bvert_4MeV_45tilt_45rot_det5.npy'
p3172
F1.2277
F0.0122
F38.8244
F0.2221
F0.774
F0.0086
g11
(g15
S'\x00\x00\x00\x00\x00\x00Z@'
p3173
tp3174
Rp3175
tp3176
a(S'bvert_4MeV_45tilt_45rot_det6.npy'
p3177
F0.852
F0.0081
F29.0493
F0.1281
F0.5176
F0.0055
g11
(g15
S'\x00\x00\x00\x00\x00\x00`@'
p3178
tp3179
Rp3180
tp3181
a(S'bvert_4MeV_45tilt_45rot_det7.npy'
p3182
F0.4979
F0.0057
F25.4197
F0.1173
F0.288
F0.0037
g11
(g15
S'\x00\x00\x00\x00\x00 c@'
p3183
tp3184
Rp3185
tp3186
a(S'bvert_4MeV_45tilt_45rot_det8.npy'
p3187
F0.2471
F0.0028
F25.6067
F0.1045
F0.134
F0.0017
g11
(g15
S'\x00\x00\x00\x00\x00\x00a@'
p3188
tp3189
Rp3190
tp3191
a(S'bvert_4MeV_45tilt_45rot_det9.npy'
p3192
F0.0792
F0.0014
F23.7473
F0.1027
F0.0394
F0.0007
g11
(g15
S'\x00\x00\x00\x00\x00`c@'
p3193
tp3194
Rp3195
tp3196
a(S'bvert_4MeV_45tilt_55rot_det10.npy'
p3197
F0.0795
F0.0016
F22.2219
F0.089
F0.0404
F0.0009
g11
(g15
S'\x00\x00\x00\x00\x00`c@'
p3198
tp3199
Rp3200
tp3201
a(S'bvert_4MeV_45tilt_55rot_det11.npy'
p3202
F0.2523
F0.0028
F26.3887
F0.1019
F0.1376
F0.0017
g11
(g15
S'\x00\x00\x00\x00\x00`b@'
p3203
tp3204
Rp3205
tp3206
a(S'bvert_4MeV_45tilt_55rot_det12.npy'
p3207
F0.522
F0.0048
F26.4913
F0.0943
F0.2997
F0.003
g11
(g15
S'\x00\x00\x00\x00\x00\x80c@'
p3208
tp3209
Rp3210
tp3211
a(S'bvert_4MeV_45tilt_55rot_det13.npy'
p3212
F0.858
F0.0068
F31.4098
F0.1207
F0.517
F0.0045
g11
(g15
S'\x00\x00\x00\x00\x00\x00b@'
p3213
tp3214
Rp3215
tp3216
a(S'bvert_4MeV_45tilt_55rot_det14.npy'
p3217
F1.1841
F0.0122
F40.8271
F0.2129
F0.7362
F0.0082
g11
(g15
S'\x00\x00\x00\x00\x00\x00_@'
p3218
tp3219
Rp3220
tp3221
a(S'bvert_4MeV_45tilt_55rot_det15.npy'
p3222
F1.4836
F0.0154
F64.477
F0.6005
F0.9494
F0.0107
g11
(g15
S'\x00\x00\x00\x00\x00\x00R@'
p3223
tp3224
Rp3225
tp3226
a(S'bvert_4MeV_45tilt_55rot_det4.npy'
p3227
F1.4393
F0.0204
F63.1299
F0.5433
F0.9157
F0.0138
g11
(g15
S'\x00\x00\x00\x00\x00\x80U@'
p3228
tp3229
Rp3230
tp3231
a(S'bvert_4MeV_45tilt_55rot_det5.npy'
p3232
F1.1801
F0.01
F38.7029
F0.1982
F0.7386
F0.0071
g11
(g15
S'\x00\x00\x00\x00\x00@_@'
p3233
tp3234
Rp3235
tp3236
a(S'bvert_4MeV_45tilt_55rot_det6.npy'
p3237
F0.8493
F0.0062
F28.8625
F0.1454
F0.517
F0.0044
g11
(g15
S'\x00\x00\x00\x00\x00\xe0b@'
p3238
tp3239
Rp3240
tp3241
a(S'bvert_4MeV_45tilt_55rot_det7.npy'
p3242
F0.4903
F0.0053
F25.7282
F0.1219
F0.2824
F0.0034
g11
(g15
S'\x00\x00\x00\x00\x00\xa0a@'
p3243
tp3244
Rp3245
tp3246
a(S'bvert_4MeV_45tilt_55rot_det8.npy'
p3247
F0.2392
F0.0029
F25.8877
F0.0902
F0.1303
F0.0017
g11
(g15
S'\x00\x00\x00\x00\x00\xc0b@'
p3248
tp3249
Rp3250
tp3251
a(S'bvert_4MeV_45tilt_55rot_det9.npy'
p3252
F0.0735
F0.0015
F23.8641
F0.1055
F0.0375
F0.0008
g11
(g15
S'\x00\x00\x00\x00\x00\x80`@'
p3253
tp3254
Rp3255
tp3256
a(S'bvert_4MeV_45tilt_5rot_det10.npy'
p3257
F0.0658
F0.0015
F22.1973
F0.0911
F0.0321
F0.0008
g11
(g15
S'\x00\x00\x00\x00\x00 f@'
p3258
tp3259
Rp3260
tp3261
a(S'bvert_4MeV_45tilt_5rot_det11.npy'
p3262
F0.2145
F0.0031
F26.5613
F0.0841
F0.1143
F0.0017
g11
(g15
S'\x00\x00\x00\x00\x00\x00e@'
p3263
tp3264
Rp3265
tp3266
a(S'bvert_4MeV_45tilt_5rot_det12.npy'
p3267
F0.4673
F0.0041
F26.5176
F0.0989
F0.2682
F0.0027
g11
(g15
S'\x00\x00\x00\x00\x00`e@'
p3268
tp3269
Rp3270
tp3271
a(S'bvert_4MeV_45tilt_5rot_det13.npy'
p3272
F0.8122
F0.0071
F31.1033
F0.1244
F0.4908
F0.0048
g11
(g15
S'\x00\x00\x00\x00\x00\xc0b@'
p3273
tp3274
Rp3275
tp3276
a(S'bvert_4MeV_45tilt_5rot_det14.npy'
p3277
F1.1378
F0.0132
F40.53
F0.2201
F0.7111
F0.0092
g11
(g15
S'\x00\x00\x00\x00\x00\xc0^@'
p3278
tp3279
Rp3280
tp3281
a(S'bvert_4MeV_45tilt_5rot_det15.npy'
p3282
F1.4701
F0.0165
F63.8686
F0.555
F0.9433
F0.0115
g11
(g15
S'\x00\x00\x00\x00\x00\x00X@'
p3283
tp3284
Rp3285
tp3286
a(S'bvert_4MeV_45tilt_5rot_det4.npy'
p3287
F1.5871
F0.0196
F63.6646
F0.736
F1.0068
F0.0138
g11
(g15
S'\x00\x00\x00\x00\x00\x80R@'
p3288
tp3289
Rp3290
tp3291
a(S'bvert_4MeV_45tilt_5rot_det5.npy'
p3292
F1.3111
F0.0129
F39.3372
F0.2243
F0.8112
F0.0093
g11
(g15
S'\x00\x00\x00\x00\x00\x80[@'
p3293
tp3294
Rp3295
tp3296
a(S'bvert_4MeV_45tilt_5rot_det6.npy'
p3297
F0.9376
F0.0068
F29.1216
F0.152
F0.5632
F0.0047
g11
(g15
S'\x00\x00\x00\x00\x00 a@'
p3298
tp3299
Rp3300
tp3301
a(S'bvert_4MeV_45tilt_5rot_det7.npy'
p3302
F0.5644
F0.0054
F25.6723
F0.1082
F0.3254
F0.0034
g11
(g15
S'\x00\x00\x00\x00\x00\xc0b@'
p3303
tp3304
Rp3305
tp3306
a(S'bvert_4MeV_45tilt_5rot_det8.npy'
p3307
F0.2672
F0.0033
F25.6269
F0.0852
F0.1471
F0.002
g11
(g15
S'\x00\x00\x00\x00\x00@d@'
p3308
tp3309
Rp3310
tp3311
a(S'bvert_4MeV_45tilt_5rot_det9.npy'
p3312
F0.0807
F0.0015
F23.8894
F0.0951
F0.0409
F0.0008
g11
(g15
S'\x00\x00\x00\x00\x00\xe0b@'
p3313
tp3314
Rp3315
tp3316
a(S'bvert_4MeV_45tilt_75rot_det10.npy'
p3317
F0.0813
F0.0013
F22.0502
F0.0864
F0.0413
F0.0007
g11
(g15
S'\x00\x00\x00\x00\x00\x00d@'
p3318
tp3319
Rp3320
tp3321
a(S'bvert_4MeV_45tilt_75rot_det11.npy'
p3322
F0.2603
F0.0029
F26.5578
F0.0805
F0.1415
F0.0017
g11
(g15
S'\x00\x00\x00\x00\x00\xc0d@'
p3323
tp3324
Rp3325
tp3326
a(S'bvert_4MeV_45tilt_75rot_det12.npy'
p3327
F0.5498
F0.0053
F26.3211
F0.1013
F0.3158
F0.0036
g11
(g15
S'\x00\x00\x00\x00\x00`b@'
p3328
tp3329
Rp3330
tp3331
a(S'bvert_4MeV_45tilt_75rot_det13.npy'
p3332
F0.9069
F0.008
F31.2616
F0.1347
F0.5462
F0.006
g11
(g15
S'\x00\x00\x00\x00\x00\xc0a@'
p3333
tp3334
Rp3335
tp3336
a(S'bvert_4MeV_45tilt_75rot_det14.npy'
p3337
F1.2596
F0.0108
F40.888
F0.2205
F0.7802
F0.0073
g11
(g15
S'\x00\x00\x00\x00\x00 `@'
p3338
tp3339
Rp3340
tp3341
a(S'bvert_4MeV_45tilt_75rot_det15.npy'
p3342
F1.5286
F0.0196
F65.0108
F0.6708
F0.9721
F0.0137
g11
(g15
S'\x00\x00\x00\x00\x00\x80R@'
p3343
tp3344
Rp3345
tp3346
a(S'bvert_4MeV_45tilt_75rot_det4.npy'
p3347
F1.4704
F0.0142
F61.6998
F0.5633
F0.941
F0.0104
g11
(g15
S'\x00\x00\x00\x00\x00\x80U@'
p3348
tp3349
Rp3350
tp3351
a(S'bvert_4MeV_45tilt_75rot_det5.npy'
p3352
F1.1878
F0.0097
F38.3739
F0.2147
F0.7455
F0.007
g11
(g15
S'\x00\x00\x00\x00\x00@Z@'
p3353
tp3354
Rp3355
tp3356
a(S'bvert_4MeV_45tilt_75rot_det6.npy'
p3357
F0.8108
F0.0064
F28.8483
F0.1338
F0.4903
F0.0045
g11
(g15
S'\x00\x00\x00\x00\x00@c@'
p3358
tp3359
Rp3360
tp3361
a(S'bvert_4MeV_45tilt_75rot_det7.npy'
p3362
F0.467
F0.0046
F25.4839
F0.1054
F0.2688
F0.0029
g11
(g15
S'\x00\x00\x00\x00\x00\x80`@'
p3363
tp3364
Rp3365
tp3366
a(S'bvert_4MeV_45tilt_75rot_det8.npy'
p3367
F0.229
F0.0024
F25.6805
F0.0858
F0.1233
F0.0016
g11
(g15
S'\x00\x00\x00\x00\x00\xc0c@'
p3368
tp3369
Rp3370
tp3371
a(S'bvert_4MeV_45tilt_75rot_det9.npy'
p3372
F0.069
F0.0012
F23.907
F0.0903
F0.0341
F0.0006
g11
(g15
S'\x00\x00\x00\x00\x00\x80f@'
p3373
tp3374
Rp3375
tp3376
a(S'bvert_4MeV_45tilt_95rot_det10.npy'
p3377
F0.0824
F0.0013
F22.0949
F0.0867
F0.0417
F0.0007
g11
(g15
S'\x00\x00\x00\x00\x00`d@'
p3378
tp3379
Rp3380
tp3381
a(S'bvert_4MeV_45tilt_95rot_det11.npy'
p3382
F0.2562
F0.0032
F26.7161
F0.0821
F0.1404
F0.0022
g11
(g15
S'\x00\x00\x00\x00\x00\xe0e@'
p3383
tp3384
Rp3385
tp3386
a(S'bvert_4MeV_45tilt_95rot_det12.npy'
p3387
F0.5541
F0.0053
F26.5942
F0.0984
F0.3187
F0.0034
g11
(g15
S'\x00\x00\x00\x00\x00`a@'
p3388
tp3389
Rp3390
tp3391
a(S'bvert_4MeV_45tilt_95rot_det13.npy'
p3392
F0.9329
F0.0083
F31.662
F0.1181
F0.5568
F0.0054
g11
(g15
S'\x00\x00\x00\x00\x00\xa0b@'
p3393
tp3394
Rp3395
tp3396
a(S'bvert_4MeV_45tilt_95rot_det14.npy'
p3397
F1.3124
F0.0149
F41.3506
F0.1998
F0.811
F0.01
g11
(g15
S'\x00\x00\x00\x00\x00@\\@'
p3398
tp3399
Rp3400
tp3401
a(S'bvert_4MeV_45tilt_95rot_det15.npy'
p3402
F1.644
F0.0162
F64.5592
F0.5943
F1.0346
F0.0109
g11
(g15
S'\x00\x00\x00\x00\x00\x00W@'
p3403
tp3404
Rp3405
tp3406
a(S'bvert_4MeV_45tilt_95rot_det4.npy'
p3407
F1.4502
F0.0188
F61.9631
F0.5248
F0.9202
F0.0128
g11
(g15
S'\x00\x00\x00\x00\x00\x80Y@'
p3408
tp3409
Rp3410
tp3411
a(S'bvert_4MeV_45tilt_95rot_det5.npy'
p3412
F1.1561
F0.0102
F38.6007
F0.2031
F0.7209
F0.0072
g11
(g15
S'\x00\x00\x00\x00\x00\x00b@'
p3413
tp3414
Rp3415
tp3416
a(S'bvert_4MeV_45tilt_95rot_det6.npy'
p3417
F0.7877
F0.007
F28.7399
F0.1224
F0.474
F0.0047
g11
(g15
S'\x00\x00\x00\x00\x00@f@'
p3418
tp3419
Rp3420
tp3421
a(S'bvert_4MeV_45tilt_95rot_det7.npy'
p3422
F0.4625
F0.0041
F25.4096
F0.0995
F0.2643
F0.0027
g11
(g15
S'\x00\x00\x00\x00\x00\xc0e@'
p3423
tp3424
Rp3425
tp3426
a(S'bvert_4MeV_45tilt_95rot_det8.npy'
p3427
F0.2209
F0.0026
F25.5876
F0.0959
F0.1176
F0.0015
g11
(g15
S'\x00\x00\x00\x00\x00 c@'
p3428
tp3429
Rp3430
tp3431
a(S'bvert_4MeV_45tilt_95rot_det9.npy'
p3432
F0.0688
F0.0013
F23.824
F0.1078
F0.0337
F0.0007
g11
(g15
S'\x00\x00\x00\x00\x00``@'
p3433
tp3434
Rp3435
tp3436
a(S'bvert_4MeV_neg15tilt_115rot_det10.npy'
p3437
F0.07
F0.0013
F22.1999
F0.0855
F0.0347
F0.0007
g11
(g15
S'\x00\x00\x00\x00\x00@e@'
p3438
tp3439
Rp3440
tp3441
a(S'bvert_4MeV_neg15tilt_115rot_det11.npy'
p3442
F0.2414
F0.0026
F26.6536
F0.0773
F0.1324
F0.0015
g11
(g15
S'\x00\x00\x00\x00\x00\xe0d@'
p3443
tp3444
Rp3445
tp3446
a(S'bvert_4MeV_neg15tilt_115rot_det12.npy'
p3447
F0.5229
F0.0053
F26.4971
F0.0873
F0.3049
F0.0034
g11
(g15
S'\x00\x00\x00\x00\x00\x00e@'
p3448
tp3449
Rp3450
tp3451
a(S'bvert_4MeV_neg15tilt_115rot_det13.npy'
p3452
F0.9181
F0.0074
F31.3961
F0.1176
F0.5569
F0.005
g11
(g15
S'\x00\x00\x00\x00\x00@d@'
p3453
tp3454
Rp3455
tp3456
a(S'bvert_4MeV_neg15tilt_115rot_det14.npy'
p3457
F1.3248
F0.0104
F41.102
F0.1913
F0.8189
F0.0071
g11
(g15
S'\x00\x00\x00\x00\x00\xa0b@'
p3458
tp3459
Rp3460
tp3461
a(S'bvert_4MeV_neg15tilt_115rot_det15.npy'
p3462
F1.7056
F0.0192
F64.1999
F0.5561
F1.0751
F0.0129
g11
(g15
S'\x00\x00\x00\x00\x00\x00T@'
p3463
tp3464
Rp3465
tp3466
a(S'bvert_4MeV_neg15tilt_115rot_det4.npy'
p3467
F1.4948
F0.0147
F64.0148
F0.5953
F0.9586
F0.0104
g11
(g15
S'\x00\x00\x00\x00\x00@X@'
p3468
tp3469
Rp3470
tp3471
a(S'bvert_4MeV_neg15tilt_115rot_det5.npy'
p3472
F1.1533
F0.0098
F38.6547
F0.2282
F0.7221
F0.0069
g11
(g15
S'\x00\x00\x00\x00\x00\x00Y@'
p3473
tp3474
Rp3475
tp3476
a(S'bvert_4MeV_neg15tilt_115rot_det6.npy'
p3477
F0.7394
F0.0073
F29.1544
F0.1487
F0.4472
F0.0048
g11
(g15
S'\x00\x00\x00\x00\x00`b@'
p3478
tp3479
Rp3480
tp3481
a(S'bvert_4MeV_neg15tilt_115rot_det7.npy'
p3482
F0.4253
F0.0044
F25.4527
F0.1022
F0.2436
F0.0027
g11
(g15
S'\x00\x00\x00\x00\x00\x80f@'
p3483
tp3484
Rp3485
tp3486
a(S'bvert_4MeV_neg15tilt_115rot_det8.npy'
p3487
F0.197
F0.0022
F25.5468
F0.0766
F0.1049
F0.0012
g11
(g15
S'\x00\x00\x00\x00\x00@e@'
p3488
tp3489
Rp3490
tp3491
a(S'bvert_4MeV_neg15tilt_115rot_det9.npy'
p3492
F0.0596
F0.001
F23.8897
F0.1008
F0.0287
F0.0005
g11
(g15
S'\x00\x00\x00\x00\x00\xc0d@'
p3493
tp3494
Rp3495
tp3496
a(S'bvert_4MeV_neg15tilt_135rot_det10.npy'
p3497
F0.065
F0.0012
F22.2082
F0.0893
F0.0322
F0.0006
g11
(g15
S'\x00\x00\x00\x00\x00\xa0c@'
p3498
tp3499
Rp3500
tp3501
a(S'bvert_4MeV_neg15tilt_135rot_det11.npy'
p3502
F0.2184
F0.0028
F26.612
F0.0893
F0.1182
F0.0017
g11
(g15
S'\x00\x00\x00\x00\x00\x80d@'
p3503
tp3504
Rp3505
tp3506
a(S'bvert_4MeV_neg15tilt_135rot_det12.npy'
p3507
F0.4844
F0.0047
F26.4946
F0.0955
F0.2824
F0.003
g11
(g15
S'\x00\x00\x00\x00\x00\x80b@'
p3508
tp3509
Rp3510
tp3511
a(S'bvert_4MeV_neg15tilt_135rot_det13.npy'
p3512
F0.8462
F0.0067
F31.5208
F0.1029
F0.5177
F0.0045
g11
(g15
S'\x00\x00\x00\x00\x00\xc0c@'
p3513
tp3514
Rp3515
tp3516
a(S'bvert_4MeV_neg15tilt_135rot_det14.npy'
p3517
F1.2894
F0.0121
F41.1534
F0.242
F0.8103
F0.0088
g11
(g15
S'\x00\x00\x00\x00\x00\xc0Y@'
p3518
tp3519
Rp3520
tp3521
a(S'bvert_4MeV_neg15tilt_135rot_det15.npy'
p3522
F1.5963
F0.0205
F65.5451
F0.5801
F1.0193
F0.015
g11
(g15
S'\x00\x00\x00\x00\x00\xc0U@'
p3523
tp3524
Rp3525
tp3526
a(S'bvert_4MeV_neg15tilt_135rot_det4.npy'
p3527
F1.6397
F0.0154
F63.2541
F0.4979
F1.0333
F0.0104
g11
(g15
S'\x00\x00\x00\x00\x00\xc0Y@'
p3528
tp3529
Rp3530
tp3531
a(S'bvert_4MeV_neg15tilt_135rot_det5.npy'
p3532
F1.2288
F0.0096
F39.0593
F0.2139
F0.7694
F0.0069
g11
(g15
S'\x00\x00\x00\x00\x00\x00a@'
p3533
tp3534
Rp3535
tp3536
a(S'bvert_4MeV_neg15tilt_135rot_det6.npy'
p3537
F0.8263
F0.0063
F28.925
F0.131
F0.4997
F0.0044
g11
(g15
S'\x00\x00\x00\x00\x00\x00e@'
p3538
tp3539
Rp3540
tp3541
a(S'bvert_4MeV_neg15tilt_135rot_det7.npy'
p3542
F0.4541
F0.0043
F25.4995
F0.0928
F0.2613
F0.0028
g11
(g15
S'\x00\x00\x00\x00\x00\xe0h@'
p3543
tp3544
Rp3545
tp3546
a(S'bvert_4MeV_neg15tilt_135rot_det8.npy'
p3547
F0.204
F0.0026
F25.7354
F0.081
F0.1105
F0.0016
g11
(g15
S'\x00\x00\x00\x00\x00@f@'
p3548
tp3549
Rp3550
tp3551
a(S'bvert_4MeV_neg15tilt_135rot_det9.npy'
p3552
F0.0586
F0.0012
F23.9859
F0.0944
F0.0283
F0.0006
g11
(g15
S'\x00\x00\x00\x00\x00 e@'
p3553
tp3554
Rp3555
tp3556
a(S'bvert_4MeV_neg15tilt_15rot_det10.npy'
p3557
F0.0645
F0.0011
F22.1763
F0.1051
F0.0317
F0.0006
g11
(g15
S'\x00\x00\x00\x00\x00@b@'
p3558
tp3559
Rp3560
tp3561
a(S'bvert_4MeV_neg15tilt_15rot_det11.npy'
p3562
F0.2069
F0.0024
F26.5366
F0.0836
F0.1115
F0.0014
g11
(g15
S'\x00\x00\x00\x00\x00\xa0c@'
p3563
tp3564
Rp3565
tp3566
a(S'bvert_4MeV_neg15tilt_15rot_det12.npy'
p3567
F0.4339
F0.0037
F26.2791
F0.09
F0.2485
F0.0023
g11
(g15
S'\x00\x00\x00\x00\x00@d@'
p3568
tp3569
Rp3570
tp3571
a(S'bvert_4MeV_neg15tilt_15rot_det13.npy'
p3572
F0.7135
F0.0058
F31.6969
F0.1099
F0.4322
F0.0039
g11
(g15
S'\x00\x00\x00\x00\x00\xc0g@'
p3573
tp3574
Rp3575
tp3576
a(S'bvert_4MeV_neg15tilt_15rot_det14.npy'
p3577
F1.0342
F0.009
F41.1948
F0.209
F0.6465
F0.006
g11
(g15
S'\x00\x00\x00\x00\x00\x00c@'
p3578
tp3579
Rp3580
tp3581
a(S'bvert_4MeV_neg15tilt_15rot_det15.npy'
p3582
F1.3281
F0.0183
F64.7686
F0.6525
F0.8525
F0.0131
g11
(g15
S'\x00\x00\x00\x00\x00@S@'
p3583
tp3584
Rp3585
tp3586
a(S'bvert_4MeV_neg15tilt_15rot_det4.npy'
p3587
F1.5164
F0.0184
F63.7433
F0.5263
F0.9787
F0.0133
g11
(g15
S'\x00\x00\x00\x00\x00\x80W@'
p3588
tp3589
Rp3590
tp3591
a(S'bvert_4MeV_neg15tilt_15rot_det5.npy'
p3592
F1.2502
F0.0116
F39.0761
F0.204
F0.7891
F0.0082
g11
(g15
S'\x00\x00\x00\x00\x00\x80_@'
p3593
tp3594
Rp3595
tp3596
a(S'bvert_4MeV_neg15tilt_15rot_det6.npy'
p3597
F0.9162
F0.0069
F28.9376
F0.1389
F0.5548
F0.0045
g11
(g15
S'\x00\x00\x00\x00\x00\x00e@'
p3598
tp3599
Rp3600
tp3601
a(S'bvert_4MeV_neg15tilt_15rot_det7.npy'
p3602
F0.5458
F0.0045
F25.3191
F0.0991
F0.3152
F0.003
g11
(g15
S'\x00\x00\x00\x00\x00\xa0g@'
p3603
tp3604
Rp3605
tp3606
a(S'bvert_4MeV_neg15tilt_15rot_det8.npy'
p3607
F0.2634
F0.0029
F25.544
F0.0853
F0.1443
F0.0017
g11
(g15
S'\x00\x00\x00\x00\x00 e@'
p3608
tp3609
Rp3610
tp3611
a(S'bvert_4MeV_neg15tilt_15rot_det9.npy'
p3612
F0.0756
F0.0018
F23.6892
F0.0978
F0.0389
F0.001
g11
(g15
S'\x00\x00\x00\x00\x00 e@'
p3613
tp3614
Rp3615
tp3616
a(S'bvert_4MeV_neg15tilt_25rot_det10.npy'
p3617
F0.0682
F0.0012
F22.1204
F0.087
F0.0343
F0.0006
g11
(g15
S'\x00\x00\x00\x00\x00 c@'
p3618
tp3619
Rp3620
tp3621
a(S'bvert_4MeV_neg15tilt_25rot_det11.npy'
p3622
F0.2154
F0.0026
F26.5404
F0.0923
F0.1174
F0.0016
g11
(g15
S'\x00\x00\x00\x00\x00@c@'
p3623
tp3624
Rp3625
tp3626
a(S'bvert_4MeV_neg15tilt_25rot_det12.npy'
p3627
F0.446
F0.0044
F26.4795
F0.0983
F0.2585
F0.0029
g11
(g15
S'\x00\x00\x00\x00\x00\xe0b@'
p3628
tp3629
Rp3630
tp3631
a(S'bvert_4MeV_neg15tilt_25rot_det13.npy'
p3632
F0.7281
F0.0058
F31.6165
F0.1081
F0.4397
F0.004
g11
(g15
S'\x00\x00\x00\x00\x00\xa0f@'
p3633
tp3634
Rp3635
tp3636
a(S'bvert_4MeV_neg15tilt_25rot_det14.npy'
p3637
F1.027
F0.0091
F41.0481
F0.1847
F0.6395
F0.0063
g11
(g15
S'\x00\x00\x00\x00\x00@b@'
p3638
tp3639
Rp3640
tp3641
a(S'bvert_4MeV_neg15tilt_25rot_det15.npy'
p3642
F1.2583
F0.0211
F64.9583
F0.549
F0.8031
F0.0146
g11
(g15
S'\x00\x00\x00\x00\x00\xc0X@'
p3643
tp3644
Rp3645
tp3646
a(S'bvert_4MeV_neg15tilt_25rot_det4.npy'
p3647
F1.5027
F0.0154
F62.7001
F0.6303
F0.9719
F0.011
g11
(g15
S'\x00\x00\x00\x00\x00@R@'
p3648
tp3649
Rp3650
tp3651
a(S'bvert_4MeV_neg15tilt_25rot_det5.npy'
p3652
F1.1973
F0.0126
F38.889
F0.1972
F0.7563
F0.0088
g11
(g15
S'\x00\x00\x00\x00\x00\x80`@'
p3653
tp3654
Rp3655
tp3656
a(S'bvert_4MeV_neg15tilt_25rot_det6.npy'
p3657
F0.8674
F0.0079
F28.9059
F0.1597
F0.5277
F0.0054
g11
(g15
S'\x00\x00\x00\x00\x00`a@'
p3658
tp3659
Rp3660
tp3661
a(S'bvert_4MeV_neg15tilt_25rot_det7.npy'
p3662
F0.524
F0.0051
F25.526
F0.0986
F0.3048
F0.0032
g11
(g15
S'\x00\x00\x00\x00\x00\x00h@'
p3663
tp3664
Rp3665
tp3666
a(S'bvert_4MeV_neg15tilt_25rot_det8.npy'
p3667
F0.2558
F0.0029
F25.6286
F0.0919
F0.14
F0.0017
g11
(g15
S'\x00\x00\x00\x00\x00\x80e@'
p3668
tp3669
Rp3670
tp3671
a(S'bvert_4MeV_neg15tilt_25rot_det9.npy'
p3672
F0.0804
F0.0015
F23.6891
F0.0922
F0.0411
F0.0008
g11
(g15
S'\x00\x00\x00\x00\x00 d@'
p3673
tp3674
Rp3675
tp3676
a(S'bvert_4MeV_neg15tilt_315rot_det10.npy'
p3677
F0.0645
F0.0013
F22.3443
F0.0847
F0.032
F0.0007
g11
(g15
S'\x00\x00\x00\x00\x00\x80a@'
p3678
tp3679
Rp3680
tp3681
a(S'bvert_4MeV_neg15tilt_315rot_det11.npy'
p3682
F0.2184
F0.0028
F26.4231
F0.0945
F0.1189
F0.0016
g11
(g15
S'\x00\x00\x00\x00\x00\x80d@'
p3683
tp3684
Rp3685
tp3686
a(S'bvert_4MeV_neg15tilt_315rot_det12.npy'
p3687
F0.486
F0.0047
F26.422
F0.0938
F0.2847
F0.0031
g11
(g15
S'\x00\x00\x00\x00\x00\x00d@'
p3688
tp3689
Rp3690
tp3691
a(S'bvert_4MeV_neg15tilt_315rot_det13.npy'
p3692
F0.8374
F0.0069
F31.5537
F0.1171
F0.5091
F0.0047
g11
(g15
S'\x00\x00\x00\x00\x00\x80`@'
p3693
tp3694
Rp3695
tp3696
a(S'bvert_4MeV_neg15tilt_315rot_det14.npy'
p3697
F1.2676
F0.0106
F41.4124
F0.22
F0.7949
F0.0074
g11
(g15
S'\x00\x00\x00\x00\x00\x00^@'
p3698
tp3699
Rp3700
tp3701
a(S'bvert_4MeV_neg15tilt_315rot_det15.npy'
p3702
F1.6269
F0.0217
F64.7241
F0.5701
F1.0344
F0.0143
g11
(g15
S'\x00\x00\x00\x00\x00\xc0Q@'
p3703
tp3704
Rp3705
tp3706
a(S'bvert_4MeV_neg15tilt_315rot_det4.npy'
p3707
F1.6031
F0.02
F63.5947
F0.6533
F1.0091
F0.0144
g11
(g15
S'\x00\x00\x00\x00\x00\x80T@'
p3708
tp3709
Rp3710
tp3711
a(S'bvert_4MeV_neg15tilt_315rot_det5.npy'
p3712
F1.2327
F0.0127
F39.1711
F0.2136
F0.7653
F0.0088
g11
(g15
S'\x00\x00\x00\x00\x00@_@'
p3713
tp3714
Rp3715
tp3716
a(S'bvert_4MeV_neg15tilt_315rot_det6.npy'
p3717
F0.8245
F0.0072
F29.1297
F0.1461
F0.5008
F0.0048
g11
(g15
S'\x00\x00\x00\x00\x00`a@'
p3718
tp3719
Rp3720
tp3721
a(S'bvert_4MeV_neg15tilt_315rot_det7.npy'
p3722
F0.4687
F0.004
F25.418
F0.0965
F0.2706
F0.0026
g11
(g15
S'\x00\x00\x00\x00\x00\x80f@'
p3723
tp3724
Rp3725
tp3726
a(S'bvert_4MeV_neg15tilt_315rot_det8.npy'
p3727
F0.2068
F0.0027
F25.8144
F0.0979
F0.1119
F0.0016
g11
(g15
S'\x00\x00\x00\x00\x00`c@'
p3728
tp3729
Rp3730
tp3731
a(S'bvert_4MeV_neg15tilt_315rot_det9.npy'
p3732
F0.0639
F0.0011
F23.6704
F0.0879
F0.031
F0.0006
g11
(g15
S'\x00\x00\x00\x00\x00\xc0d@'
p3733
tp3734
Rp3735
tp3736
a(S'bvert_4MeV_neg15tilt_335rot_det10.npy'
p3737
F0.0629
F0.0009
F22.2139
F0.0738
F0.0303
F0.0005
g11
(g15
S'\x00\x00\x00\x00\x00\xc0i@'
p3738
tp3739
Rp3740
tp3741
a(S'bvert_4MeV_neg15tilt_335rot_det11.npy'
p3742
F0.198
F0.0025
F26.5176
F0.0752
F0.1065
F0.0015
g11
(g15
S'\x00\x00\x00\x00\x00\x00j@'
p3743
tp3744
Rp3745
tp3746
a(S'bvert_4MeV_neg15tilt_335rot_det12.npy'
p3747
F0.4514
F0.0037
F26.5823
F0.08
F0.2608
F0.0025
g11
(g15
S'\x00\x00\x00\x00\x00\xa0k@'
p3748
tp3749
Rp3750
tp3751
a(S'bvert_4MeV_neg15tilt_335rot_det13.npy'
p3752
F0.7799
F0.0059
F31.5472
F0.1068
F0.4757
F0.0038
g11
(g15
S'\x00\x00\x00\x00\x00\xc0j@'
p3753
tp3754
Rp3755
tp3756
a(S'bvert_4MeV_neg15tilt_335rot_det14.npy'
p3757
F1.2018
F0.0086
F41.0262
F0.203
F0.7604
F0.0061
g11
(g15
S'\x00\x00\x00\x00\x00\x00a@'
p3758
tp3759
Rp3760
tp3761
a(S'bvert_4MeV_neg15tilt_335rot_det15.npy'
p3762
F1.5237
F0.0165
F64.4263
F0.5846
F0.9764
F0.0112
g11
(g15
S'\x00\x00\x00\x00\x00\xc0U@'
p3763
tp3764
Rp3765
tp3766
a(S'bvert_4MeV_neg15tilt_335rot_det4.npy'
p3767
F1.6145
F0.0236
F64.2935
F0.5008
F1.0098
F0.0159
g11
(g15
S'\x00\x00\x00\x00\x00\x80_@'
p3768
tp3769
Rp3770
tp3771
a(S'bvert_4MeV_neg15tilt_335rot_det5.npy'
p3772
F1.3071
F0.0109
F38.977
F0.1827
F0.8044
F0.0077
g11
(g15
S'\x00\x00\x00\x00\x00 b@'
p3773
tp3774
Rp3775
tp3776
a(S'bvert_4MeV_neg15tilt_335rot_det6.npy'
p3777
F0.8882
F0.0072
F29.0717
F0.1171
F0.5361
F0.005
g11
(g15
S'\x00\x00\x00\x00\x00\xc0i@'
p3778
tp3779
Rp3780
tp3781
a(S'bvert_4MeV_neg15tilt_335rot_det7.npy'
p3782
F0.502
F0.0049
F25.5628
F0.0945
F0.2914
F0.0031
g11
(g15
S'\x00\x00\x00\x00\x00 j@'
p3783
tp3784
Rp3785
tp3786
a(S'bvert_4MeV_neg15tilt_335rot_det8.npy'
p3787
F0.2288
F0.0028
F25.7791
F0.0848
F0.125
F0.0016
g11
(g15
S'\x00\x00\x00\x00\x00\x00h@'
p3788
tp3789
Rp3790
tp3791
a(S'bvert_4MeV_neg15tilt_335rot_det9.npy'
p3792
F0.0673
F0.0011
F23.762
F0.0806
F0.0341
F0.0006
g11
(g15
S'\x00\x00\x00\x00\x00 j@'
p3793
tp3794
Rp3795
tp3796
a(S'bvert_4MeV_neg15tilt_345rot_det10.npy'
p3797
F0.0625
F0.0013
F22.3112
F0.0803
F0.0306
F0.0007
g11
(g15
S'\x00\x00\x00\x00\x00\xc0d@'
p3798
tp3799
Rp3800
tp3801
a(S'bvert_4MeV_neg15tilt_345rot_det11.npy'
p3802
F0.196
F0.0021
F26.5762
F0.0759
F0.1041
F0.0013
g11
(g15
S'\x00\x00\x00\x00\x00\xc0f@'
p3803
tp3804
Rp3805
tp3806
a(S'bvert_4MeV_neg15tilt_345rot_det12.npy'
p3807
F0.4394
F0.004
F26.5127
F0.0828
F0.2528
F0.0026
g11
(g15
S'\x00\x00\x00\x00\x00\xc0e@'
p3808
tp3809
Rp3810
tp3811
a(S'bvert_4MeV_neg15tilt_345rot_det13.npy'
p3812
F0.7603
F0.0061
F31.376
F0.1074
F0.4608
F0.0042
g11
(g15
S'\x00\x00\x00\x00\x00\xa0f@'
p3813
tp3814
Rp3815
tp3816
a(S'bvert_4MeV_neg15tilt_345rot_det14.npy'
p3817
F1.1386
F0.009
F41.0024
F0.2133
F0.7185
F0.0066
g11
(g15
S'\x00\x00\x00\x00\x00 `@'
p3818
tp3819
Rp3820
tp3821
a(S'bvert_4MeV_neg15tilt_345rot_det15.npy'
p3822
F1.4583
F0.0186
F65.585
F0.4993
F0.9332
F0.0128
g11
(g15
S'\x00\x00\x00\x00\x00\x00W@'
p3823
tp3824
Rp3825
tp3826
a(S'bvert_4MeV_neg15tilt_345rot_det4.npy'
p3827
F1.6642
F0.0175
F64.0043
F0.5534
F1.049
F0.0118
g11
(g15
S'\x00\x00\x00\x00\x00\x00V@'
p3828
tp3829
Rp3830
tp3831
a(S'bvert_4MeV_neg15tilt_345rot_det5.npy'
p3832
F1.3719
F0.0111
F38.7631
F0.1943
F0.8477
F0.0078
g11
(g15
S'\x00\x00\x00\x00\x00\x00b@'
p3833
tp3834
Rp3835
tp3836
a(S'bvert_4MeV_neg15tilt_345rot_det6.npy'
p3837
F0.9276
F0.0064
F28.9167
F0.1389
F0.5524
F0.0042
g11
(g15
S'\x00\x00\x00\x00\x00\x00b@'
p3838
tp3839
Rp3840
tp3841
a(S'bvert_4MeV_neg15tilt_345rot_det7.npy'
p3842
F0.5314
F0.0048
F25.2952
F0.0903
F0.3052
F0.003
g11
(g15
S'\x00\x00\x00\x00\x00@g@'
p3843
tp3844
Rp3845
tp3846
a(S'bvert_4MeV_neg15tilt_345rot_det8.npy'
p3847
F0.2435
F0.0029
F25.7669
F0.0866
F0.1324
F0.0017
g11
(g15
S'\x00\x00\x00\x00\x00\x00d@'
p3848
tp3849
Rp3850
tp3851
a(S'bvert_4MeV_neg15tilt_345rot_det9.npy'
p3852
F0.0704
F0.0014
F23.749
F0.0892
F0.0357
F0.0008
g11
(g15
S'\x00\x00\x00\x00\x00\xc0c@'
p3853
tp3854
Rp3855
tp3856
a(S'bvert_4MeV_neg15tilt_355rot_det10.npy'
p3857
F0.0649
F0.0009
F22.2812
F0.0879
F0.0318
F0.0005
g11
(g15
S'\x00\x00\x00\x00\x00\x00d@'
p3858
tp3859
Rp3860
tp3861
a(S'bvert_4MeV_neg15tilt_355rot_det11.npy'
p3862
F0.1967
F0.0022
F26.6129
F0.0857
F0.1052
F0.0013
g11
(g15
S'\x00\x00\x00\x00\x00 e@'
p3863
tp3864
Rp3865
tp3866
a(S'bvert_4MeV_neg15tilt_355rot_det12.npy'
p3867
F0.428
F0.0045
F26.7376
F0.0957
F0.2451
F0.0029
g11
(g15
S'\x00\x00\x00\x00\x00\x00d@'
p3868
tp3869
Rp3870
tp3871
a(S'bvert_4MeV_neg15tilt_355rot_det13.npy'
p3872
F0.7388
F0.0055
F31.4573
F0.1164
F0.4462
F0.0038
g11
(g15
S'\x00\x00\x00\x00\x00\xa0d@'
p3873
tp3874
Rp3875
tp3876
a(S'bvert_4MeV_neg15tilt_355rot_det14.npy'
p3877
F1.1128
F0.0103
F41.2141
F0.2209
F0.7018
F0.0074
g11
(g15
S'\x00\x00\x00\x00\x00@^@'
p3878
tp3879
Rp3880
tp3881
a(S'bvert_4MeV_neg15tilt_355rot_det15.npy'
p3882
F1.4418
F0.0167
F65.7707
F0.5513
F0.9298
F0.0123
g11
(g15
S'\x00\x00\x00\x00\x00\xc0U@'
p3883
tp3884
Rp3885
tp3886
a(S'bvert_4MeV_neg15tilt_355rot_det4.npy'
p3887
F1.675
F0.0149
F62.4668
F0.6157
F1.0673
F0.0114
g11
(g15
S'\x00\x00\x00\x00\x00\x00R@'
p3888
tp3889
Rp3890
tp3891
a(S'bvert_4MeV_neg15tilt_355rot_det5.npy'
p3892
F1.3047
F0.0116
F38.7539
F0.2006
F0.8093
F0.008
g11
(g15
S'\x00\x00\x00\x00\x00\xa0b@'
p3893
tp3894
Rp3895
tp3896
a(S'bvert_4MeV_neg15tilt_355rot_det6.npy'
p3897
F0.9317
F0.0089
F29.0897
F0.149
F0.5566
F0.0061
g11
(g15
S'\x00\x00\x00\x00\x00\xc0b@'
p3898
tp3899
Rp3900
tp3901
a(S'bvert_4MeV_neg15tilt_355rot_det7.npy'
p3902
F0.5474
F0.0053
F25.3592
F0.0923
F0.3146
F0.0033
g11
(g15
S'\x00\x00\x00\x00\x00 d@'
p3903
tp3904
Rp3905
tp3906
a(S'bvert_4MeV_neg15tilt_355rot_det8.npy'
p3907
F0.2508
F0.0032
F25.6
F0.0936
F0.1371
F0.0019
g11
(g15
S'\x00\x00\x00\x00\x00\x00c@'
p3908
tp3909
Rp3910
tp3911
a(S'bvert_4MeV_neg15tilt_355rot_det9.npy'
p3912
F0.0735
F0.0012
F23.6977
F0.0953
F0.038
F0.0007
g11
(g15
S'\x00\x00\x00\x00\x00\x00d@'
p3913
tp3914
Rp3915
tp3916
a(S'bvert_4MeV_neg15tilt_35rot_det10.npy'
p3917
F0.0727
F0.0013
F22.1966
F0.0846
F0.0372
F0.0007
g11
(g15
S'\x00\x00\x00\x00\x00 d@'
p3918
tp3919
Rp3920
tp3921
a(S'bvert_4MeV_neg15tilt_35rot_det11.npy'
p3922
F0.2234
F0.0027
F26.3911
F0.0902
F0.1226
F0.0016
g11
(g15
S'\x00\x00\x00\x00\x00\xc0d@'
p3923
tp3924
Rp3925
tp3926
a(S'bvert_4MeV_neg15tilt_35rot_det12.npy'
p3927
F0.4721
F0.0044
F26.3902
F0.089
F0.274
F0.0028
g11
(g15
S'\x00\x00\x00\x00\x00 f@'
p3928
tp3929
Rp3930
tp3931
a(S'bvert_4MeV_neg15tilt_35rot_det13.npy'
p3932
F0.7567
F0.0062
F31.3297
F0.1204
F0.4581
F0.0042
g11
(g15
S'\x00\x00\x00\x00\x00@d@'
p3933
tp3934
Rp3935
tp3936
a(S'bvert_4MeV_neg15tilt_35rot_det14.npy'
p3937
F1.0508
F0.0088
F41.2963
F0.2006
F0.6572
F0.0062
g11
(g15
S'\x00\x00\x00\x00\x00\x00c@'
p3938
tp3939
Rp3940
tp3941
a(S'bvert_4MeV_neg15tilt_35rot_det15.npy'
p3942
F1.3321
F0.0144
F64.9972
F0.5299
F0.8479
F0.0101
g11
(g15
S'\x00\x00\x00\x00\x00\x80V@'
p3943
tp3944
Rp3945
tp3946
a(S'bvert_4MeV_neg15tilt_35rot_det4.npy'
p3947
F1.4573
F0.0146
F63.6714
F0.651
F0.9451
F0.0106
g11
(g15
S'\x00\x00\x00\x00\x00\x00T@'
p3948
tp3949
Rp3950
tp3951
a(S'bvert_4MeV_neg15tilt_35rot_det5.npy'
p3952
F1.1866
F0.009
F38.8892
F0.2059
F0.7524
F0.0066
g11
(g15
S'\x00\x00\x00\x00\x00@^@'
p3953
tp3954
Rp3955
tp3956
a(S'bvert_4MeV_neg15tilt_35rot_det6.npy'
p3957
F0.8554
F0.0061
F28.9587
F0.1454
F0.5243
F0.0043
g11
(g15
S'\x00\x00\x00\x00\x00\x80b@'
p3958
tp3959
Rp3960
tp3961
a(S'bvert_4MeV_neg15tilt_35rot_det7.npy'
p3962
F0.5171
F0.0043
F25.4076
F0.1029
F0.3013
F0.0029
g11
(g15
S'\x00\x00\x00\x00\x00@f@'
p3963
tp3964
Rp3965
tp3966
a(S'bvert_4MeV_neg15tilt_35rot_det8.npy'
p3967
F0.2494
F0.0031
F25.7485
F0.0953
F0.1364
F0.0019
g11
(g15
S'\x00\x00\x00\x00\x00\xa0`@'
p3968
tp3969
Rp3970
tp3971
a(S'bvert_4MeV_neg15tilt_35rot_det9.npy'
p3972
F0.0809
F0.0012
F23.6226
F0.0806
F0.0414
F0.0007
g11
(g15
S'\x00\x00\x00\x00\x00\xe0f@'
p3973
tp3974
Rp3975
tp3976
a(S'bvert_4MeV_neg15tilt_45rot_det10.npy'
p3977
F0.0779
F0.0013
F21.9719
F0.0908
F0.04
F0.0007
g11
(g15
S'\x00\x00\x00\x00\x00\xe0b@'
p3978
tp3979
Rp3980
tp3981
a(S'bvert_4MeV_neg15tilt_45rot_det11.npy'
p3982
F0.2367
F0.0027
F26.5539
F0.0805
F0.129
F0.0016
g11
(g15
S'\x00\x00\x00\x00\x00\xe0d@'
p3983
tp3984
Rp3985
tp3986
a(S'bvert_4MeV_neg15tilt_45rot_det12.npy'
p3987
F0.4893
F0.0041
F26.4608
F0.0855
F0.2849
F0.0028
g11
(g15
S'\x00\x00\x00\x00\x00\xc0e@'
p3988
tp3989
Rp3990
tp3991
a(S'bvert_4MeV_neg15tilt_45rot_det13.npy'
p3992
F0.7976
F0.0065
F31.2958
F0.1245
F0.485
F0.0045
g11
(g15
S'\x00\x00\x00\x00\x00\xa0c@'
p3993
tp3994
Rp3995
tp3996
a(S'bvert_4MeV_neg15tilt_45rot_det14.npy'
p3997
F1.0722
F0.0118
F41.5
F0.2304
F0.6677
F0.0084
g11
(g15
S'\x00\x00\x00\x00\x00\x00]@'
p3998
tp3999
Rp4000
tp4001
a(S'bvert_4MeV_neg15tilt_45rot_det15.npy'
p4002
F1.3075
F0.0206
F64.4303
F0.5994
F0.8357
F0.0142
g11
(g15
S'\x00\x00\x00\x00\x00@W@'
p4003
tp4004
Rp4005
tp4006
a(S'bvert_4MeV_neg15tilt_45rot_det4.npy'
p4007
F1.3989
F0.0144
F62.7271
F0.4834
F0.8979
F0.0104
g11
(g15
S'\x00\x00\x00\x00\x00\xc0Y@'
p4008
tp4009
Rp4010
tp4011
a(S'bvert_4MeV_neg15tilt_45rot_det5.npy'
p4012
F1.1462
F0.0097
F38.6891
F0.2219
F0.7238
F0.0066
g11
(g15
S'\x00\x00\x00\x00\x00\x00_@'
p4013
tp4014
Rp4015
tp4016
a(S'bvert_4MeV_neg15tilt_45rot_det6.npy'
p4017
F0.8079
F0.0075
F29.1244
F0.1484
F0.494
F0.0053
g11
(g15
S'\x00\x00\x00\x00\x00 c@'
p4018
tp4019
Rp4020
tp4021
a(S'bvert_4MeV_neg15tilt_45rot_det7.npy'
p4022
F0.4985
F0.0049
F25.5921
F0.1052
F0.2902
F0.0031
g11
(g15
S'\x00\x00\x00\x00\x00\xc0e@'
p4023
tp4024
Rp4025
tp4026
a(S'bvert_4MeV_neg15tilt_45rot_det8.npy'
p4027
F0.2472
F0.0024
F25.6755
F0.0828
F0.1362
F0.0015
g11
(g15
S'\x00\x00\x00\x00\x00\x00e@'
p4028
tp4029
Rp4030
tp4031
a(S'bvert_4MeV_neg15tilt_45rot_det9.npy'
p4032
F0.0785
F0.0013
F23.5996
F0.0812
F0.0406
F0.0007
g11
(g15
S'\x00\x00\x00\x00\x00\x00e@'
p4033
tp4034
Rp4035
tp4036
a(S'bvert_4MeV_neg15tilt_55rot_det10.npy'
p4037
F0.0816
F0.0013
F21.9649
F0.0877
F0.042
F0.0007
g11
(g15
S'\x00\x00\x00\x00\x00 d@'
p4038
tp4039
Rp4040
tp4041
a(S'bvert_4MeV_neg15tilt_55rot_det11.npy'
p4042
F0.2474
F0.0028
F26.4822
F0.0858
F0.1359
F0.0017
g11
(g15
S'\x00\x00\x00\x00\x00\xa0d@'
p4043
tp4044
Rp4045
tp4046
a(S'bvert_4MeV_neg15tilt_55rot_det12.npy'
p4047
F0.5114
F0.0043
F26.3839
F0.0906
F0.2975
F0.0028
g11
(g15
S'\x00\x00\x00\x00\x00\xc0f@'
p4048
tp4049
Rp4050
tp4051
a(S'bvert_4MeV_neg15tilt_55rot_det13.npy'
p4052
F0.8238
F0.0061
F31.5687
F0.1166
F0.5006
F0.0042
g11
(g15
S'\x00\x00\x00\x00\x00\x00e@'
p4053
tp4054
Rp4055
tp4056
a(S'bvert_4MeV_neg15tilt_55rot_det14.npy'
p4057
F1.1263
F0.0127
F41.3524
F0.2268
F0.7048
F0.0088
g11
(g15
S'\x00\x00\x00\x00\x00\x00\\@'
p4058
tp4059
Rp4060
tp4061
a(S'bvert_4MeV_neg15tilt_55rot_det15.npy'
p4062
F1.3826
F0.0146
F64.3249
F0.5012
F0.8826
F0.0101
g11
(g15
S'\x00\x00\x00\x00\x00\xc0T@'
p4063
tp4064
Rp4065
tp4066
a(S'bvert_4MeV_neg15tilt_55rot_det4.npy'
p4067
F1.3299
F0.0154
F64.0939
F0.6541
F0.8514
F0.0112
g11
(g15
S'\x00\x00\x00\x00\x00\x00U@'
p4068
tp4069
Rp4070
tp4071
a(S'bvert_4MeV_neg15tilt_55rot_det5.npy'
p4072
F1.0832
F0.0108
F38.8916
F0.2212
F0.6786
F0.0076
g11
(g15
S'\x00\x00\x00\x00\x00\xc0W@'
p4073
tp4074
Rp4075
tp4076
a(S'bvert_4MeV_neg15tilt_55rot_det6.npy'
p4077
F0.7941
F0.0064
F29.1527
F0.1295
F0.4852
F0.0045
g11
(g15
S'\x00\x00\x00\x00\x00\xe0c@'
p4078
tp4079
Rp4080
tp4081
a(S'bvert_4MeV_neg15tilt_55rot_det7.npy'
p4082
F0.461
F0.0051
F25.5532
F0.1067
F0.2692
F0.0034
g11
(g15
S'\x00\x00\x00\x00\x00\xe0c@'
p4083
tp4084
Rp4085
tp4086
a(S'bvert_4MeV_neg15tilt_55rot_det8.npy'
p4087
F0.2385
F0.0025
F25.4868
F0.0886
F0.1311
F0.0015
g11
(g15
S'\x00\x00\x00\x00\x00\x80d@'
p4088
tp4089
Rp4090
tp4091
a(S'bvert_4MeV_neg15tilt_55rot_det9.npy'
p4092
F0.0728
F0.0014
F23.7646
F0.0864
F0.0371
F0.0008
g11
(g15
S'\x00\x00\x00\x00\x00\x00e@'
p4093
tp4094
Rp4095
tp4096
a(S'bvert_4MeV_neg15tilt_5rot_det10.npy'
p4097
F0.0678
F0.0012
F22.2461
F0.0892
F0.0337
F0.0007
g11
(g15
S'\x00\x00\x00\x00\x00\xe0d@'
p4098
tp4099
Rp4100
tp4101
a(S'bvert_4MeV_neg15tilt_5rot_det11.npy'
p4102
F0.1985
F0.0022
F26.6269
F0.0806
F0.1059
F0.0014
g11
(g15
S'\x00\x00\x00\x00\x00`d@'
p4103
tp4104
Rp4105
tp4106
a(S'bvert_4MeV_neg15tilt_5rot_det12.npy'
p4107
F0.4329
F0.0039
F26.6793
F0.0936
F0.2479
F0.0025
g11
(g15
S'\x00\x00\x00\x00\x00\x00c@'
p4108
tp4109
Rp4110
tp4111
a(S'bvert_4MeV_neg15tilt_5rot_det13.npy'
p4112
F0.7447
F0.005
F31.5484
F0.1384
F0.45
F0.0035
g11
(g15
S'\x00\x00\x00\x00\x00@`@'
p4113
tp4114
Rp4115
tp4116
a(S'bvert_4MeV_neg15tilt_5rot_det14.npy'
p4117
F1.0675
F0.0103
F40.9553
F0.2067
F0.6709
F0.0072
g11
(g15
S'\x00\x00\x00\x00\x00@^@'
p4118
tp4119
Rp4120
tp4121
a(S'bvert_4MeV_neg15tilt_5rot_det15.npy'
p4122
F1.3723
F0.0195
F65.3504
F0.7616
F0.883
F0.0144
g11
(g15
S'\x00\x00\x00\x00\x00\x00R@'
p4123
tp4124
Rp4125
tp4126
a(S'bvert_4MeV_neg15tilt_5rot_det4.npy'
p4127
F1.6077
F0.0172
F64.546
F0.5932
F1.0323
F0.0121
g11
(g15
S'\x00\x00\x00\x00\x00\xc0T@'
p4128
tp4129
Rp4130
tp4131
a(S'bvert_4MeV_neg15tilt_5rot_det5.npy'
p4132
F1.297
F0.0116
F38.8435
F0.2058
F0.8128
F0.0083
g11
(g15
S'\x00\x00\x00\x00\x00@^@'
p4133
tp4134
Rp4135
tp4136
a(S'bvert_4MeV_neg15tilt_5rot_det6.npy'
p4137
F0.9371
F0.0076
F28.9747
F0.1347
F0.5623
F0.0051
g11
(g15
S'\x00\x00\x00\x00\x00\xe0b@'
p4138
tp4139
Rp4140
tp4141
a(S'bvert_4MeV_neg15tilt_5rot_det7.npy'
p4142
F0.5636
F0.0044
F25.2766
F0.1006
F0.324
F0.0028
g11
(g15
S'\x00\x00\x00\x00\x00\x80f@'
p4143
tp4144
Rp4145
tp4146
a(S'bvert_4MeV_neg15tilt_5rot_det8.npy'
p4147
F0.2543
F0.0034
F25.6434
F0.0915
F0.1386
F0.002
g11
(g15
S'\x00\x00\x00\x00\x00@b@'
p4148
tp4149
Rp4150
tp4151
a(S'bvert_4MeV_neg15tilt_5rot_det9.npy'
p4152
F0.0787
F0.0012
F23.8045
F0.0888
F0.0403
F0.0007
g11
(g15
S'\x00\x00\x00\x00\x00@e@'
p4153
tp4154
Rp4155
tp4156
a(S'bvert_4MeV_neg15tilt_75rot_det10.npy'
p4157
F0.081
F0.0014
F22.1232
F0.0866
F0.0413
F0.0008
g11
(g15
S'\x00\x00\x00\x00\x00`b@'
p4158
tp4159
Rp4160
tp4161
a(S'bvert_4MeV_neg15tilt_75rot_det11.npy'
p4162
F0.2574
F0.0033
F26.4343
F0.0887
F0.1405
F0.0021
g11
(g15
S'\x00\x00\x00\x00\x00\x00c@'
p4163
tp4164
Rp4165
tp4166
a(S'bvert_4MeV_neg15tilt_75rot_det12.npy'
p4167
F0.5468
F0.0053
F26.4651
F0.1024
F0.3163
F0.0033
g11
(g15
S'\x00\x00\x00\x00\x00\xa0a@'
p4168
tp4169
Rp4170
tp4171
a(S'bvert_4MeV_neg15tilt_75rot_det13.npy'
p4172
F0.8931
F0.0075
F31.4134
F0.117
F0.5353
F0.005
g11
(g15
S'\x00\x00\x00\x00\x00\xc0d@'
p4173
tp4174
Rp4175
tp4176
a(S'bvert_4MeV_neg15tilt_75rot_det14.npy'
p4177
F1.2537
F0.0102
F41.0544
F0.2056
F0.784
F0.007
g11
(g15
S'\x00\x00\x00\x00\x00\x00_@'
p4178
tp4179
Rp4180
tp4181
a(S'bvert_4MeV_neg15tilt_75rot_det15.npy'
p4182
F1.4675
F0.015
F65.8794
F0.5258
F0.9413
F0.0105
g11
(g15
S'\x00\x00\x00\x00\x00\x80W@'
p4183
tp4184
Rp4185
tp4186
a(S'bvert_4MeV_neg15tilt_75rot_det4.npy'
p4187
F1.3109
F0.0145
F63.8847
F0.5745
F0.8366
F0.0098
g11
(g15
S'\x00\x00\x00\x00\x00\x00Y@'
p4188
tp4189
Rp4190
tp4191
a(S'bvert_4MeV_neg15tilt_75rot_det5.npy'
p4192
F1.0448
F0.009
F38.6123
F0.2208
F0.654
F0.0066
g11
(g15
S'\x00\x00\x00\x00\x00@\\@'
p4193
tp4194
Rp4195
tp4196
a(S'bvert_4MeV_neg15tilt_75rot_det6.npy'
p4197
F0.7331
F0.0064
F29.0721
F0.1381
F0.4411
F0.0044
g11
(g15
S'\x00\x00\x00\x00\x00\x80b@'
p4198
tp4199
Rp4200
tp4201
a(S'bvert_4MeV_neg15tilt_75rot_det7.npy'
p4202
F0.4475
F0.0042
F25.5414
F0.0995
F0.2586
F0.0027
g11
(g15
S'\x00\x00\x00\x00\x00\x80e@'
p4203
tp4204
Rp4205
tp4206
a(S'bvert_4MeV_neg15tilt_75rot_det8.npy'
p4207
F0.2144
F0.0021
F25.65
F0.0876
F0.1161
F0.0013
g11
(g15
S'\x00\x00\x00\x00\x00\xe0e@'
p4208
tp4209
Rp4210
tp4211
a(S'bvert_4MeV_neg15tilt_75rot_det9.npy'
p4212
F0.071
F0.0012
F23.603
F0.0782
F0.0358
F0.0006
g11
(g15
S'\x00\x00\x00\x00\x00\x00g@'
p4213
tp4214
Rp4215
tp4216
a(S'bvert_4MeV_neg15tilt_95rot_det10.npy'
p4217
F0.0779
F0.0011
F21.9618
F0.0842
F0.04
F0.0006
g11
(g15
S'\x00\x00\x00\x00\x00 f@'
p4218
tp4219
Rp4220
tp4221
a(S'bvert_4MeV_neg15tilt_95rot_det11.npy'
p4222
F0.2505
F0.0025
F26.5131
F0.086
F0.1372
F0.0015
g11
(g15
S'\x00\x00\x00\x00\x00\x00f@'
p4223
tp4224
Rp4225
tp4226
a(S'bvert_4MeV_neg15tilt_95rot_det12.npy'
p4227
F0.563
F0.0051
F26.4517
F0.0917
F0.3242
F0.0031
g11
(g15
S'\x00\x00\x00\x00\x00\x80c@'
p4228
tp4229
Rp4230
tp4231
a(S'bvert_4MeV_neg15tilt_95rot_det13.npy'
p4232
F0.9519
F0.0069
F31.5905
F0.1321
F0.5701
F0.0046
g11
(g15
S'\x00\x00\x00\x00\x00\x80c@'
p4233
tp4234
Rp4235
tp4236
a(S'bvert_4MeV_neg15tilt_95rot_det14.npy'
p4237
F1.3365
F0.0113
F41.222
F0.2317
F0.8279
F0.008
g11
(g15
S'\x00\x00\x00\x00\x00\x80Z@'
p4238
tp4239
Rp4240
tp4241
a(S'bvert_4MeV_neg15tilt_95rot_det15.npy'
p4242
F1.6239
F0.0206
F64.9345
F0.5531
F1.0298
F0.014
g11
(g15
S'\x00\x00\x00\x00\x00\xc0R@'
p4243
tp4244
Rp4245
tp4246
a(S'bvert_4MeV_neg15tilt_95rot_det4.npy'
p4247
F1.3667
F0.0169
F63.2009
F0.6692
F0.8782
F0.0116
g11
(g15
S'\x00\x00\x00\x00\x00\x00R@'
p4248
tp4249
Rp4250
tp4251
a(S'bvert_4MeV_neg15tilt_95rot_det5.npy'
p4252
F1.0522
F0.0109
F39.1299
F0.2223
F0.659
F0.0077
g11
(g15
S'\x00\x00\x00\x00\x00\x80`@'
p4253
tp4254
Rp4255
tp4256
a(S'bvert_4MeV_neg15tilt_95rot_det6.npy'
p4257
F0.7103
F0.0057
F29.1366
F0.1432
F0.4265
F0.004
g11
(g15
S'\x00\x00\x00\x00\x00@d@'
p4258
tp4259
Rp4260
tp4261
a(S'bvert_4MeV_neg15tilt_95rot_det7.npy'
p4262
F0.4254
F0.0042
F25.556
F0.0986
F0.2434
F0.0026
g11
(g15
S'\x00\x00\x00\x00\x00 g@'
p4263
tp4264
Rp4265
tp4266
a(S'bvert_4MeV_neg15tilt_95rot_det8.npy'
p4267
F0.1979
F0.0025
F25.8213
F0.0916
F0.1052
F0.0015
g11
(g15
S'\x00\x00\x00\x00\x00\xa0b@'
p4268
tp4269
Rp4270
tp4271
a(S'bvert_4MeV_neg15tilt_95rot_det9.npy'
p4272
F0.0644
F0.001
F23.8241
F0.0856
F0.0319
F0.0006
g11
(g15
S'\x00\x00\x00\x00\x00\xe0h@'
p4273
tp4274
Rp4275
tp4276
a(S'bvert_4MeV_neg30tilt_115rot_det10.npy'
p4277
F0.0696
F0.0011
F22.4136
F0.0899
F0.0343
F0.0006
g11
(g15
S'\x00\x00\x00\x00\x00\x80d@'
p4278
tp4279
Rp4280
tp4281
a(S'bvert_4MeV_neg30tilt_115rot_det11.npy'
p4282
F0.2445
F0.0031
F26.5512
F0.0917
F0.1344
F0.0019
g11
(g15
S'\x00\x00\x00\x00\x00\x80]@'
p4283
tp4284
Rp4285
tp4286
a(S'bvert_4MeV_neg30tilt_115rot_det12.npy'
p4287
F0.5373
F0.0046
F26.5282
F0.0941
F0.313
F0.0029
g11
(g15
S'\x00\x00\x00\x00\x00 c@'
p4288
tp4289
Rp4290
tp4291
a(S'bvert_4MeV_neg30tilt_115rot_det13.npy'
p4292
F0.9106
F0.0076
F31.7418
F0.1291
F0.5485
F0.005
g11
(g15
S'\x00\x00\x00\x00\x00 a@'
p4293
tp4294
Rp4295
tp4296
a(S'bvert_4MeV_neg30tilt_115rot_det14.npy'
p4297
F1.3401
F0.0107
F41.0821
F0.2119
F0.8298
F0.0075
g11
(g15
S'\x00\x00\x00\x00\x00@\\@'
p4298
tp4299
Rp4300
tp4301
a(S'bvert_4MeV_neg30tilt_115rot_det15.npy'
p4302
F1.6914
F0.0143
F64.7637
F0.5681
F1.0597
F0.0107
g11
(g15
S'\x00\x00\x00\x00\x00\x00T@'
p4303
tp4304
Rp4305
tp4306
a(S'bvert_4MeV_neg30tilt_115rot_det4.npy'
p4307
F1.498
F0.0185
F62.7108
F0.5575
F0.954
F0.0129
g11
(g15
S'\x00\x00\x00\x00\x00\xc0T@'
p4308
tp4309
Rp4310
tp4311
a(S'bvert_4MeV_neg30tilt_115rot_det5.npy'
p4312
F1.1665
F0.0097
F38.7803
F0.2048
F0.7303
F0.0067
g11
(g15
S'\x00\x00\x00\x00\x00\x80`@'
p4313
tp4314
Rp4315
tp4316
a(S'bvert_4MeV_neg30tilt_115rot_det6.npy'
p4317
F0.7802
F0.0072
F29.0428
F0.1476
F0.4715
F0.0049
g11
(g15
S'\x00\x00\x00\x00\x00\xa0a@'
p4318
tp4319
Rp4320
tp4321
a(S'bvert_4MeV_neg30tilt_115rot_det7.npy'
p4322
F0.4361
F0.0046
F25.5226
F0.109
F0.2487
F0.0029
g11
(g15
S'\x00\x00\x00\x00\x00@c@'
p4323
tp4324
Rp4325
tp4326
a(S'bvert_4MeV_neg30tilt_115rot_det8.npy'
p4327
F0.2006
F0.0026
F25.768
F0.0814
F0.1065
F0.0015
g11
(g15
S'\x00\x00\x00\x00\x00\xc0e@'
p4328
tp4329
Rp4330
tp4331
a(S'bvert_4MeV_neg30tilt_115rot_det9.npy'
p4332
F0.0607
F0.0012
F23.9268
F0.0885
F0.0289
F0.0007
g11
(g15
S'\x00\x00\x00\x00\x00\x80]@'
p4333
tp4334
Rp4335
tp4336
a(S'bvert_4MeV_neg30tilt_135rot_det10.npy'
p4337
F0.068
F0.0012
F22.1835
F0.0933
F0.0326
F0.0007
g11
(g15
S'\x00\x00\x00\x00\x00\x80b@'
p4338
tp4339
Rp4340
tp4341
a(S'bvert_4MeV_neg30tilt_135rot_det11.npy'
p4342
F0.2238
F0.0027
F26.5679
F0.0934
F0.1212
F0.0017
g11
(g15
S'\x00\x00\x00\x00\x00\xc0b@'
p4343
tp4344
Rp4345
tp4346
a(S'bvert_4MeV_neg30tilt_135rot_det12.npy'
p4347
F0.495
F0.0052
F26.7031
F0.0874
F0.2886
F0.0034
g11
(g15
S'\x00\x00\x00\x00\x00\xa0d@'
p4348
tp4349
Rp4350
tp4351
a(S'bvert_4MeV_neg30tilt_135rot_det13.npy'
p4352
F0.8747
F0.0066
F31.5071
F0.1182
F0.5325
F0.0045
g11
(g15
S'\x00\x00\x00\x00\x00 d@'
p4353
tp4354
Rp4355
tp4356
a(S'bvert_4MeV_neg30tilt_135rot_det14.npy'
p4357
F1.2898
F0.0115
F40.822
F0.2085
F0.8116
F0.008
g11
(g15
S'\x00\x00\x00\x00\x00@]@'
p4358
tp4359
Rp4360
tp4361
a(S'bvert_4MeV_neg30tilt_135rot_det15.npy'
p4362
F1.6357
F0.0226
F65.7217
F0.5952
F1.0434
F0.0154
g11
(g15
S'\x00\x00\x00\x00\x00\x80T@'
p4363
tp4364
Rp4365
tp4366
a(S'bvert_4MeV_neg30tilt_135rot_det4.npy'
p4367
F1.518
F0.0302
F63.3162
F0.5131
F0.9516
F0.0197
g11
(g15
S'\x00\x00\x00\x00\x00\xc0W@'
p4368
tp4369
Rp4370
tp4371
a(S'bvert_4MeV_neg30tilt_135rot_det5.npy'
p4372
F1.2324
F0.011
F38.9633
F0.2274
F0.7645
F0.0074
g11
(g15
S'\x00\x00\x00\x00\x00\xc0^@'
p4373
tp4374
Rp4375
tp4376
a(S'bvert_4MeV_neg30tilt_135rot_det6.npy'
p4377
F0.8104
F0.0073
F29.0778
F0.1297
F0.4919
F0.0049
g11
(g15
S'\x00\x00\x00\x00\x00@g@'
p4378
tp4379
Rp4380
tp4381
a(S'bvert_4MeV_neg30tilt_135rot_det7.npy'
p4382
F0.4554
F0.0058
F25.5996
F0.0977
F0.2608
F0.0036
g11
(g15
S'\x00\x00\x00\x00\x00@g@'
p4383
tp4384
Rp4385
tp4386
a(S'bvert_4MeV_neg30tilt_135rot_det8.npy'
p4387
F0.2085
F0.0031
F25.7705
F0.097
F0.1117
F0.0018
g11
(g15
S'\x00\x00\x00\x00\x00\xe0a@'
p4388
tp4389
Rp4390
tp4391
a(S'bvert_4MeV_neg30tilt_135rot_det9.npy'
p4392
F0.0619
F0.0013
F23.9583
F0.0931
F0.0293
F0.0007
g11
(g15
S'\x00\x00\x00\x00\x00\xc0a@'
p4393
tp4394
Rp4395
tp4396
a(S'bvert_4MeV_neg30tilt_15rot_det10.npy'
p4397
F0.0677
F0.0014
F22.1665
F0.0992
F0.0335
F0.0008
g11
(g15
S'\x00\x00\x00\x00\x00\xc0b@'
p4398
tp4399
Rp4400
tp4401
a(S'bvert_4MeV_neg30tilt_15rot_det11.npy'
p4402
F0.2245
F0.0026
F26.4761
F0.104
F0.1206
F0.0016
g11
(g15
S'\x00\x00\x00\x00\x00\x80\\@'
p4403
tp4404
Rp4405
tp4406
a(S'bvert_4MeV_neg30tilt_15rot_det12.npy'
p4407
F0.4503
F0.0041
F26.4148
F0.0891
F0.2579
F0.0028
g11
(g15
S'\x00\x00\x00\x00\x00 e@'
p4408
tp4409
Rp4410
tp4411
a(S'bvert_4MeV_neg30tilt_15rot_det13.npy'
p4412
F0.7621
F0.0064
F31.3327
F0.1215
F0.4584
F0.0043
g11
(g15
S'\x00\x00\x00\x00\x00\x80`@'
p4413
tp4414
Rp4415
tp4416
a(S'bvert_4MeV_neg30tilt_15rot_det14.npy'
p4417
F1.0792
F0.0094
F41.0295
F0.2285
F0.6718
F0.0066
g11
(g15
S'\x00\x00\x00\x00\x00\xc0\\@'
p4418
tp4419
Rp4420
tp4421
a(S'bvert_4MeV_neg30tilt_15rot_det15.npy'
p4422
F1.3515
F0.0199
F64.6072
F0.5406
F0.8619
F0.014
g11
(g15
S'\x00\x00\x00\x00\x00\xc0W@'
p4423
tp4424
Rp4425
tp4426
a(S'bvert_4MeV_neg30tilt_15rot_det4.npy'
p4427
F1.6101
F0.0149
F63.3843
F0.5715
F1.0375
F0.0107
g11
(g15
S'\x00\x00\x00\x00\x00\x80S@'
p4428
tp4429
Rp4430
tp4431
a(S'bvert_4MeV_neg30tilt_15rot_det5.npy'
p4432
F1.244
F0.012
F39.1031
F0.207
F0.779
F0.0084
g11
(g15
S'\x00\x00\x00\x00\x00\x00`@'
p4433
tp4434
Rp4435
tp4436
a(S'bvert_4MeV_neg30tilt_15rot_det6.npy'
p4437
F0.8878
F0.0084
F29.2852
F0.1303
F0.5354
F0.0058
g11
(g15
S'\x00\x00\x00\x00\x00\x00d@'
p4438
tp4439
Rp4440
tp4441
a(S'bvert_4MeV_neg30tilt_15rot_det7.npy'
p4442
F0.5344
F0.0058
F25.5369
F0.1173
F0.3066
F0.0037
g11
(g15
S'\x00\x00\x00\x00\x00`b@'
p4443
tp4444
Rp4445
tp4446
a(S'bvert_4MeV_neg30tilt_15rot_det8.npy'
p4447
F0.2618
F0.0033
F25.7543
F0.0874
F0.1417
F0.002
g11
(g15
S'\x00\x00\x00\x00\x00\xe0b@'
p4448
tp4449
Rp4450
tp4451
a(S'bvert_4MeV_neg30tilt_15rot_det9.npy'
p4452
F0.081
F0.0013
F23.6233
F0.0857
F0.0408
F0.0007
g11
(g15
S'\x00\x00\x00\x00\x00`d@'
p4453
tp4454
Rp4455
tp4456
a(S'bvert_4MeV_neg30tilt_25rot_det10.npy'
p4457
F0.0688
F0.0012
F22.0298
F0.1067
F0.034
F0.0006
g11
(g15
S'\x00\x00\x00\x00\x00 a@'
p4458
tp4459
Rp4460
tp4461
a(S'bvert_4MeV_neg30tilt_25rot_det11.npy'
p4462
F0.2196
F0.0029
F26.6062
F0.1048
F0.1187
F0.0017
g11
(g15
S'\x00\x00\x00\x00\x00\x00_@'
p4463
tp4464
Rp4465
tp4466
a(S'bvert_4MeV_neg30tilt_25rot_det12.npy'
p4467
F0.4617
F0.005
F26.6164
F0.1024
F0.2666
F0.0032
g11
(g15
S'\x00\x00\x00\x00\x00\xc0`@'
p4468
tp4469
Rp4470
tp4471
a(S'bvert_4MeV_neg30tilt_25rot_det13.npy'
p4472
F0.755
F0.0073
F31.5575
F0.125
F0.4534
F0.0048
g11
(g15
S'\x00\x00\x00\x00\x00 c@'
p4473
tp4474
Rp4475
tp4476
a(S'bvert_4MeV_neg30tilt_25rot_det14.npy'
p4477
F1.0787
F0.0106
F41.2376
F0.2189
F0.6757
F0.0075
g11
(g15
S'\x00\x00\x00\x00\x00\x80]@'
p4478
tp4479
Rp4480
tp4481
a(S'bvert_4MeV_neg30tilt_25rot_det15.npy'
p4482
F1.3652
F0.0171
F63.8852
F0.4685
F0.8742
F0.0119
g11
(g15
S'\x00\x00\x00\x00\x00\x00Z@'
p4483
tp4484
Rp4485
tp4486
a(S'bvert_4MeV_neg30tilt_25rot_det4.npy'
p4487
F1.5017
F0.0211
F63.9203
F0.5665
F0.9619
F0.0145
g11
(g15
S'\x00\x00\x00\x00\x00\xc0P@'
p4488
tp4489
Rp4490
tp4491
a(S'bvert_4MeV_neg30tilt_25rot_det5.npy'
p4492
F1.2241
F0.0101
F38.9386
F0.2408
F0.7728
F0.0073
g11
(g15
S'\x00\x00\x00\x00\x00\x80V@'
p4493
tp4494
Rp4495
tp4496
a(S'bvert_4MeV_neg30tilt_25rot_det6.npy'
p4497
F0.882
F0.0075
F29.1966
F0.1471
F0.5348
F0.0051
g11
(g15
S'\x00\x00\x00\x00\x00 a@'
p4498
tp4499
Rp4500
tp4501
a(S'bvert_4MeV_neg30tilt_25rot_det7.npy'
p4502
F0.5291
F0.0057
F25.4794
F0.1059
F0.3061
F0.0036
g11
(g15
S'\x00\x00\x00\x00\x00\xe0b@'
p4503
tp4504
Rp4505
tp4506
a(S'bvert_4MeV_neg30tilt_25rot_det8.npy'
p4507
F0.259
F0.0031
F25.7538
F0.0895
F0.1414
F0.0018
g11
(g15
S'\x00\x00\x00\x00\x00@b@'
p4508
tp4509
Rp4510
tp4511
a(S'bvert_4MeV_neg30tilt_25rot_det9.npy'
p4512
F0.0802
F0.0015
F23.8957
F0.1021
F0.0407
F0.0008
g11
(g15
S'\x00\x00\x00\x00\x00\x00a@'
p4513
tp4514
Rp4515
tp4516
a(S'bvert_4MeV_neg30tilt_315rot_det10.npy'
p4517
F0.0658
F0.0011
F22.1925
F0.0862
F0.0312
F0.0006
g11
(g15
S'\x00\x00\x00\x00\x00\xc0d@'
p4518
tp4519
Rp4520
tp4521
a(S'bvert_4MeV_neg30tilt_315rot_det11.npy'
p4522
F0.2201
F0.0029
F26.6051
F0.0951
F0.1186
F0.0018
g11
(g15
S'\x00\x00\x00\x00\x00 b@'
p4523
tp4524
Rp4525
tp4526
a(S'bvert_4MeV_neg30tilt_315rot_det12.npy'
p4527
F0.4948
F0.005
F26.5496
F0.0966
F0.2876
F0.0032
g11
(g15
S'\x00\x00\x00\x00\x00\x80c@'
p4528
tp4529
Rp4530
tp4531
a(S'bvert_4MeV_neg30tilt_315rot_det13.npy'
p4532
F0.8787
F0.0078
F31.3469
F0.1236
F0.5363
F0.0053
g11
(g15
S'\x00\x00\x00\x00\x00\xa0a@'
p4533
tp4534
Rp4535
tp4536
a(S'bvert_4MeV_neg30tilt_315rot_det14.npy'
p4537
F1.2734
F0.0114
F40.737
F0.2484
F0.8001
F0.0079
g11
(g15
S'\x00\x00\x00\x00\x00\x80[@'
p4538
tp4539
Rp4540
tp4541
a(S'bvert_4MeV_neg30tilt_315rot_det15.npy'
p4542
F1.6179
F0.0224
F64.0614
F0.6266
F1.0275
F0.0158
g11
(g15
S'\x00\x00\x00\x00\x00\xc0S@'
p4543
tp4544
Rp4545
tp4546
a(S'bvert_4MeV_neg30tilt_315rot_det4.npy'
p4547
F1.5706
F0.028
F65.5057
F0.6828
F0.9863
F0.0194
g11
(g15
S'\x00\x00\x00\x00\x00@Q@'
p4548
tp4549
Rp4550
tp4551
a(S'bvert_4MeV_neg30tilt_315rot_det5.npy'
p4552
F1.2294
F0.0127
F39.1812
F0.1959
F0.7631
F0.0087
g11
(g15
S'\x00\x00\x00\x00\x00\xc0^@'
p4553
tp4554
Rp4555
tp4556
a(S'bvert_4MeV_neg30tilt_315rot_det6.npy'
p4557
F0.8491
F0.0078
F29.2152
F0.1446
F0.5144
F0.0053
g11
(g15
S'\x00\x00\x00\x00\x00\x80a@'
p4558
tp4559
Rp4560
tp4561
a(S'bvert_4MeV_neg30tilt_315rot_det7.npy'
p4562
F0.4761
F0.0046
F25.5969
F0.1134
F0.2733
F0.0031
g11
(g15
S'\x00\x00\x00\x00\x00\x00b@'
p4563
tp4564
Rp4565
tp4566
a(S'bvert_4MeV_neg30tilt_315rot_det8.npy'
p4567
F0.2177
F0.0027
F25.8823
F0.0854
F0.1164
F0.0016
g11
(g15
S'\x00\x00\x00\x00\x00\x80b@'
p4568
tp4569
Rp4570
tp4571
a(S'bvert_4MeV_neg30tilt_315rot_det9.npy'
p4572
F0.0682
F0.0011
F23.7685
F0.0858
F0.0324
F0.0006
g11
(g15
S'\x00\x00\x00\x00\x00\xa0f@'
p4573
tp4574
Rp4575
tp4576
a(S'bvert_4MeV_neg30tilt_335rot_det10.npy'
p4577
F0.0617
F0.0011
F22.1427
F0.0834
F0.0287
F0.0006
g11
(g15
S'\x00\x00\x00\x00\x00\x00h@'
p4578
tp4579
Rp4580
tp4581
a(S'bvert_4MeV_neg30tilt_335rot_det11.npy'
p4582
F0.2011
F0.0024
F26.5695
F0.0913
F0.1061
F0.0014
g11
(g15
S'\x00\x00\x00\x00\x00\xc0c@'
p4583
tp4584
Rp4585
tp4586
a(S'bvert_4MeV_neg30tilt_335rot_det12.npy'
p4587
F0.466
F0.0047
F26.3593
F0.0959
F0.2685
F0.003
g11
(g15
S'\x00\x00\x00\x00\x00\xa0c@'
p4588
tp4589
Rp4590
tp4591
a(S'bvert_4MeV_neg30tilt_335rot_det13.npy'
p4592
F0.8023
F0.0069
F31.4428
F0.1279
F0.4882
F0.0045
g11
(g15
S'\x00\x00\x00\x00\x00\x80b@'
p4593
tp4594
Rp4595
tp4596
a(S'bvert_4MeV_neg30tilt_335rot_det14.npy'
p4597
F1.184
F0.012
F40.8607
F0.2062
F0.7478
F0.0082
g11
(g15
S'\x00\x00\x00\x00\x00\x80^@'
p4598
tp4599
Rp4600
tp4601
a(S'bvert_4MeV_neg30tilt_335rot_det15.npy'
p4602
F1.545
F0.0199
F64.5209
F0.5617
F0.9905
F0.0137
g11
(g15
S'\x00\x00\x00\x00\x00@V@'
p4603
tp4604
Rp4605
tp4606
a(S'bvert_4MeV_neg30tilt_335rot_det4.npy'
p4607
F1.5837
F0.0244
F62.5016
F0.5896
F0.9913
F0.0162
g11
(g15
S'\x00\x00\x00\x00\x00@X@'
p4608
tp4609
Rp4610
tp4611
a(S'bvert_4MeV_neg30tilt_335rot_det5.npy'
p4612
F1.3225
F0.0128
F39.254
F0.2245
F0.8117
F0.0084
g11
(g15
S'\x00\x00\x00\x00\x00\xc0\\@'
p4613
tp4614
Rp4615
tp4616
a(S'bvert_4MeV_neg30tilt_335rot_det6.npy'
p4617
F0.9116
F0.0085
F29.3407
F0.1539
F0.5463
F0.0057
g11
(g15
S'\x00\x00\x00\x00\x00@a@'
p4618
tp4619
Rp4620
tp4621
a(S'bvert_4MeV_neg30tilt_335rot_det7.npy'
p4622
F0.5134
F0.0055
F25.6437
F0.097
F0.2965
F0.0034
g11
(g15
S'\x00\x00\x00\x00\x00`d@'
p4623
tp4624
Rp4625
tp4626
a(S'bvert_4MeV_neg30tilt_335rot_det8.npy'
p4627
F0.2423
F0.0026
F25.5966
F0.088
F0.1317
F0.0015
g11
(g15
S'\x00\x00\x00\x00\x00\xc0d@'
p4628
tp4629
Rp4630
tp4631
a(S'bvert_4MeV_neg30tilt_335rot_det9.npy'
p4632
F0.0707
F0.0013
F23.6807
F0.0896
F0.0346
F0.0007
g11
(g15
S'\x00\x00\x00\x00\x00 d@'
p4633
tp4634
Rp4635
tp4636
a(S'bvert_4MeV_neg30tilt_345rot_det10.npy'
p4637
F0.0585
F0.0013
F22.2073
F0.0955
F0.0278
F0.0007
g11
(g15
S'\x00\x00\x00\x00\x00 d@'
p4638
tp4639
Rp4640
tp4641
a(S'bvert_4MeV_neg30tilt_345rot_det11.npy'
p4642
F0.2059
F0.0026
F26.4903
F0.0931
F0.109
F0.0016
g11
(g15
S'\x00\x00\x00\x00\x00@c@'
p4643
tp4644
Rp4645
tp4646
a(S'bvert_4MeV_neg30tilt_345rot_det12.npy'
p4647
F0.4465
F0.0041
F26.3804
F0.0968
F0.2565
F0.0026
g11
(g15
S'\x00\x00\x00\x00\x00\xe0d@'
p4648
tp4649
Rp4650
tp4651
a(S'bvert_4MeV_neg30tilt_345rot_det13.npy'
p4652
F0.7934
F0.007
F31.5642
F0.1222
F0.4799
F0.0047
g11
(g15
S'\x00\x00\x00\x00\x00\xe0b@'
p4653
tp4654
Rp4655
tp4656
a(S'bvert_4MeV_neg30tilt_345rot_det14.npy'
p4657
F1.137
F0.0099
F41.0614
F0.2212
F0.7172
F0.0069
g11
(g15
S'\x00\x00\x00\x00\x00\xa0a@'
p4658
tp4659
Rp4660
tp4661
a(S'bvert_4MeV_neg30tilt_345rot_det15.npy'
p4662
F1.5122
F0.0192
F64.7483
F0.5521
F0.9725
F0.0137
g11
(g15
S'\x00\x00\x00\x00\x00\x80X@'
p4663
tp4664
Rp4665
tp4666
a(S'bvert_4MeV_neg30tilt_345rot_det4.npy'
p4667
F1.6629
F0.0196
F64.1956
F0.5413
F1.044
F0.0136
g11
(g15
S'\x00\x00\x00\x00\x00@V@'
p4668
tp4669
Rp4670
tp4671
a(S'bvert_4MeV_neg30tilt_345rot_det5.npy'
p4672
F1.3311
F0.0124
F38.8029
F0.2245
F0.8191
F0.0083
g11
(g15
S'\x00\x00\x00\x00\x00@[@'
p4673
tp4674
Rp4675
tp4676
a(S'bvert_4MeV_neg30tilt_345rot_det6.npy'
p4677
F0.9307
F0.0093
F29.1052
F0.1387
F0.5552
F0.006
g11
(g15
S'\x00\x00\x00\x00\x00@e@'
p4678
tp4679
Rp4680
tp4681
a(S'bvert_4MeV_neg30tilt_345rot_det7.npy'
p4682
F0.5313
F0.0052
F25.6873
F0.0996
F0.3052
F0.0033
g11
(g15
S'\x00\x00\x00\x00\x00\x80e@'
p4683
tp4684
Rp4685
tp4686
a(S'bvert_4MeV_neg30tilt_345rot_det8.npy'
p4687
F0.2404
F0.0032
F25.7326
F0.0876
F0.1302
F0.0019
g11
(g15
S'\x00\x00\x00\x00\x00\xa0e@'
p4688
tp4689
Rp4690
tp4691
a(S'bvert_4MeV_neg30tilt_345rot_det9.npy'
p4692
F0.0738
F0.0014
F23.9119
F0.0893
F0.0366
F0.0007
g11
(g15
S'\x00\x00\x00\x00\x00`c@'
p4693
tp4694
Rp4695
tp4696
a(S'bvert_4MeV_neg30tilt_355rot_det10.npy'
p4697
F0.0651
F0.0013
F22.191
F0.0876
F0.0309
F0.0007
g11
(g15
S'\x00\x00\x00\x00\x00\x80e@'
p4698
tp4699
Rp4700
tp4701
a(S'bvert_4MeV_neg30tilt_355rot_det11.npy'
p4702
F0.2058
F0.0026
F26.4589
F0.0975
F0.1099
F0.0016
g11
(g15
S'\x00\x00\x00\x00\x00\x80a@'
p4703
tp4704
Rp4705
tp4706
a(S'bvert_4MeV_neg30tilt_355rot_det12.npy'
p4707
F0.4413
F0.0045
F26.4469
F0.0863
F0.2531
F0.0029
g11
(g15
S'\x00\x00\x00\x00\x00`d@'
p4708
tp4709
Rp4710
tp4711
a(S'bvert_4MeV_neg30tilt_355rot_det13.npy'
p4712
F0.7548
F0.007
F31.5889
F0.1305
F0.455
F0.0049
g11
(g15
S'\x00\x00\x00\x00\x00 a@'
p4713
tp4714
Rp4715
tp4716
a(S'bvert_4MeV_neg30tilt_355rot_det14.npy'
p4717
F1.1278
F0.0101
F41.0995
F0.2204
F0.7093
F0.0072
g11
(g15
S'\x00\x00\x00\x00\x00\xa0`@'
p4718
tp4719
Rp4720
tp4721
a(S'bvert_4MeV_neg30tilt_355rot_det15.npy'
p4722
F1.4522
F0.016
F64.1729
F0.5657
F0.9359
F0.0116
g11
(g15
S'\x00\x00\x00\x00\x00\xc0V@'
p4723
tp4724
Rp4725
tp4726
a(S'bvert_4MeV_neg30tilt_355rot_det4.npy'
p4727
F1.6711
F0.0149
F62.8019
F0.5199
F1.0586
F0.0103
g11
(g15
S'\x00\x00\x00\x00\x00@Y@'
p4728
tp4729
Rp4730
tp4731
a(S'bvert_4MeV_neg30tilt_355rot_det5.npy'
p4732
F1.3126
F0.0151
F39.0762
F0.2188
F0.816
F0.0104
g11
(g15
S'\x00\x00\x00\x00\x00\xc0Z@'
p4733
tp4734
Rp4735
tp4736
a(S'bvert_4MeV_neg30tilt_355rot_det6.npy'
p4737
F0.9329
F0.0087
F29.2158
F0.1513
F0.5574
F0.0059
g11
(g15
S'\x00\x00\x00\x00\x00@^@'
p4738
tp4739
Rp4740
tp4741
a(S'bvert_4MeV_neg30tilt_355rot_det7.npy'
p4742
F0.538
F0.0062
F25.5777
F0.1147
F0.3083
F0.004
g11
(g15
S'\x00\x00\x00\x00\x00 b@'
p4743
tp4744
Rp4745
tp4746
a(S'bvert_4MeV_neg30tilt_355rot_det8.npy'
p4747
F0.2498
F0.0028
F25.8427
F0.082
F0.1359
F0.0017
g11
(g15
S'\x00\x00\x00\x00\x00`e@'
p4748
tp4749
Rp4750
tp4751
a(S'bvert_4MeV_neg30tilt_355rot_det9.npy'
p4752
F0.0762
F0.0013
F23.6463
F0.0822
F0.0383
F0.0007
g11
(g15
S'\x00\x00\x00\x00\x00\xa0a@'
p4753
tp4754
Rp4755
tp4756
a(S'bvert_4MeV_neg30tilt_35rot_det10.npy'
p4757
F0.0701
F0.0014
F22.1193
F0.0946
F0.035
F0.0007
g11
(g15
S'\x00\x00\x00\x00\x00@d@'
p4758
tp4759
Rp4760
tp4761
a(S'bvert_4MeV_neg30tilt_35rot_det11.npy'
p4762
F0.2281
F0.0029
F26.3328
F0.0896
F0.1231
F0.0017
g11
(g15
S'\x00\x00\x00\x00\x00\xa0c@'
p4763
tp4764
Rp4765
tp4766
a(S'bvert_4MeV_neg30tilt_35rot_det12.npy'
p4767
F0.4756
F0.004
F26.5487
F0.0841
F0.274
F0.0026
g11
(g15
S'\x00\x00\x00\x00\x00\xc0e@'
p4768
tp4769
Rp4770
tp4771
a(S'bvert_4MeV_neg30tilt_35rot_det13.npy'
p4772
F0.7867
F0.0063
F31.3573
F0.1192
F0.4751
F0.0043
g11
(g15
S'\x00\x00\x00\x00\x00\x80c@'
p4773
tp4774
Rp4775
tp4776
a(S'bvert_4MeV_neg30tilt_35rot_det14.npy'
p4777
F1.0987
F0.0093
F41.2689
F0.2067
F0.6882
F0.0066
g11
(g15
S'\x00\x00\x00\x00\x00@b@'
p4778
tp4779
Rp4780
tp4781
a(S'bvert_4MeV_neg30tilt_35rot_det15.npy'
p4782
F1.3397
F0.0155
F65.0543
F0.5417
F0.8523
F0.0112
g11
(g15
S'\x00\x00\x00\x00\x00\x00Z@'
p4783
tp4784
Rp4785
tp4786
a(S'bvert_4MeV_neg30tilt_35rot_det4.npy'
p4787
F1.4426
F0.0141
F63.0439
F0.4602
F0.9272
F0.0103
g11
(g15
S'\x00\x00\x00\x00\x00\x80^@'
p4788
tp4789
Rp4790
tp4791
a(S'bvert_4MeV_neg30tilt_35rot_det5.npy'
p4792
F1.1778
F0.0098
F39.0647
F0.1911
F0.7406
F0.0069
g11
(g15
S'\x00\x00\x00\x00\x00\x80b@'
p4793
tp4794
Rp4795
tp4796
a(S'bvert_4MeV_neg30tilt_35rot_det6.npy'
p4797
F0.8538
F0.0068
F29.2583
F0.1354
F0.522
F0.0048
g11
(g15
S'\x00\x00\x00\x00\x00\x80d@'
p4798
tp4799
Rp4800
tp4801
a(S'bvert_4MeV_neg30tilt_35rot_det7.npy'
p4802
F0.5209
F0.0054
F25.4789
F0.1007
F0.3014
F0.0034
g11
(g15
S'\x00\x00\x00\x00\x00@d@'
p4803
tp4804
Rp4805
tp4806
a(S'bvert_4MeV_neg30tilt_35rot_det8.npy'
p4807
F0.2504
F0.0031
F25.6864
F0.0977
F0.1367
F0.002
g11
(g15
S'\x00\x00\x00\x00\x00`d@'
p4808
tp4809
Rp4810
tp4811
a(S'bvert_4MeV_neg30tilt_35rot_det9.npy'
p4812
F0.0814
F0.0016
F23.723
F0.0909
F0.0409
F0.0008
g11
(g15
S'\x00\x00\x00\x00\x00\xc0d@'
p4813
tp4814
Rp4815
tp4816
a(S'bvert_4MeV_neg30tilt_45rot_det10.npy'
p4817
F0.0756
F0.0016
F22.1416
F0.0986
F0.0381
F0.0008
g11
(g15
S'\x00\x00\x00\x00\x00@d@'
p4818
tp4819
Rp4820
tp4821
a(S'bvert_4MeV_neg30tilt_45rot_det11.npy'
p4822
F0.2368
F0.0027
F26.3602
F0.0895
F0.1289
F0.0017
g11
(g15
S'\x00\x00\x00\x00\x00\x80b@'
p4823
tp4824
Rp4825
tp4826
a(S'bvert_4MeV_neg30tilt_45rot_det12.npy'
p4827
F0.5038
F0.0042
F26.4949
F0.0988
F0.2906
F0.0028
g11
(g15
S'\x00\x00\x00\x00\x00@a@'
p4828
tp4829
Rp4830
tp4831
a(S'bvert_4MeV_neg30tilt_45rot_det13.npy'
p4832
F0.8285
F0.0065
F31.3611
F0.1393
F0.5028
F0.0042
g11
(g15
S'\x00\x00\x00\x00\x00\x80_@'
p4833
tp4834
Rp4835
tp4836
a(S'bvert_4MeV_neg30tilt_45rot_det14.npy'
p4837
F1.1302
F0.0103
F41.1165
F0.2171
F0.7069
F0.0072
g11
(g15
S'\x00\x00\x00\x00\x00\x80_@'
p4838
tp4839
Rp4840
tp4841
a(S'bvert_4MeV_neg30tilt_45rot_det15.npy'
p4842
F1.3824
F0.0173
F65.4054
F0.6126
F0.888
F0.0124
g11
(g15
S'\x00\x00\x00\x00\x00\x00S@'
p4843
tp4844
Rp4845
tp4846
a(S'bvert_4MeV_neg30tilt_45rot_det4.npy'
p4847
F1.413
F0.0165
F63.0796
F0.5722
F0.9075
F0.0119
g11
(g15
S'\x00\x00\x00\x00\x00\x00U@'
p4848
tp4849
Rp4850
tp4851
a(S'bvert_4MeV_neg30tilt_45rot_det5.npy'
p4852
F1.145
F0.0116
F39.0611
F0.2241
F0.7206
F0.008
g11
(g15
S'\x00\x00\x00\x00\x00\xc0Y@'
p4853
tp4854
Rp4855
tp4856
a(S'bvert_4MeV_neg30tilt_45rot_det6.npy'
p4857
F0.7985
F0.0088
F28.9499
F0.1383
F0.4868
F0.0062
g11
(g15
S'\x00\x00\x00\x00\x00 c@'
p4858
tp4859
Rp4860
tp4861
a(S'bvert_4MeV_neg30tilt_45rot_det7.npy'
p4862
F0.5004
F0.0048
F25.4259
F0.102
F0.2917
F0.0032
g11
(g15
S'\x00\x00\x00\x00\x00`c@'
p4863
tp4864
Rp4865
tp4866
a(S'bvert_4MeV_neg30tilt_45rot_det8.npy'
p4867
F0.2422
F0.0026
F25.7951
F0.0835
F0.1318
F0.0016
g11
(g15
S'\x00\x00\x00\x00\x00 d@'
p4868
tp4869
Rp4870
tp4871
a(S'bvert_4MeV_neg30tilt_45rot_det9.npy'
p4872
F0.0764
F0.0016
F23.7968
F0.1026
F0.0388
F0.0008
g11
(g15
S'\x00\x00\x00\x00\x00`a@'
p4873
tp4874
Rp4875
tp4876
a(S'bvert_4MeV_neg30tilt_55rot_det10.npy'
p4877
F0.0801
F0.0016
F22.2819
F0.1044
F0.0405
F0.0009
g11
(g15
S'\x00\x00\x00\x00\x00\x00]@'
p4878
tp4879
Rp4880
tp4881
a(S'bvert_4MeV_neg30tilt_55rot_det11.npy'
p4882
F0.2496
F0.003
F26.5129
F0.0943
F0.1358
F0.0018
g11
(g15
S'\x00\x00\x00\x00\x00\x80]@'
p4883
tp4884
Rp4885
tp4886
a(S'bvert_4MeV_neg30tilt_55rot_det12.npy'
p4887
F0.5113
F0.0051
F26.4347
F0.1049
F0.295
F0.0033
g11
(g15
S'\x00\x00\x00\x00\x00\xc0^@'
p4888
tp4889
Rp4890
tp4891
a(S'bvert_4MeV_neg30tilt_55rot_det13.npy'
p4892
F0.8149
F0.0089
F31.5599
F0.1521
F0.4917
F0.0062
g11
(g15
S'\x00\x00\x00\x00\x00\x00[@'
p4893
tp4894
Rp4895
tp4896
a(S'bvert_4MeV_neg30tilt_55rot_det14.npy'
p4897
F1.1425
F0.013
F40.8227
F0.2778
F0.7203
F0.0099
g11
(g15
S'\x00\x00\x00\x00\x00\xc0Q@'
p4898
tp4899
Rp4900
tp4901
a(S'bvert_4MeV_neg30tilt_55rot_det15.npy'
p4902
F1.4474
F0.0196
F64.5861
F0.6843
F0.9291
F0.0136
g11
(g15
S'\x00\x00\x00\x00\x00\x00O@'
p4903
tp4904
Rp4905
tp4906
a(S'bvert_4MeV_neg30tilt_55rot_det4.npy'
p4907
F1.3695
F0.0166
F63.4447
F0.6717
F0.8736
F0.012
g11
(g15
S'\x00\x00\x00\x00\x00\x80Q@'
p4908
tp4909
Rp4910
tp4911
a(S'bvert_4MeV_neg30tilt_55rot_det5.npy'
p4912
F1.1221
F0.0111
F39.1933
F0.2492
F0.7036
F0.0079
g11
(g15
S'\x00\x00\x00\x00\x00\xc0W@'
p4913
tp4914
Rp4915
tp4916
a(S'bvert_4MeV_neg30tilt_55rot_det6.npy'
p4917
F0.7791
F0.0089
F29.1565
F0.1648
F0.4721
F0.0059
g11
(g15
S'\x00\x00\x00\x00\x00\x80\\@'
p4918
tp4919
Rp4920
tp4921
a(S'bvert_4MeV_neg30tilt_55rot_det7.npy'
p4922
F0.4802
F0.0045
F25.4495
F0.1161
F0.2795
F0.0029
g11
(g15
S'\x00\x00\x00\x00\x00\xc0_@'
p4923
tp4924
Rp4925
tp4926
a(S'bvert_4MeV_neg30tilt_55rot_det8.npy'
p4927
F0.2306
F0.0035
F25.7668
F0.0953
F0.1263
F0.0022
g11
(g15
S'\x00\x00\x00\x00\x00@[@'
p4928
tp4929
Rp4930
tp4931
a(S'bvert_4MeV_neg30tilt_55rot_det9.npy'
p4932
F0.0793
F0.0013
F23.9125
F0.1015
F0.0396
F0.0007
g11
(g15
S'\x00\x00\x00\x00\x00@^@'
p4933
tp4934
Rp4935
tp4936
a(S'bvert_4MeV_neg30tilt_5rot_det10.npy'
p4937
F0.0646
F0.0012
F22.2503
F0.0807
F0.0312
F0.0006
g11
(g15
S'\x00\x00\x00\x00\x00 d@'
p4938
tp4939
Rp4940
tp4941
a(S'bvert_4MeV_neg30tilt_5rot_det11.npy'
p4942
F0.2076
F0.0031
F26.5327
F0.0833
F0.1113
F0.0019
g11
(g15
S'\x00\x00\x00\x00\x00\xa0c@'
p4943
tp4944
Rp4945
tp4946
a(S'bvert_4MeV_neg30tilt_5rot_det12.npy'
p4947
F0.4468
F0.0043
F26.5185
F0.093
F0.2548
F0.0027
g11
(g15
S'\x00\x00\x00\x00\x00 b@'
p4948
tp4949
Rp4950
tp4951
a(S'bvert_4MeV_neg30tilt_5rot_det13.npy'
p4952
F0.7518
F0.0067
F31.2753
F0.1139
F0.4537
F0.0046
g11
(g15
S'\x00\x00\x00\x00\x00`b@'
p4953
tp4954
Rp4955
tp4956
a(S'bvert_4MeV_neg30tilt_5rot_det14.npy'
p4957
F1.1019
F0.0105
F40.7228
F0.2169
F0.691
F0.0074
g11
(g15
S'\x00\x00\x00\x00\x00@_@'
p4958
tp4959
Rp4960
tp4961
a(S'bvert_4MeV_neg30tilt_5rot_det15.npy'
p4962
F1.3695
F0.0207
F66.3505
F0.6178
F0.8762
F0.0143
g11
(g15
S'\x00\x00\x00\x00\x00\xc0U@'
p4963
tp4964
Rp4965
tp4966
a(S'bvert_4MeV_neg30tilt_5rot_det4.npy'
p4967
F1.6004
F0.0183
F63.4426
F0.5705
F1.0254
F0.0126
g11
(g15
S'\x00\x00\x00\x00\x00\x00S@'
p4968
tp4969
Rp4970
tp4971
a(S'bvert_4MeV_neg30tilt_5rot_det5.npy'
p4972
F1.2825
F0.0132
F39.4527
F0.2275
F0.7956
F0.0089
g11
(g15
S'\x00\x00\x00\x00\x00\x80[@'
p4973
tp4974
Rp4975
tp4976
a(S'bvert_4MeV_neg30tilt_5rot_det6.npy'
p4977
F0.9409
F0.0082
F29.3262
F0.1638
F0.5637
F0.0056
g11
(g15
S'\x00\x00\x00\x00\x00 `@'
p4978
tp4979
Rp4980
tp4981
a(S'bvert_4MeV_neg30tilt_5rot_det7.npy'
p4982
F0.5578
F0.0055
F25.5206
F0.0986
F0.3208
F0.0036
g11
(g15
S'\x00\x00\x00\x00\x00\xe0b@'
p4983
tp4984
Rp4985
tp4986
a(S'bvert_4MeV_neg30tilt_5rot_det8.npy'
p4987
F0.2508
F0.0028
F25.6977
F0.0911
F0.1361
F0.0017
g11
(g15
S'\x00\x00\x00\x00\x00\xa0b@'
p4988
tp4989
Rp4990
tp4991
a(S'bvert_4MeV_neg30tilt_5rot_det9.npy'
p4992
F0.0741
F0.0016
F23.7118
F0.104
F0.0372
F0.0009
g11
(g15
S'\x00\x00\x00\x00\x00\xc0\\@'
p4993
tp4994
Rp4995
tp4996
a(S'bvert_4MeV_neg30tilt_75rot_det10.npy'
p4997
F0.0796
F0.0013
F22.0053
F0.0972
F0.0403
F0.0007
g11
(g15
S'\x00\x00\x00\x00\x00\xa0b@'
p4998
tp4999
Rp5000
tp5001
a(S'bvert_4MeV_neg30tilt_75rot_det11.npy'
p5002
F0.2611
F0.0032
F26.3921
F0.0888
F0.1412
F0.0019
g11
(g15
S'\x00\x00\x00\x00\x00\xc0a@'
p5003
tp5004
Rp5005
tp5006
a(S'bvert_4MeV_neg30tilt_75rot_det12.npy'
p5007
F0.5481
F0.0047
F26.4895
F0.0954
F0.3154
F0.003
g11
(g15
S'\x00\x00\x00\x00\x00 e@'
p5008
tp5009
Rp5010
tp5011
a(S'bvert_4MeV_neg30tilt_75rot_det13.npy'
p5012
F0.9007
F0.0074
F31.4655
F0.1141
F0.5424
F0.005
g11
(g15
S'\x00\x00\x00\x00\x00\xa0d@'
p5013
tp5014
Rp5015
tp5016
a(S'bvert_4MeV_neg30tilt_75rot_det14.npy'
p5017
F1.2684
F0.0102
F40.8853
F0.242
F0.7916
F0.0074
g11
(g15
S'\x00\x00\x00\x00\x00\x80X@'
p5018
tp5019
Rp5020
tp5021
a(S'bvert_4MeV_neg30tilt_75rot_det15.npy'
p5022
F1.4822
F0.018
F64.3138
F0.6569
F0.9415
F0.0128
g11
(g15
S'\x00\x00\x00\x00\x00\x00T@'
p5023
tp5024
Rp5025
tp5026
a(S'bvert_4MeV_neg30tilt_75rot_det4.npy'
p5027
F1.3955
F0.014
F62.9536
F0.4757
F0.8927
F0.0098
g11
(g15
S'\x00\x00\x00\x00\x00\xc0\\@'
p5028
tp5029
Rp5030
tp5031
a(S'bvert_4MeV_neg30tilt_75rot_det5.npy'
p5032
F1.0854
F0.0092
F38.6672
F0.2147
F0.6766
F0.0062
g11
(g15
S'\x00\x00\x00\x00\x00\x00`@'
p5033
tp5034
Rp5035
tp5036
a(S'bvert_4MeV_neg30tilt_75rot_det6.npy'
p5037
F0.7638
F0.0055
F29.1005
F0.1219
F0.4615
F0.0038
g11
(g15
S'\x00\x00\x00\x00\x00\xa0g@'
p5038
tp5039
Rp5040
tp5041
a(S'bvert_4MeV_neg30tilt_75rot_det7.npy'
p5042
F0.4458
F0.0036
F25.5918
F0.1005
F0.2565
F0.0023
g11
(g15
S'\x00\x00\x00\x00\x00\xc0e@'
p5043
tp5044
Rp5045
tp5046
a(S'bvert_4MeV_neg30tilt_75rot_det8.npy'
p5047
F0.2165
F0.0025
F25.6657
F0.0932
F0.118
F0.0015
g11
(g15
S'\x00\x00\x00\x00\x00\xe0d@'
p5048
tp5049
Rp5050
tp5051
a(S'bvert_4MeV_neg30tilt_75rot_det9.npy'
p5052
F0.0696
F0.0013
F23.8475
F0.0928
F0.0342
F0.0007
g11
(g15
S'\x00\x00\x00\x00\x00\xa0c@'
p5053
tp5054
Rp5055
tp5056
a(S'bvert_4MeV_neg30tilt_95rot_det10.npy'
p5057
F0.0785
F0.0013
F22.0242
F0.092
F0.0393
F0.0007
g11
(g15
S'\x00\x00\x00\x00\x00\xe0a@'
p5058
tp5059
Rp5060
tp5061
a(S'bvert_4MeV_neg30tilt_95rot_det11.npy'
p5062
F0.2478
F0.003
F26.5081
F0.0859
F0.1355
F0.0017
g11
(g15
S'\x00\x00\x00\x00\x00\xe0c@'
p5063
tp5064
Rp5065
tp5066
a(S'bvert_4MeV_neg30tilt_95rot_det12.npy'
p5067
F0.5525
F0.006
F26.4087
F0.099
F0.318
F0.0038
g11
(g15
S'\x00\x00\x00\x00\x00\xa0b@'
p5068
tp5069
Rp5070
tp5071
a(S'bvert_4MeV_neg30tilt_95rot_det13.npy'
p5072
F0.9274
F0.0084
F31.5014
F0.1391
F0.5547
F0.0055
g11
(g15
S'\x00\x00\x00\x00\x00\xe0`@'
p5073
tp5074
Rp5075
tp5076
a(S'bvert_4MeV_neg30tilt_95rot_det14.npy'
p5077
F1.3269
F0.0118
F40.6514
F0.24
F0.8204
F0.008
g11
(g15
S'\x00\x00\x00\x00\x00\xc0T@'
p5078
tp5079
Rp5080
tp5081
a(S'bvert_4MeV_neg30tilt_95rot_det15.npy'
p5082
F1.635
F0.0178
F63.5393
F0.6059
F1.029
F0.0121
g11
(g15
S'\x00\x00\x00\x00\x00\x80T@'
p5083
tp5084
Rp5085
tp5086
a(S'bvert_4MeV_neg30tilt_95rot_det4.npy'
p5087
F1.4542
F0.0135
F62.5653
F0.5984
F0.9342
F0.0095
g11
(g15
S'\x00\x00\x00\x00\x00\x80U@'
p5088
tp5089
Rp5090
tp5091
a(S'bvert_4MeV_neg30tilt_95rot_det5.npy'
p5092
F1.095
F0.0111
F38.771
F0.2211
F0.6867
F0.0076
g11
(g15
S'\x00\x00\x00\x00\x00@[@'
p5093
tp5094
Rp5095
tp5096
a(S'bvert_4MeV_neg30tilt_95rot_det6.npy'
p5097
F0.7427
F0.0073
F29.1137
F0.1354
F0.4468
F0.0054
g11
(g15
S'\x00\x00\x00\x00\x00`a@'
p5098
tp5099
Rp5100
tp5101
a(S'bvert_4MeV_neg30tilt_95rot_det7.npy'
p5102
F0.4316
F0.0043
F25.6594
F0.1013
F0.2468
F0.0029
g11
(g15
S'\x00\x00\x00\x00\x00`c@'
p5103
tp5104
Rp5105
tp5106
a(S'bvert_4MeV_neg30tilt_95rot_det8.npy'
p5107
F0.204
F0.0025
F25.7837
F0.0814
F0.1096
F0.0015
g11
(g15
S'\x00\x00\x00\x00\x00\x00e@'
p5108
tp5109
Rp5110
tp5111
a(S'bvert_4MeV_neg30tilt_95rot_det9.npy'
p5112
F0.0672
F0.0012
F23.7474
F0.0819
F0.032
F0.0006
g11
(g15
S'\x00\x00\x00\x00\x00`e@'
p5113
tp5114
Rp5115
tp5116
a(S'bvert_4MeV_neg45tilt_115rot_det10.npy'
p5117
F0.0771
F0.0014
F22.3637
F0.0887
F0.0381
F0.0007
g11
(g15
S'\x00\x00\x00\x00\x00`b@'
p5118
tp5119
Rp5120
tp5121
a(S'bvert_4MeV_neg45tilt_115rot_det11.npy'
p5122
F0.2577
F0.0034
F26.5328
F0.0918
F0.1414
F0.0021
g11
(g15
S'\x00\x00\x00\x00\x00``@'
p5123
tp5124
Rp5125
tp5126
a(S'bvert_4MeV_neg45tilt_115rot_det12.npy'
p5127
F0.5356
F0.0047
F26.7252
F0.0903
F0.3098
F0.0031
g11
(g15
S'\x00\x00\x00\x00\x00\xc0d@'
p5128
tp5129
Rp5130
tp5131
a(S'bvert_4MeV_neg45tilt_115rot_det13.npy'
p5132
F0.9087
F0.0082
F31.8801
F0.13
F0.5469
F0.0055
g11
(g15
S'\x00\x00\x00\x00\x00\x00`@'
p5133
tp5134
Rp5135
tp5136
a(S'bvert_4MeV_neg45tilt_115rot_det14.npy'
p5137
F1.3364
F0.0119
F41.1508
F0.2003
F0.8267
F0.0078
g11
(g15
S'\x00\x00\x00\x00\x00 `@'
p5138
tp5139
Rp5140
tp5141
a(S'bvert_4MeV_neg45tilt_115rot_det15.npy'
p5142
F1.6803
F0.0181
F65.4848
F0.5774
F1.0517
F0.0118
g11
(g15
S'\x00\x00\x00\x00\x00\x80U@'
p5143
tp5144
Rp5145
tp5146
a(S'bvert_4MeV_neg45tilt_115rot_det4.npy'
p5147
F1.5346
F0.0173
F62.4204
F0.5605
F0.972
F0.012
g11
(g15
S'\x00\x00\x00\x00\x00\x80Z@'
p5148
tp5149
Rp5150
tp5151
a(S'bvert_4MeV_neg45tilt_115rot_det5.npy'
p5152
F1.1894
F0.0115
F38.2488
F0.1956
F0.742
F0.0078
g11
(g15
S'\x00\x00\x00\x00\x00\x00\\@'
p5153
tp5154
Rp5155
tp5156
a(S'bvert_4MeV_neg45tilt_115rot_det6.npy'
p5157
F0.8034
F0.0078
F28.982
F0.1397
F0.4835
F0.0053
g11
(g15
S'\x00\x00\x00\x00\x00\x80`@'
p5158
tp5159
Rp5160
tp5161
a(S'bvert_4MeV_neg45tilt_115rot_det7.npy'
p5162
F0.4582
F0.0045
F25.3959
F0.0998
F0.2621
F0.0029
g11
(g15
S'\x00\x00\x00\x00\x00\x00e@'
p5163
tp5164
Rp5165
tp5166
a(S'bvert_4MeV_neg45tilt_115rot_det8.npy'
p5167
F0.2113
F0.0026
F25.7367
F0.0913
F0.1114
F0.0016
g11
(g15
S'\x00\x00\x00\x00\x00\xc0d@'
p5168
tp5169
Rp5170
tp5171
a(S'bvert_4MeV_neg45tilt_115rot_det9.npy'
p5172
F0.0638
F0.0012
F24.0343
F0.0913
F0.0298
F0.0006
g11
(g15
S'\x00\x00\x00\x00\x00 f@'
p5173
tp5174
Rp5175
tp5176
a(S'bvert_4MeV_neg45tilt_135rot_det10.npy'
p5177
F0.0734
F0.0016
F22.2808
F0.0945
F0.0352
F0.0008
g11
(g15
S'\x00\x00\x00\x00\x00\xc0`@'
p5178
tp5179
Rp5180
tp5181
a(S'bvert_4MeV_neg45tilt_135rot_det11.npy'
p5182
F0.2433
F0.0024
F26.6023
F0.0832
F0.1326
F0.0015
g11
(g15
S'\x00\x00\x00\x00\x00\xa0b@'
p5183
tp5184
Rp5185
tp5186
a(S'bvert_4MeV_neg45tilt_135rot_det12.npy'
p5187
F0.5194
F0.0044
F26.5442
F0.1001
F0.3026
F0.0029
g11
(g15
S'\x00\x00\x00\x00\x00\xc0c@'
p5188
tp5189
Rp5190
tp5191
a(S'bvert_4MeV_neg45tilt_135rot_det13.npy'
p5192
F0.9008
F0.0078
F31.8067
F0.1112
F0.5481
F0.0051
g11
(g15
S'\x00\x00\x00\x00\x00\x80e@'
p5193
tp5194
Rp5195
tp5196
a(S'bvert_4MeV_neg45tilt_135rot_det14.npy'
p5197
F1.3115
F0.0108
F41.7368
F0.2252
F0.8206
F0.0074
g11
(g15
S'\x00\x00\x00\x00\x00\x00_@'
p5198
tp5199
Rp5200
tp5201
a(S'bvert_4MeV_neg45tilt_135rot_det15.npy'
p5202
F1.4938
F0.0402
F65.1174
F0.7232
F0.9435
F0.0271
g11
(g15
S'\x00\x00\x00\x00\x00\xc0R@'
p5203
tp5204
Rp5205
tp5206
a(S'bvert_4MeV_neg45tilt_135rot_det4.npy'
p5207
F1.629
F0.0177
F61.9558
F0.5703
F1.0288
F0.0119
g11
(g15
S'\x00\x00\x00\x00\x00\x00W@'
p5208
tp5209
Rp5210
tp5211
a(S'bvert_4MeV_neg45tilt_135rot_det5.npy'
p5212
F1.2713
F0.0128
F38.3063
F0.2253
F0.7875
F0.0088
g11
(g15
S'\x00\x00\x00\x00\x00\xc0[@'
p5213
tp5214
Rp5215
tp5216
a(S'bvert_4MeV_neg45tilt_135rot_det6.npy'
p5217
F0.8514
F0.0066
F28.6755
F0.1257
F0.5138
F0.0044
g11
(g15
S'\x00\x00\x00\x00\x00\x80e@'
p5218
tp5219
Rp5220
tp5221
a(S'bvert_4MeV_neg45tilt_135rot_det7.npy'
p5222
F0.4772
F0.0048
F25.4728
F0.0986
F0.2747
F0.0031
g11
(g15
S'\x00\x00\x00\x00\x00\x00f@'
p5223
tp5224
Rp5225
tp5226
a(S'bvert_4MeV_neg45tilt_135rot_det8.npy'
p5227
F0.2173
F0.0025
F25.7683
F0.0934
F0.1155
F0.0016
g11
(g15
S'\x00\x00\x00\x00\x00@c@'
p5228
tp5229
Rp5230
tp5231
a(S'bvert_4MeV_neg45tilt_135rot_det9.npy'
p5232
F0.0636
F0.0013
F23.7856
F0.0923
F0.0303
F0.0007
g11
(g15
S'\x00\x00\x00\x00\x00@f@'
p5233
tp5234
Rp5235
tp5236
a(S'bvert_4MeV_neg45tilt_15rot_det10.npy'
p5237
F0.0683
F0.0011
F22.1171
F0.105
F0.0331
F0.0006
g11
(g15
S'\x00\x00\x00\x00\x00@`@'
p5238
tp5239
Rp5240
tp5241
a(S'bvert_4MeV_neg45tilt_15rot_det11.npy'
p5242
F0.22
F0.0031
F26.4895
F0.0952
F0.1178
F0.0018
g11
(g15
S'\x00\x00\x00\x00\x00\xc0_@'
p5243
tp5244
Rp5245
tp5246
a(S'bvert_4MeV_neg45tilt_15rot_det12.npy'
p5247
F0.4689
F0.0056
F26.6196
F0.0965
F0.2682
F0.0035
g11
(g15
S'\x00\x00\x00\x00\x00\xa0a@'
p5248
tp5249
Rp5250
tp5251
a(S'bvert_4MeV_neg45tilt_15rot_det13.npy'
p5252
F0.8017
F0.0083
F31.3699
F0.1363
F0.4852
F0.0055
g11
(g15
S'\x00\x00\x00\x00\x00\xc0^@'
p5253
tp5254
Rp5255
tp5256
a(S'bvert_4MeV_neg45tilt_15rot_det14.npy'
p5257
F1.1524
F0.012
F40.6825
F0.2232
F0.7193
F0.0082
g11
(g15
S'\x00\x00\x00\x00\x00\x80Z@'
p5258
tp5259
Rp5260
tp5261
a(S'bvert_4MeV_neg45tilt_15rot_det15.npy'
p5262
F1.4868
F0.018
F64.788
F0.691
F0.9535
F0.0126
g11
(g15
S'\x00\x00\x00\x00\x00\x80P@'
p5263
tp5264
Rp5265
tp5266
a(S'bvert_4MeV_neg45tilt_15rot_det4.npy'
p5267
F1.5367
F0.0212
F63.5688
F0.834
F0.9779
F0.0148
g11
(g15
S'\x00\x00\x00\x00\x00@P@'
p5268
tp5269
Rp5270
tp5271
a(S'bvert_4MeV_neg45tilt_15rot_det5.npy'
p5272
F1.2641
F0.0129
F39.1925
F0.2292
F0.7881
F0.0088
g11
(g15
S'\x00\x00\x00\x00\x00\x00\\@'
p5273
tp5274
Rp5275
tp5276
a(S'bvert_4MeV_neg45tilt_15rot_det6.npy'
p5277
F0.9004
F0.0097
F29.3222
F0.1492
F0.5404
F0.0064
g11
(g15
S'\x00\x00\x00\x00\x00\xc0`@'
p5278
tp5279
Rp5280
tp5281
a(S'bvert_4MeV_neg45tilt_15rot_det7.npy'
p5282
F0.5471
F0.0061
F25.5319
F0.115
F0.3132
F0.0041
g11
(g15
S'\x00\x00\x00\x00\x00\x80b@'
p5283
tp5284
Rp5285
tp5286
a(S'bvert_4MeV_neg45tilt_15rot_det8.npy'
p5287
F0.261
F0.0031
F25.7551
F0.0966
F0.1423
F0.0019
g11
(g15
S'\x00\x00\x00\x00\x00 c@'
p5288
tp5289
Rp5290
tp5291
a(S'bvert_4MeV_neg45tilt_15rot_det9.npy'
p5292
F0.0805
F0.0015
F23.8317
F0.0997
F0.04
F0.0008
g11
(g15
S'\x00\x00\x00\x00\x00\xa0`@'
p5293
tp5294
Rp5295
tp5296
a(S'bvert_4MeV_neg45tilt_25rot_det10.npy'
p5297
F0.0651
F0.0011
F22.4851
F0.1222
F0.0322
F0.0006
g11
(g15
S'\x00\x00\x00\x00\x00@Y@'
p5298
tp5299
Rp5300
tp5301
a(S'bvert_4MeV_neg45tilt_25rot_det11.npy'
p5302
F0.2295
F0.0029
F26.5357
F0.0918
F0.1228
F0.0018
g11
(g15
S'\x00\x00\x00\x00\x00@a@'
p5303
tp5304
Rp5305
tp5306
a(S'bvert_4MeV_neg45tilt_25rot_det12.npy'
p5307
F0.4689
F0.0047
F26.3707
F0.1004
F0.2697
F0.0031
g11
(g15
S'\x00\x00\x00\x00\x00\x80a@'
p5308
tp5309
Rp5310
tp5311
a(S'bvert_4MeV_neg45tilt_25rot_det13.npy'
p5312
F0.8044
F0.0069
F31.3416
F0.1255
F0.4866
F0.0047
g11
(g15
S'\x00\x00\x00\x00\x00\x80a@'
p5313
tp5314
Rp5315
tp5316
a(S'bvert_4MeV_neg45tilt_25rot_det14.npy'
p5317
F1.1378
F0.0095
F40.6677
F0.2098
F0.7137
F0.0067
g11
(g15
S'\x00\x00\x00\x00\x00\xc0_@'
p5318
tp5319
Rp5320
tp5321
a(S'bvert_4MeV_neg45tilt_25rot_det15.npy'
p5322
F1.4394
F0.0193
F64.4088
F0.6136
F0.9216
F0.0138
g11
(g15
S'\x00\x00\x00\x00\x00\x00T@'
p5323
tp5324
Rp5325
tp5326
a(S'bvert_4MeV_neg45tilt_25rot_det4.npy'
p5327
F1.5199
F0.0197
F62.7704
F0.5338
F0.9795
F0.0134
g11
(g15
S'\x00\x00\x00\x00\x00\x80S@'
p5328
tp5329
Rp5330
tp5331
a(S'bvert_4MeV_neg45tilt_25rot_det5.npy'
p5332
F1.2427
F0.0116
F38.4257
F0.208
F0.781
F0.0078
g11
(g15
S'\x00\x00\x00\x00\x00\x00^@'
p5333
tp5334
Rp5335
tp5336
a(S'bvert_4MeV_neg45tilt_25rot_det6.npy'
p5337
F0.8788
F0.0086
F28.8056
F0.159
F0.5308
F0.0057
g11
(g15
S'\x00\x00\x00\x00\x00\x00_@'
p5338
tp5339
Rp5340
tp5341
a(S'bvert_4MeV_neg45tilt_25rot_det7.npy'
p5342
F0.5308
F0.0053
F25.6145
F0.1007
F0.3068
F0.0033
g11
(g15
S'\x00\x00\x00\x00\x00\x80c@'
p5343
tp5344
Rp5345
tp5346
a(S'bvert_4MeV_neg45tilt_25rot_det8.npy'
p5347
F0.2585
F0.0032
F25.6939
F0.097
F0.1394
F0.002
g11
(g15
S'\x00\x00\x00\x00\x00\xc0_@'
p5348
tp5349
Rp5350
tp5351
a(S'bvert_4MeV_neg45tilt_25rot_det9.npy'
p5352
F0.0777
F0.0015
F24.0559
F0.1032
F0.0395
F0.0008
g11
(g15
S'\x00\x00\x00\x00\x00\x00a@'
p5353
tp5354
Rp5355
tp5356
a(S'bvert_4MeV_neg45tilt_315rot_det10.npy'
p5357
F0.069
F0.0013
F22.0033
F0.0929
F0.0338
F0.0007
g11
(g15
S'\x00\x00\x00\x00\x00\xe0a@'
p5358
tp5359
Rp5360
tp5361
a(S'bvert_4MeV_neg45tilt_315rot_det11.npy'
p5362
F0.2275
F0.0027
F26.4884
F0.0863
F0.1226
F0.0016
g11
(g15
S'\x00\x00\x00\x00\x00\xa0d@'
p5363
tp5364
Rp5365
tp5366
a(S'bvert_4MeV_neg45tilt_315rot_det12.npy'
p5367
F0.5031
F0.005
F26.1306
F0.0865
F0.2911
F0.0033
g11
(g15
S'\x00\x00\x00\x00\x00\x80d@'
p5368
tp5369
Rp5370
tp5371
a(S'bvert_4MeV_neg45tilt_315rot_det13.npy'
p5372
F0.8635
F0.0087
F31.2227
F0.1313
F0.5258
F0.0057
g11
(g15
S'\x00\x00\x00\x00\x00\x80]@'
p5373
tp5374
Rp5375
tp5376
a(S'bvert_4MeV_neg45tilt_315rot_det14.npy'
p5377
F1.2764
F0.0102
F40.6426
F0.2474
F0.7928
F0.0074
g11
(g15
S'\x00\x00\x00\x00\x00\x00[@'
p5378
tp5379
Rp5380
tp5381
a(S'bvert_4MeV_neg45tilt_315rot_det15.npy'
p5382
F1.6673
F0.0168
F64.234
F0.6096
F1.0586
F0.0116
g11
(g15
S'\x00\x00\x00\x00\x00\x80T@'
p5383
tp5384
Rp5385
tp5386
a(S'bvert_4MeV_neg45tilt_315rot_det4.npy'
p5387
F1.6555
F0.0169
F64.4288
F0.5497
F1.0453
F0.0114
g11
(g15
S'\x00\x00\x00\x00\x00\x00V@'
p5388
tp5389
Rp5390
tp5391
a(S'bvert_4MeV_neg45tilt_315rot_det5.npy'
p5392
F1.2658
F0.0113
F39.0853
F0.2118
F0.7858
F0.0079
g11
(g15
S'\x00\x00\x00\x00\x00\x00\\@'
p5393
tp5394
Rp5395
tp5396
a(S'bvert_4MeV_neg45tilt_315rot_det6.npy'
p5397
F0.8696
F0.0085
F29.4766
F0.1481
F0.5227
F0.0056
g11
(g15
S'\x00\x00\x00\x00\x00`a@'
p5398
tp5399
Rp5400
tp5401
a(S'bvert_4MeV_neg45tilt_315rot_det7.npy'
p5402
F0.5083
F0.0047
F25.8054
F0.1091
F0.2939
F0.0031
g11
(g15
S'\x00\x00\x00\x00\x00\x80d@'
p5403
tp5404
Rp5405
tp5406
a(S'bvert_4MeV_neg45tilt_315rot_det8.npy'
p5407
F0.2394
F0.0027
F25.7514
F0.0854
F0.1295
F0.0016
g11
(g15
S'\x00\x00\x00\x00\x00\xe0a@'
p5408
tp5409
Rp5410
tp5411
a(S'bvert_4MeV_neg45tilt_315rot_det9.npy'
p5412
F0.0732
F0.0013
F23.8999
F0.0924
F0.0353
F0.0007
g11
(g15
S'\x00\x00\x00\x00\x00`d@'
p5413
tp5414
Rp5415
tp5416
a(S'bvert_4MeV_neg45tilt_335rot_det10.npy'
p5417
F0.0652
F0.0012
F22.0807
F0.084
F0.031
F0.0007
g11
(g15
S'\x00\x00\x00\x00\x00\x00e@'
p5418
tp5419
Rp5420
tp5421
a(S'bvert_4MeV_neg45tilt_335rot_det11.npy'
p5422
F0.2143
F0.0029
F26.532
F0.0887
F0.1137
F0.0017
g11
(g15
S'\x00\x00\x00\x00\x00\x80e@'
p5423
tp5424
Rp5425
tp5426
a(S'bvert_4MeV_neg45tilt_335rot_det12.npy'
p5427
F0.4726
F0.0046
F26.3142
F0.0902
F0.2717
F0.003
g11
(g15
S'\x00\x00\x00\x00\x00 e@'
p5428
tp5429
Rp5430
tp5431
a(S'bvert_4MeV_neg45tilt_335rot_det13.npy'
p5432
F0.8421
F0.0071
F31.3905
F0.1279
F0.5106
F0.005
g11
(g15
S'\x00\x00\x00\x00\x00\xa0a@'
p5433
tp5434
Rp5435
tp5436
a(S'bvert_4MeV_neg45tilt_335rot_det14.npy'
p5437
F1.2161
F0.0105
F40.7754
F0.2141
F0.7643
F0.0074
g11
(g15
S'\x00\x00\x00\x00\x00@\\@'
p5438
tp5439
Rp5440
tp5441
a(S'bvert_4MeV_neg45tilt_335rot_det15.npy'
p5442
F1.5863
F0.0197
F64.9387
F0.7251
F1.0113
F0.0138
g11
(g15
S'\x00\x00\x00\x00\x00\x80I@'
p5443
tp5444
Rp5445
tp5446
a(S'bvert_4MeV_neg45tilt_335rot_det4.npy'
p5447
F1.6607
F0.0242
F63.5953
F0.721
F1.0378
F0.0163
g11
(g15
S'\x00\x00\x00\x00\x00\xc0R@'
p5448
tp5449
Rp5450
tp5451
a(S'bvert_4MeV_neg45tilt_335rot_det5.npy'
p5452
F1.3162
F0.0127
F39.2096
F0.2034
F0.8104
F0.0084
g11
(g15
S'\x00\x00\x00\x00\x00@_@'
p5453
tp5454
Rp5455
tp5456
a(S'bvert_4MeV_neg45tilt_335rot_det6.npy'
p5457
F0.9133
F0.0083
F29.5699
F0.1565
F0.5479
F0.0054
g11
(g15
S'\x00\x00\x00\x00\x00 b@'
p5458
tp5459
Rp5460
tp5461
a(S'bvert_4MeV_neg45tilt_335rot_det7.npy'
p5462
F0.5209
F0.0052
F25.923
F0.1083
F0.3004
F0.0033
g11
(g15
S'\x00\x00\x00\x00\x00\xc0b@'
p5463
tp5464
Rp5465
tp5466
a(S'bvert_4MeV_neg45tilt_335rot_det8.npy'
p5467
F0.2467
F0.0031
F25.7325
F0.0983
F0.1346
F0.0019
g11
(g15
S'\x00\x00\x00\x00\x00``@'
p5468
tp5469
Rp5470
tp5471
a(S'bvert_4MeV_neg45tilt_335rot_det9.npy'
p5472
F0.0759
F0.0014
F23.8696
F0.0997
F0.0372
F0.0008
g11
(g15
S'\x00\x00\x00\x00\x00@a@'
p5473
tp5474
Rp5475
tp5476
a(S'bvert_4MeV_neg45tilt_345rot_det10.npy'
p5477
F0.0685
F0.0013
F22.0862
F0.0963
F0.0324
F0.0007
g11
(g15
S'\x00\x00\x00\x00\x00\xc0a@'
p5478
tp5479
Rp5480
tp5481
a(S'bvert_4MeV_neg45tilt_345rot_det11.npy'
p5482
F0.218
F0.0028
F26.3558
F0.0863
F0.1156
F0.0016
g11
(g15
S'\x00\x00\x00\x00\x00`c@'
p5483
tp5484
Rp5485
tp5486
a(S'bvert_4MeV_neg45tilt_345rot_det12.npy'
p5487
F0.4704
F0.0051
F26.256
F0.099
F0.2695
F0.0032
g11
(g15
S'\x00\x00\x00\x00\x00\xa0a@'
p5488
tp5489
Rp5490
tp5491
a(S'bvert_4MeV_neg45tilt_345rot_det13.npy'
p5492
F0.8082
F0.0088
F31.125
F0.1315
F0.4923
F0.0068
g11
(g15
S'\x00\x00\x00\x00\x00\xc0`@'
p5493
tp5494
Rp5495
tp5496
a(S'bvert_4MeV_neg45tilt_345rot_det14.npy'
p5497
F1.1978
F0.0112
F41.3196
F0.2492
F0.752
F0.008
g11
(g15
S'\x00\x00\x00\x00\x00@\\@'
p5498
tp5499
Rp5500
tp5501
a(S'bvert_4MeV_neg45tilt_345rot_det15.npy'
p5502
F1.533
F0.0186
F64.7584
F0.5712
F0.9813
F0.0133
g11
(g15
S'\x00\x00\x00\x00\x00\x80S@'
p5503
tp5504
Rp5505
tp5506
a(S'bvert_4MeV_neg45tilt_345rot_det4.npy'
p5507
F1.6536
F0.0197
F64.196
F0.6144
F1.0354
F0.013
g11
(g15
S'\x00\x00\x00\x00\x00\x80X@'
p5508
tp5509
Rp5510
tp5511
a(S'bvert_4MeV_neg45tilt_345rot_det5.npy'
p5512
F1.3693
F0.0104
F39.2576
F0.2328
F0.8511
F0.0073
g11
(g15
S'\x00\x00\x00\x00\x00@[@'
p5513
tp5514
Rp5515
tp5516
a(S'bvert_4MeV_neg45tilt_345rot_det6.npy'
p5517
F0.9388
F0.009
F29.2293
F0.169
F0.5585
F0.0059
g11
(g15
S'\x00\x00\x00\x00\x00\x00]@'
p5518
tp5519
Rp5520
tp5521
a(S'bvert_4MeV_neg45tilt_345rot_det7.npy'
p5522
F0.5413
F0.0052
F25.7242
F0.1088
F0.3108
F0.0032
g11
(g15
S'\x00\x00\x00\x00\x00\xe0d@'
p5523
tp5524
Rp5525
tp5526
a(S'bvert_4MeV_neg45tilt_345rot_det8.npy'
p5527
F0.2491
F0.003
F25.7619
F0.0935
F0.1343
F0.0017
g11
(g15
S'\x00\x00\x00\x00\x00\x80c@'
p5528
tp5529
Rp5530
tp5531
a(S'bvert_4MeV_neg45tilt_345rot_det9.npy'
p5532
F0.0761
F0.0013
F23.7982
F0.0907
F0.0376
F0.0007
g11
(g15
S'\x00\x00\x00\x00\x00@b@'
p5533
tp5534
Rp5535
tp5536
a(S'bvert_4MeV_neg45tilt_355rot_det10.npy'
p5537
F0.0658
F0.0011
F22.1493
F0.0925
F0.0316
F0.0006
g11
(g15
S'\x00\x00\x00\x00\x00\xe0`@'
p5538
tp5539
Rp5540
tp5541
a(S'bvert_4MeV_neg45tilt_355rot_det11.npy'
p5542
F0.2144
F0.0028
F26.6163
F0.0912
F0.1135
F0.0017
g11
(g15
S'\x00\x00\x00\x00\x00\xc0`@'
p5543
tp5544
Rp5545
tp5546
a(S'bvert_4MeV_neg45tilt_355rot_det12.npy'
p5547
F0.4705
F0.0054
F26.2742
F0.1013
F0.2699
F0.0034
g11
(g15
S'\x00\x00\x00\x00\x00 a@'
p5548
tp5549
Rp5550
tp5551
a(S'bvert_4MeV_neg45tilt_355rot_det13.npy'
p5552
F0.8014
F0.0067
F31.2027
F0.1148
F0.4839
F0.0045
g11
(g15
S'\x00\x00\x00\x00\x00\x80d@'
p5553
tp5554
Rp5555
tp5556
a(S'bvert_4MeV_neg45tilt_355rot_det14.npy'
p5557
F1.1666
F0.0116
F40.6437
F0.2426
F0.7287
F0.0083
g11
(g15
S'\x00\x00\x00\x00\x00@X@'
p5558
tp5559
Rp5560
tp5561
a(S'bvert_4MeV_neg45tilt_355rot_det15.npy'
p5562
F1.5226
F0.0185
F65.7427
F0.7508
F0.9775
F0.0139
g11
(g15
S'\x00\x00\x00\x00\x00\x80O@'
p5563
tp5564
Rp5565
tp5566
a(S'bvert_4MeV_neg45tilt_355rot_det4.npy'
p5567
F1.6526
F0.0191
F63.8916
F0.6482
F1.0447
F0.0134
g11
(g15
S'\x00\x00\x00\x00\x00\x00S@'
p5568
tp5569
Rp5570
tp5571
a(S'bvert_4MeV_neg45tilt_355rot_det5.npy'
p5572
F1.3369
F0.0121
F39.5895
F0.235
F0.8251
F0.0083
g11
(g15
S'\x00\x00\x00\x00\x00\x00^@'
p5573
tp5574
Rp5575
tp5576
a(S'bvert_4MeV_neg45tilt_355rot_det6.npy'
p5577
F0.9456
F0.0082
F29.4847
F0.1489
F0.565
F0.0053
g11
(g15
S'\x00\x00\x00\x00\x00\x80a@'
p5578
tp5579
Rp5580
tp5581
a(S'bvert_4MeV_neg45tilt_355rot_det7.npy'
p5582
F0.5527
F0.0052
F25.6015
F0.1076
F0.3174
F0.0034
g11
(g15
S'\x00\x00\x00\x00\x00\xc0c@'
p5583
tp5584
Rp5585
tp5586
a(S'bvert_4MeV_neg45tilt_355rot_det8.npy'
p5587
F0.2535
F0.0031
F25.7784
F0.0916
F0.1372
F0.0018
g11
(g15
S'\x00\x00\x00\x00\x00 a@'
p5588
tp5589
Rp5590
tp5591
a(S'bvert_4MeV_neg45tilt_355rot_det9.npy'
p5592
F0.075
F0.0014
F23.7398
F0.0945
F0.0379
F0.0008
g11
(g15
S'\x00\x00\x00\x00\x00 d@'
p5593
tp5594
Rp5595
tp5596
a(S'bvert_4MeV_neg45tilt_35rot_det10.npy'
p5597
F0.0705
F0.0012
F22.1932
F0.1003
F0.0341
F0.0006
g11
(g15
S'\x00\x00\x00\x00\x00 a@'
p5598
tp5599
Rp5600
tp5601
a(S'bvert_4MeV_neg45tilt_35rot_det11.npy'
p5602
F0.2312
F0.003
F26.6362
F0.0918
F0.1249
F0.0018
g11
(g15
S'\x00\x00\x00\x00\x00`a@'
p5603
tp5604
Rp5605
tp5606
a(S'bvert_4MeV_neg45tilt_35rot_det12.npy'
p5607
F0.4953
F0.0053
F26.208
F0.119
F0.2851
F0.0033
g11
(g15
S'\x00\x00\x00\x00\x00@]@'
p5608
tp5609
Rp5610
tp5611
a(S'bvert_4MeV_neg45tilt_35rot_det13.npy'
p5612
F0.8333
F0.0064
F31.3425
F0.1323
F0.5011
F0.0044
g11
(g15
S'\x00\x00\x00\x00\x00\xe0a@'
p5613
tp5614
Rp5615
tp5616
a(S'bvert_4MeV_neg45tilt_35rot_det14.npy'
p5617
F1.1635
F0.01
F40.5038
F0.2577
F0.7254
F0.0067
g11
(g15
S'\x00\x00\x00\x00\x00\x00Y@'
p5618
tp5619
Rp5620
tp5621
a(S'bvert_4MeV_neg45tilt_35rot_det15.npy'
p5622
F1.4888
F0.0145
F63.209
F0.5966
F0.9539
F0.0103
g11
(g15
S'\x00\x00\x00\x00\x00\x80T@'
p5623
tp5624
Rp5625
tp5626
a(S'bvert_4MeV_neg45tilt_35rot_det4.npy'
p5627
F1.5027
F0.0202
F62.3499
F0.5702
F0.9635
F0.0144
g11
(g15
S'\x00\x00\x00\x00\x00\x00R@'
p5628
tp5629
Rp5630
tp5631
a(S'bvert_4MeV_neg45tilt_35rot_det5.npy'
p5632
F1.2457
F0.0104
F38.8028
F0.2186
F0.7838
F0.0073
g11
(g15
S'\x00\x00\x00\x00\x00@\\@'
p5633
tp5634
Rp5635
tp5636
a(S'bvert_4MeV_neg45tilt_35rot_det6.npy'
p5637
F0.8525
F0.008
F28.9989
F0.1664
F0.5159
F0.0053
g11
(g15
S'\x00\x00\x00\x00\x00\x80\\@'
p5638
tp5639
Rp5640
tp5641
a(S'bvert_4MeV_neg45tilt_35rot_det7.npy'
p5642
F0.5248
F0.005
F25.6495
F0.1032
F0.3051
F0.0036
g11
(g15
S'\x00\x00\x00\x00\x00\x00c@'
p5643
tp5644
Rp5645
tp5646
a(S'bvert_4MeV_neg45tilt_35rot_det8.npy'
p5647
F0.253
F0.0029
F25.8286
F0.091
F0.1371
F0.0018
g11
(g15
S'\x00\x00\x00\x00\x00\xe0a@'
p5648
tp5649
Rp5650
tp5651
a(S'bvert_4MeV_neg45tilt_35rot_det9.npy'
p5652
F0.08
F0.0016
F23.7634
F0.0946
F0.0402
F0.0009
g11
(g15
S'\x00\x00\x00\x00\x00\xe0`@'
p5653
tp5654
Rp5655
tp5656
a(S'bvert_4MeV_neg45tilt_45rot_det10.npy'
p5657
F0.0768
F0.0014
F22.2665
F0.1111
F0.0386
F0.0008
g11
(g15
S'\x00\x00\x00\x00\x00\x00`@'
p5658
tp5659
Rp5660
tp5661
a(S'bvert_4MeV_neg45tilt_45rot_det11.npy'
p5662
F0.234
F0.0034
F26.3653
F0.1097
F0.1275
F0.002
g11
(g15
S'\x00\x00\x00\x00\x00\xc0\\@'
p5663
tp5664
Rp5665
tp5666
a(S'bvert_4MeV_neg45tilt_45rot_det12.npy'
p5667
F0.5028
F0.0061
F26.4718
F0.1137
F0.2895
F0.004
g11
(g15
S'\x00\x00\x00\x00\x00\x00]@'
p5668
tp5669
Rp5670
tp5671
a(S'bvert_4MeV_neg45tilt_45rot_det13.npy'
p5672
F0.842
F0.0066
F31.4625
F0.1199
F0.5083
F0.0046
g11
(g15
S'\x00\x00\x00\x00\x00\x80b@'
p5673
tp5674
Rp5675
tp5676
a(S'bvert_4MeV_neg45tilt_45rot_det14.npy'
p5677
F1.1935
F0.0114
F41.1026
F0.2625
F0.7462
F0.0081
g11
(g15
S'\x00\x00\x00\x00\x00\xc0Z@'
p5678
tp5679
Rp5680
tp5681
a(S'bvert_4MeV_neg45tilt_45rot_det15.npy'
p5682
F1.4641
F0.0151
F64.8276
F0.499
F0.9289
F0.0108
g11
(g15
S'\x00\x00\x00\x00\x00@V@'
p5683
tp5684
Rp5685
tp5686
a(S'bvert_4MeV_neg45tilt_45rot_det4.npy'
p5687
F1.4546
F0.022
F63.0135
F0.5701
F0.9276
F0.0149
g11
(g15
S'\x00\x00\x00\x00\x00\xc0S@'
p5688
tp5689
Rp5690
tp5691
a(S'bvert_4MeV_neg45tilt_45rot_det5.npy'
p5692
F1.2123
F0.0109
F38.9017
F0.2188
F0.7625
F0.0077
g11
(g15
S'\x00\x00\x00\x00\x00\x80\\@'
p5693
tp5694
Rp5695
tp5696
a(S'bvert_4MeV_neg45tilt_45rot_det6.npy'
p5697
F0.8553
F0.007
F29.2028
F0.1489
F0.5188
F0.0048
g11
(g15
S'\x00\x00\x00\x00\x00\xa0`@'
p5698
tp5699
Rp5700
tp5701
a(S'bvert_4MeV_neg45tilt_45rot_det7.npy'
p5702
F0.5068
F0.0054
F25.6904
F0.1146
F0.2943
F0.0034
g11
(g15
S'\x00\x00\x00\x00\x00\x80c@'
p5703
tp5704
Rp5705
tp5706
a(S'bvert_4MeV_neg45tilt_45rot_det8.npy'
p5707
F0.2486
F0.0032
F25.6857
F0.1072
F0.1356
F0.0019
g11
(g15
S'\x00\x00\x00\x00\x00\x80\\@'
p5708
tp5709
Rp5710
tp5711
a(S'bvert_4MeV_neg45tilt_45rot_det9.npy'
p5712
F0.0777
F0.0015
F23.907
F0.0944
F0.0388
F0.0007
g11
(g15
S'\x00\x00\x00\x00\x00\x00b@'
p5713
tp5714
Rp5715
tp5716
a(S'bvert_4MeV_neg45tilt_55rot_det10.npy'
p5717
F0.0768
F0.0017
F22.0899
F0.0961
F0.0371
F0.0009
g11
(g15
S'\x00\x00\x00\x00\x00\x00_@'
p5718
tp5719
Rp5720
tp5721
a(S'bvert_4MeV_neg45tilt_55rot_det11.npy'
p5722
F0.2539
F0.0037
F26.6153
F0.1128
F0.1374
F0.0022
g11
(g15
S'\x00\x00\x00\x00\x00\xc0]@'
p5723
tp5724
Rp5725
tp5726
a(S'bvert_4MeV_neg45tilt_55rot_det12.npy'
p5727
F0.5175
F0.0052
F26.5676
F0.1047
F0.2976
F0.0034
g11
(g15
S'\x00\x00\x00\x00\x00\xc0a@'
p5728
tp5729
Rp5730
tp5731
a(S'bvert_4MeV_neg45tilt_55rot_det13.npy'
p5732
F0.8554
F0.009
F31.2516
F0.1304
F0.5159
F0.0062
g11
(g15
S'\x00\x00\x00\x00\x00\x00_@'
p5733
tp5734
Rp5735
tp5736
a(S'bvert_4MeV_neg45tilt_55rot_det14.npy'
p5737
F1.2116
F0.0119
F40.9641
F0.2819
F0.7518
F0.0081
g11
(g15
S'\x00\x00\x00\x00\x00\x80T@'
p5738
tp5739
Rp5740
tp5741
a(S'bvert_4MeV_neg45tilt_55rot_det15.npy'
p5742
F1.48
F0.0195
F63.9656
F0.6846
F0.9466
F0.0135
g11
(g15
S'\x00\x00\x00\x00\x00\xc0P@'
p5743
tp5744
Rp5745
tp5746
a(S'bvert_4MeV_neg45tilt_55rot_det4.npy'
p5747
F1.4684
F0.0176
F62.869
F0.5546
F0.9414
F0.013
g11
(g15
S'\x00\x00\x00\x00\x00\xc0T@'
p5748
tp5749
Rp5750
tp5751
a(S'bvert_4MeV_neg45tilt_55rot_det5.npy'
p5752
F1.1446
F0.014
F39.1315
F0.2384
F0.7183
F0.0098
g11
(g15
S'\x00\x00\x00\x00\x00\x00Y@'
p5753
tp5754
Rp5755
tp5756
a(S'bvert_4MeV_neg45tilt_55rot_det6.npy'
p5757
F0.8159
F0.0073
F29.0169
F0.1486
F0.495
F0.0049
g11
(g15
S'\x00\x00\x00\x00\x00\x00^@'
p5758
tp5759
Rp5760
tp5761
a(S'bvert_4MeV_neg45tilt_55rot_det7.npy'
p5762
F0.4973
F0.0044
F25.3081
F0.1242
F0.2871
F0.0028
g11
(g15
S'\x00\x00\x00\x00\x00@a@'
p5763
tp5764
Rp5765
tp5766
a(S'bvert_4MeV_neg45tilt_55rot_det8.npy'
p5767
F0.2396
F0.0031
F25.6932
F0.1155
F0.1302
F0.0018
g11
(g15
S'\x00\x00\x00\x00\x00@\\@'
p5768
tp5769
Rp5770
tp5771
a(S'bvert_4MeV_neg45tilt_55rot_det9.npy'
p5772
F0.078
F0.0013
F23.9292
F0.1002
F0.039
F0.0007
g11
(g15
S'\x00\x00\x00\x00\x00\xc0`@'
p5773
tp5774
Rp5775
tp5776
a(S'bvert_4MeV_neg45tilt_5rot_det10.npy'
p5777
F0.0677
F0.0012
F22.1969
F0.0944
F0.0324
F0.0006
g11
(g15
S'\x00\x00\x00\x00\x00\x80d@'
p5778
tp5779
Rp5780
tp5781
a(S'bvert_4MeV_neg45tilt_5rot_det11.npy'
p5782
F0.2165
F0.0027
F26.5511
F0.0912
F0.1163
F0.0016
g11
(g15
S'\x00\x00\x00\x00\x00\x80d@'
p5783
tp5784
Rp5785
tp5786
a(S'bvert_4MeV_neg45tilt_5rot_det12.npy'
p5787
F0.468
F0.0044
F26.4186
F0.0996
F0.2682
F0.0028
g11
(g15
S'\x00\x00\x00\x00\x00 c@'
p5788
tp5789
Rp5790
tp5791
a(S'bvert_4MeV_neg45tilt_5rot_det13.npy'
p5792
F0.7896
F0.0075
F31.0496
F0.1258
F0.478
F0.0051
g11
(g15
S'\x00\x00\x00\x00\x00\xc0b@'
p5793
tp5794
Rp5795
tp5796
a(S'bvert_4MeV_neg45tilt_5rot_det14.npy'
p5797
F1.1496
F0.0118
F40.8013
F0.2036
F0.7212
F0.0087
g11
(g15
S'\x00\x00\x00\x00\x00\xc0^@'
p5798
tp5799
Rp5800
tp5801
a(S'bvert_4MeV_neg45tilt_5rot_det15.npy'
p5802
F1.461
F0.0191
F64.7158
F0.6968
F0.934
F0.0132
g11
(g15
S'\x00\x00\x00\x00\x00\x80R@'
p5803
tp5804
Rp5805
tp5806
a(S'bvert_4MeV_neg45tilt_5rot_det4.npy'
p5807
F1.6276
F0.0163
F62.9784
F0.5532
F1.0347
F0.0109
g11
(g15
S'\x00\x00\x00\x00\x00\x80U@'
p5808
tp5809
Rp5810
tp5811
a(S'bvert_4MeV_neg45tilt_5rot_det5.npy'
p5812
F1.2849
F0.0134
F38.7322
F0.201
F0.8008
F0.009
g11
(g15
S'\x00\x00\x00\x00\x00@]@'
p5813
tp5814
Rp5815
tp5816
a(S'bvert_4MeV_neg45tilt_5rot_det6.npy'
p5817
F0.91
F0.0084
F29.0066
F0.1583
F0.5455
F0.0055
g11
(g15
S'\x00\x00\x00\x00\x00\x80[@'
p5818
tp5819
Rp5820
tp5821
a(S'bvert_4MeV_neg45tilt_5rot_det7.npy'
p5822
F0.5551
F0.0055
F25.5488
F0.0978
F0.318
F0.0036
g11
(g15
S'\x00\x00\x00\x00\x00\xc0b@'
p5823
tp5824
Rp5825
tp5826
a(S'bvert_4MeV_neg45tilt_5rot_det8.npy'
p5827
F0.2629
F0.003
F25.7595
F0.1018
F0.1429
F0.0018
g11
(g15
S'\x00\x00\x00\x00\x00`b@'
p5828
tp5829
Rp5830
tp5831
a(S'bvert_4MeV_neg45tilt_5rot_det9.npy'
p5832
F0.0799
F0.0016
F23.7841
F0.0996
F0.0401
F0.0008
g11
(g15
S'\x00\x00\x00\x00\x00\x00a@'
p5833
tp5834
Rp5835
tp5836
a(S'bvert_4MeV_neg45tilt_75rot_det10.npy'
p5837
F0.0788
F0.0016
F22.1868
F0.1079
F0.0393
F0.0009
g11
(g15
S'\x00\x00\x00\x00\x00\x80^@'
p5838
tp5839
Rp5840
tp5841
a(S'bvert_4MeV_neg45tilt_75rot_det11.npy'
p5842
F0.2667
F0.0027
F26.3942
F0.0864
F0.144
F0.0016
g11
(g15
S'\x00\x00\x00\x00\x00\x80b@'
p5843
tp5844
Rp5845
tp5846
a(S'bvert_4MeV_neg45tilt_75rot_det12.npy'
p5847
F0.5569
F0.0058
F26.7641
F0.0964
F0.3209
F0.0037
g11
(g15
S'\x00\x00\x00\x00\x00\xc0`@'
p5848
tp5849
Rp5850
tp5851
a(S'bvert_4MeV_neg45tilt_75rot_det13.npy'
p5852
F0.9657
F0.0059
F31.2881
F0.1398
F0.5845
F0.0047
g11
(g15
S'\x00\x00\x00\x00\x00\xc0U@'
p5853
tp5854
Rp5855
tp5856
a(S'bvert_4MeV_neg45tilt_75rot_det14.npy'
p5857
F1.2714
F0.0134
F41.18
F0.2024
F0.7896
F0.0091
g11
(g15
S'\x00\x00\x00\x00\x00@]@'
p5858
tp5859
Rp5860
tp5861
a(S'bvert_4MeV_neg45tilt_75rot_det15.npy'
p5862
F1.6019
F0.0189
F65.0749
F0.6768
F1.02
F0.0136
g11
(g15
S'\x00\x00\x00\x00\x00\xc0P@'
p5863
tp5864
Rp5865
tp5866
a(S'bvert_4MeV_neg45tilt_75rot_det4.npy'
p5867
F1.4269
F0.0187
F62.3425
F0.5504
F0.9101
F0.0127
g11
(g15
S'\x00\x00\x00\x00\x00\x00Z@'
p5868
tp5869
Rp5870
tp5871
a(S'bvert_4MeV_neg45tilt_75rot_det5.npy'
p5872
F1.1331
F0.0109
F39.0464
F0.217
F0.7097
F0.0076
g11
(g15
S'\x00\x00\x00\x00\x00\x00^@'
p5873
tp5874
Rp5875
tp5876
a(S'bvert_4MeV_neg45tilt_75rot_det6.npy'
p5877
F0.7903
F0.0074
F28.777
F0.1338
F0.4767
F0.0048
g11
(g15
S'\x00\x00\x00\x00\x00\x00c@'
p5878
tp5879
Rp5880
tp5881
a(S'bvert_4MeV_neg45tilt_75rot_det7.npy'
p5882
F0.4635
F0.0052
F25.6268
F0.1124
F0.2657
F0.0033
g11
(g15
S'\x00\x00\x00\x00\x00\xc0c@'
p5883
tp5884
Rp5885
tp5886
a(S'bvert_4MeV_neg45tilt_75rot_det8.npy'
p5887
F0.2229
F0.0026
F25.8274
F0.093
F0.1196
F0.0016
g11
(g15
S'\x00\x00\x00\x00\x00\xa0c@'
p5888
tp5889
Rp5890
tp5891
a(S'bvert_4MeV_neg45tilt_75rot_det9.npy'
p5892
F0.072
F0.0014
F23.9738
F0.0948
F0.0345
F0.0008
g11
(g15
S'\x00\x00\x00\x00\x00 a@'
p5893
tp5894
Rp5895
tp5896
a(S'bvert_4MeV_neg45tilt_95rot_det10.npy'
p5897
F0.0773
F0.0015
F22.3091
F0.1023
F0.0385
F0.0008
g11
(g15
S'\x00\x00\x00\x00\x00@_@'
p5898
tp5899
Rp5900
tp5901
a(S'bvert_4MeV_neg45tilt_95rot_det11.npy'
p5902
F0.2549
F0.003
F26.6687
F0.0966
F0.139
F0.0019
g11
(g15
S'\x00\x00\x00\x00\x00\xe0`@'
p5903
tp5904
Rp5905
tp5906
a(S'bvert_4MeV_neg45tilt_95rot_det12.npy'
p5907
F0.547
F0.005
F26.6792
F0.0939
F0.3151
F0.0032
g11
(g15
S'\x00\x00\x00\x00\x00\x00c@'
p5908
tp5909
Rp5910
tp5911
a(S'bvert_4MeV_neg45tilt_95rot_det13.npy'
p5912
F0.9311
F0.0083
F31.6037
F0.1236
F0.5556
F0.0056
g11
(g15
S'\x00\x00\x00\x00\x00`a@'
p5913
tp5914
Rp5915
tp5916
a(S'bvert_4MeV_neg45tilt_95rot_det14.npy'
p5917
F1.3087
F0.0139
F41.534
F0.235
F0.8028
F0.0091
g11
(g15
S'\x00\x00\x00\x00\x00\x00Z@'
p5918
tp5919
Rp5920
tp5921
a(S'bvert_4MeV_neg45tilt_95rot_det15.npy'
p5922
F1.6227
F0.0227
F64.479
F0.6368
F1.0247
F0.0156
g11
(g15
S'\x00\x00\x00\x00\x00\x00R@'
p5923
tp5924
Rp5925
tp5926
a(S'bvert_4MeV_neg45tilt_95rot_det4.npy'
p5927
F1.4354
F0.0202
F62.5482
F0.5244
F0.9106
F0.0144
g11
(g15
S'\x00\x00\x00\x00\x00@U@'
p5928
tp5929
Rp5930
tp5931
a(S'bvert_4MeV_neg45tilt_95rot_det5.npy'
p5932
F1.1322
F0.0114
F38.8485
F0.2246
F0.705
F0.0077
g11
(g15
S'\x00\x00\x00\x00\x00\x00]@'
p5933
tp5934
Rp5935
tp5936
a(S'bvert_4MeV_neg45tilt_95rot_det6.npy'
p5937
F0.7875
F0.0068
F28.9361
F0.1328
F0.4745
F0.0046
g11
(g15
S'\x00\x00\x00\x00\x00\xe0a@'
p5938
tp5939
Rp5940
tp5941
a(S'bvert_4MeV_neg45tilt_95rot_det7.npy'
p5942
F0.4514
F0.005
F25.4305
F0.1094
F0.2575
F0.0032
g11
(g15
S'\x00\x00\x00\x00\x00\xc0b@'
p5943
tp5944
Rp5945
tp5946
a(S'bvert_4MeV_neg45tilt_95rot_det8.npy'
p5947
F0.2168
F0.0025
F25.8456
F0.0964
F0.1151
F0.0015
g11
(g15
S'\x00\x00\x00\x00\x00@a@'
p5948
tp5949
Rp5950
tp5951
a(S'bvert_4MeV_neg45tilt_95rot_det9.npy'
p5952
F0.0638
F0.0016
F23.8551
F0.0919
F0.0304
F0.0008
g11
(g15
S'\x00\x00\x00\x00\x00 a@'
p5953
tp5954
Rp5955
tp5956
a.