(lp0
(S'filename'
p1
S'ql_mean'
p2
S'ql_abs_uncert'
p3
S'tof_mean'
p4
S'tof_abs_uncert'
p5
S'qs_mean'
p6
S'qs_abs_uncert'
p7
S'counts'
p8
tp9
a(S'bvert_4MeV_0tilt_115rot_det10.npy'
p10
F0.0907
F0.0012
F22.1759
F0.1162
F0.0577
F0.0007
F119.0
tp11
a(S'bvert_4MeV_0tilt_115rot_det11.npy'
p12
F0.2379
F0.0027
F26.7455
F0.1086
F0.1417
F0.0016
F133.0
tp13
a(S'bvert_4MeV_0tilt_115rot_det12.npy'
p14
F0.514
F0.0043
F26.5273
F0.1056
F0.309
F0.0029
F145.0
tp15
a(S'bvert_4MeV_0tilt_115rot_det13.npy'
p16
F0.8638
F0.0094
F31.7386
F0.1508
F0.532
F0.0063
F127.0
tp17
a(S'bvert_4MeV_0tilt_115rot_det14.npy'
p18
F1.2891
F0.0116
F40.5997
F0.2158
F0.8044
F0.0079
F102.0
tp19
a(S'bvert_4MeV_0tilt_115rot_det15.npy'
p20
F1.6087
F0.0184
F63.385
F0.4946
F1.0128
F0.0125
F63.0
tp21
a(S'bvert_4MeV_0tilt_115rot_det4.npy'
p22
F1.3933
F0.0167
F62.5082
F0.5508
F0.8961
F0.0118
F68.0
tp23
a(S'bvert_4MeV_0tilt_115rot_det5.npy'
p24
F1.0991
F0.0083
F38.7046
F0.2491
F0.7
F0.0061
F105.0
tp25
a(S'bvert_4MeV_0tilt_115rot_det6.npy'
p26
F0.7151
F0.0061
F28.8644
F0.1452
F0.4415
F0.0041
F133.0
tp27
a(S'bvert_4MeV_0tilt_115rot_det7.npy'
p28
F0.417
F0.0039
F25.684
F0.1183
F0.2493
F0.0026
F154.0
tp29
a(S'bvert_4MeV_0tilt_115rot_det8.npy'
p30
F0.2025
F0.0023
F25.8607
F0.1053
F0.1186
F0.0014
F140.0
tp31
a(S'bvert_4MeV_0tilt_115rot_det9.npy'
p32
F0.0813
F0.001
F23.928
F0.1011
F0.0521
F0.0005
F117.0
tp33
a(S'bvert_4MeV_0tilt_135rot_det10.npy'
p34
F0.0841
F0.0012
F22.4011
F0.101
F0.0539
F0.0006
F129.0
tp35
a(S'bvert_4MeV_0tilt_135rot_det11.npy'
p36
F0.2218
F0.0025
F26.6629
F0.1109
F0.1308
F0.0015
F130.0
tp37
a(S'bvert_4MeV_0tilt_135rot_det12.npy'
p38
F0.4715
F0.0041
F26.6864
F0.1152
F0.2853
F0.0027
F154.0
tp39
a(S'bvert_4MeV_0tilt_135rot_det13.npy'
p40
F0.8235
F0.0079
F31.6042
F0.1516
F0.5114
F0.0053
F129.0
tp41
a(S'bvert_4MeV_0tilt_135rot_det14.npy'
p42
F1.1912
F0.0101
F40.6453
F0.1959
F0.7559
F0.0071
F126.0
tp43
a(S'bvert_4MeV_0tilt_135rot_det15.npy'
p44
F1.5748
F0.0168
F64.7929
F0.5519
F1.0081
F0.0117
F75.0
tp45
a(S'bvert_4MeV_0tilt_135rot_det4.npy'
p46
F1.5095
F0.0188
F63.3273
F0.564
F0.9621
F0.0131
F69.0
tp47
a(S'bvert_4MeV_0tilt_135rot_det5.npy'
p48
F1.1804
F0.0105
F38.8838
F0.2366
F0.7457
F0.0072
F114.0
tp49
a(S'bvert_4MeV_0tilt_135rot_det6.npy'
p50
F0.7711
F0.0089
F29.2639
F0.1519
F0.4789
F0.006
F107.0
tp51
a(S'bvert_4MeV_0tilt_135rot_det7.npy'
p52
F0.4488
F0.0048
F25.597
F0.1203
F0.2697
F0.003
F147.0
tp53
a(S'bvert_4MeV_0tilt_135rot_det8.npy'
p54
F0.2125
F0.0026
F25.8245
F0.1052
F0.1266
F0.0016
F110.0
tp55
a(S'bvert_4MeV_0tilt_135rot_det9.npy'
p56
F0.0812
F0.0011
F23.6957
F0.1037
F0.0521
F0.0005
F130.0
tp57
a(S'bvert_4MeV_0tilt_15rot_det10.npy'
p58
F0.0844
F0.001
F22.1985
F0.1069
F0.0545
F0.0006
F133.0
tp59
a(S'bvert_4MeV_0tilt_15rot_det11.npy'
p60
F0.2117
F0.002
F26.6228
F0.0987
F0.1257
F0.0012
F144.0
tp61
a(S'bvert_4MeV_0tilt_15rot_det12.npy'
p62
F0.4141
F0.0038
F26.6951
F0.1104
F0.2479
F0.0025
F167.0
tp63
a(S'bvert_4MeV_0tilt_15rot_det13.npy'
p64
F0.6804
F0.0055
F31.6772
F0.14
F0.4187
F0.0037
F154.0
tp65
a(S'bvert_4MeV_0tilt_15rot_det14.npy'
p66
F0.9843
F0.0088
F41.0265
F0.2378
F0.6236
F0.0063
F111.0
tp67
a(S'bvert_4MeV_0tilt_15rot_det15.npy'
p68
F1.2852
F0.0137
F64.7103
F0.5977
F0.8286
F0.0095
F68.0
tp69
a(S'bvert_4MeV_0tilt_15rot_det4.npy'
p70
F1.4637
F0.0162
F63.2976
F0.5029
F0.9497
F0.0119
F82.0
tp71
a(S'bvert_4MeV_0tilt_15rot_det5.npy'
p72
F1.1859
F0.0119
F39.5554
F0.2576
F0.7514
F0.0083
F101.0
tp73
a(S'bvert_4MeV_0tilt_15rot_det6.npy'
p74
F0.8522
F0.0077
F29.4173
F0.1539
F0.5289
F0.0051
F149.0
tp75
a(S'bvert_4MeV_0tilt_15rot_det7.npy'
p76
F0.5306
F0.0054
F25.7868
F0.1339
F0.3137
F0.0034
F137.0
tp77
a(S'bvert_4MeV_0tilt_15rot_det8.npy'
p78
F0.2621
F0.0026
F25.775
F0.1049
F0.1523
F0.0016
F131.0
tp79
a(S'bvert_4MeV_0tilt_15rot_det9.npy'
p80
F0.0977
F0.0012
F23.6935
F0.0861
F0.0617
F0.0007
F150.0
tp81
a(S'bvert_4MeV_0tilt_25rot_det10.npy'
p82
F0.0883
F0.0012
F22.1346
F0.1074
F0.0564
F0.0007
F122.0
tp83
a(S'bvert_4MeV_0tilt_25rot_det11.npy'
p84
F0.2177
F0.0024
F26.9033
F0.1034
F0.1285
F0.0014
F144.0
tp85
a(S'bvert_4MeV_0tilt_25rot_det12.npy'
p86
F0.4374
F0.0038
F26.7222
F0.0976
F0.2628
F0.0025
F167.0
tp87
a(S'bvert_4MeV_0tilt_25rot_det13.npy'
p88
F0.6896
F0.0061
F31.5463
F0.159
F0.4259
F0.0041
F135.0
tp89
a(S'bvert_4MeV_0tilt_25rot_det14.npy'
p90
F0.9721
F0.0087
F40.9339
F0.2131
F0.6176
F0.0061
F132.0
tp91
a(S'bvert_4MeV_0tilt_25rot_det15.npy'
p92
F1.2462
F0.0123
F64.524
F0.4662
F0.7994
F0.0087
F73.0
tp93
a(S'bvert_4MeV_0tilt_25rot_det4.npy'
p94
F1.4081
F0.0183
F64.7041
F0.5318
F0.9158
F0.013
F67.0
tp95
a(S'bvert_4MeV_0tilt_25rot_det5.npy'
p96
F1.1466
F0.0108
F38.7172
F0.3112
F0.7326
F0.0074
F88.0
tp97
a(S'bvert_4MeV_0tilt_25rot_det6.npy'
p98
F0.8303
F0.0069
F29.4628
F0.1509
F0.5154
F0.0047
F160.0
tp99
a(S'bvert_4MeV_0tilt_25rot_det7.npy'
p100
F0.5267
F0.0044
F25.6104
F0.1073
F0.3163
F0.0029
F161.0
tp101
a(S'bvert_4MeV_0tilt_25rot_det8.npy'
p102
F0.2641
F0.003
F25.9654
F0.1109
F0.1545
F0.0018
F126.0
tp103
a(S'bvert_4MeV_0tilt_25rot_det9.npy'
p104
F0.102
F0.0012
F23.7632
F0.109
F0.0637
F0.0007
F115.0
tp105
a(S'bvert_4MeV_0tilt_315rot_det10.npy'
p106
F0.0847
F0.0009
F22.2988
F0.0866
F0.0537
F0.0005
F143.0
tp107
a(S'bvert_4MeV_0tilt_315rot_det11.npy'
p108
F0.2249
F0.0024
F26.715
F0.0951
F0.1334
F0.0014
F157.0
tp109
a(S'bvert_4MeV_0tilt_315rot_det12.npy'
p110
F0.4757
F0.0046
F26.7926
F0.1217
F0.2868
F0.0029
F148.0
tp111
a(S'bvert_4MeV_0tilt_315rot_det13.npy'
p112
F0.8079
F0.0082
F31.5399
F0.1472
F0.5043
F0.0055
F140.0
tp113
a(S'bvert_4MeV_0tilt_315rot_det14.npy'
p114
F1.2272
F0.0112
F41.7223
F0.25
F0.7829
F0.0079
F107.0
tp115
a(S'bvert_4MeV_0tilt_315rot_det15.npy'
p116
F1.5592
F0.0157
F66.0558
F0.4974
F1.0047
F0.0107
F75.0
tp117
a(S'bvert_4MeV_0tilt_315rot_det4.npy'
p118
F1.5291
F0.0158
F63.4573
F0.5113
F0.9739
F0.0108
F86.0
tp119
a(S'bvert_4MeV_0tilt_315rot_det5.npy'
p120
F1.1692
F0.0101
F39.0738
F0.225
F0.7379
F0.0069
F127.0
tp121
a(S'bvert_4MeV_0tilt_315rot_det6.npy'
p122
F0.7791
F0.0072
F29.0965
F0.1524
F0.4817
F0.0048
F142.0
tp123
a(S'bvert_4MeV_0tilt_315rot_det7.npy'
p124
F0.4463
F0.0042
F25.5298
F0.1129
F0.2687
F0.0027
F167.0
tp125
a(S'bvert_4MeV_0tilt_315rot_det8.npy'
p126
F0.2165
F0.0028
F25.8836
F0.106
F0.1274
F0.0017
F137.0
tp127
a(S'bvert_4MeV_0tilt_315rot_det9.npy'
p128
F0.0819
F0.001
F23.9062
F0.1029
F0.052
F0.0005
F134.0
tp129
a(S'bvert_4MeV_0tilt_335rot_det10.npy'
p130
F0.0804
F0.001
F22.2681
F0.1132
F0.0513
F0.0005
F130.0
tp131
a(S'bvert_4MeV_0tilt_335rot_det11.npy'
p132
F0.2065
F0.0024
F26.6993
F0.1057
F0.1215
F0.0014
F131.0
tp133
a(S'bvert_4MeV_0tilt_335rot_det12.npy'
p134
F0.4327
F0.0043
F26.711
F0.1182
F0.2594
F0.0028
F147.0
tp135
a(S'bvert_4MeV_0tilt_335rot_det13.npy'
p136
F0.7489
F0.0065
F31.7645
F0.1516
F0.4654
F0.0045
F144.0
tp137
a(S'bvert_4MeV_0tilt_335rot_det14.npy'
p138
F1.1158
F0.0113
F41.104
F0.2583
F0.7105
F0.0081
F99.0
tp139
a(S'bvert_4MeV_0tilt_335rot_det15.npy'
p140
F1.4698
F0.0154
F65.3477
F0.577
F0.9505
F0.0109
F74.0
tp141
a(S'bvert_4MeV_0tilt_335rot_det4.npy'
p142
F1.5864
F0.0175
F64.2847
F0.523
F0.9966
F0.0119
F77.0
tp143
a(S'bvert_4MeV_0tilt_335rot_det5.npy'
p144
F1.2576
F0.0103
F39.0631
F0.2263
F0.7857
F0.007
F131.0
tp145
a(S'bvert_4MeV_0tilt_335rot_det6.npy'
p146
F0.856
F0.0072
F29.0589
F0.136
F0.5256
F0.0046
F151.0
tp147
a(S'bvert_4MeV_0tilt_335rot_det7.npy'
p148
F0.4863
F0.0053
F25.49
F0.1168
F0.2914
F0.0032
F156.0
tp149
a(S'bvert_4MeV_0tilt_335rot_det8.npy'
p150
F0.2338
F0.0028
F25.9117
F0.0972
F0.1386
F0.0017
F128.0
tp151
a(S'bvert_4MeV_0tilt_335rot_det9.npy'
p152
F0.0857
F0.0012
F23.8057
F0.1011
F0.0552
F0.0007
F135.0
tp153
a(S'bvert_4MeV_0tilt_345rot_det10.npy'
p154
F0.0819
F0.001
F22.3846
F0.1052
F0.0525
F0.0006
F131.0
tp155
a(S'bvert_4MeV_0tilt_345rot_det11.npy'
p156
F0.2043
F0.0021
F26.8754
F0.0959
F0.1203
F0.0013
F151.0
tp157
a(S'bvert_4MeV_0tilt_345rot_det12.npy'
p158
F0.4267
F0.004
F26.8207
F0.1073
F0.2548
F0.0025
F170.0
tp159
a(S'bvert_4MeV_0tilt_345rot_det13.npy'
p160
F0.7304
F0.0065
F31.5245
F0.1371
F0.4535
F0.0045
F139.0
tp161
a(S'bvert_4MeV_0tilt_345rot_det14.npy'
p162
F1.0714
F0.0104
F41.4736
F0.2358
F0.6861
F0.0072
F113.0
tp163
a(S'bvert_4MeV_0tilt_345rot_det15.npy'
p164
F1.4216
F0.0186
F64.546
F0.5904
F0.9219
F0.0133
F59.0
tp165
a(S'bvert_4MeV_0tilt_345rot_det4.npy'
p166
F1.5896
F0.0161
F62.8853
F0.6165
F1.0106
F0.0113
F67.0
tp167
a(S'bvert_4MeV_0tilt_345rot_det5.npy'
p168
F1.2547
F0.0106
F39.2451
F0.3019
F0.7803
F0.0072
F111.0
tp169
a(S'bvert_4MeV_0tilt_345rot_det6.npy'
p170
F0.8679
F0.0071
F29.1894
F0.1519
F0.5288
F0.0046
F136.0
tp171
a(S'bvert_4MeV_0tilt_345rot_det7.npy'
p172
F0.511
F0.0044
F25.7442
F0.1245
F0.3053
F0.0028
F154.0
tp173
a(S'bvert_4MeV_0tilt_345rot_det8.npy'
p174
F0.241
F0.0025
F25.9047
F0.103
F0.1423
F0.0015
F139.0
tp175
a(S'bvert_4MeV_0tilt_345rot_det9.npy'
p176
F0.0899
F0.001
F23.8287
F0.0991
F0.0575
F0.0006
F132.0
tp177
a(S'bvert_4MeV_0tilt_355rot_det10.npy'
p178
F0.0812
F0.001
F22.2053
F0.0943
F0.052
F0.0005
F153.0
tp179
a(S'bvert_4MeV_0tilt_355rot_det11.npy'
p180
F0.2031
F0.0021
F26.8796
F0.096
F0.1197
F0.0012
F175.0
tp181
a(S'bvert_4MeV_0tilt_355rot_det12.npy'
p182
F0.4163
F0.004
F26.539
F0.1218
F0.2497
F0.0026
F137.0
tp183
a(S'bvert_4MeV_0tilt_355rot_det13.npy'
p184
F0.7078
F0.0061
F31.6978
F0.1434
F0.4367
F0.0041
F146.0
tp185
a(S'bvert_4MeV_0tilt_355rot_det14.npy'
p186
F1.0232
F0.0087
F41.0734
F0.2172
F0.6486
F0.0061
F124.0
tp187
a(S'bvert_4MeV_0tilt_355rot_det15.npy'
p188
F1.3639
F0.0169
F64.8023
F0.5873
F0.889
F0.0118
F62.0
tp189
a(S'bvert_4MeV_0tilt_355rot_det4.npy'
p190
F1.5689
F0.0162
F63.1744
F0.5384
F1.0081
F0.0115
F76.0
tp191
a(S'bvert_4MeV_0tilt_355rot_det5.npy'
p192
F1.2695
F0.0128
F38.7067
F0.2751
F0.7938
F0.0091
F102.0
tp193
a(S'bvert_4MeV_0tilt_355rot_det6.npy'
p194
F0.8977
F0.0082
F29.2406
F0.1437
F0.5471
F0.0053
F137.0
tp195
a(S'bvert_4MeV_0tilt_355rot_det7.npy'
p196
F0.5371
F0.0052
F25.5793
F0.1146
F0.3188
F0.0032
F160.0
tp197
a(S'bvert_4MeV_0tilt_355rot_det8.npy'
p198
F0.26
F0.0029
F25.6618
F0.1135
F0.1534
F0.0017
F142.0
tp199
a(S'bvert_4MeV_0tilt_355rot_det9.npy'
p200
F0.096
F0.0013
F23.7564
F0.1034
F0.0606
F0.0007
F135.0
tp201
a(S'bvert_4MeV_0tilt_35rot_det10.npy'
p202
F0.093
F0.0013
F22.2559
F0.1139
F0.0595
F0.0007
F115.0
tp203
a(S'bvert_4MeV_0tilt_35rot_det11.npy'
p204
F0.2297
F0.0026
F26.811
F0.1107
F0.1363
F0.0016
F142.0
tp205
a(S'bvert_4MeV_0tilt_35rot_det12.npy'
p206
F0.4506
F0.004
F26.6051
F0.1096
F0.2708
F0.0026
F171.0
tp207
a(S'bvert_4MeV_0tilt_35rot_det13.npy'
p208
F0.7237
F0.0058
F31.7625
F0.1458
F0.4464
F0.0039
F149.0
tp209
a(S'bvert_4MeV_0tilt_35rot_det14.npy'
p210
F1.0002
F0.0098
F41.0681
F0.2663
F0.634
F0.0067
F94.0
tp211
a(S'bvert_4MeV_0tilt_35rot_det15.npy'
p212
F1.2559
F0.0121
F63.7327
F0.484
F0.8112
F0.009
F76.0
tp213
a(S'bvert_4MeV_0tilt_35rot_det4.npy'
p214
F1.3536
F0.0151
F64.1556
F0.5927
F0.8779
F0.0102
F66.0
tp215
a(S'bvert_4MeV_0tilt_35rot_det5.npy'
p216
F1.1212
F0.0097
F38.8519
F0.2152
F0.7162
F0.0069
F121.0
tp217
a(S'bvert_4MeV_0tilt_35rot_det6.npy'
p218
F0.7952
F0.0082
F29.2374
F0.1534
F0.4962
F0.0056
F143.0
tp219
a(S'bvert_4MeV_0tilt_35rot_det7.npy'
p220
F0.5045
F0.0047
F25.7689
F0.1113
F0.303
F0.0031
F147.0
tp221
a(S'bvert_4MeV_0tilt_35rot_det8.npy'
p222
F0.2634
F0.0028
F25.6725
F0.1047
F0.156
F0.0017
F130.0
tp223
a(S'bvert_4MeV_0tilt_35rot_det9.npy'
p224
F0.1012
F0.0012
F23.6753
F0.1187
F0.0628
F0.0007
F109.0
tp225
a(S'bvert_4MeV_0tilt_45rot_det10.npy'
p226
F0.0949
F0.0013
F22.0597
F0.1053
F0.0602
F0.0007
F127.0
tp227
a(S'bvert_4MeV_0tilt_45rot_det11.npy'
p228
F0.2398
F0.0027
F26.6066
F0.1034
F0.1419
F0.0017
F125.0
tp229
a(S'bvert_4MeV_0tilt_45rot_det12.npy'
p230
F0.4704
F0.005
F26.7636
F0.1185
F0.2835
F0.0033
F137.0
tp231
a(S'bvert_4MeV_0tilt_45rot_det13.npy'
p232
F0.7444
F0.0069
F31.5626
F0.1582
F0.4596
F0.0046
F119.0
tp233
a(S'bvert_4MeV_0tilt_45rot_det14.npy'
p234
F1.0456
F0.0104
F41.2841
F0.2253
F0.6637
F0.0075
F97.0
tp235
a(S'bvert_4MeV_0tilt_45rot_det15.npy'
p236
F1.2795
F0.0162
F64.6039
F0.6001
F0.8258
F0.0114
F65.0
tp237
a(S'bvert_4MeV_0tilt_45rot_det4.npy'
p238
F1.3168
F0.0151
F62.358
F0.5244
F0.8558
F0.0108
F72.0
tp239
a(S'bvert_4MeV_0tilt_45rot_det5.npy'
p240
F1.0817
F0.0103
F39.2742
F0.2263
F0.6904
F0.007
F103.0
tp241
a(S'bvert_4MeV_0tilt_45rot_det6.npy'
p242
F0.7715
F0.0073
F29.3732
F0.1806
F0.4802
F0.005
F111.0
tp243
a(S'bvert_4MeV_0tilt_45rot_det7.npy'
p244
F0.4815
F0.0051
F25.6086
F0.1226
F0.2925
F0.0033
F138.0
tp245
a(S'bvert_4MeV_0tilt_45rot_det8.npy'
p246
F0.2513
F0.0025
F25.9264
F0.0926
F0.1497
F0.0015
F130.0
tp247
a(S'bvert_4MeV_0tilt_45rot_det9.npy'
p248
F0.1011
F0.0013
F23.659
F0.1028
F0.063
F0.0007
F138.0
tp249
a(S'bvert_4MeV_0tilt_55rot_det10.npy'
p250
F0.0976
F0.0011
F22.1532
F0.093
F0.0618
F0.0006
F153.0
tp251
a(S'bvert_4MeV_0tilt_55rot_det11.npy'
p252
F0.2516
F0.0025
F26.5958
F0.1044
F0.1485
F0.0016
F138.0
tp253
a(S'bvert_4MeV_0tilt_55rot_det12.npy'
p254
F0.4952
F0.0043
F26.5999
F0.1356
F0.2979
F0.0028
F132.0
tp255
a(S'bvert_4MeV_0tilt_55rot_det13.npy'
p256
F0.7806
F0.0069
F31.4316
F0.1546
F0.4815
F0.0046
F117.0
tp257
a(S'bvert_4MeV_0tilt_55rot_det14.npy'
p258
F1.068
F0.0112
F40.8353
F0.2447
F0.6784
F0.0079
F101.0
tp259
a(S'bvert_4MeV_0tilt_55rot_det15.npy'
p260
F1.3437
F0.0132
F64.3585
F0.6004
F0.8708
F0.0096
F59.0
tp261
a(S'bvert_4MeV_0tilt_55rot_det4.npy'
p262
F1.2723
F0.0128
F62.8826
F0.5388
F0.8229
F0.0093
F77.0
tp263
a(S'bvert_4MeV_0tilt_55rot_det5.npy'
p264
F1.0177
F0.0088
F39.3005
F0.2426
F0.6465
F0.0063
F109.0
tp265
a(S'bvert_4MeV_0tilt_55rot_det6.npy'
p266
F0.7418
F0.0075
F29.4006
F0.1678
F0.4598
F0.005
F125.0
tp267
a(S'bvert_4MeV_0tilt_55rot_det7.npy'
p268
F0.4736
F0.0047
F25.6412
F0.1179
F0.2863
F0.003
F138.0
tp269
a(S'bvert_4MeV_0tilt_55rot_det8.npy'
p270
F0.2469
F0.0028
F25.9996
F0.0951
F0.1467
F0.0017
F142.0
tp271
a(S'bvert_4MeV_0tilt_55rot_det9.npy'
p272
F0.0943
F0.0015
F23.8084
F0.1169
F0.06
F0.0008
F102.0
tp273
a(S'bvert_4MeV_0tilt_5rot_det10.npy'
p274
F0.0835
F0.0009
F22.2093
F0.1009
F0.0532
F0.0005
F146.0
tp275
a(S'bvert_4MeV_0tilt_5rot_det11.npy'
p276
F0.2079
F0.0024
F26.8133
F0.1083
F0.1226
F0.0014
F140.0
tp277
a(S'bvert_4MeV_0tilt_5rot_det12.npy'
p278
F0.4115
F0.0044
F26.6067
F0.1102
F0.2457
F0.0028
F140.0
tp279
a(S'bvert_4MeV_0tilt_5rot_det13.npy'
p280
F0.6749
F0.0052
F31.6091
F0.1289
F0.4149
F0.0036
F159.0
tp281
a(S'bvert_4MeV_0tilt_5rot_det14.npy'
p282
F0.9984
F0.0089
F41.3079
F0.2451
F0.6311
F0.0063
F111.0
tp283
a(S'bvert_4MeV_0tilt_5rot_det15.npy'
p284
F1.3072
F0.0171
F66.3351
F0.5207
F0.8484
F0.0119
F71.0
tp285
a(S'bvert_4MeV_0tilt_5rot_det4.npy'
p286
F1.5134
F0.0186
F64.5877
F0.6363
F0.98
F0.0133
F57.0
tp287
a(S'bvert_4MeV_0tilt_5rot_det5.npy'
p288
F1.236
F0.0111
F38.8929
F0.2259
F0.7776
F0.0077
F115.0
tp289
a(S'bvert_4MeV_0tilt_5rot_det6.npy'
p290
F0.8964
F0.0069
F28.8853
F0.1665
F0.5496
F0.0046
F144.0
tp291
a(S'bvert_4MeV_0tilt_5rot_det7.npy'
p292
F0.5342
F0.0045
F25.6854
F0.1267
F0.3157
F0.0029
F145.0
tp293
a(S'bvert_4MeV_0tilt_5rot_det8.npy'
p294
F0.263
F0.0028
F25.5277
F0.0893
F0.1535
F0.0016
F144.0
tp295
a(S'bvert_4MeV_0tilt_5rot_det9.npy'
p296
F0.0977
F0.0012
F23.5411
F0.1059
F0.0623
F0.0007
F115.0
tp297
a(S'bvert_4MeV_0tilt_75rot_det10.npy'
p298
F0.0998
F0.0013
F22.0603
F0.0993
F0.0632
F0.0007
F144.0
tp299
a(S'bvert_4MeV_0tilt_75rot_det11.npy'
p300
F0.2726
F0.003
F26.5357
F0.1177
F0.1599
F0.0019
F117.0
tp301
a(S'bvert_4MeV_0tilt_75rot_det12.npy'
p302
F0.542
F0.0051
F26.5438
F0.1245
F0.3225
F0.0033
F145.0
tp303
a(S'bvert_4MeV_0tilt_75rot_det13.npy'
p304
F0.8393
F0.0073
F31.7205
F0.1448
F0.514
F0.0047
F143.0
tp305
a(S'bvert_4MeV_0tilt_75rot_det14.npy'
p306
F1.1561
F0.0108
F41.2572
F0.2542
F0.7321
F0.0077
F103.0
tp307
a(S'bvert_4MeV_0tilt_75rot_det15.npy'
p308
F1.4287
F0.017
F64.951
F0.6912
F0.926
F0.0128
F41.0
tp309
a(S'bvert_4MeV_0tilt_75rot_det4.npy'
p310
F1.2366
F0.0143
F63.4729
F0.6278
F0.7934
F0.0109
F69.0
tp311
a(S'bvert_4MeV_0tilt_75rot_det5.npy'
p312
F0.9848
F0.0091
F38.7086
F0.2224
F0.6236
F0.0065
F108.0
tp313
a(S'bvert_4MeV_0tilt_75rot_det6.npy'
p314
F0.6993
F0.0054
F29.0573
F0.145
F0.4314
F0.0037
F160.0
tp315
a(S'bvert_4MeV_0tilt_75rot_det7.npy'
p316
F0.4354
F0.0042
F25.7763
F0.1234
F0.2615
F0.0027
F143.0
tp317
a(S'bvert_4MeV_0tilt_75rot_det8.npy'
p318
F0.2229
F0.0025
F25.8621
F0.0942
F0.1317
F0.0015
F160.0
tp319
a(S'bvert_4MeV_0tilt_75rot_det9.npy'
p320
F0.089
F0.0013
F23.9133
F0.112
F0.0569
F0.0007
F110.0
tp321
a(S'bvert_4MeV_0tilt_95rot_det10.npy'
p322
F0.0948
F0.0012
F21.654
F0.1079
F0.0603
F0.0007
F133.0
tp323
a(S'bvert_4MeV_0tilt_95rot_det11.npy'
p324
F0.2614
F0.0028
F26.6847
F0.1012
F0.1545
F0.0017
F153.0
tp325
a(S'bvert_4MeV_0tilt_95rot_det12.npy'
p326
F0.546
F0.0048
F26.7102
F0.1257
F0.3252
F0.0031
F151.0
tp327
a(S'bvert_4MeV_0tilt_95rot_det13.npy'
p328
F0.9083
F0.0076
F31.2925
F0.1365
F0.5547
F0.0051
F152.0
tp329
a(S'bvert_4MeV_0tilt_95rot_det14.npy'
p330
F1.2523
F0.0108
F40.818
F0.2358
F0.7791
F0.0076
F105.0
tp331
a(S'bvert_4MeV_0tilt_95rot_det15.npy'
p332
F1.5421
F0.0156
F63.8324
F0.5164
F0.9825
F0.0109
F80.0
tp333
a(S'bvert_4MeV_0tilt_95rot_det4.npy'
p334
F1.2952
F0.0143
F62.4463
F0.5433
F0.8385
F0.0094
F68.0
tp335
a(S'bvert_4MeV_0tilt_95rot_det5.npy'
p336
F1.0031
F0.0091
F39.356
F0.2331
F0.6358
F0.0062
F116.0
tp337
a(S'bvert_4MeV_0tilt_95rot_det6.npy'
p338
F0.6957
F0.0058
F29.1977
F0.1652
F0.4281
F0.004
F143.0
tp339
a(S'bvert_4MeV_0tilt_95rot_det7.npy'
p340
F0.4054
F0.004
F25.619
F0.117
F0.2424
F0.0026
F132.0
tp341
a(S'bvert_4MeV_0tilt_95rot_det8.npy'
p342
F0.2096
F0.0022
F25.9933
F0.0928
F0.1228
F0.0013
F139.0
tp343
a(S'bvert_4MeV_0tilt_95rot_det9.npy'
p344
F0.0824
F0.001
F23.9053
F0.0938
F0.0532
F0.0005
F142.0
tp345
a(S'bvert_4MeV_15tilt_115rot_det10.npy'
p346
F0.09
F0.0012
F22.1707
F0.0924
F0.057
F0.0006
F161.0
tp347
a(S'bvert_4MeV_15tilt_115rot_det11.npy'
p348
F0.2449
F0.0027
F26.6845
F0.1021
F0.145
F0.0017
F142.0
tp349
a(S'bvert_4MeV_15tilt_115rot_det12.npy'
p350
F0.5155
F0.0047
F26.6787
F0.1116
F0.3104
F0.0029
F139.0
tp351
a(S'bvert_4MeV_15tilt_115rot_det13.npy'
p352
F0.8718
F0.0073
F31.7248
F0.1548
F0.5365
F0.0047
F137.0
tp353
a(S'bvert_4MeV_15tilt_115rot_det14.npy'
p354
F1.2737
F0.0089
F41.4063
F0.2109
F0.7981
F0.0061
F149.0
tp355
a(S'bvert_4MeV_15tilt_115rot_det15.npy'
p356
F1.6151
F0.0171
F64.7242
F0.5886
F1.023
F0.0124
F68.0
tp357
a(S'bvert_4MeV_15tilt_115rot_det4.npy'
p358
F1.4228
F0.0162
F62.0683
F0.4883
F0.9227
F0.0115
F79.0
tp359
a(S'bvert_4MeV_15tilt_115rot_det5.npy'
p360
F1.1091
F0.0093
F39.0039
F0.2464
F0.7056
F0.0065
F127.0
tp361
a(S'bvert_4MeV_15tilt_115rot_det6.npy'
p362
F0.716
F0.0066
F28.9629
F0.1416
F0.443
F0.0044
F144.0
tp363
a(S'bvert_4MeV_15tilt_115rot_det7.npy'
p364
F0.4259
F0.0042
F25.6762
F0.1034
F0.2548
F0.0026
F168.0
tp365
a(S'bvert_4MeV_15tilt_115rot_det8.npy'
p366
F0.2031
F0.0023
F25.7665
F0.1061
F0.1189
F0.0014
F121.0
tp367
a(S'bvert_4MeV_15tilt_115rot_det9.npy'
p368
F0.0811
F0.001
F23.8585
F0.094
F0.0518
F0.0005
F152.0
tp369
a(S'bvert_4MeV_15tilt_135rot_det10.npy'
p370
F0.0857
F0.0011
F22.3583
F0.1003
F0.0543
F0.0006
F158.0
tp371
a(S'bvert_4MeV_15tilt_135rot_det11.npy'
p372
F0.2244
F0.0024
F26.9556
F0.0998
F0.1328
F0.0014
F155.0
tp373
a(S'bvert_4MeV_15tilt_135rot_det12.npy'
p374
F0.4821
F0.0041
F27.015
F0.1168
F0.2921
F0.0027
F153.0
tp375
a(S'bvert_4MeV_15tilt_135rot_det13.npy'
p376
F0.8163
F0.0073
F31.6933
F0.1647
F0.5092
F0.005
F116.0
tp377
a(S'bvert_4MeV_15tilt_135rot_det14.npy'
p378
F1.2147
F0.0107
F41.1293
F0.2038
F0.7723
F0.0076
F112.0
tp379
a(S'bvert_4MeV_15tilt_135rot_det15.npy'
p380
F1.5684
F0.0152
F64.935
F0.498
F1.009
F0.0108
F77.0
tp381
a(S'bvert_4MeV_15tilt_135rot_det4.npy'
p382
F1.5632
F0.0139
F61.3335
F0.5362
F1.0006
F0.0098
F72.0
tp383
a(S'bvert_4MeV_15tilt_135rot_det5.npy'
p384
F1.1827
F0.0109
F38.9483
F0.2364
F0.7471
F0.0077
F108.0
tp385
a(S'bvert_4MeV_15tilt_135rot_det6.npy'
p386
F0.7822
F0.0068
F28.9485
F0.1393
F0.4829
F0.0046
F153.0
tp387
a(S'bvert_4MeV_15tilt_135rot_det7.npy'
p388
F0.4354
F0.0048
F25.7451
F0.1293
F0.2608
F0.0031
F150.0
tp389
a(S'bvert_4MeV_15tilt_135rot_det8.npy'
p390
F0.2133
F0.0024
F25.7753
F0.097
F0.1255
F0.0015
F150.0
tp391
a(S'bvert_4MeV_15tilt_135rot_det9.npy'
p392
F0.0801
F0.0011
F23.8985
F0.1084
F0.051
F0.0006
F126.0
tp393
a(S'bvert_4MeV_15tilt_15rot_det10.npy'
p394
F0.0844
F0.0011
F22.1431
F0.0914
F0.0542
F0.0006
F160.0
tp395
a(S'bvert_4MeV_15tilt_15rot_det11.npy'
p396
F0.2145
F0.0021
F26.5452
F0.0994
F0.1268
F0.0013
F144.0
tp397
a(S'bvert_4MeV_15tilt_15rot_det12.npy'
p398
F0.4217
F0.0037
F26.485
F0.1018
F0.2529
F0.0024
F180.0
tp399
a(S'bvert_4MeV_15tilt_15rot_det13.npy'
p400
F0.7072
F0.006
F31.5396
F0.1431
F0.4366
F0.004
F156.0
tp401
a(S'bvert_4MeV_15tilt_15rot_det14.npy'
p402
F1.0012
F0.0086
F40.4779
F0.2371
F0.6346
F0.0059
F119.0
tp403
a(S'bvert_4MeV_15tilt_15rot_det15.npy'
p404
F1.2961
F0.0135
F64.7137
F0.5452
F0.8364
F0.0094
F85.0
tp405
a(S'bvert_4MeV_15tilt_15rot_det4.npy'
p406
F1.4715
F0.0153
F63.1502
F0.4663
F0.9545
F0.0113
F73.0
tp407
a(S'bvert_4MeV_15tilt_15rot_det5.npy'
p408
F1.2425
F0.0104
F39.2188
F0.2706
F0.7932
F0.0075
F92.0
tp409
a(S'bvert_4MeV_15tilt_15rot_det6.npy'
p410
F0.8826
F0.0067
F29.2561
F0.1462
F0.5461
F0.0045
F164.0
tp411
a(S'bvert_4MeV_15tilt_15rot_det7.npy'
p412
F0.5443
F0.0047
F25.5371
F0.1045
F0.3239
F0.003
F162.0
tp413
a(S'bvert_4MeV_15tilt_15rot_det8.npy'
p414
F0.2701
F0.0029
F25.7916
F0.0928
F0.1588
F0.0017
F176.0
tp415
a(S'bvert_4MeV_15tilt_15rot_det9.npy'
p416
F0.1027
F0.0013
F23.6818
F0.0928
F0.0643
F0.0007
F145.0
tp417
a(S'bvert_4MeV_15tilt_25rot_det10.npy'
p418
F0.0862
F0.0011
F22.0817
F0.0956
F0.0556
F0.0006
F162.0
tp419
a(S'bvert_4MeV_15tilt_25rot_det11.npy'
p420
F0.2254
F0.0024
F26.6992
F0.1066
F0.1331
F0.0014
F146.0
tp421
a(S'bvert_4MeV_15tilt_25rot_det12.npy'
p422
F0.4332
F0.0038
F26.5935
F0.1076
F0.2586
F0.0025
F152.0
tp423
a(S'bvert_4MeV_15tilt_25rot_det13.npy'
p424
F0.7122
F0.0057
F31.5523
F0.1462
F0.438
F0.0039
F164.0
tp425
a(S'bvert_4MeV_15tilt_25rot_det14.npy'
p426
F1.0067
F0.0084
F40.9198
F0.2117
F0.6374
F0.0056
F138.0
tp427
a(S'bvert_4MeV_15tilt_25rot_det15.npy'
p428
F1.2621
F0.0113
F64.0806
F0.514
F0.8109
F0.0081
F74.0
tp429
a(S'bvert_4MeV_15tilt_25rot_det4.npy'
p430
F1.3989
F0.0154
F63.0834
F0.5024
F0.9068
F0.0113
F89.0
tp431
a(S'bvert_4MeV_15tilt_25rot_det5.npy'
p432
F1.1736
F0.0094
F39.1072
F0.2306
F0.7512
F0.0067
F131.0
tp433
a(S'bvert_4MeV_15tilt_25rot_det6.npy'
p434
F0.8635
F0.0066
F29.332
F0.1524
F0.5365
F0.0046
F128.0
tp435
a(S'bvert_4MeV_15tilt_25rot_det7.npy'
p436
F0.5257
F0.0043
F25.6139
F0.1071
F0.3159
F0.0028
F177.0
tp437
a(S'bvert_4MeV_15tilt_25rot_det8.npy'
p438
F0.2665
F0.0028
F25.7628
F0.0974
F0.1566
F0.0017
F161.0
tp439
a(S'bvert_4MeV_15tilt_25rot_det9.npy'
p440
F0.1042
F0.0014
F23.797
F0.1025
F0.0654
F0.0008
F143.0
tp441
a(S'bvert_4MeV_15tilt_315rot_det10.npy'
p442
F0.0849
F0.0012
F22.4062
F0.0931
F0.0539
F0.0006
F152.0
tp443
a(S'bvert_4MeV_15tilt_315rot_det11.npy'
p444
F0.2279
F0.0025
F26.6785
F0.0975
F0.1351
F0.0015
F149.0
tp445
a(S'bvert_4MeV_15tilt_315rot_det12.npy'
p446
F0.4811
F0.0046
F26.716
F0.1129
F0.2907
F0.0029
F177.0
tp447
a(S'bvert_4MeV_15tilt_315rot_det13.npy'
p448
F0.8331
F0.0073
F31.6675
F0.1406
F0.52
F0.005
F139.0
tp449
a(S'bvert_4MeV_15tilt_315rot_det14.npy'
p450
F1.1986
F0.0105
F41.4162
F0.2374
F0.7641
F0.0074
F117.0
tp451
a(S'bvert_4MeV_15tilt_315rot_det15.npy'
p452
F1.5542
F0.0159
F65.4578
F0.577
F1.0006
F0.0115
F63.0
tp453
a(S'bvert_4MeV_15tilt_315rot_det4.npy'
p454
F1.5688
F0.0144
F63.7716
F0.491
F1.0053
F0.0101
F91.0
tp455
a(S'bvert_4MeV_15tilt_315rot_det5.npy'
p456
F1.1994
F0.01
F39.1536
F0.2415
F0.7609
F0.007
F135.0
tp457
a(S'bvert_4MeV_15tilt_315rot_det6.npy'
p458
F0.7984
F0.0081
F29.3443
F0.1782
F0.4924
F0.0054
F113.0
tp459
a(S'bvert_4MeV_15tilt_315rot_det7.npy'
p460
F0.4591
F0.0044
F25.5975
F0.108
F0.275
F0.0028
F161.0
tp461
a(S'bvert_4MeV_15tilt_315rot_det8.npy'
p462
F0.2186
F0.0024
F25.7842
F0.1017
F0.1285
F0.0015
F143.0
tp463
a(S'bvert_4MeV_15tilt_315rot_det9.npy'
p464
F0.0856
F0.001
F24.0218
F0.0971
F0.0544
F0.0006
F159.0
tp465
a(S'bvert_4MeV_15tilt_335rot_det10.npy'
p466
F0.0815
F0.0011
F22.2517
F0.1076
F0.0518
F0.0006
F125.0
tp467
a(S'bvert_4MeV_15tilt_335rot_det11.npy'
p468
F0.2133
F0.0024
F26.5218
F0.1034
F0.1261
F0.0015
F160.0
tp469
a(S'bvert_4MeV_15tilt_335rot_det12.npy'
p470
F0.4326
F0.0038
F26.758
F0.1162
F0.259
F0.0024
F160.0
tp471
a(S'bvert_4MeV_15tilt_335rot_det13.npy'
p472
F0.7662
F0.0065
F31.5321
F0.1528
F0.4774
F0.0045
F142.0
tp473
a(S'bvert_4MeV_15tilt_335rot_det14.npy'
p474
F1.1091
F0.0108
F40.8997
F0.2616
F0.7086
F0.0075
F105.0
tp475
a(S'bvert_4MeV_15tilt_335rot_det15.npy'
p476
F1.4673
F0.015
F64.8083
F0.4751
F0.9547
F0.0104
F83.0
tp477
a(S'bvert_4MeV_15tilt_335rot_det4.npy'
p478
F1.6429
F0.0162
F63.3573
F0.5128
F1.0416
F0.0116
F84.0
tp479
a(S'bvert_4MeV_15tilt_335rot_det5.npy'
p480
F1.2687
F0.0102
F39.1668
F0.2328
F0.7895
F0.0068
F119.0
tp481
a(S'bvert_4MeV_15tilt_335rot_det6.npy'
p482
F0.8804
F0.0065
F28.985
F0.1541
F0.5399
F0.0043
F116.0
tp483
a(S'bvert_4MeV_15tilt_335rot_det7.npy'
p484
F0.4987
F0.0049
F25.4277
F0.1205
F0.2988
F0.0031
F150.0
tp485
a(S'bvert_4MeV_15tilt_335rot_det8.npy'
p486
F0.2384
F0.0026
F26.0589
F0.1028
F0.1411
F0.0016
F139.0
tp487
a(S'bvert_4MeV_15tilt_335rot_det9.npy'
p488
F0.0908
F0.0012
F23.726
F0.0919
F0.0578
F0.0007
F139.0
tp489
a(S'bvert_4MeV_15tilt_345rot_det10.npy'
p490
F0.0801
F0.0011
F22.1645
F0.1056
F0.0512
F0.0006
F130.0
tp491
a(S'bvert_4MeV_15tilt_345rot_det11.npy'
p492
F0.2085
F0.0021
F26.7726
F0.1047
F0.1229
F0.0013
F143.0
tp493
a(S'bvert_4MeV_15tilt_345rot_det12.npy'
p494
F0.4298
F0.0042
F26.6852
F0.1138
F0.2578
F0.0027
F174.0
tp495
a(S'bvert_4MeV_15tilt_345rot_det13.npy'
p496
F0.7292
F0.006
F31.4577
F0.1349
F0.4538
F0.0041
F139.0
tp497
a(S'bvert_4MeV_15tilt_345rot_det14.npy'
p498
F1.0805
F0.0094
F40.9659
F0.2145
F0.6897
F0.0068
F121.0
tp499
a(S'bvert_4MeV_15tilt_345rot_det15.npy'
p500
F1.4273
F0.0141
F64.2866
F0.4796
F0.9303
F0.0104
F87.0
tp501
a(S'bvert_4MeV_15tilt_345rot_det4.npy'
p502
F1.6121
F0.0166
F63.5437
F0.5405
F1.0294
F0.0118
F61.0
tp503
a(S'bvert_4MeV_15tilt_345rot_det5.npy'
p504
F1.2841
F0.0103
F38.7015
F0.2403
F0.7985
F0.0071
F108.0
tp505
a(S'bvert_4MeV_15tilt_345rot_det6.npy'
p506
F0.8955
F0.007
F29.2862
F0.1514
F0.5471
F0.0047
F159.0
tp507
a(S'bvert_4MeV_15tilt_345rot_det7.npy'
p508
F0.5199
F0.0053
F25.7581
F0.1085
F0.3095
F0.0034
F171.0
tp509
a(S'bvert_4MeV_15tilt_345rot_det8.npy'
p510
F0.253
F0.0028
F25.8704
F0.0921
F0.1485
F0.0016
F150.0
tp511
a(S'bvert_4MeV_15tilt_345rot_det9.npy'
p512
F0.0921
F0.001
F23.7338
F0.0944
F0.0588
F0.0006
F172.0
tp513
a(S'bvert_4MeV_15tilt_355rot_det10.npy'
p514
F0.0821
F0.0011
F22.1282
F0.1
F0.0524
F0.0006
F133.0
tp515
a(S'bvert_4MeV_15tilt_355rot_det11.npy'
p516
F0.2044
F0.0023
F26.8559
F0.1087
F0.1202
F0.0014
F143.0
tp517
a(S'bvert_4MeV_15tilt_355rot_det12.npy'
p518
F0.4229
F0.0033
F26.5463
F0.1003
F0.2523
F0.0021
F194.0
tp519
a(S'bvert_4MeV_15tilt_355rot_det13.npy'
p520
F0.7246
F0.0056
F31.632
F0.1542
F0.4475
F0.0037
F141.0
tp521
a(S'bvert_4MeV_15tilt_355rot_det14.npy'
p522
F1.0361
F0.0096
F40.8607
F0.2392
F0.6609
F0.007
F106.0
tp523
a(S'bvert_4MeV_15tilt_355rot_det15.npy'
p524
F1.367
F0.0161
F65.1918
F0.5815
F0.8854
F0.0117
F66.0
tp525
a(S'bvert_4MeV_15tilt_355rot_det4.npy'
p526
F1.6108
F0.0146
F63.7477
F0.5164
F1.0369
F0.0111
F67.0
tp527
a(S'bvert_4MeV_15tilt_355rot_det5.npy'
p528
F1.2953
F0.011
F39.1609
F0.2426
F0.8152
F0.0075
F113.0
tp529
a(S'bvert_4MeV_15tilt_355rot_det6.npy'
p530
F0.902
F0.0071
F28.9381
F0.1629
F0.5489
F0.0048
F133.0
tp531
a(S'bvert_4MeV_15tilt_355rot_det7.npy'
p532
F0.5385
F0.0042
F25.6358
F0.1116
F0.3207
F0.0028
F163.0
tp533
a(S'bvert_4MeV_15tilt_355rot_det8.npy'
p534
F0.2587
F0.0025
F25.8315
F0.0928
F0.1523
F0.0015
F186.0
tp535
a(S'bvert_4MeV_15tilt_355rot_det9.npy'
p536
F0.0983
F0.0014
F23.8972
F0.099
F0.0618
F0.0007
F138.0
tp537
a(S'bvert_4MeV_15tilt_35rot_det10.npy'
p538
F0.0901
F0.0011
F22.1826
F0.0832
F0.0575
F0.0006
F168.0
tp539
a(S'bvert_4MeV_15tilt_35rot_det11.npy'
p540
F0.2324
F0.0029
F26.4935
F0.1043
F0.1381
F0.0017
F133.0
tp541
a(S'bvert_4MeV_15tilt_35rot_det12.npy'
p542
F0.454
F0.0045
F26.6749
F0.1059
F0.2718
F0.0029
F177.0
tp543
a(S'bvert_4MeV_15tilt_35rot_det13.npy'
p544
F0.7304
F0.0064
F31.6627
F0.1461
F0.451
F0.0043
F160.0
tp545
a(S'bvert_4MeV_15tilt_35rot_det14.npy'
p546
F1.0182
F0.0089
F41.0504
F0.2393
F0.6449
F0.0063
F111.0
tp547
a(S'bvert_4MeV_15tilt_35rot_det15.npy'
p548
F1.2709
F0.0139
F65.647
F0.5486
F0.8219
F0.0097
F66.0
tp549
a(S'bvert_4MeV_15tilt_35rot_det4.npy'
p550
F1.3688
F0.0128
F64.2992
F0.5258
F0.894
F0.0098
F79.0
tp551
a(S'bvert_4MeV_15tilt_35rot_det5.npy'
p552
F1.1247
F0.0108
F38.8877
F0.2403
F0.7194
F0.0074
F114.0
tp553
a(S'bvert_4MeV_15tilt_35rot_det6.npy'
p554
F0.7991
F0.0075
F29.108
F0.1434
F0.4971
F0.0052
F136.0
tp555
a(S'bvert_4MeV_15tilt_35rot_det7.npy'
p556
F0.5078
F0.005
F25.8653
F0.1278
F0.3062
F0.0031
F159.0
tp557
a(S'bvert_4MeV_15tilt_35rot_det8.npy'
p558
F0.2644
F0.0029
F25.8641
F0.0991
F0.1563
F0.0017
F137.0
tp559
a(S'bvert_4MeV_15tilt_35rot_det9.npy'
p560
F0.1007
F0.0012
F23.6886
F0.0853
F0.0632
F0.0007
F153.0
tp561
a(S'bvert_4MeV_15tilt_45rot_det10.npy'
p562
F0.0943
F0.0012
F21.9012
F0.1015
F0.0599
F0.0007
F149.0
tp563
a(S'bvert_4MeV_15tilt_45rot_det11.npy'
p564
F0.2418
F0.003
F26.63
F0.0977
F0.1422
F0.0018
F145.0
tp565
a(S'bvert_4MeV_15tilt_45rot_det12.npy'
p566
F0.4695
F0.0044
F26.5814
F0.107
F0.2813
F0.0029
F168.0
tp567
a(S'bvert_4MeV_15tilt_45rot_det13.npy'
p568
F0.7711
F0.0058
F31.2124
F0.1308
F0.4784
F0.0038
F158.0
tp569
a(S'bvert_4MeV_15tilt_45rot_det14.npy'
p570
F1.0543
F0.0077
F40.4567
F0.189
F0.6673
F0.0054
F133.0
tp571
a(S'bvert_4MeV_15tilt_45rot_det15.npy'
p572
F1.3097
F0.0119
F64.6005
F0.6088
F0.8456
F0.0085
F67.0
tp573
a(S'bvert_4MeV_15tilt_45rot_det4.npy'
p574
F1.3422
F0.0141
F62.7482
F0.5364
F0.8713
F0.0101
F79.0
tp575
a(S'bvert_4MeV_15tilt_45rot_det5.npy'
p576
F1.1004
F0.0091
F39.1319
F0.2422
F0.7017
F0.0062
F112.0
tp577
a(S'bvert_4MeV_15tilt_45rot_det6.npy'
p578
F0.7877
F0.006
F29.3884
F0.1464
F0.4906
F0.0042
F149.0
tp579
a(S'bvert_4MeV_15tilt_45rot_det7.npy'
p580
F0.4924
F0.0046
F25.7409
F0.1204
F0.2975
F0.0029
F146.0
tp581
a(S'bvert_4MeV_15tilt_45rot_det8.npy'
p582
F0.2548
F0.0026
F25.7959
F0.0948
F0.1508
F0.0016
F152.0
tp583
a(S'bvert_4MeV_15tilt_45rot_det9.npy'
p584
F0.1009
F0.0012
F23.6989
F0.0941
F0.0634
F0.0007
F160.0
tp585
a(S'bvert_4MeV_15tilt_55rot_det10.npy'
p586
F0.0969
F0.0012
F22.0416
F0.1043
F0.0612
F0.0006
F151.0
tp587
a(S'bvert_4MeV_15tilt_55rot_det11.npy'
p588
F0.2487
F0.003
F26.5504
F0.101
F0.1464
F0.0018
F147.0
tp589
a(S'bvert_4MeV_15tilt_55rot_det12.npy'
p590
F0.4963
F0.0045
F26.7961
F0.1213
F0.2977
F0.0029
F157.0
tp591
a(S'bvert_4MeV_15tilt_55rot_det13.npy'
p592
F0.7878
F0.0071
F31.8458
F0.1402
F0.4871
F0.0047
F152.0
tp593
a(S'bvert_4MeV_15tilt_55rot_det14.npy'
p594
F1.1016
F0.0108
F41.0936
F0.2215
F0.6982
F0.0073
F108.0
tp595
a(S'bvert_4MeV_15tilt_55rot_det15.npy'
p596
F1.3364
F0.0148
F64.4168
F0.5805
F0.8603
F0.0103
F69.0
tp597
a(S'bvert_4MeV_15tilt_55rot_det4.npy'
p598
F1.2977
F0.0118
F62.1634
F0.47
F0.84
F0.0087
F91.0
tp599
a(S'bvert_4MeV_15tilt_55rot_det5.npy'
p600
F1.0498
F0.0088
F39.4271
F0.2282
F0.6695
F0.0063
F122.0
tp601
a(S'bvert_4MeV_15tilt_55rot_det6.npy'
p602
F0.7631
F0.0061
F29.3658
F0.142
F0.4764
F0.004
F138.0
tp603
a(S'bvert_4MeV_15tilt_55rot_det7.npy'
p604
F0.4693
F0.0045
F25.7799
F0.1094
F0.2836
F0.0029
F166.0
tp605
a(S'bvert_4MeV_15tilt_55rot_det8.npy'
p606
F0.2453
F0.0026
F25.9223
F0.0925
F0.1462
F0.0016
F172.0
tp607
a(S'bvert_4MeV_15tilt_55rot_det9.npy'
p608
F0.0975
F0.0014
F23.9568
F0.1103
F0.0619
F0.0008
F132.0
tp609
a(S'bvert_4MeV_15tilt_5rot_det10.npy'
p610
F0.0821
F0.0011
F22.065
F0.1013
F0.0526
F0.0005
F146.0
tp611
a(S'bvert_4MeV_15tilt_5rot_det11.npy'
p612
F0.2074
F0.0021
F26.5041
F0.0984
F0.1224
F0.0012
F149.0
tp613
a(S'bvert_4MeV_15tilt_5rot_det12.npy'
p614
F0.4275
F0.004
F26.5054
F0.0963
F0.2546
F0.0026
F165.0
tp615
a(S'bvert_4MeV_15tilt_5rot_det13.npy'
p616
F0.7006
F0.0059
F31.5712
F0.1476
F0.4313
F0.0041
F157.0
tp617
a(S'bvert_4MeV_15tilt_5rot_det14.npy'
p618
F1.0268
F0.0092
F40.9274
F0.2147
F0.6534
F0.0066
F114.0
tp619
a(S'bvert_4MeV_15tilt_5rot_det15.npy'
p620
F1.3437
F0.014
F64.0362
F0.5242
F0.871
F0.0106
F72.0
tp621
a(S'bvert_4MeV_15tilt_5rot_det4.npy'
p622
F1.5245
F0.0165
F63.2734
F0.5985
F0.9873
F0.0115
F66.0
tp623
a(S'bvert_4MeV_15tilt_5rot_det5.npy'
p624
F1.2427
F0.0103
F38.7825
F0.2508
F0.7861
F0.0073
F128.0
tp625
a(S'bvert_4MeV_15tilt_5rot_det6.npy'
p626
F0.8973
F0.0065
F29.4661
F0.1369
F0.5482
F0.0044
F178.0
tp627
a(S'bvert_4MeV_15tilt_5rot_det7.npy'
p628
F0.544
F0.0052
F25.8085
F0.1267
F0.3233
F0.0033
F163.0
tp629
a(S'bvert_4MeV_15tilt_5rot_det8.npy'
p630
F0.266
F0.003
F25.6437
F0.0884
F0.1561
F0.0018
F144.0
tp631
a(S'bvert_4MeV_15tilt_5rot_det9.npy'
p632
F0.1006
F0.0012
F23.6439
F0.096
F0.0632
F0.0007
F134.0
tp633
a(S'bvert_4MeV_15tilt_75rot_det10.npy'
p634
F0.0996
F0.0012
F22.1095
F0.1079
F0.0626
F0.0007
F147.0
tp635
a(S'bvert_4MeV_15tilt_75rot_det11.npy'
p636
F0.2639
F0.003
F26.4712
F0.1121
F0.1543
F0.0017
F143.0
tp637
a(S'bvert_4MeV_15tilt_75rot_det12.npy'
p638
F0.528
F0.0048
F26.5578
F0.1108
F0.313
F0.003
F154.0
tp639
a(S'bvert_4MeV_15tilt_75rot_det13.npy'
p640
F0.837
F0.0078
F31.4357
F0.1496
F0.5129
F0.0052
F129.0
tp641
a(S'bvert_4MeV_15tilt_75rot_det14.npy'
p642
F1.1876
F0.0118
F40.6666
F0.2428
F0.7531
F0.0084
F105.0
tp643
a(S'bvert_4MeV_15tilt_75rot_det15.npy'
p644
F1.424
F0.0156
F64.3205
F0.5667
F0.918
F0.0109
F73.0
tp645
a(S'bvert_4MeV_15tilt_75rot_det4.npy'
p646
F1.2947
F0.0127
F62.8259
F0.4898
F0.8388
F0.0089
F80.0
tp647
a(S'bvert_4MeV_15tilt_75rot_det5.npy'
p648
F1.0239
F0.0097
F39.086
F0.2565
F0.651
F0.0068
F98.0
tp649
a(S'bvert_4MeV_15tilt_75rot_det6.npy'
p650
F0.7022
F0.0066
F29.1267
F0.1657
F0.4343
F0.0043
F115.0
tp651
a(S'bvert_4MeV_15tilt_75rot_det7.npy'
p652
F0.4349
F0.0043
F25.78
F0.1293
F0.2614
F0.0028
F144.0
tp653
a(S'bvert_4MeV_15tilt_75rot_det8.npy'
p654
F0.2242
F0.0025
F25.7734
F0.1027
F0.1317
F0.0015
F127.0
tp655
a(S'bvert_4MeV_15tilt_75rot_det9.npy'
p656
F0.0913
F0.0012
F23.7611
F0.0957
F0.058
F0.0006
F146.0
tp657
a(S'bvert_4MeV_15tilt_95rot_det10.npy'
p658
F0.0948
F0.0013
F22.2848
F0.1011
F0.0603
F0.0007
F144.0
tp659
a(S'bvert_4MeV_15tilt_95rot_det11.npy'
p660
F0.266
F0.0032
F26.4981
F0.1005
F0.157
F0.0018
F133.0
tp661
a(S'bvert_4MeV_15tilt_95rot_det12.npy'
p662
F0.5316
F0.005
F26.7706
F0.1109
F0.3166
F0.0032
F164.0
tp663
a(S'bvert_4MeV_15tilt_95rot_det13.npy'
p664
F0.8994
F0.007
F31.4455
F0.1505
F0.5475
F0.0047
F142.0
tp665
a(S'bvert_4MeV_15tilt_95rot_det14.npy'
p666
F1.2541
F0.0106
F40.9369
F0.2278
F0.7813
F0.0074
F126.0
tp667
a(S'bvert_4MeV_15tilt_95rot_det15.npy'
p668
F1.5572
F0.0157
F64.7158
F0.5505
F0.988
F0.0108
F79.0
tp669
a(S'bvert_4MeV_15tilt_95rot_det4.npy'
p670
F1.337
F0.0149
F62.8354
F0.5228
F0.8643
F0.0112
F77.0
tp671
a(S'bvert_4MeV_15tilt_95rot_det5.npy'
p672
F1.0144
F0.0117
F39.1734
F0.283
F0.6428
F0.0082
F89.0
tp673
a(S'bvert_4MeV_15tilt_95rot_det6.npy'
p674
F0.6991
F0.0058
F29.0495
F0.1444
F0.4298
F0.004
F150.0
tp675
a(S'bvert_4MeV_15tilt_95rot_det7.npy'
p676
F0.4211
F0.0039
F25.8202
F0.1323
F0.2519
F0.0026
F166.0
tp677
a(S'bvert_4MeV_15tilt_95rot_det8.npy'
p678
F0.2088
F0.0028
F26.0407
F0.0994
F0.1231
F0.0016
F124.0
tp679
a(S'bvert_4MeV_15tilt_95rot_det9.npy'
p680
F0.0843
F0.001
F24.0655
F0.0952
F0.0538
F0.0006
F152.0
tp681
a(S'bvert_4MeV_30tilt_115rot_det10.npy'
p682
F0.0933
F0.0011
F22.2323
F0.0981
F0.0592
F0.0006
F143.0
tp683
a(S'bvert_4MeV_30tilt_115rot_det11.npy'
p684
F0.2538
F0.0024
F26.8437
F0.0972
F0.1494
F0.0015
F181.0
tp685
a(S'bvert_4MeV_30tilt_115rot_det12.npy'
p686
F0.5223
F0.0049
F26.6788
F0.1071
F0.3136
F0.0032
F172.0
tp687
a(S'bvert_4MeV_30tilt_115rot_det13.npy'
p688
F0.8894
F0.007
F31.6976
F0.1321
F0.5488
F0.0048
F155.0
tp689
a(S'bvert_4MeV_30tilt_115rot_det14.npy'
p690
F1.2645
F0.0095
F41.6217
F0.2222
F0.7938
F0.0066
F134.0
tp691
a(S'bvert_4MeV_30tilt_115rot_det15.npy'
p692
F1.6334
F0.0156
F64.8826
F0.4704
F1.0348
F0.0111
F86.0
tp693
a(S'bvert_4MeV_30tilt_115rot_det4.npy'
p694
F1.4514
F0.0142
F60.9767
F0.4618
F0.9374
F0.0099
F87.0
tp695
a(S'bvert_4MeV_30tilt_115rot_det5.npy'
p696
F1.1045
F0.0109
F38.9906
F0.2678
F0.7019
F0.0075
F109.0
tp697
a(S'bvert_4MeV_30tilt_115rot_det6.npy'
p698
F0.7445
F0.0073
F29.2151
F0.1379
F0.4586
F0.0049
F170.0
tp699
a(S'bvert_4MeV_30tilt_115rot_det7.npy'
p700
F0.4414
F0.0041
F25.4354
F0.0991
F0.2644
F0.0027
F176.0
tp701
a(S'bvert_4MeV_30tilt_115rot_det8.npy'
p702
F0.2135
F0.0024
F25.8619
F0.0943
F0.1249
F0.0014
F161.0
tp703
a(S'bvert_4MeV_30tilt_115rot_det9.npy'
p704
F0.0827
F0.001
F23.8647
F0.1011
F0.0526
F0.0005
F175.0
tp705
a(S'bvert_4MeV_30tilt_135rot_det10.npy'
p706
F0.0927
F0.0012
F22.4527
F0.0927
F0.0579
F0.0006
F179.0
tp707
a(S'bvert_4MeV_30tilt_135rot_det11.npy'
p708
F0.243
F0.0026
F26.9138
F0.1029
F0.1433
F0.0015
F161.0
tp709
a(S'bvert_4MeV_30tilt_135rot_det12.npy'
p710
F0.4949
F0.0045
F26.7937
F0.1009
F0.2982
F0.003
F178.0
tp711
a(S'bvert_4MeV_30tilt_135rot_det13.npy'
p712
F0.8418
F0.0071
F31.8744
F0.1347
F0.5213
F0.0047
F164.0
tp713
a(S'bvert_4MeV_30tilt_135rot_det14.npy'
p714
F1.2081
F0.0125
F41.4387
F0.2387
F0.7618
F0.0086
F118.0
tp715
a(S'bvert_4MeV_30tilt_135rot_det15.npy'
p716
F1.5808
F0.0149
F65.3463
F0.5868
F1.0126
F0.0111
F59.0
tp717
a(S'bvert_4MeV_30tilt_135rot_det4.npy'
p718
F1.5347
F0.0173
F62.0737
F0.455
F0.9799
F0.0118
F95.0
tp719
a(S'bvert_4MeV_30tilt_135rot_det5.npy'
p720
F1.1922
F0.0097
F38.327
F0.2353
F0.7527
F0.0067
F134.0
tp721
a(S'bvert_4MeV_30tilt_135rot_det6.npy'
p722
F0.8017
F0.0075
F29.0609
F0.1546
F0.4939
F0.0052
F143.0
tp723
a(S'bvert_4MeV_30tilt_135rot_det7.npy'
p724
F0.4587
F0.0039
F25.4111
F0.1014
F0.2732
F0.0024
F193.0
tp725
a(S'bvert_4MeV_30tilt_135rot_det8.npy'
p726
F0.2211
F0.0024
F25.6662
F0.096
F0.1309
F0.0015
F150.0
tp727
a(S'bvert_4MeV_30tilt_135rot_det9.npy'
p728
F0.0841
F0.0012
F23.7527
F0.0937
F0.0534
F0.0007
F152.0
tp729
a(S'bvert_4MeV_30tilt_15rot_det10.npy'
p730
F0.0875
F0.0012
F22.1172
F0.1083
F0.0551
F0.0006
F121.0
tp731
a(S'bvert_4MeV_30tilt_15rot_det11.npy'
p732
F0.2257
F0.0024
F26.7749
F0.0913
F0.1327
F0.0014
F169.0
tp733
a(S'bvert_4MeV_30tilt_15rot_det12.npy'
p734
F0.4385
F0.0041
F26.6602
F0.1149
F0.2596
F0.0026
F152.0
tp735
a(S'bvert_4MeV_30tilt_15rot_det13.npy'
p736
F0.7439
F0.0059
F31.4829
F0.1277
F0.4579
F0.0039
F146.0
tp737
a(S'bvert_4MeV_30tilt_15rot_det14.npy'
p738
F1.0682
F0.0107
F40.5083
F0.2359
F0.6761
F0.0076
F96.0
tp739
a(S'bvert_4MeV_30tilt_15rot_det15.npy'
p740
F1.3586
F0.0142
F64.93
F0.5289
F0.8828
F0.01
F77.0
tp741
a(S'bvert_4MeV_30tilt_15rot_det4.npy'
p742
F1.4775
F0.0173
F64.1689
F0.5831
F0.9564
F0.0125
F58.0
tp743
a(S'bvert_4MeV_30tilt_15rot_det5.npy'
p744
F1.2177
F0.0089
F39.4267
F0.2424
F0.7745
F0.0063
F125.0
tp745
a(S'bvert_4MeV_30tilt_15rot_det6.npy'
p746
F0.8882
F0.0069
F29.4544
F0.1553
F0.5464
F0.0045
F139.0
tp747
a(S'bvert_4MeV_30tilt_15rot_det7.npy'
p748
F0.5472
F0.0049
F25.6685
F0.1319
F0.3255
F0.0032
F122.0
tp749
a(S'bvert_4MeV_30tilt_15rot_det8.npy'
p750
F0.2677
F0.0035
F25.7866
F0.1138
F0.1574
F0.0021
F105.0
tp751
a(S'bvert_4MeV_30tilt_15rot_det9.npy'
p752
F0.1028
F0.0014
F23.6479
F0.1133
F0.0648
F0.0008
F107.0
tp753
a(S'bvert_4MeV_30tilt_25rot_det10.npy'
p754
F0.0911
F0.0013
F22.1404
F0.1072
F0.0577
F0.0007
F131.0
tp755
a(S'bvert_4MeV_30tilt_25rot_det11.npy'
p756
F0.2304
F0.0027
F26.649
F0.1023
F0.1359
F0.0016
F132.0
tp757
a(S'bvert_4MeV_30tilt_25rot_det12.npy'
p758
F0.4559
F0.0045
F26.5065
F0.1019
F0.2716
F0.0029
F145.0
tp759
a(S'bvert_4MeV_30tilt_25rot_det13.npy'
p760
F0.7469
F0.0057
F31.3862
F0.1367
F0.4608
F0.0039
F151.0
tp761
a(S'bvert_4MeV_30tilt_25rot_det14.npy'
p762
F1.0587
F0.0097
F40.9532
F0.2213
F0.6696
F0.0066
F112.0
tp763
a(S'bvert_4MeV_30tilt_25rot_det15.npy'
p764
F1.3349
F0.015
F64.5631
F0.5089
F0.8606
F0.0102
F77.0
tp765
a(S'bvert_4MeV_30tilt_25rot_det4.npy'
p766
F1.4679
F0.0141
F63.0938
F0.546
F0.9549
F0.0101
F71.0
tp767
a(S'bvert_4MeV_30tilt_25rot_det5.npy'
p768
F1.1622
F0.0137
F39.576
F0.2632
F0.7449
F0.0097
F112.0
tp769
a(S'bvert_4MeV_30tilt_25rot_det6.npy'
p770
F0.8523
F0.0071
F28.9945
F0.1375
F0.5282
F0.0048
F124.0
tp771
a(S'bvert_4MeV_30tilt_25rot_det7.npy'
p772
F0.5354
F0.0048
F25.5566
F0.1077
F0.3205
F0.0032
F151.0
tp773
a(S'bvert_4MeV_30tilt_25rot_det8.npy'
p774
F0.2668
F0.0029
F25.7482
F0.1007
F0.1559
F0.0017
F151.0
tp775
a(S'bvert_4MeV_30tilt_25rot_det9.npy'
p776
F0.1026
F0.0015
F23.8882
F0.1002
F0.0645
F0.0008
F131.0
tp777
a(S'bvert_4MeV_30tilt_315rot_det10.npy'
p778
F0.0872
F0.0013
F22.0893
F0.0987
F0.0549
F0.0007
F138.0
tp779
a(S'bvert_4MeV_30tilt_315rot_det11.npy'
p780
F0.2306
F0.0028
F26.5641
F0.0944
F0.1354
F0.0017
F146.0
tp781
a(S'bvert_4MeV_30tilt_315rot_det12.npy'
p782
F0.477
F0.005
F26.3525
F0.1064
F0.2873
F0.0032
F159.0
tp783
a(S'bvert_4MeV_30tilt_315rot_det13.npy'
p784
F0.8402
F0.007
F31.5176
F0.1338
F0.5222
F0.0048
F154.0
tp785
a(S'bvert_4MeV_30tilt_315rot_det14.npy'
p786
F1.2282
F0.0108
F41.0698
F0.2328
F0.781
F0.0076
F122.0
tp787
a(S'bvert_4MeV_30tilt_315rot_det15.npy'
p788
F1.6084
F0.0149
F65.4672
F0.4872
F1.0309
F0.0104
F79.0
tp789
a(S'bvert_4MeV_30tilt_315rot_det4.npy'
p790
F1.5776
F0.0176
F63.5983
F0.5329
F1.0091
F0.012
F73.0
tp791
a(S'bvert_4MeV_30tilt_315rot_det5.npy'
p792
F1.2045
F0.0111
F39.1952
F0.222
F0.76
F0.0078
F97.0
tp793
a(S'bvert_4MeV_30tilt_315rot_det6.npy'
p794
F0.825
F0.0073
F29.1921
F0.155
F0.5104
F0.0049
F115.0
tp795
a(S'bvert_4MeV_30tilt_315rot_det7.npy'
p796
F0.4823
F0.0045
F25.8108
F0.1113
F0.2887
F0.0029
F157.0
tp797
a(S'bvert_4MeV_30tilt_315rot_det8.npy'
p798
F0.2381
F0.0032
F25.9159
F0.1032
F0.1409
F0.0019
F125.0
tp799
a(S'bvert_4MeV_30tilt_315rot_det9.npy'
p800
F0.0891
F0.0011
F23.6802
F0.1013
F0.0558
F0.0006
F141.0
tp801
a(S'bvert_4MeV_30tilt_335rot_det10.npy'
p802
F0.0851
F0.0013
F22.3203
F0.1133
F0.0533
F0.0007
F106.0
tp803
a(S'bvert_4MeV_30tilt_335rot_det11.npy'
p804
F0.2176
F0.0027
F26.4108
F0.107
F0.1288
F0.0016
F128.0
tp805
a(S'bvert_4MeV_30tilt_335rot_det12.npy'
p806
F0.452
F0.0047
F26.7292
F0.1111
F0.2716
F0.0031
F141.0
tp807
a(S'bvert_4MeV_30tilt_335rot_det13.npy'
p808
F0.7768
F0.007
F31.3277
F0.1656
F0.4838
F0.005
F127.0
tp809
a(S'bvert_4MeV_30tilt_335rot_det14.npy'
p810
F1.1494
F0.0109
F40.8783
F0.216
F0.7313
F0.0076
F111.0
tp811
a(S'bvert_4MeV_30tilt_335rot_det15.npy'
p812
F1.5061
F0.0168
F64.2621
F0.5447
F0.9781
F0.0124
F68.0
tp813
a(S'bvert_4MeV_30tilt_335rot_det4.npy'
p814
F1.6245
F0.0214
F63.9356
F0.597
F1.0319
F0.0146
F52.0
tp815
a(S'bvert_4MeV_30tilt_335rot_det5.npy'
p816
F1.268
F0.012
F39.1023
F0.2919
F0.7892
F0.0083
F83.0
tp817
a(S'bvert_4MeV_30tilt_335rot_det6.npy'
p818
F0.8747
F0.0084
F29.2217
F0.1513
F0.5355
F0.0056
F124.0
tp819
a(S'bvert_4MeV_30tilt_335rot_det7.npy'
p820
F0.5218
F0.0049
F25.8326
F0.1294
F0.3118
F0.0031
F125.0
tp821
a(S'bvert_4MeV_30tilt_335rot_det8.npy'
p822
F0.2431
F0.0029
F25.842
F0.0968
F0.1432
F0.0018
F130.0
tp823
a(S'bvert_4MeV_30tilt_335rot_det9.npy'
p824
F0.0914
F0.0013
F23.7279
F0.1103
F0.0577
F0.0007
F106.0
tp825
a(S'bvert_4MeV_30tilt_345rot_det10.npy'
p826
F0.0831
F0.0011
F22.1444
F0.0948
F0.0533
F0.0006
F150.0
tp827
a(S'bvert_4MeV_30tilt_345rot_det11.npy'
p828
F0.2178
F0.0022
F26.6913
F0.1224
F0.1275
F0.0013
F131.0
tp829
a(S'bvert_4MeV_30tilt_345rot_det12.npy'
p830
F0.4446
F0.0046
F26.6464
F0.1228
F0.2663
F0.0029
F135.0
tp831
a(S'bvert_4MeV_30tilt_345rot_det13.npy'
p832
F0.7712
F0.0067
F31.1971
F0.161
F0.4787
F0.0045
F120.0
tp833
a(S'bvert_4MeV_30tilt_345rot_det14.npy'
p834
F1.1235
F0.0099
F40.8121
F0.2323
F0.7174
F0.007
F124.0
tp835
a(S'bvert_4MeV_30tilt_345rot_det15.npy'
p836
F1.4613
F0.0182
F64.5685
F0.466
F0.9467
F0.0126
F68.0
tp837
a(S'bvert_4MeV_30tilt_345rot_det4.npy'
p838
F1.6317
F0.0153
F63.226
F0.5143
F1.0369
F0.0106
F80.0
tp839
a(S'bvert_4MeV_30tilt_345rot_det5.npy'
p840
F1.3083
F0.012
F38.7887
F0.2559
F0.8192
F0.0084
F94.0
tp841
a(S'bvert_4MeV_30tilt_345rot_det6.npy'
p842
F0.9023
F0.0087
F29.259
F0.1636
F0.5491
F0.0057
F130.0
tp843
a(S'bvert_4MeV_30tilt_345rot_det7.npy'
p844
F0.5311
F0.0051
F25.6456
F0.1022
F0.3169
F0.0032
F163.0
tp845
a(S'bvert_4MeV_30tilt_345rot_det8.npy'
p846
F0.2586
F0.0027
F25.6549
F0.0914
F0.1518
F0.0015
F143.0
tp847
a(S'bvert_4MeV_30tilt_345rot_det9.npy'
p848
F0.096
F0.0014
F23.943
F0.0983
F0.0609
F0.0008
F143.0
tp849
a(S'bvert_4MeV_30tilt_355rot_det10.npy'
p850
F0.082
F0.001
F22.0735
F0.0953
F0.0521
F0.0006
F131.0
tp851
a(S'bvert_4MeV_30tilt_355rot_det11.npy'
p852
F0.2102
F0.0023
F26.8325
F0.1057
F0.1234
F0.0013
F148.0
tp853
a(S'bvert_4MeV_30tilt_355rot_det12.npy'
p854
F0.4394
F0.0043
F26.4235
F0.107
F0.2628
F0.0028
F147.0
tp855
a(S'bvert_4MeV_30tilt_355rot_det13.npy'
p856
F0.7514
F0.0068
F31.3467
F0.1624
F0.4647
F0.0046
F124.0
tp857
a(S'bvert_4MeV_30tilt_355rot_det14.npy'
p858
F1.0886
F0.0096
F41.0754
F0.2334
F0.693
F0.0068
F111.0
tp859
a(S'bvert_4MeV_30tilt_355rot_det15.npy'
p860
F1.4201
F0.0138
F63.9743
F0.562
F0.9178
F0.0095
F76.0
tp861
a(S'bvert_4MeV_30tilt_355rot_det4.npy'
p862
F1.5715
F0.0156
F63.014
F0.512
F1.0045
F0.0112
F77.0
tp863
a(S'bvert_4MeV_30tilt_355rot_det5.npy'
p864
F1.2512
F0.0128
F39.1469
F0.2449
F0.7845
F0.0087
F116.0
tp865
a(S'bvert_4MeV_30tilt_355rot_det6.npy'
p866
F0.8826
F0.0094
F29.2672
F0.1688
F0.5346
F0.0062
F136.0
tp867
a(S'bvert_4MeV_30tilt_355rot_det7.npy'
p868
F0.5304
F0.0047
F25.8417
F0.137
F0.3132
F0.0029
F137.0
tp869
a(S'bvert_4MeV_30tilt_355rot_det8.npy'
p870
F0.2668
F0.003
F25.8358
F0.0941
F0.1578
F0.0019
F122.0
tp871
a(S'bvert_4MeV_30tilt_355rot_det9.npy'
p872
F0.0978
F0.0015
F23.6193
F0.0992
F0.0613
F0.0008
F133.0
tp873
a(S'bvert_4MeV_30tilt_35rot_det10.npy'
p874
F0.0951
F0.0013
F22.0776
F0.1168
F0.0604
F0.0007
F114.0
tp875
a(S'bvert_4MeV_30tilt_35rot_det11.npy'
p876
F0.2356
F0.003
F26.616
F0.1081
F0.1385
F0.0018
F116.0
tp877
a(S'bvert_4MeV_30tilt_35rot_det12.npy'
p878
F0.4635
F0.0041
F26.5987
F0.1091
F0.2766
F0.0026
F151.0
tp879
a(S'bvert_4MeV_30tilt_35rot_det13.npy'
p880
F0.7443
F0.0076
F31.3778
F0.1414
F0.4596
F0.0052
F133.0
tp881
a(S'bvert_4MeV_30tilt_35rot_det14.npy'
p882
F1.0496
F0.0095
F40.8116
F0.27
F0.6655
F0.0067
F110.0
tp883
a(S'bvert_4MeV_30tilt_35rot_det15.npy'
p884
F1.3029
F0.0163
F65.0599
F0.5972
F0.8441
F0.012
F68.0
tp885
a(S'bvert_4MeV_30tilt_35rot_det4.npy'
p886
F1.4062
F0.0152
F63.3481
F0.5723
F0.9103
F0.0105
F70.0
tp887
a(S'bvert_4MeV_30tilt_35rot_det5.npy'
p888
F1.1394
F0.011
F38.8534
F0.2674
F0.7272
F0.0078
F108.0
tp889
a(S'bvert_4MeV_30tilt_35rot_det6.npy'
p890
F0.8358
F0.0069
F29.3249
F0.165
F0.5185
F0.0049
F123.0
tp891
a(S'bvert_4MeV_30tilt_35rot_det7.npy'
p892
F0.5178
F0.0052
F25.5449
F0.1336
F0.3104
F0.0035
F113.0
tp893
a(S'bvert_4MeV_30tilt_35rot_det8.npy'
p894
F0.255
F0.0034
F25.9406
F0.1062
F0.1505
F0.002
F139.0
tp895
a(S'bvert_4MeV_30tilt_35rot_det9.npy'
p896
F0.1008
F0.0012
F23.6895
F0.1051
F0.0628
F0.0007
F132.0
tp897
a(S'bvert_4MeV_30tilt_45rot_det10.npy'
p898
F0.0958
F0.0013
F22.2207
F0.1017
F0.061
F0.0007
F131.0
tp899
a(S'bvert_4MeV_30tilt_45rot_det11.npy'
p900
F0.2432
F0.0025
F26.6921
F0.1108
F0.1427
F0.0016
F141.0
tp901
a(S'bvert_4MeV_30tilt_45rot_det12.npy'
p902
F0.4821
F0.0052
F26.8731
F0.1172
F0.2888
F0.0034
F129.0
tp903
a(S'bvert_4MeV_30tilt_45rot_det13.npy'
p904
F0.7834
F0.0068
F31.4786
F0.1452
F0.4839
F0.0046
F138.0
tp905
a(S'bvert_4MeV_30tilt_45rot_det14.npy'
p906
F1.074
F0.0116
F41.1764
F0.2557
F0.6836
F0.0082
F101.0
tp907
a(S'bvert_4MeV_30tilt_45rot_det15.npy'
p908
F1.3811
F0.0137
F63.5771
F0.5536
F0.8946
F0.0102
F56.0
tp909
a(S'bvert_4MeV_30tilt_45rot_det4.npy'
p910
F1.3776
F0.0156
F62.5108
F0.5771
F0.8964
F0.0111
F62.0
tp911
a(S'bvert_4MeV_30tilt_45rot_det5.npy'
p912
F1.1115
F0.0099
F39.1702
F0.2824
F0.7096
F0.007
F99.0
tp913
a(S'bvert_4MeV_30tilt_45rot_det6.npy'
p914
F0.8004
F0.0065
F29.221
F0.155
F0.4977
F0.0044
F129.0
tp915
a(S'bvert_4MeV_30tilt_45rot_det7.npy'
p916
F0.5012
F0.0045
F25.7698
F0.1127
F0.3017
F0.003
F163.0
tp917
a(S'bvert_4MeV_30tilt_45rot_det8.npy'
p918
F0.2595
F0.0032
F25.8661
F0.1149
F0.1529
F0.002
F109.0
tp919
a(S'bvert_4MeV_30tilt_45rot_det9.npy'
p920
F0.0979
F0.0013
F23.7304
F0.1087
F0.062
F0.0007
F123.0
tp921
a(S'bvert_4MeV_30tilt_55rot_det10.npy'
p922
F0.0974
F0.0012
F21.9642
F0.0896
F0.0616
F0.0007
F137.0
tp923
a(S'bvert_4MeV_30tilt_55rot_det11.npy'
p924
F0.2549
F0.0032
F26.7514
F0.1057
F0.1504
F0.002
F122.0
tp925
a(S'bvert_4MeV_30tilt_55rot_det12.npy'
p926
F0.5006
F0.0047
F26.6481
F0.1209
F0.2992
F0.003
F144.0
tp927
a(S'bvert_4MeV_30tilt_55rot_det13.npy'
p928
F0.7865
F0.0064
F31.4627
F0.1676
F0.4842
F0.0042
F122.0
tp929
a(S'bvert_4MeV_30tilt_55rot_det14.npy'
p930
F1.1124
F0.0124
F41.2142
F0.2557
F0.7019
F0.0081
F88.0
tp931
a(S'bvert_4MeV_30tilt_55rot_det15.npy'
p932
F1.4126
F0.0153
F63.9759
F0.5677
F0.9151
F0.0111
F51.0
tp933
a(S'bvert_4MeV_30tilt_55rot_det4.npy'
p934
F1.3728
F0.0168
F62.7298
F0.5282
F0.8904
F0.0115
F53.0
tp935
a(S'bvert_4MeV_30tilt_55rot_det5.npy'
p936
F1.0887
F0.0104
F38.6791
F0.2381
F0.694
F0.0074
F102.0
tp937
a(S'bvert_4MeV_30tilt_55rot_det6.npy'
p938
F0.7717
F0.0069
F29.2576
F0.1624
F0.4787
F0.0046
F135.0
tp939
a(S'bvert_4MeV_30tilt_55rot_det7.npy'
p940
F0.4794
F0.0048
F25.6112
F0.137
F0.2896
F0.0031
F129.0
tp941
a(S'bvert_4MeV_30tilt_55rot_det8.npy'
p942
F0.2461
F0.0027
F25.8897
F0.1027
F0.1462
F0.0017
F129.0
tp943
a(S'bvert_4MeV_30tilt_55rot_det9.npy'
p944
F0.0952
F0.0014
F23.7723
F0.1081
F0.0606
F0.0008
F119.0
tp945
a(S'bvert_4MeV_30tilt_5rot_det10.npy'
p946
F0.0853
F0.0011
F22.2213
F0.1142
F0.054
F0.0006
F134.0
tp947
a(S'bvert_4MeV_30tilt_5rot_det11.npy'
p948
F0.2181
F0.0026
F26.6435
F0.1156
F0.1284
F0.0016
F123.0
tp949
a(S'bvert_4MeV_30tilt_5rot_det12.npy'
p950
F0.4414
F0.0039
F26.7872
F0.1061
F0.2622
F0.0025
F154.0
tp951
a(S'bvert_4MeV_30tilt_5rot_det13.npy'
p952
F0.7419
F0.0066
F31.5005
F0.1347
F0.4574
F0.0045
F146.0
tp953
a(S'bvert_4MeV_30tilt_5rot_det14.npy'
p954
F1.0881
F0.0093
F40.6642
F0.2271
F0.6919
F0.0065
F121.0
tp955
a(S'bvert_4MeV_30tilt_5rot_det15.npy'
p956
F1.3648
F0.0168
F64.3552
F0.6718
F0.887
F0.0122
F67.0
tp957
a(S'bvert_4MeV_30tilt_5rot_det4.npy'
p958
F1.5297
F0.0191
F63.1212
F0.547
F0.9817
F0.0137
F69.0
tp959
a(S'bvert_4MeV_30tilt_5rot_det5.npy'
p960
F1.2546
F0.0128
F39.3062
F0.2744
F0.7883
F0.0087
F87.0
tp961
a(S'bvert_4MeV_30tilt_5rot_det6.npy'
p962
F0.9196
F0.0074
F28.9533
F0.1448
F0.5654
F0.005
F120.0
tp963
a(S'bvert_4MeV_30tilt_5rot_det7.npy'
p964
F0.5375
F0.0052
F25.8701
F0.1086
F0.3174
F0.0033
F135.0
tp965
a(S'bvert_4MeV_30tilt_5rot_det8.npy'
p966
F0.2633
F0.0029
F25.8253
F0.0927
F0.1546
F0.0017
F112.0
tp967
a(S'bvert_4MeV_30tilt_5rot_det9.npy'
p968
F0.0984
F0.0013
F23.8804
F0.1054
F0.062
F0.0007
F131.0
tp969
a(S'bvert_4MeV_30tilt_75rot_det10.npy'
p970
F0.099
F0.0012
F22.2572
F0.0846
F0.0622
F0.0007
F135.0
tp971
a(S'bvert_4MeV_30tilt_75rot_det11.npy'
p972
F0.2618
F0.0028
F26.6312
F0.1047
F0.1535
F0.0017
F150.0
tp973
a(S'bvert_4MeV_30tilt_75rot_det12.npy'
p974
F0.5323
F0.0047
F26.6068
F0.1109
F0.3153
F0.0031
F157.0
tp975
a(S'bvert_4MeV_30tilt_75rot_det13.npy'
p976
F0.855
F0.0079
F31.5586
F0.1423
F0.5233
F0.0052
F129.0
tp977
a(S'bvert_4MeV_30tilt_75rot_det14.npy'
p978
F1.1805
F0.0112
F41.3131
F0.2386
F0.7438
F0.008
F98.0
tp979
a(S'bvert_4MeV_30tilt_75rot_det15.npy'
p980
F1.4431
F0.0152
F64.5072
F0.5204
F0.9296
F0.0109
F76.0
tp981
a(S'bvert_4MeV_30tilt_75rot_det4.npy'
p982
F1.3209
F0.0149
F63.2006
F0.5312
F0.8547
F0.0105
F69.0
tp983
a(S'bvert_4MeV_30tilt_75rot_det5.npy'
p984
F1.0497
F0.0109
F38.8204
F0.2375
F0.6671
F0.0079
F107.0
tp985
a(S'bvert_4MeV_30tilt_75rot_det6.npy'
p986
F0.7393
F0.0062
F29.0293
F0.1467
F0.4564
F0.0041
F132.0
tp987
a(S'bvert_4MeV_30tilt_75rot_det7.npy'
p988
F0.4551
F0.0042
F25.8029
F0.1216
F0.2728
F0.0026
F155.0
tp989
a(S'bvert_4MeV_30tilt_75rot_det8.npy'
p990
F0.2258
F0.0028
F25.9575
F0.1007
F0.1331
F0.0017
F137.0
tp991
a(S'bvert_4MeV_30tilt_75rot_det9.npy'
p992
F0.092
F0.0012
F23.8219
F0.1044
F0.058
F0.0006
F125.0
tp993
a(S'bvert_4MeV_30tilt_95rot_det10.npy'
p994
F0.0963
F0.0013
F22.2935
F0.1043
F0.0609
F0.0008
F138.0
tp995
a(S'bvert_4MeV_30tilt_95rot_det11.npy'
p996
F0.2628
F0.0031
F26.4683
F0.1018
F0.1548
F0.0018
F140.0
tp997
a(S'bvert_4MeV_30tilt_95rot_det12.npy'
p998
F0.5411
F0.0044
F26.7311
F0.1078
F0.3224
F0.0029
F178.0
tp999
a(S'bvert_4MeV_30tilt_95rot_det13.npy'
p1000
F0.9035
F0.0068
F31.8266
F0.1638
F0.5516
F0.0048
F122.0
tp1001
a(S'bvert_4MeV_30tilt_95rot_det14.npy'
p1002
F1.2868
F0.0112
F41.1149
F0.2628
F0.8022
F0.0081
F102.0
tp1003
a(S'bvert_4MeV_30tilt_95rot_det15.npy'
p1004
F1.5657
F0.0171
F63.9523
F0.5833
F1.0014
F0.012
F65.0
tp1005
a(S'bvert_4MeV_30tilt_95rot_det4.npy'
p1006
F1.3704
F0.0161
F62.5952
F0.5653
F0.8868
F0.0121
F68.0
tp1007
a(S'bvert_4MeV_30tilt_95rot_det5.npy'
p1008
F1.0441
F0.009
F38.8465
F0.2363
F0.6599
F0.0064
F125.0
tp1009
a(S'bvert_4MeV_30tilt_95rot_det6.npy'
p1010
F0.7255
F0.0068
F29.1688
F0.1544
F0.4461
F0.0045
F148.0
tp1011
a(S'bvert_4MeV_30tilt_95rot_det7.npy'
p1012
F0.4385
F0.0045
F25.5454
F0.1178
F0.2625
F0.003
F144.0
tp1013
a(S'bvert_4MeV_30tilt_95rot_det8.npy'
p1014
F0.2178
F0.0024
F25.8004
F0.1054
F0.1288
F0.0014
F152.0
tp1015
a(S'bvert_4MeV_30tilt_95rot_det9.npy'
p1016
F0.0862
F0.0011
F23.7996
F0.1098
F0.0549
F0.0006
F140.0
tp1017
a(S'bvert_4MeV_45tilt_115rot_det10.npy'
p1018
F0.1
F0.0012
F22.4001
F0.0986
F0.0624
F0.0007
F141.0
tp1019
a(S'bvert_4MeV_45tilt_115rot_det11.npy'
p1020
F0.2547
F0.0027
F26.9483
F0.0971
F0.1501
F0.0016
F147.0
tp1021
a(S'bvert_4MeV_45tilt_115rot_det12.npy'
p1022
F0.531
F0.0051
F26.797
F0.0996
F0.3187
F0.0032
F152.0
tp1023
a(S'bvert_4MeV_45tilt_115rot_det13.npy'
p1024
F0.8962
F0.0064
F31.9238
F0.1481
F0.5506
F0.0043
F144.0
tp1025
a(S'bvert_4MeV_45tilt_115rot_det14.npy'
p1026
F1.2833
F0.0113
F41.2441
F0.2282
F0.8087
F0.0078
F109.0
tp1027
a(S'bvert_4MeV_45tilt_115rot_det15.npy'
p1028
F1.6326
F0.0176
F65.2925
F0.578
F1.0394
F0.012
F73.0
tp1029
a(S'bvert_4MeV_45tilt_115rot_det4.npy'
p1030
F1.4957
F0.015
F60.9948
F0.4513
F0.9625
F0.0102
F83.0
tp1031
a(S'bvert_4MeV_45tilt_115rot_det5.npy'
p1032
F1.1515
F0.0098
F38.2352
F0.2186
F0.7279
F0.0067
F131.0
tp1033
a(S'bvert_4MeV_45tilt_115rot_det6.npy'
p1034
F0.7705
F0.0067
F28.949
F0.1308
F0.4734
F0.0045
F178.0
tp1035
a(S'bvert_4MeV_45tilt_115rot_det7.npy'
p1036
F0.4611
F0.0042
F25.4005
F0.0976
F0.2748
F0.0027
F182.0
tp1037
a(S'bvert_4MeV_45tilt_115rot_det8.npy'
p1038
F0.2265
F0.0026
F25.6716
F0.0919
F0.1328
F0.0015
F156.0
tp1039
a(S'bvert_4MeV_45tilt_115rot_det9.npy'
p1040
F0.087
F0.0012
F23.7321
F0.0945
F0.0549
F0.0006
F140.0
tp1041
a(S'bvert_4MeV_45tilt_135rot_det10.npy'
p1042
F0.098
F0.0014
F22.5307
F0.0965
F0.061
F0.0008
F141.0
tp1043
a(S'bvert_4MeV_45tilt_135rot_det11.npy'
p1044
F0.2542
F0.0028
F26.876
F0.0982
F0.149
F0.0016
F139.0
tp1045
a(S'bvert_4MeV_45tilt_135rot_det12.npy'
p1046
F0.5215
F0.0043
F26.8751
F0.0979
F0.3135
F0.0029
F169.0
tp1047
a(S'bvert_4MeV_45tilt_135rot_det13.npy'
p1048
F0.8729
F0.0069
F31.8286
F0.1321
F0.5393
F0.0046
F134.0
tp1049
a(S'bvert_4MeV_45tilt_135rot_det14.npy'
p1050
F1.2405
F0.0099
F41.4224
F0.2306
F0.7861
F0.0069
F122.0
tp1051
a(S'bvert_4MeV_45tilt_135rot_det15.npy'
p1052
F1.6229
F0.0163
F66.1873
F0.4904
F1.0383
F0.0113
F65.0
tp1053
a(S'bvert_4MeV_45tilt_135rot_det4.npy'
p1054
F1.5411
F0.019
F61.7371
F0.5012
F0.9792
F0.013
F73.0
tp1055
a(S'bvert_4MeV_45tilt_135rot_det5.npy'
p1056
F1.1953
F0.0101
F38.6264
F0.2402
F0.7498
F0.0069
F122.0
tp1057
a(S'bvert_4MeV_45tilt_135rot_det6.npy'
p1058
F0.8251
F0.0066
F28.66
F0.1365
F0.5069
F0.0044
F155.0
tp1059
a(S'bvert_4MeV_45tilt_135rot_det7.npy'
p1060
F0.4721
F0.0039
F25.3836
F0.1011
F0.2817
F0.0024
F175.0
tp1061
a(S'bvert_4MeV_45tilt_135rot_det8.npy'
p1062
F0.2323
F0.0026
F25.8223
F0.1
F0.1356
F0.0016
F159.0
tp1063
a(S'bvert_4MeV_45tilt_135rot_det9.npy'
p1064
F0.0879
F0.0012
F23.7702
F0.0999
F0.0554
F0.0006
F142.0
tp1065
a(S'bvert_4MeV_45tilt_15rot_det10.npy'
p1066
F0.0902
F0.0012
F22.0538
F0.0876
F0.0572
F0.0006
F170.0
tp1067
a(S'bvert_4MeV_45tilt_15rot_det11.npy'
p1068
F0.2266
F0.0026
F26.5555
F0.0966
F0.1333
F0.0015
F164.0
tp1069
a(S'bvert_4MeV_45tilt_15rot_det12.npy'
p1070
F0.4734
F0.0036
F26.6188
F0.1056
F0.2809
F0.0023
F184.0
tp1071
a(S'bvert_4MeV_45tilt_15rot_det13.npy'
p1072
F0.7748
F0.0056
F31.5669
F0.1397
F0.4768
F0.0039
F168.0
tp1073
a(S'bvert_4MeV_45tilt_15rot_det14.npy'
p1074
F1.0972
F0.0078
F40.6869
F0.21
F0.6969
F0.0055
F146.0
tp1075
a(S'bvert_4MeV_45tilt_15rot_det15.npy'
p1076
F1.459
F0.0147
F64.4734
F0.51
F0.9477
F0.0103
F94.0
tp1077
a(S'bvert_4MeV_45tilt_15rot_det4.npy'
p1078
F1.5355
F0.0171
F61.5526
F0.4906
F0.9926
F0.0124
F77.0
tp1079
a(S'bvert_4MeV_45tilt_15rot_det5.npy'
p1080
F1.2511
F0.0118
F39.0498
F0.2681
F0.7905
F0.0081
F105.0
tp1081
a(S'bvert_4MeV_45tilt_15rot_det6.npy'
p1082
F0.8774
F0.008
F29.1982
F0.1518
F0.5383
F0.0053
F150.0
tp1083
a(S'bvert_4MeV_45tilt_15rot_det7.npy'
p1084
F0.5389
F0.0047
F25.6884
F0.1109
F0.32
F0.0031
F149.0
tp1085
a(S'bvert_4MeV_45tilt_15rot_det8.npy'
p1086
F0.2719
F0.0028
F25.8014
F0.0864
F0.1591
F0.0016
F171.0
tp1087
a(S'bvert_4MeV_45tilt_15rot_det9.npy'
p1088
F0.1021
F0.0012
F23.782
F0.0909
F0.0639
F0.0006
F158.0
tp1089
a(S'bvert_4MeV_45tilt_25rot_det10.npy'
p1090
F0.0911
F0.0013
F22.2449
F0.0961
F0.0574
F0.0007
F135.0
tp1091
a(S'bvert_4MeV_45tilt_25rot_det11.npy'
p1092
F0.2375
F0.0024
F26.645
F0.1066
F0.14
F0.0014
F141.0
tp1093
a(S'bvert_4MeV_45tilt_25rot_det12.npy'
p1094
F0.4778
F0.0042
F26.6182
F0.1016
F0.2854
F0.0027
F186.0
tp1095
a(S'bvert_4MeV_45tilt_25rot_det13.npy'
p1096
F0.7796
F0.0061
F31.3264
F0.1374
F0.4813
F0.0042
F157.0
tp1097
a(S'bvert_4MeV_45tilt_25rot_det14.npy'
p1098
F1.0987
F0.0101
F40.5844
F0.1879
F0.694
F0.007
F141.0
tp1099
a(S'bvert_4MeV_45tilt_25rot_det15.npy'
p1100
F1.4131
F0.0168
F63.9142
F0.5522
F0.9143
F0.0118
F65.0
tp1101
a(S'bvert_4MeV_45tilt_25rot_det4.npy'
p1102
F1.4924
F0.0169
F62.6538
F0.5875
F0.9654
F0.0116
F77.0
tp1103
a(S'bvert_4MeV_45tilt_25rot_det5.npy'
p1104
F1.2316
F0.0114
F39.5126
F0.2592
F0.7816
F0.008
F114.0
tp1105
a(S'bvert_4MeV_45tilt_25rot_det6.npy'
p1106
F0.8732
F0.008
F28.9536
F0.1405
F0.5372
F0.0053
F156.0
tp1107
a(S'bvert_4MeV_45tilt_25rot_det7.npy'
p1108
F0.5273
F0.005
F25.9161
F0.1099
F0.3149
F0.0032
F177.0
tp1109
a(S'bvert_4MeV_45tilt_25rot_det8.npy'
p1110
F0.266
F0.0028
F25.8313
F0.0891
F0.1561
F0.0017
F157.0
tp1111
a(S'bvert_4MeV_45tilt_25rot_det9.npy'
p1112
F0.1016
F0.0013
F23.7494
F0.0917
F0.0635
F0.0007
F125.0
tp1113
a(S'bvert_4MeV_45tilt_315rot_det10.npy'
p1114
F0.0896
F0.0011
F22.0648
F0.0906
F0.056
F0.0006
F172.0
tp1115
a(S'bvert_4MeV_45tilt_315rot_det11.npy'
p1116
F0.2379
F0.0023
F26.6063
F0.0852
F0.1399
F0.0014
F192.0
tp1117
a(S'bvert_4MeV_45tilt_315rot_det12.npy'
p1118
F0.5
F0.0043
F26.3445
F0.1015
F0.3017
F0.0028
F204.0
tp1119
a(S'bvert_4MeV_45tilt_315rot_det13.npy'
p1120
F0.8312
F0.0073
F31.3997
F0.1431
F0.5138
F0.005
F161.0
tp1121
a(S'bvert_4MeV_45tilt_315rot_det14.npy'
p1122
F1.2211
F0.0101
F40.9066
F0.2037
F0.7702
F0.0068
F135.0
tp1123
a(S'bvert_4MeV_45tilt_315rot_det15.npy'
p1124
F1.577
F0.0159
F64.7412
F0.4711
F1.0085
F0.0109
F84.0
tp1125
a(S'bvert_4MeV_45tilt_315rot_det4.npy'
p1126
F1.5638
F0.018
F63.4577
F0.5528
F0.9959
F0.0121
F77.0
tp1127
a(S'bvert_4MeV_45tilt_315rot_det5.npy'
p1128
F1.2288
F0.0116
F39.667
F0.212
F0.7704
F0.0077
F146.0
tp1129
a(S'bvert_4MeV_45tilt_315rot_det6.npy'
p1130
F0.8503
F0.0062
F29.4516
F0.1366
F0.5212
F0.0041
F167.0
tp1131
a(S'bvert_4MeV_45tilt_315rot_det7.npy'
p1132
F0.4983
F0.0043
F25.9037
F0.107
F0.2979
F0.0028
F170.0
tp1133
a(S'bvert_4MeV_45tilt_315rot_det8.npy'
p1134
F0.2537
F0.0024
F25.6646
F0.0852
F0.1486
F0.0014
F157.0
tp1135
a(S'bvert_4MeV_45tilt_315rot_det9.npy'
p1136
F0.095
F0.0012
F23.9762
F0.0946
F0.0589
F0.0006
F160.0
tp1137
a(S'bvert_4MeV_45tilt_335rot_det10.npy'
p1138
F0.0874
F0.0014
F21.9185
F0.1009
F0.0548
F0.0007
F129.0
tp1139
a(S'bvert_4MeV_45tilt_335rot_det11.npy'
p1140
F0.2314
F0.0026
F26.5743
F0.1038
F0.1354
F0.0016
F155.0
tp1141
a(S'bvert_4MeV_45tilt_335rot_det12.npy'
p1142
F0.4697
F0.0046
F26.5724
F0.1102
F0.2805
F0.003
F147.0
tp1143
a(S'bvert_4MeV_45tilt_335rot_det13.npy'
p1144
F0.7974
F0.0082
F31.5151
F0.1654
F0.494
F0.0055
F126.0
tp1145
a(S'bvert_4MeV_45tilt_335rot_det14.npy'
p1146
F1.1616
F0.0103
F40.8358
F0.2488
F0.7396
F0.0071
F121.0
tp1147
a(S'bvert_4MeV_45tilt_335rot_det15.npy'
p1148
F1.5375
F0.0154
F64.2321
F0.5158
F0.9977
F0.0108
F67.0
tp1149
a(S'bvert_4MeV_45tilt_335rot_det4.npy'
p1150
F1.612
F0.0174
F63.2589
F0.5593
F1.0169
F0.0116
F67.0
tp1151
a(S'bvert_4MeV_45tilt_335rot_det5.npy'
p1152
F1.3094
F0.0095
F39.2822
F0.2706
F0.8193
F0.0062
F106.0
tp1153
a(S'bvert_4MeV_45tilt_335rot_det6.npy'
p1154
F0.8826
F0.0091
F29.6043
F0.1458
F0.5405
F0.006
F117.0
tp1155
a(S'bvert_4MeV_45tilt_335rot_det7.npy'
p1156
F0.5211
F0.005
F25.7091
F0.122
F0.3105
F0.0031
F151.0
tp1157
a(S'bvert_4MeV_45tilt_335rot_det8.npy'
p1158
F0.2544
F0.0028
F26.0896
F0.1031
F0.1502
F0.0016
F138.0
tp1159
a(S'bvert_4MeV_45tilt_335rot_det9.npy'
p1160
F0.0968
F0.0013
F23.6906
F0.1021
F0.0607
F0.0007
F118.0
tp1161
a(S'bvert_4MeV_45tilt_345rot_det10.npy'
p1162
F0.0893
F0.001
F22.0733
F0.0769
F0.056
F0.0005
F160.0
tp1163
a(S'bvert_4MeV_45tilt_345rot_det11.npy'
p1164
F0.225
F0.0023
F26.6217
F0.0944
F0.1316
F0.0014
F184.0
tp1165
a(S'bvert_4MeV_45tilt_345rot_det12.npy'
p1166
F0.469
F0.0044
F26.3709
F0.1149
F0.2788
F0.0028
F167.0
tp1167
a(S'bvert_4MeV_45tilt_345rot_det13.npy'
p1168
F0.7888
F0.0064
F31.3263
F0.1282
F0.4883
F0.0043
F174.0
tp1169
a(S'bvert_4MeV_45tilt_345rot_det14.npy'
p1170
F1.1293
F0.0114
F40.5848
F0.2532
F0.7165
F0.0079
F114.0
tp1171
a(S'bvert_4MeV_45tilt_345rot_det15.npy'
p1172
F1.5051
F0.0188
F64.6811
F0.5276
F0.9773
F0.0133
F66.0
tp1173
a(S'bvert_4MeV_45tilt_345rot_det4.npy'
p1174
F1.603
F0.0158
F63.2058
F0.4627
F1.021
F0.0112
F80.0
tp1175
a(S'bvert_4MeV_45tilt_345rot_det5.npy'
p1176
F1.2928
F0.0103
F39.506
F0.2375
F0.8051
F0.0072
F122.0
tp1177
a(S'bvert_4MeV_45tilt_345rot_det6.npy'
p1178
F0.9084
F0.0074
F29.2057
F0.1567
F0.5547
F0.005
F145.0
tp1179
a(S'bvert_4MeV_45tilt_345rot_det7.npy'
p1180
F0.5396
F0.0045
F25.6082
F0.1057
F0.3213
F0.0029
F158.0
tp1181
a(S'bvert_4MeV_45tilt_345rot_det8.npy'
p1182
F0.2634
F0.0024
F25.9148
F0.0915
F0.1551
F0.0014
F159.0
tp1183
a(S'bvert_4MeV_45tilt_345rot_det9.npy'
p1184
F0.0999
F0.0012
F23.8317
F0.0978
F0.0622
F0.0007
F176.0
tp1185
a(S'bvert_4MeV_45tilt_355rot_det10.npy'
p1186
F0.0868
F0.001
F22.0915
F0.0933
F0.0547
F0.0006
F167.0
tp1187
a(S'bvert_4MeV_45tilt_355rot_det11.npy'
p1188
F0.2238
F0.003
F26.744
F0.1171
F0.1311
F0.0017
F139.0
tp1189
a(S'bvert_4MeV_45tilt_355rot_det12.npy'
p1190
F0.4612
F0.0045
F26.5876
F0.1064
F0.2741
F0.0028
F166.0
tp1191
a(S'bvert_4MeV_45tilt_355rot_det13.npy'
p1192
F0.7835
F0.0061
F31.3506
F0.1451
F0.4852
F0.0041
F163.0
tp1193
a(S'bvert_4MeV_45tilt_355rot_det14.npy'
p1194
F1.1072
F0.0095
F40.4593
F0.2095
F0.7006
F0.0066
F146.0
tp1195
a(S'bvert_4MeV_45tilt_355rot_det15.npy'
p1196
F1.4883
F0.0147
F63.1689
F0.4985
F0.9603
F0.0106
F62.0
tp1197
a(S'bvert_4MeV_45tilt_355rot_det4.npy'
p1198
F1.5846
F0.0183
F63.6336
F0.5851
F1.0086
F0.0127
F67.0
tp1199
a(S'bvert_4MeV_45tilt_355rot_det5.npy'
p1200
F1.2945
F0.0098
F39.2255
F0.2484
F0.807
F0.0067
F117.0
tp1201
a(S'bvert_4MeV_45tilt_355rot_det6.npy'
p1202
F0.9082
F0.0084
F29.6759
F0.1755
F0.5553
F0.0056
F118.0
tp1203
a(S'bvert_4MeV_45tilt_355rot_det7.npy'
p1204
F0.5438
F0.0045
F25.7295
F0.1035
F0.3225
F0.0029
F163.0
tp1205
a(S'bvert_4MeV_45tilt_355rot_det8.npy'
p1206
F0.2623
F0.0029
F25.8584
F0.1016
F0.1536
F0.0017
F132.0
tp1207
a(S'bvert_4MeV_45tilt_355rot_det9.npy'
p1208
F0.1025
F0.0016
F23.8273
F0.1001
F0.0636
F0.0009
F114.0
tp1209
a(S'bvert_4MeV_45tilt_35rot_det10.npy'
p1210
F0.0936
F0.0013
F22.1345
F0.1193
F0.0596
F0.0007
F120.0
tp1211
a(S'bvert_4MeV_45tilt_35rot_det11.npy'
p1212
F0.2399
F0.0028
F26.5963
F0.1081
F0.141
F0.0016
F138.0
tp1213
a(S'bvert_4MeV_45tilt_35rot_det12.npy'
p1214
F0.4809
F0.0042
F26.4613
F0.1117
F0.2862
F0.0026
F147.0
tp1215
a(S'bvert_4MeV_45tilt_35rot_det13.npy'
p1216
F0.786
F0.0072
F31.3447
F0.1356
F0.4842
F0.0048
F161.0
tp1217
a(S'bvert_4MeV_45tilt_35rot_det14.npy'
p1218
F1.1236
F0.0105
F40.8561
F0.2252
F0.7139
F0.0073
F121.0
tp1219
a(S'bvert_4MeV_45tilt_35rot_det15.npy'
p1220
F1.4246
F0.0138
F64.2594
F0.5653
F0.9196
F0.0103
F69.0
tp1221
a(S'bvert_4MeV_45tilt_35rot_det4.npy'
p1222
F1.4702
F0.018
F62.9992
F0.5527
F0.9532
F0.0127
F68.0
tp1223
a(S'bvert_4MeV_45tilt_35rot_det5.npy'
p1224
F1.1932
F0.0105
F39.0044
F0.2555
F0.7606
F0.0072
F99.0
tp1225
a(S'bvert_4MeV_45tilt_35rot_det6.npy'
p1226
F0.8574
F0.0073
F29.3548
F0.15
F0.5299
F0.005
F124.0
tp1227
a(S'bvert_4MeV_45tilt_35rot_det7.npy'
p1228
F0.5176
F0.005
F25.505
F0.1115
F0.309
F0.0032
F135.0
tp1229
a(S'bvert_4MeV_45tilt_35rot_det8.npy'
p1230
F0.2625
F0.0031
F25.6308
F0.1076
F0.1546
F0.0019
F128.0
tp1231
a(S'bvert_4MeV_45tilt_35rot_det9.npy'
p1232
F0.1009
F0.0015
F23.9713
F0.1177
F0.0635
F0.0008
F101.0
tp1233
a(S'bvert_4MeV_45tilt_45rot_det10.npy'
p1234
F0.0973
F0.0013
F22.077
F0.0925
F0.0614
F0.0007
F140.0
tp1235
a(S'bvert_4MeV_45tilt_45rot_det11.npy'
p1236
F0.2533
F0.0028
F26.8342
F0.1234
F0.148
F0.0017
F127.0
tp1237
a(S'bvert_4MeV_45tilt_45rot_det12.npy'
p1238
F0.4974
F0.0048
F26.7644
F0.1192
F0.2975
F0.0031
F152.0
tp1239
a(S'bvert_4MeV_45tilt_45rot_det13.npy'
p1240
F0.8101
F0.0067
F31.4348
F0.1406
F0.4985
F0.0046
F142.0
tp1241
a(S'bvert_4MeV_45tilt_45rot_det14.npy'
p1242
F1.1248
F0.0124
F40.4122
F0.2832
F0.7144
F0.0088
F88.0
tp1243
a(S'bvert_4MeV_45tilt_45rot_det15.npy'
p1244
F1.4312
F0.0157
F63.764
F0.5558
F0.924
F0.0109
F62.0
tp1245
a(S'bvert_4MeV_45tilt_45rot_det4.npy'
p1246
F1.4184
F0.0142
F63.6105
F0.5595
F0.9199
F0.0101
F78.0
tp1247
a(S'bvert_4MeV_45tilt_45rot_det5.npy'
p1248
F1.18
F0.011
F38.7587
F0.2395
F0.7529
F0.0078
F107.0
tp1249
a(S'bvert_4MeV_45tilt_45rot_det6.npy'
p1250
F0.8238
F0.0078
F29.1243
F0.1406
F0.5099
F0.0053
F127.0
tp1251
a(S'bvert_4MeV_45tilt_45rot_det7.npy'
p1252
F0.4892
F0.0047
F25.5618
F0.1342
F0.2932
F0.003
F152.0
tp1253
a(S'bvert_4MeV_45tilt_45rot_det8.npy'
p1254
F0.2562
F0.0027
F25.5987
F0.1045
F0.1505
F0.0016
F133.0
tp1255
a(S'bvert_4MeV_45tilt_45rot_det9.npy'
p1256
F0.0997
F0.0013
F23.7378
F0.1058
F0.0621
F0.0007
F149.0
tp1257
a(S'bvert_4MeV_45tilt_55rot_det10.npy'
p1258
F0.0982
F0.0013
F22.2516
F0.096
F0.0623
F0.0007
F150.0
tp1259
a(S'bvert_4MeV_45tilt_55rot_det11.npy'
p1260
F0.2591
F0.0028
F26.4545
F0.1031
F0.1529
F0.0017
F147.0
tp1261
a(S'bvert_4MeV_45tilt_55rot_det12.npy'
p1262
F0.5135
F0.0043
F26.6562
F0.1062
F0.3054
F0.0027
F163.0
tp1263
a(S'bvert_4MeV_45tilt_55rot_det13.npy'
p1264
F0.8294
F0.0062
F31.4139
F0.127
F0.5099
F0.004
F144.0
tp1265
a(S'bvert_4MeV_45tilt_55rot_det14.npy'
p1266
F1.1469
F0.0102
F40.7786
F0.2215
F0.7231
F0.0069
F119.0
tp1267
a(S'bvert_4MeV_45tilt_55rot_det15.npy'
p1268
F1.4193
F0.0146
F64.6284
F0.5896
F0.9174
F0.0102
F71.0
tp1269
a(S'bvert_4MeV_45tilt_55rot_det4.npy'
p1270
F1.4015
F0.0169
F63.1057
F0.4848
F0.9015
F0.0117
F78.0
tp1271
a(S'bvert_4MeV_45tilt_55rot_det5.npy'
p1272
F1.1304
F0.0093
F38.6634
F0.2218
F0.717
F0.0065
F129.0
tp1273
a(S'bvert_4MeV_45tilt_55rot_det6.npy'
p1274
F0.8201
F0.0061
F28.9468
F0.1484
F0.5086
F0.0043
F158.0
tp1275
a(S'bvert_4MeV_45tilt_55rot_det7.npy'
p1276
F0.4851
F0.0051
F25.8169
F0.1281
F0.29
F0.0033
F138.0
tp1277
a(S'bvert_4MeV_45tilt_55rot_det8.npy'
p1278
F0.2486
F0.0026
F25.9406
F0.0978
F0.1469
F0.0015
F145.0
tp1279
a(S'bvert_4MeV_45tilt_55rot_det9.npy'
p1280
F0.0953
F0.0013
F23.8744
F0.1083
F0.0605
F0.0007
F119.0
tp1281
a(S'bvert_4MeV_45tilt_5rot_det10.npy'
p1282
F0.0899
F0.0012
F22.2411
F0.0979
F0.0566
F0.0006
F158.0
tp1283
a(S'bvert_4MeV_45tilt_5rot_det11.npy'
p1284
F0.2314
F0.0022
F26.6722
F0.0932
F0.1349
F0.0013
F163.0
tp1285
a(S'bvert_4MeV_45tilt_5rot_det12.npy'
p1286
F0.4655
F0.0038
F26.661
F0.1066
F0.2776
F0.0025
F173.0
tp1287
a(S'bvert_4MeV_45tilt_5rot_det13.npy'
p1288
F0.797
F0.0063
F31.0984
F0.1363
F0.4916
F0.0044
F146.0
tp1289
a(S'bvert_4MeV_45tilt_5rot_det14.npy'
p1290
F1.1106
F0.0106
F40.5054
F0.2323
F0.7049
F0.0073
F112.0
tp1291
a(S'bvert_4MeV_45tilt_5rot_det15.npy'
p1292
F1.4103
F0.0154
F63.6576
F0.4859
F0.9144
F0.0108
F91.0
tp1293
a(S'bvert_4MeV_45tilt_5rot_det4.npy'
p1294
F1.5323
F0.0171
F62.9077
F0.6277
F0.9816
F0.0122
F68.0
tp1295
a(S'bvert_4MeV_45tilt_5rot_det5.npy'
p1296
F1.2601
F0.0114
F39.2266
F0.2531
F0.7906
F0.0083
F115.0
tp1297
a(S'bvert_4MeV_45tilt_5rot_det6.npy'
p1298
F0.9018
F0.0067
F29.195
F0.158
F0.5516
F0.0046
F141.0
tp1299
a(S'bvert_4MeV_45tilt_5rot_det7.npy'
p1300
F0.5553
F0.0047
F25.8035
F0.1228
F0.3299
F0.003
F147.0
tp1301
a(S'bvert_4MeV_45tilt_5rot_det8.npy'
p1302
F0.2733
F0.0027
F25.7075
F0.0944
F0.1616
F0.0016
F152.0
tp1303
a(S'bvert_4MeV_45tilt_5rot_det9.npy'
p1304
F0.1014
F0.0014
F23.9215
F0.1007
F0.0635
F0.0008
F139.0
tp1305
a(S'bvert_4MeV_45tilt_75rot_det10.npy'
p1306
F0.1014
F0.0012
F22.0707
F0.0878
F0.0637
F0.0007
F153.0
tp1307
a(S'bvert_4MeV_45tilt_75rot_det11.npy'
p1308
F0.2691
F0.0026
F26.6884
F0.0932
F0.1578
F0.0015
F168.0
tp1309
a(S'bvert_4MeV_45tilt_75rot_det12.npy'
p1310
F0.5365
F0.0048
F26.6867
F0.125
F0.3175
F0.0031
F159.0
tp1311
a(S'bvert_4MeV_45tilt_75rot_det13.npy'
p1312
F0.872
F0.0071
F31.6029
F0.1626
F0.5336
F0.005
F142.0
tp1313
a(S'bvert_4MeV_45tilt_75rot_det14.npy'
p1314
F1.2076
F0.0099
F40.8263
F0.2206
F0.7575
F0.0067
F126.0
tp1315
a(S'bvert_4MeV_45tilt_75rot_det15.npy'
p1316
F1.4743
F0.0183
F64.8109
F0.59
F0.9469
F0.0128
F68.0
tp1317
a(S'bvert_4MeV_45tilt_75rot_det4.npy'
p1318
F1.409
F0.0142
F62.0504
F0.4993
F0.9112
F0.0102
F81.0
tp1319
a(S'bvert_4MeV_45tilt_75rot_det5.npy'
p1320
F1.12
F0.0103
F38.4056
F0.2437
F0.7116
F0.0072
F119.0
tp1321
a(S'bvert_4MeV_45tilt_75rot_det6.npy'
p1322
F0.7731
F0.0067
F28.9953
F0.133
F0.4769
F0.0046
F166.0
tp1323
a(S'bvert_4MeV_45tilt_75rot_det7.npy'
p1324
F0.4639
F0.0044
F25.5794
F0.1177
F0.2777
F0.0028
F135.0
tp1325
a(S'bvert_4MeV_45tilt_75rot_det8.npy'
p1326
F0.24
F0.0023
F25.8115
F0.0903
F0.1414
F0.0014
F149.0
tp1327
a(S'bvert_4MeV_45tilt_75rot_det9.npy'
p1328
F0.0904
F0.0012
F23.9109
F0.0934
F0.0574
F0.0006
F168.0
tp1329
a(S'bvert_4MeV_45tilt_95rot_det10.npy'
p1330
F0.102
F0.0013
F22.1043
F0.0881
F0.064
F0.0007
F153.0
tp1331
a(S'bvert_4MeV_45tilt_95rot_det11.npy'
p1332
F0.2609
F0.0028
F26.8905
F0.0977
F0.1536
F0.0017
F181.0
tp1333
a(S'bvert_4MeV_45tilt_95rot_det12.npy'
p1334
F0.5402
F0.0052
F26.6904
F0.1066
F0.3213
F0.0034
F150.0
tp1335
a(S'bvert_4MeV_45tilt_95rot_det13.npy'
p1336
F0.8945
F0.0072
F31.8619
F0.1387
F0.5434
F0.0046
F155.0
tp1337
a(S'bvert_4MeV_45tilt_95rot_det14.npy'
p1338
F1.2694
F0.0108
F41.4822
F0.2199
F0.7935
F0.0072
F109.0
tp1339
a(S'bvert_4MeV_45tilt_95rot_det15.npy'
p1340
F1.5792
F0.0147
F64.5196
F0.5458
F1.0042
F0.0098
F88.0
tp1341
a(S'bvert_4MeV_45tilt_95rot_det4.npy'
p1342
F1.4074
F0.0155
F61.8015
F0.5057
F0.9031
F0.0105
F95.0
tp1343
a(S'bvert_4MeV_45tilt_95rot_det5.npy'
p1344
F1.1138
F0.0093
F38.5308
F0.2116
F0.7044
F0.0065
F147.0
tp1345
a(S'bvert_4MeV_45tilt_95rot_det6.npy'
p1346
F0.763
F0.0069
F28.7327
F0.1216
F0.4693
F0.0046
F180.0
tp1347
a(S'bvert_4MeV_45tilt_95rot_det7.npy'
p1348
F0.4585
F0.0039
F25.5166
F0.1097
F0.2732
F0.0025
F178.0
tp1349
a(S'bvert_4MeV_45tilt_95rot_det8.npy'
p1350
F0.2328
F0.0026
F25.6645
F0.1007
F0.1357
F0.0015
F146.0
tp1351
a(S'bvert_4MeV_45tilt_95rot_det9.npy'
p1352
F0.0894
F0.0012
F23.7977
F0.1106
F0.0565
F0.0006
F125.0
tp1353
a(S'bvert_4MeV_neg15tilt_115rot_det10.npy'
p1354
F0.0914
F0.0011
F22.2646
F0.0911
F0.0576
F0.0006
F162.0
tp1355
a(S'bvert_4MeV_neg15tilt_115rot_det11.npy'
p1356
F0.2436
F0.0025
F26.7642
F0.0843
F0.1446
F0.0015
F178.0
tp1357
a(S'bvert_4MeV_neg15tilt_115rot_det12.npy'
p1358
F0.517
F0.0048
F26.5366
F0.0926
F0.3117
F0.003
F169.0
tp1359
a(S'bvert_4MeV_neg15tilt_115rot_det13.npy'
p1360
F0.8842
F0.0067
F31.5877
F0.1351
F0.5456
F0.0047
F170.0
tp1361
a(S'bvert_4MeV_neg15tilt_115rot_det14.npy'
p1362
F1.2748
F0.0091
F41.0828
F0.1954
F0.7977
F0.0062
F147.0
tp1363
a(S'bvert_4MeV_neg15tilt_115rot_det15.npy'
p1364
F1.6495
F0.0147
F63.9966
F0.5319
F1.0485
F0.0103
F74.0
tp1365
a(S'bvert_4MeV_neg15tilt_115rot_det4.npy'
p1366
F1.431
F0.0129
F62.9589
F0.5303
F0.9256
F0.0093
F86.0
tp1367
a(S'bvert_4MeV_neg15tilt_115rot_det5.npy'
p1368
F1.1046
F0.009
F38.4006
F0.2441
F0.7003
F0.0064
F105.0
tp1369
a(S'bvert_4MeV_neg15tilt_115rot_det6.npy'
p1370
F0.723
F0.0065
F29.2649
F0.1582
F0.4469
F0.0044
F142.0
tp1371
a(S'bvert_4MeV_neg15tilt_115rot_det7.npy'
p1372
F0.4229
F0.004
F25.5061
F0.111
F0.2526
F0.0024
F178.0
tp1373
a(S'bvert_4MeV_neg15tilt_115rot_det8.npy'
p1374
F0.2099
F0.0021
F25.6133
F0.0836
F0.1232
F0.0012
F173.0
tp1375
a(S'bvert_4MeV_neg15tilt_115rot_det9.npy'
p1376
F0.0804
F0.0009
F23.9062
F0.1037
F0.0515
F0.0005
F160.0
tp1377
a(S'bvert_4MeV_neg15tilt_135rot_det10.npy'
p1378
F0.0855
F0.0011
F22.2087
F0.0898
F0.0546
F0.0006
F152.0
tp1379
a(S'bvert_4MeV_neg15tilt_135rot_det11.npy'
p1380
F0.2281
F0.0026
F26.7083
F0.0953
F0.1345
F0.0016
F163.0
tp1381
a(S'bvert_4MeV_neg15tilt_135rot_det12.npy'
p1382
F0.4769
F0.0047
F26.7438
F0.1141
F0.288
F0.003
F159.0
tp1383
a(S'bvert_4MeV_neg15tilt_135rot_det13.npy'
p1384
F0.8182
F0.0059
F31.6939
F0.121
F0.5103
F0.004
F165.0
tp1385
a(S'bvert_4MeV_neg15tilt_135rot_det14.npy'
p1386
F1.2332
F0.0113
F41.3069
F0.2518
F0.7847
F0.0083
F104.0
tp1387
a(S'bvert_4MeV_neg15tilt_135rot_det15.npy'
p1388
F1.5596
F0.0176
F65.3264
F0.4663
F0.9979
F0.012
F73.0
tp1389
a(S'bvert_4MeV_neg15tilt_135rot_det4.npy'
p1390
F1.556
F0.0136
F62.9508
F0.4385
F0.9891
F0.0093
F99.0
tp1391
a(S'bvert_4MeV_neg15tilt_135rot_det5.npy'
p1392
F1.1645
F0.0097
F39.2934
F0.2301
F0.7373
F0.0069
F145.0
tp1393
a(S'bvert_4MeV_neg15tilt_135rot_det6.npy'
p1394
F0.8011
F0.0058
F28.9317
F0.131
F0.4942
F0.0041
F163.0
tp1395
a(S'bvert_4MeV_neg15tilt_135rot_det7.npy'
p1396
F0.4498
F0.0041
F25.6052
F0.1023
F0.2693
F0.0026
F194.0
tp1397
a(S'bvert_4MeV_neg15tilt_135rot_det8.npy'
p1398
F0.2148
F0.0024
F25.8615
F0.0899
F0.1274
F0.0015
F177.0
tp1399
a(S'bvert_4MeV_neg15tilt_135rot_det9.npy'
p1400
F0.0805
F0.001
F24.1003
F0.097
F0.0514
F0.0005
F161.0
tp1401
a(S'bvert_4MeV_neg15tilt_15rot_det10.npy'
p1402
F0.0855
F0.0011
F22.259
F0.1106
F0.0544
F0.0006
F144.0
tp1403
a(S'bvert_4MeV_neg15tilt_15rot_det11.npy'
p1404
F0.2169
F0.0022
F26.627
F0.0943
F0.1279
F0.0013
F155.0
tp1405
a(S'bvert_4MeV_neg15tilt_15rot_det12.npy'
p1406
F0.429
F0.0037
F26.4963
F0.1016
F0.2561
F0.0023
F176.0
tp1407
a(S'bvert_4MeV_neg15tilt_15rot_det13.npy'
p1408
F0.6954
F0.0051
F31.7364
F0.1202
F0.4305
F0.0034
F192.0
tp1409
a(S'bvert_4MeV_neg15tilt_15rot_det14.npy'
p1410
F1.0015
F0.008
F41.1678
F0.2117
F0.6349
F0.0055
F148.0
tp1411
a(S'bvert_4MeV_neg15tilt_15rot_det15.npy'
p1412
F1.2862
F0.0165
F64.9546
F0.5909
F0.8358
F0.012
F70.0
tp1413
a(S'bvert_4MeV_neg15tilt_15rot_det4.npy'
p1414
F1.4614
F0.0159
F63.2165
F0.4633
F0.9523
F0.0116
F87.0
tp1415
a(S'bvert_4MeV_neg15tilt_15rot_det5.npy'
p1416
F1.2027
F0.0102
F38.9586
F0.2242
F0.7686
F0.0072
F129.0
tp1417
a(S'bvert_4MeV_neg15tilt_15rot_det6.npy'
p1418
F0.8854
F0.0064
F28.8673
F0.1429
F0.5455
F0.0041
F167.0
tp1419
a(S'bvert_4MeV_neg15tilt_15rot_det7.npy'
p1420
F0.5343
F0.0043
F25.3867
F0.1072
F0.3186
F0.0027
F190.0
tp1421
a(S'bvert_4MeV_neg15tilt_15rot_det8.npy'
p1422
F0.2709
F0.0026
F25.5928
F0.0917
F0.1592
F0.0015
F164.0
tp1423
a(S'bvert_4MeV_neg15tilt_15rot_det9.npy'
p1424
F0.0991
F0.0013
F23.7014
F0.1018
F0.0627
F0.0007
F149.0
tp1425
a(S'bvert_4MeV_neg15tilt_25rot_det10.npy'
p1426
F0.0881
F0.0011
F22.1319
F0.0906
F0.0562
F0.0006
F150.0
tp1427
a(S'bvert_4MeV_neg15tilt_25rot_det11.npy'
p1428
F0.2252
F0.0024
F26.705
F0.1017
F0.1336
F0.0015
F153.0
tp1429
a(S'bvert_4MeV_neg15tilt_25rot_det12.npy'
p1430
F0.4412
F0.004
F26.6723
F0.109
F0.2652
F0.0027
F156.0
tp1431
a(S'bvert_4MeV_neg15tilt_25rot_det13.npy'
p1432
F0.7077
F0.0054
F31.6879
F0.1166
F0.4369
F0.0037
F184.0
tp1433
a(S'bvert_4MeV_neg15tilt_25rot_det14.npy'
p1434
F0.996
F0.0079
F41.0959
F0.189
F0.6298
F0.0055
F143.0
tp1435
a(S'bvert_4MeV_neg15tilt_25rot_det15.npy'
p1436
F1.2707
F0.0122
F65.1297
F0.5138
F0.8217
F0.0089
F81.0
tp1437
a(S'bvert_4MeV_neg15tilt_25rot_det4.npy'
p1438
F1.4346
F0.0148
F61.9895
F0.5062
F0.9372
F0.0104
F70.0
tp1439
a(S'bvert_4MeV_neg15tilt_25rot_det5.npy'
p1440
F1.1625
F0.0102
F38.9475
F0.2263
F0.7441
F0.0071
F131.0
tp1441
a(S'bvert_4MeV_neg15tilt_25rot_det6.npy'
p1442
F0.8451
F0.0071
F28.8982
F0.1623
F0.5236
F0.0048
F138.0
tp1443
a(S'bvert_4MeV_neg15tilt_25rot_det7.npy'
p1444
F0.5182
F0.0043
F25.6043
F0.1092
F0.3111
F0.0028
F185.0
tp1445
a(S'bvert_4MeV_neg15tilt_25rot_det8.npy'
p1446
F0.2639
F0.0026
F25.6473
F0.0961
F0.1552
F0.0016
F167.0
tp1447
a(S'bvert_4MeV_neg15tilt_25rot_det9.npy'
p1448
F0.1006
F0.0013
F23.6874
F0.0978
F0.0631
F0.0007
F148.0
tp1449
a(S'bvert_4MeV_neg15tilt_315rot_det10.npy'
p1450
F0.0846
F0.0011
F22.3367
F0.0869
F0.054
F0.0006
F130.0
tp1451
a(S'bvert_4MeV_neg15tilt_315rot_det11.npy'
p1452
F0.2258
F0.0027
F26.7379
F0.1121
F0.1338
F0.0016
F165.0
tp1453
a(S'bvert_4MeV_neg15tilt_315rot_det12.npy'
p1454
F0.4808
F0.0044
F26.5455
F0.1002
F0.2914
F0.0029
F163.0
tp1455
a(S'bvert_4MeV_neg15tilt_315rot_det13.npy'
p1456
F0.8008
F0.0074
F31.7297
F0.1272
F0.4963
F0.005
F148.0
tp1457
a(S'bvert_4MeV_neg15tilt_315rot_det14.npy'
p1458
F1.2156
F0.0097
F41.423
F0.2221
F0.7714
F0.0069
F120.0
tp1459
a(S'bvert_4MeV_neg15tilt_315rot_det15.npy'
p1460
F1.5766
F0.0173
F64.9731
F0.5475
F1.0089
F0.012
F67.0
tp1461
a(S'bvert_4MeV_neg15tilt_315rot_det4.npy'
p1462
F1.561
F0.016
F63.2641
F0.5622
F0.9932
F0.0116
F74.0
tp1463
a(S'bvert_4MeV_neg15tilt_315rot_det5.npy'
p1464
F1.1979
F0.0107
F39.1427
F0.2321
F0.7528
F0.0074
F118.0
tp1465
a(S'bvert_4MeV_neg15tilt_315rot_det6.npy'
p1466
F0.795
F0.0069
F29.1374
F0.1507
F0.4924
F0.0046
F142.0
tp1467
a(S'bvert_4MeV_neg15tilt_315rot_det7.npy'
p1468
F0.4578
F0.004
F25.5658
F0.1054
F0.2745
F0.0026
F190.0
tp1469
a(S'bvert_4MeV_neg15tilt_315rot_det8.npy'
p1470
F0.2175
F0.0027
F25.8695
F0.1011
F0.1282
F0.0016
F145.0
tp1471
a(S'bvert_4MeV_neg15tilt_315rot_det9.npy'
p1472
F0.0842
F0.001
F23.7001
F0.093
F0.0531
F0.0005
F160.0
tp1473
a(S'bvert_4MeV_neg15tilt_335rot_det10.npy'
p1474
F0.0828
F0.0009
F22.2394
F0.078
F0.0524
F0.0005
F202.0
tp1475
a(S'bvert_4MeV_neg15tilt_335rot_det11.npy'
p1476
F0.2136
F0.0023
F26.6853
F0.0892
F0.1261
F0.0014
F205.0
tp1477
a(S'bvert_4MeV_neg15tilt_335rot_det12.npy'
p1478
F0.4426
F0.0035
F26.8408
F0.0958
F0.2652
F0.0023
F237.0
tp1479
a(S'bvert_4MeV_neg15tilt_335rot_det13.npy'
p1480
F0.7558
F0.0056
F31.6189
F0.1189
F0.4704
F0.0037
F224.0
tp1481
a(S'bvert_4MeV_neg15tilt_335rot_det14.npy'
p1482
F1.1282
F0.009
F41.282
F0.2002
F0.7203
F0.0065
F154.0
tp1483
a(S'bvert_4MeV_neg15tilt_335rot_det15.npy'
p1484
F1.4545
F0.0163
F64.7962
F0.531
F0.9412
F0.0111
F82.0
tp1485
a(S'bvert_4MeV_neg15tilt_335rot_det4.npy'
p1486
F1.6047
F0.0154
F63.8424
F0.4469
F1.0135
F0.0108
F106.0
tp1487
a(S'bvert_4MeV_neg15tilt_335rot_det5.npy'
p1488
F1.2624
F0.0092
F38.9762
F0.2043
F0.7864
F0.0065
F145.0
tp1489
a(S'bvert_4MeV_neg15tilt_335rot_det6.npy'
p1490
F0.8567
F0.0066
F29.0914
F0.1249
F0.5249
F0.0043
F205.0
tp1491
a(S'bvert_4MeV_neg15tilt_335rot_det7.npy'
p1492
F0.4936
F0.0045
F25.6103
F0.0999
F0.2966
F0.0029
F209.0
tp1493
a(S'bvert_4MeV_neg15tilt_335rot_det8.npy'
p1494
F0.2373
F0.0027
F25.8232
F0.087
F0.1405
F0.0015
F184.0
tp1495
a(S'bvert_4MeV_neg15tilt_335rot_det9.npy'
p1496
F0.0874
F0.001
F23.7483
F0.0826
F0.0562
F0.0006
F195.0
tp1497
a(S'bvert_4MeV_neg15tilt_345rot_det10.npy'
p1498
F0.0824
F0.0011
F22.3696
F0.0847
F0.0525
F0.0005
F160.0
tp1499
a(S'bvert_4MeV_neg15tilt_345rot_det11.npy'
p1500
F0.2088
F0.0019
F26.775
F0.0915
F0.1223
F0.0011
F190.0
tp1501
a(S'bvert_4MeV_neg15tilt_345rot_det12.npy'
p1502
F0.4337
F0.0039
F26.7252
F0.0977
F0.2597
F0.0025
F186.0
tp1503
a(S'bvert_4MeV_neg15tilt_345rot_det13.npy'
p1504
F0.7419
F0.0056
F31.4793
F0.1189
F0.4595
F0.0038
F186.0
tp1505
a(S'bvert_4MeV_neg15tilt_345rot_det14.npy'
p1506
F1.0936
F0.0084
F41.098
F0.2205
F0.6989
F0.0062
F131.0
tp1507
a(S'bvert_4MeV_neg15tilt_345rot_det15.npy'
p1508
F1.4005
F0.0173
F65.2989
F0.4741
F0.9051
F0.012
F88.0
tp1509
a(S'bvert_4MeV_neg15tilt_345rot_det4.npy'
p1510
F1.5903
F0.0166
F63.6209
F0.4885
F1.0113
F0.0112
F83.0
tp1511
a(S'bvert_4MeV_neg15tilt_345rot_det5.npy'
p1512
F1.3078
F0.0092
F38.7927
F0.2184
F0.8168
F0.0063
F147.0
tp1513
a(S'bvert_4MeV_neg15tilt_345rot_det6.npy'
p1514
F0.8921
F0.0059
F28.9486
F0.1489
F0.5407
F0.0039
F142.0
tp1515
a(S'bvert_4MeV_neg15tilt_345rot_det7.npy'
p1516
F0.52
F0.0045
F25.384
F0.0972
F0.3088
F0.0028
F184.0
tp1517
a(S'bvert_4MeV_neg15tilt_345rot_det8.npy'
p1518
F0.2486
F0.0029
F25.7961
F0.0901
F0.146
F0.0017
F156.0
tp1519
a(S'bvert_4MeV_neg15tilt_345rot_det9.npy'
p1520
F0.0901
F0.0013
F23.7911
F0.0908
F0.0575
F0.0007
F150.0
tp1521
a(S'bvert_4MeV_neg15tilt_355rot_det10.npy'
p1522
F0.0843
F0.001
F22.3427
F0.087
F0.0535
F0.0005
F172.0
tp1523
a(S'bvert_4MeV_neg15tilt_355rot_det11.npy'
p1524
F0.2086
F0.0021
F26.7632
F0.0953
F0.1229
F0.0013
F172.0
tp1525
a(S'bvert_4MeV_neg15tilt_355rot_det12.npy'
p1526
F0.4247
F0.0042
F26.9845
F0.1113
F0.2533
F0.0027
F168.0
tp1527
a(S'bvert_4MeV_neg15tilt_355rot_det13.npy'
p1528
F0.7135
F0.0053
F31.622
F0.1252
F0.4401
F0.0036
F175.0
tp1529
a(S'bvert_4MeV_neg15tilt_355rot_det14.npy'
p1530
F1.08
F0.0085
F41.3782
F0.2394
F0.6899
F0.0064
F118.0
tp1531
a(S'bvert_4MeV_neg15tilt_355rot_det15.npy'
p1532
F1.3673
F0.0145
F65.4327
F0.5256
F0.889
F0.0105
F82.0
tp1533
a(S'bvert_4MeV_neg15tilt_355rot_det4.npy'
p1534
F1.6073
F0.014
F62.3889
F0.5002
F1.0335
F0.0106
F66.0
tp1535
a(S'bvert_4MeV_neg15tilt_355rot_det5.npy'
p1536
F1.2539
F0.0105
F38.7226
F0.2093
F0.7868
F0.0073
F150.0
tp1537
a(S'bvert_4MeV_neg15tilt_355rot_det6.npy'
p1538
F0.8966
F0.0083
F29.0595
F0.1504
F0.5438
F0.0056
F147.0
tp1539
a(S'bvert_4MeV_neg15tilt_355rot_det7.npy'
p1540
F0.5352
F0.005
F25.4265
F0.0967
F0.3174
F0.0031
F159.0
tp1541
a(S'bvert_4MeV_neg15tilt_355rot_det8.npy'
p1542
F0.2579
F0.003
F25.6575
F0.098
F0.1518
F0.0018
F150.0
tp1543
a(S'bvert_4MeV_neg15tilt_355rot_det9.npy'
p1544
F0.0929
F0.0012
F23.6876
F0.0955
F0.0595
F0.0006
F152.0
tp1545
a(S'bvert_4MeV_neg15tilt_35rot_det10.npy'
p1546
F0.0925
F0.0012
F22.2511
F0.0893
F0.059
F0.0006
F159.0
tp1547
a(S'bvert_4MeV_neg15tilt_35rot_det11.npy'
p1548
F0.2332
F0.0025
F26.5338
F0.1007
F0.1386
F0.0015
F168.0
tp1549
a(S'bvert_4MeV_neg15tilt_35rot_det12.npy'
p1550
F0.4669
F0.004
F26.6225
F0.1035
F0.2808
F0.0026
F185.0
tp1551
a(S'bvert_4MeV_neg15tilt_35rot_det13.npy'
p1552
F0.742
F0.0055
F31.4174
F0.1338
F0.4596
F0.0037
F155.0
tp1553
a(S'bvert_4MeV_neg15tilt_35rot_det14.npy'
p1554
F1.0232
F0.0073
F41.2325
F0.1968
F0.6496
F0.0052
F145.0
tp1555
a(S'bvert_4MeV_neg15tilt_35rot_det15.npy'
p1556
F1.2812
F0.0128
F64.6306
F0.5097
F0.8236
F0.0091
F86.0
tp1557
a(S'bvert_4MeV_neg15tilt_35rot_det4.npy'
p1558
F1.4059
F0.0133
F63.1552
F0.5482
F0.9187
F0.0092
F72.0
tp1559
a(S'bvert_4MeV_neg15tilt_35rot_det5.npy'
p1560
F1.1411
F0.0081
F38.8874
F0.2168
F0.7329
F0.0059
F121.0
tp1561
a(S'bvert_4MeV_neg15tilt_35rot_det6.npy'
p1562
F0.8251
F0.0061
F29.0757
F0.1494
F0.5148
F0.0043
F155.0
tp1563
a(S'bvert_4MeV_neg15tilt_35rot_det7.npy'
p1564
F0.5085
F0.004
F25.5563
F0.1136
F0.3062
F0.0027
F183.0
tp1565
a(S'bvert_4MeV_neg15tilt_35rot_det8.npy'
p1566
F0.2578
F0.0027
F25.7893
F0.1007
F0.1517
F0.0017
F128.0
tp1567
a(S'bvert_4MeV_neg15tilt_35rot_det9.npy'
p1568
F0.1006
F0.0011
F23.6441
F0.085
F0.0634
F0.0006
F176.0
tp1569
a(S'bvert_4MeV_neg15tilt_45rot_det10.npy'
p1570
F0.0971
F0.0012
F22.0177
F0.098
F0.0616
F0.0007
F145.0
tp1571
a(S'bvert_4MeV_neg15tilt_45rot_det11.npy'
p1572
F0.2449
F0.0025
F26.6561
F0.0932
F0.1445
F0.0015
F165.0
tp1573
a(S'bvert_4MeV_neg15tilt_45rot_det12.npy'
p1574
F0.4789
F0.0038
F26.7335
F0.1039
F0.2882
F0.0024
F183.0
tp1575
a(S'bvert_4MeV_neg15tilt_45rot_det13.npy'
p1576
F0.7732
F0.0062
F31.2647
F0.1264
F0.4797
F0.0043
F155.0
tp1577
a(S'bvert_4MeV_neg15tilt_45rot_det14.npy'
p1578
F1.0462
F0.0088
F41.5296
F0.2368
F0.6621
F0.0062
F106.0
tp1579
a(S'bvert_4MeV_neg15tilt_45rot_det15.npy'
p1580
F1.293
F0.0131
F65.1085
F0.5462
F0.8365
F0.0095
F79.0
tp1581
a(S'bvert_4MeV_neg15tilt_45rot_det4.npy'
p1582
F1.3391
F0.0128
F62.4624
F0.4287
F0.8682
F0.0093
F99.0
tp1583
a(S'bvert_4MeV_neg15tilt_45rot_det5.npy'
p1584
F1.1122
F0.0085
F38.7596
F0.2444
F0.712
F0.006
F121.0
tp1585
a(S'bvert_4MeV_neg15tilt_45rot_det6.npy'
p1586
F0.7849
F0.0066
F29.1665
F0.1556
F0.487
F0.0046
F150.0
tp1587
a(S'bvert_4MeV_neg15tilt_45rot_det7.npy'
p1588
F0.4896
F0.0046
F25.6964
F0.1181
F0.2945
F0.0029
F176.0
tp1589
a(S'bvert_4MeV_neg15tilt_45rot_det8.npy'
p1590
F0.2547
F0.0023
F25.6957
F0.0861
F0.1514
F0.0014
F161.0
tp1591
a(S'bvert_4MeV_neg15tilt_45rot_det9.npy'
p1592
F0.0991
F0.0011
F23.6012
F0.0832
F0.0632
F0.0006
F161.0
tp1593
a(S'bvert_4MeV_neg15tilt_55rot_det10.npy'
p1594
F0.1007
F0.0012
F22.0678
F0.0957
F0.0636
F0.0007
F159.0
tp1595
a(S'bvert_4MeV_neg15tilt_55rot_det11.npy'
p1596
F0.2533
F0.0026
F26.6396
F0.0997
F0.1499
F0.0017
F163.0
tp1597
a(S'bvert_4MeV_neg15tilt_55rot_det12.npy'
p1598
F0.5025
F0.004
F26.5496
F0.1031
F0.3024
F0.0026
F189.0
tp1599
a(S'bvert_4MeV_neg15tilt_55rot_det13.npy'
p1600
F0.8001
F0.0056
F31.7562
F0.1319
F0.496
F0.0039
F179.0
tp1601
a(S'bvert_4MeV_neg15tilt_55rot_det14.npy'
p1602
F1.0776
F0.0109
F41.4777
F0.2341
F0.6833
F0.0077
F112.0
tp1603
a(S'bvert_4MeV_neg15tilt_55rot_det15.npy'
p1604
F1.3249
F0.0135
F64.3049
F0.461
F0.8552
F0.0092
F81.0
tp1605
a(S'bvert_4MeV_neg15tilt_55rot_det4.npy'
p1606
F1.2852
F0.014
F63.3858
F0.5764
F0.8315
F0.0103
F75.0
tp1607
a(S'bvert_4MeV_neg15tilt_55rot_det5.npy'
p1608
F1.0376
F0.0102
F38.5754
F0.2598
F0.6588
F0.0071
F103.0
tp1609
a(S'bvert_4MeV_neg15tilt_55rot_det6.npy'
p1610
F0.7738
F0.0057
F29.2223
F0.141
F0.4823
F0.004
F155.0
tp1611
a(S'bvert_4MeV_neg15tilt_55rot_det7.npy'
p1612
F0.4569
F0.0046
F25.6004
F0.1179
F0.277
F0.0031
F161.0
tp1613
a(S'bvert_4MeV_neg15tilt_55rot_det8.npy'
p1614
F0.2453
F0.0025
F25.4771
F0.0918
F0.1458
F0.0015
F157.0
tp1615
a(S'bvert_4MeV_neg15tilt_55rot_det9.npy'
p1616
F0.0942
F0.0011
F23.7874
F0.0868
F0.06
F0.0006
F156.0
tp1617
a(S'bvert_4MeV_neg15tilt_5rot_det10.npy'
p1618
F0.0872
F0.0011
F22.3219
F0.0958
F0.0554
F0.0006
F162.0
tp1619
a(S'bvert_4MeV_neg15tilt_5rot_det11.npy'
p1620
F0.2094
F0.002
F26.8353
F0.0969
F0.1231
F0.0012
F171.0
tp1621
a(S'bvert_4MeV_neg15tilt_5rot_det12.npy'
p1622
F0.4314
F0.0036
F26.8798
F0.1106
F0.2576
F0.0024
F158.0
tp1623
a(S'bvert_4MeV_neg15tilt_5rot_det13.npy'
p1624
F0.7206
F0.0048
F31.5484
F0.1389
F0.445
F0.0033
F135.0
tp1625
a(S'bvert_4MeV_neg15tilt_5rot_det14.npy'
p1626
F1.0342
F0.0088
F40.9814
F0.2192
F0.6594
F0.0062
F119.0
tp1627
a(S'bvert_4MeV_neg15tilt_5rot_det15.npy'
p1628
F1.3516
F0.0131
F65.9325
F0.6755
F0.8821
F0.01
F59.0
tp1629
a(S'bvert_4MeV_neg15tilt_5rot_det4.npy'
p1630
F1.552
F0.0146
F64.3693
F0.5429
F1.0064
F0.0103
F78.0
tp1631
a(S'bvert_4MeV_neg15tilt_5rot_det5.npy'
p1632
F1.2404
F0.0108
F38.7513
F0.2292
F0.7844
F0.0073
F126.0
tp1633
a(S'bvert_4MeV_neg15tilt_5rot_det6.npy'
p1634
F0.9013
F0.0069
F29.0059
F0.14
F0.5502
F0.0046
F150.0
tp1635
a(S'bvert_4MeV_neg15tilt_5rot_det7.npy'
p1636
F0.5504
F0.0042
F25.3777
F0.112
F0.327
F0.0026
F182.0
tp1637
a(S'bvert_4MeV_neg15tilt_5rot_det8.npy'
p1638
F0.2617
F0.0031
F25.7158
F0.0979
F0.1535
F0.0018
F143.0
tp1639
a(S'bvert_4MeV_neg15tilt_5rot_det9.npy'
p1640
F0.0982
F0.0012
F23.8219
F0.0863
F0.062
F0.0006
F159.0
tp1641
a(S'bvert_4MeV_neg15tilt_75rot_det10.npy'
p1642
F0.1001
F0.0014
F22.1392
F0.0897
F0.0629
F0.0007
F138.0
tp1643
a(S'bvert_4MeV_neg15tilt_75rot_det11.npy'
p1644
F0.2625
F0.0028
F26.4863
F0.0972
F0.1543
F0.0018
F148.0
tp1645
a(S'bvert_4MeV_neg15tilt_75rot_det12.npy'
p1646
F0.5362
F0.0047
F26.7164
F0.1206
F0.3196
F0.0029
F148.0
tp1647
a(S'bvert_4MeV_neg15tilt_75rot_det13.npy'
p1648
F0.8634
F0.0067
F31.556
F0.1296
F0.5275
F0.0045
F169.0
tp1649
a(S'bvert_4MeV_neg15tilt_75rot_det14.npy'
p1650
F1.1899
F0.0103
F41.2052
F0.2177
F0.7531
F0.007
F131.0
tp1651
a(S'bvert_4MeV_neg15tilt_75rot_det15.npy'
p1652
F1.4069
F0.0142
F66.0282
F0.4859
F0.9114
F0.0099
F89.0
tp1653
a(S'bvert_4MeV_neg15tilt_75rot_det4.npy'
p1654
F1.2703
F0.0123
F63.7443
F0.524
F0.8199
F0.0084
F91.0
tp1655
a(S'bvert_4MeV_neg15tilt_75rot_det5.npy'
p1656
F1.0084
F0.0083
F38.6784
F0.2307
F0.6403
F0.0061
F113.0
tp1657
a(S'bvert_4MeV_neg15tilt_75rot_det6.npy'
p1658
F0.7108
F0.0059
F29.0631
F0.1393
F0.4372
F0.0041
F146.0
tp1659
a(S'bvert_4MeV_neg15tilt_75rot_det7.npy'
p1660
F0.4431
F0.0039
F25.6953
F0.1131
F0.2664
F0.0026
F173.0
tp1661
a(S'bvert_4MeV_neg15tilt_75rot_det8.npy'
p1662
F0.2232
F0.0021
F25.7389
F0.0908
F0.1318
F0.0012
F172.0
tp1663
a(S'bvert_4MeV_neg15tilt_75rot_det9.npy'
p1664
F0.0902
F0.001
F23.5727
F0.0772
F0.0575
F0.0006
F173.0
tp1665
a(S'bvert_4MeV_neg15tilt_95rot_det10.npy'
p1666
F0.0976
F0.0012
F21.9986
F0.088
F0.0619
F0.0006
F176.0
tp1667
a(S'bvert_4MeV_neg15tilt_95rot_det11.npy'
p1668
F0.2566
F0.0025
F26.6091
F0.0911
F0.1515
F0.0015
F178.0
tp1669
a(S'bvert_4MeV_neg15tilt_95rot_det12.npy'
p1670
F0.5504
F0.0046
F26.6619
F0.1068
F0.327
F0.0029
F161.0
tp1671
a(S'bvert_4MeV_neg15tilt_95rot_det13.npy'
p1672
F0.9163
F0.0063
F31.6755
F0.1407
F0.5583
F0.0042
F161.0
tp1673
a(S'bvert_4MeV_neg15tilt_95rot_det14.npy'
p1674
F1.2748
F0.0106
F41.3494
F0.2376
F0.7994
F0.0075
F106.0
tp1675
a(S'bvert_4MeV_neg15tilt_95rot_det15.npy'
p1676
F1.5808
F0.0161
F64.9358
F0.5632
F1.0123
F0.0111
F69.0
tp1677
a(S'bvert_4MeV_neg15tilt_95rot_det4.npy'
p1678
F1.3088
F0.0158
F62.8751
F0.6001
F0.849
F0.0109
F67.0
tp1679
a(S'bvert_4MeV_neg15tilt_95rot_det5.npy'
p1680
F1.0225
F0.0092
F39.0937
F0.2434
F0.6504
F0.0066
F136.0
tp1681
a(S'bvert_4MeV_neg15tilt_95rot_det6.npy'
p1682
F0.6932
F0.0053
F29.1472
F0.15
F0.4262
F0.0037
F161.0
tp1683
a(S'bvert_4MeV_neg15tilt_95rot_det7.npy'
p1684
F0.4252
F0.0036
F25.6402
F0.1082
F0.2537
F0.0023
F185.0
tp1685
a(S'bvert_4MeV_neg15tilt_95rot_det8.npy'
p1686
F0.2091
F0.0023
F25.8639
F0.0973
F0.1223
F0.0014
F149.0
tp1687
a(S'bvert_4MeV_neg15tilt_95rot_det9.npy'
p1688
F0.085
F0.0009
F23.8203
F0.089
F0.0541
F0.0005
F189.0
tp1689
a(S'bvert_4MeV_neg30tilt_115rot_det10.npy'
p1690
F0.0909
F0.0011
F22.4018
F0.091
F0.0575
F0.0006
F158.0
tp1691
a(S'bvert_4MeV_neg30tilt_115rot_det11.npy'
p1692
F0.2524
F0.0031
F26.8067
F0.1086
F0.1499
F0.0019
F127.0
tp1693
a(S'bvert_4MeV_neg30tilt_115rot_det12.npy'
p1694
F0.5268
F0.0043
F26.8896
F0.1166
F0.3169
F0.0027
F169.0
tp1695
a(S'bvert_4MeV_neg30tilt_115rot_det13.npy'
p1696
F0.8728
F0.0074
F31.872
F0.1379
F0.5353
F0.0049
F147.0
tp1697
a(S'bvert_4MeV_neg30tilt_115rot_det14.npy'
p1698
F1.295
F0.0094
F41.1207
F0.2302
F0.8126
F0.0066
F105.0
tp1699
a(S'bvert_4MeV_neg30tilt_115rot_det15.npy'
p1700
F1.6195
F0.0134
F64.5681
F0.5105
F1.0249
F0.01
F77.0
tp1701
a(S'bvert_4MeV_neg30tilt_115rot_det4.npy'
p1702
F1.4371
F0.0172
F62.5947
F0.5401
F0.9252
F0.0119
F81.0
tp1703
a(S'bvert_4MeV_neg30tilt_115rot_det5.npy'
p1704
F1.1272
F0.0087
F38.7056
F0.2111
F0.7154
F0.0059
F131.0
tp1705
a(S'bvert_4MeV_neg30tilt_115rot_det6.npy'
p1706
F0.7621
F0.0066
F28.9631
F0.1486
F0.4704
F0.0045
F136.0
tp1707
a(S'bvert_4MeV_neg30tilt_115rot_det7.npy'
p1708
F0.4347
F0.0044
F25.7044
F0.1263
F0.2585
F0.0028
F153.0
tp1709
a(S'bvert_4MeV_neg30tilt_115rot_det8.npy'
p1710
F0.2148
F0.0023
F25.8211
F0.0834
F0.1261
F0.0013
F172.0
tp1711
a(S'bvert_4MeV_neg30tilt_115rot_det9.npy'
p1712
F0.0826
F0.0012
F23.935
F0.0889
F0.0527
F0.0006
F117.0
tp1713
a(S'bvert_4MeV_neg30tilt_135rot_det10.npy'
p1714
F0.0897
F0.0012
F22.1791
F0.0965
F0.0563
F0.0006
F147.0
tp1715
a(S'bvert_4MeV_neg30tilt_135rot_det11.npy'
p1716
F0.2342
F0.0025
F26.7943
F0.1017
F0.1383
F0.0016
F148.0
tp1717
a(S'bvert_4MeV_neg30tilt_135rot_det12.npy'
p1718
F0.4893
F0.0048
F26.7994
F0.0936
F0.2956
F0.0032
F166.0
tp1719
a(S'bvert_4MeV_neg30tilt_135rot_det13.npy'
p1720
F0.8452
F0.0063
F31.6138
F0.1278
F0.5247
F0.0042
F162.0
tp1721
a(S'bvert_4MeV_neg30tilt_135rot_det14.npy'
p1722
F1.2405
F0.0104
F40.8456
F0.2188
F0.79
F0.0073
F115.0
tp1723
a(S'bvert_4MeV_neg30tilt_135rot_det15.npy'
p1724
F1.5908
F0.0183
F66.1445
F0.5645
F1.0248
F0.0124
F76.0
tp1725
a(S'bvert_4MeV_neg30tilt_135rot_det4.npy'
p1726
F1.5526
F0.0158
F62.8151
F0.4031
F0.9818
F0.0111
F76.0
tp1727
a(S'bvert_4MeV_neg30tilt_135rot_det5.npy'
p1728
F1.1667
F0.0102
F38.8427
F0.243
F0.7335
F0.007
F128.0
tp1729
a(S'bvert_4MeV_neg30tilt_135rot_det6.npy'
p1730
F0.7884
F0.0067
F29.0562
F0.1315
F0.4884
F0.0045
F184.0
tp1731
a(S'bvert_4MeV_neg30tilt_135rot_det7.npy'
p1732
F0.459
F0.0047
F25.7142
F0.111
F0.2739
F0.003
F182.0
tp1733
a(S'bvert_4MeV_neg30tilt_135rot_det8.npy'
p1734
F0.2217
F0.0027
F25.8927
F0.1018
F0.1305
F0.0016
F138.0
tp1735
a(S'bvert_4MeV_neg30tilt_135rot_det9.npy'
p1736
F0.0847
F0.0011
F23.891
F0.0929
F0.0534
F0.0006
F134.0
tp1737
a(S'bvert_4MeV_neg30tilt_15rot_det10.npy'
p1738
F0.0901
F0.0012
F22.2618
F0.1068
F0.0574
F0.0007
F135.0
tp1739
a(S'bvert_4MeV_neg30tilt_15rot_det11.npy'
p1740
F0.2246
F0.0028
F26.7573
F0.1116
F0.1319
F0.0016
F139.0
tp1741
a(S'bvert_4MeV_neg30tilt_15rot_det12.npy'
p1742
F0.4489
F0.0039
F26.6199
F0.1061
F0.2673
F0.0025
F175.0
tp1743
a(S'bvert_4MeV_neg30tilt_15rot_det13.npy'
p1744
F0.7406
F0.0059
F31.5249
F0.1486
F0.4564
F0.004
F144.0
tp1745
a(S'bvert_4MeV_neg30tilt_15rot_det14.npy'
p1746
F1.039
F0.0088
F41.0295
F0.2285
F0.6565
F0.0062
F115.0
tp1747
a(S'bvert_4MeV_neg30tilt_15rot_det15.npy'
p1748
F1.338
F0.0149
F64.7379
F0.4805
F0.8655
F0.0104
F83.0
tp1749
a(S'bvert_4MeV_neg30tilt_15rot_det4.npy'
p1750
F1.5453
F0.014
F63.349
F0.5109
F1.0055
F0.01
F74.0
tp1751
a(S'bvert_4MeV_neg30tilt_15rot_det5.npy'
p1752
F1.2025
F0.0102
F39.1382
F0.214
F0.763
F0.0072
F127.0
tp1753
a(S'bvert_4MeV_neg30tilt_15rot_det6.npy'
p1754
F0.8642
F0.0073
F29.3102
F0.1356
F0.5317
F0.0051
F154.0
tp1755
a(S'bvert_4MeV_neg30tilt_15rot_det7.npy'
p1756
F0.5288
F0.0052
F25.6586
F0.1312
F0.3143
F0.0033
F145.0
tp1757
a(S'bvert_4MeV_neg30tilt_15rot_det8.npy'
p1758
F0.2708
F0.0029
F25.8272
F0.0946
F0.1584
F0.0018
F145.0
tp1759
a(S'bvert_4MeV_neg30tilt_15rot_det9.npy'
p1760
F0.1017
F0.0012
F23.6183
F0.0888
F0.0637
F0.0007
F155.0
tp1761
a(S'bvert_4MeV_neg30tilt_25rot_det10.npy'
p1762
F0.0911
F0.0012
F22.0394
F0.1047
F0.0581
F0.0007
F141.0
tp1763
a(S'bvert_4MeV_neg30tilt_25rot_det11.npy'
p1764
F0.2313
F0.0027
F26.7295
F0.1148
F0.1369
F0.0016
F123.0
tp1765
a(S'bvert_4MeV_neg30tilt_25rot_det12.npy'
p1766
F0.4564
F0.0046
F26.8315
F0.1158
F0.2744
F0.003
F141.0
tp1767
a(S'bvert_4MeV_neg30tilt_25rot_det13.npy'
p1768
F0.7366
F0.0064
F31.6591
F0.1408
F0.4526
F0.0043
F160.0
tp1769
a(S'bvert_4MeV_neg30tilt_25rot_det14.npy'
p1770
F1.0397
F0.0102
F41.2469
F0.2202
F0.6594
F0.0071
F115.0
tp1771
a(S'bvert_4MeV_neg30tilt_25rot_det15.npy'
p1772
F1.3447
F0.0124
F64.1208
F0.4249
F0.8714
F0.0089
F94.0
tp1773
a(S'bvert_4MeV_neg30tilt_25rot_det4.npy'
p1774
F1.4601
F0.0174
F63.4963
F0.4598
F0.9454
F0.0121
F62.0
tp1775
a(S'bvert_4MeV_neg30tilt_25rot_det5.npy'
p1776
F1.1474
F0.0117
F39.2989
F0.256
F0.7325
F0.0083
F101.0
tp1777
a(S'bvert_4MeV_neg30tilt_25rot_det6.npy'
p1778
F0.8486
F0.0077
F29.2059
F0.1498
F0.5246
F0.0052
F140.0
tp1779
a(S'bvert_4MeV_neg30tilt_25rot_det7.npy'
p1780
F0.5236
F0.0051
F25.5053
F0.111
F0.3134
F0.0033
F147.0
tp1781
a(S'bvert_4MeV_neg30tilt_25rot_det8.npy'
p1782
F0.268
F0.0028
F25.8286
F0.0965
F0.1579
F0.0017
F145.0
tp1783
a(S'bvert_4MeV_neg30tilt_25rot_det9.npy'
p1784
F0.1013
F0.0014
F23.907
F0.1079
F0.0639
F0.0008
F127.0
tp1785
a(S'bvert_4MeV_neg30tilt_315rot_det10.npy'
p1786
F0.0873
F0.0011
F22.1858
F0.0891
F0.055
F0.0006
F158.0
tp1787
a(S'bvert_4MeV_neg30tilt_315rot_det11.npy'
p1788
F0.2311
F0.0028
F26.7219
F0.109
F0.1363
F0.0016
F142.0
tp1789
a(S'bvert_4MeV_neg30tilt_315rot_det12.npy'
p1790
F0.4825
F0.005
F26.6145
F0.1046
F0.2908
F0.0032
F163.0
tp1791
a(S'bvert_4MeV_neg30tilt_315rot_det13.npy'
p1792
F0.8548
F0.0068
F31.4193
F0.136
F0.532
F0.0047
F143.0
tp1793
a(S'bvert_4MeV_neg30tilt_315rot_det14.npy'
p1794
F1.2223
F0.0105
F40.8195
F0.2576
F0.7774
F0.0073
F111.0
tp1795
a(S'bvert_4MeV_neg30tilt_315rot_det15.npy'
p1796
F1.5928
F0.017
F64.2322
F0.5775
F1.0234
F0.0125
F67.0
tp1797
a(S'bvert_4MeV_neg30tilt_315rot_det4.npy'
p1798
F1.5496
F0.022
F65.5261
F0.6142
F0.9848
F0.0156
F59.0
tp1799
a(S'bvert_4MeV_neg30tilt_315rot_det5.npy'
p1800
F1.1957
F0.0104
F39.0186
F0.1957
F0.7526
F0.0072
F113.0
tp1801
a(S'bvert_4MeV_neg30tilt_315rot_det6.npy'
p1802
F0.8203
F0.007
F29.2701
F0.149
F0.507
F0.0046
F138.0
tp1803
a(S'bvert_4MeV_neg30tilt_315rot_det7.npy'
p1804
F0.4711
F0.0043
F25.6663
F0.1222
F0.2814
F0.0028
F143.0
tp1805
a(S'bvert_4MeV_neg30tilt_315rot_det8.npy'
p1806
F0.2292
F0.0025
F25.9221
F0.0904
F0.1344
F0.0015
F144.0
tp1807
a(S'bvert_4MeV_neg30tilt_315rot_det9.npy'
p1808
F0.0898
F0.001
F23.7648
F0.0897
F0.0562
F0.0006
F176.0
tp1809
a(S'bvert_4MeV_neg30tilt_335rot_det10.npy'
p1810
F0.0841
F0.001
F22.1279
F0.0843
F0.0528
F0.0005
F183.0
tp1811
a(S'bvert_4MeV_neg30tilt_335rot_det11.npy'
p1812
F0.216
F0.0024
F26.7623
F0.105
F0.1264
F0.0014
F163.0
tp1813
a(S'bvert_4MeV_neg30tilt_335rot_det12.npy'
p1814
F0.4608
F0.0044
F26.6143
F0.1133
F0.2762
F0.0029
F167.0
tp1815
a(S'bvert_4MeV_neg30tilt_335rot_det13.npy'
p1816
F0.7787
F0.0062
F31.4314
F0.1407
F0.4838
F0.0041
F155.0
tp1817
a(S'bvert_4MeV_neg30tilt_335rot_det14.npy'
p1818
F1.1443
F0.011
F40.9021
F0.2136
F0.7325
F0.0075
F121.0
tp1819
a(S'bvert_4MeV_neg30tilt_335rot_det15.npy'
p1820
F1.5147
F0.015
F64.8865
F0.4939
F0.9817
F0.0105
F78.0
tp1821
a(S'bvert_4MeV_neg30tilt_335rot_det4.npy'
p1822
F1.5999
F0.015
F62.9925
F0.5095
F1.0097
F0.0105
F76.0
tp1823
a(S'bvert_4MeV_neg30tilt_335rot_det5.npy'
p1824
F1.2811
F0.0106
F39.1836
F0.2502
F0.7964
F0.0071
F110.0
tp1825
a(S'bvert_4MeV_neg30tilt_335rot_det6.npy'
p1826
F0.8802
F0.0079
F29.3312
F0.1558
F0.5376
F0.0053
F136.0
tp1827
a(S'bvert_4MeV_neg30tilt_335rot_det7.npy'
p1828
F0.5097
F0.0051
F25.7404
F0.1067
F0.3054
F0.0032
F162.0
tp1829
a(S'bvert_4MeV_neg30tilt_335rot_det8.npy'
p1830
F0.2528
F0.0025
F25.6547
F0.0911
F0.149
F0.0015
F157.0
tp1831
a(S'bvert_4MeV_neg30tilt_335rot_det9.npy'
p1832
F0.0928
F0.0013
F23.6861
F0.091
F0.0586
F0.0007
F159.0
tp1833
a(S'bvert_4MeV_neg30tilt_345rot_det10.npy'
p1834
F0.0826
F0.001
F22.3304
F0.1096
F0.0527
F0.0005
F147.0
tp1835
a(S'bvert_4MeV_neg30tilt_345rot_det11.npy'
p1836
F0.2144
F0.0025
F26.8495
F0.11
F0.1254
F0.0015
F162.0
tp1837
a(S'bvert_4MeV_neg30tilt_345rot_det12.npy'
p1838
F0.4453
F0.0038
F26.6035
F0.1096
F0.2667
F0.0024
F170.0
tp1839
a(S'bvert_4MeV_neg30tilt_345rot_det13.npy'
p1840
F0.7696
F0.0065
F31.7647
F0.1414
F0.4762
F0.0044
F158.0
tp1841
a(S'bvert_4MeV_neg30tilt_345rot_det14.npy'
p1842
F1.0953
F0.0091
F41.0618
F0.2227
F0.7002
F0.0064
F140.0
tp1843
a(S'bvert_4MeV_neg30tilt_345rot_det15.npy'
p1844
F1.4696
F0.0164
F64.7385
F0.4748
F0.9563
F0.0118
F90.0
tp1845
a(S'bvert_4MeV_neg30tilt_345rot_det4.npy'
p1846
F1.6015
F0.0172
F63.8024
F0.4885
F1.016
F0.0121
F83.0
tp1847
a(S'bvert_4MeV_neg30tilt_345rot_det5.npy'
p1848
F1.2763
F0.0112
F38.8644
F0.2627
F0.7952
F0.0075
F118.0
tp1849
a(S'bvert_4MeV_neg30tilt_345rot_det6.npy'
p1850
F0.8978
F0.0072
F29.039
F0.1405
F0.546
F0.0047
F162.0
tp1851
a(S'bvert_4MeV_neg30tilt_345rot_det7.npy'
p1852
F0.5255
F0.0047
F25.7763
F0.1091
F0.3127
F0.003
F170.0
tp1853
a(S'bvert_4MeV_neg30tilt_345rot_det8.npy'
p1854
F0.2471
F0.0027
F25.7949
F0.0931
F0.1459
F0.0017
F168.0
tp1855
a(S'bvert_4MeV_neg30tilt_345rot_det9.npy'
p1856
F0.0976
F0.0013
F23.9476
F0.0938
F0.0611
F0.0007
F147.0
tp1857
a(S'bvert_4MeV_neg30tilt_355rot_det10.npy'
p1858
F0.0863
F0.0011
F22.1913
F0.0889
F0.0544
F0.0006
F164.0
tp1859
a(S'bvert_4MeV_neg30tilt_355rot_det11.npy'
p1860
F0.2174
F0.0025
F26.6716
F0.1086
F0.1277
F0.0014
F141.0
tp1861
a(S'bvert_4MeV_neg30tilt_355rot_det12.npy'
p1862
F0.4392
F0.0043
F26.5697
F0.0986
F0.2629
F0.0028
F166.0
tp1863
a(S'bvert_4MeV_neg30tilt_355rot_det13.npy'
p1864
F0.7338
F0.0064
F31.6489
F0.1492
F0.4525
F0.0045
F147.0
tp1865
a(S'bvert_4MeV_neg30tilt_355rot_det14.npy'
p1866
F1.0871
F0.0093
F41.0959
F0.2221
F0.6934
F0.0066
F132.0
tp1867
a(S'bvert_4MeV_neg30tilt_355rot_det15.npy'
p1868
F1.3958
F0.0138
F64.2897
F0.5078
F0.9085
F0.0102
F85.0
tp1869
a(S'bvert_4MeV_neg30tilt_355rot_det4.npy'
p1870
F1.5992
F0.0137
F62.9988
F0.4535
F1.0242
F0.0094
F94.0
tp1871
a(S'bvert_4MeV_neg30tilt_355rot_det5.npy'
p1872
F1.2688
F0.0124
F38.9111
F0.2559
F0.7977
F0.0086
F106.0
tp1873
a(S'bvert_4MeV_neg30tilt_355rot_det6.npy'
p1874
F0.885
F0.0083
F29.226
F0.1553
F0.5386
F0.0057
F123.0
tp1875
a(S'bvert_4MeV_neg30tilt_355rot_det7.npy'
p1876
F0.5253
F0.0052
F25.7132
F0.125
F0.3113
F0.0033
F136.0
tp1877
a(S'bvert_4MeV_neg30tilt_355rot_det8.npy'
p1878
F0.2602
F0.0027
F25.8908
F0.0836
F0.1531
F0.0016
F168.0
tp1879
a(S'bvert_4MeV_neg30tilt_355rot_det9.npy'
p1880
F0.0968
F0.0012
F23.7595
F0.0937
F0.0612
F0.0007
F134.0
tp1881
a(S'bvert_4MeV_neg30tilt_35rot_det10.npy'
p1882
F0.0915
F0.0012
F22.1748
F0.1033
F0.0582
F0.0007
F154.0
tp1883
a(S'bvert_4MeV_neg30tilt_35rot_det11.npy'
p1884
F0.2385
F0.0028
F26.4283
F0.0961
F0.1407
F0.0016
F159.0
tp1885
a(S'bvert_4MeV_neg30tilt_35rot_det12.npy'
p1886
F0.4677
F0.0042
F26.7497
F0.0965
F0.28
F0.0027
F183.0
tp1887
a(S'bvert_4MeV_neg30tilt_35rot_det13.npy'
p1888
F0.7515
F0.0065
F31.4614
F0.1305
F0.4634
F0.0044
F172.0
tp1889
a(S'bvert_4MeV_neg30tilt_35rot_det14.npy'
p1890
F1.0573
F0.0087
F41.2689
F0.2067
F0.6718
F0.0062
F146.0
tp1891
a(S'bvert_4MeV_neg30tilt_35rot_det15.npy'
p1892
F1.3072
F0.0126
F64.8032
F0.4761
F0.843
F0.009
F95.0
tp1893
a(S'bvert_4MeV_neg30tilt_35rot_det4.npy'
p1894
F1.3924
F0.0122
F62.5943
F0.4104
F0.9054
F0.0089
F116.0
tp1895
a(S'bvert_4MeV_neg30tilt_35rot_det5.npy'
p1896
F1.1316
F0.0091
F38.9863
F0.1971
F0.7212
F0.0064
F149.0
tp1897
a(S'bvert_4MeV_neg30tilt_35rot_det6.npy'
p1898
F0.8192
F0.0068
F29.2969
F0.1369
F0.5101
F0.0047
F171.0
tp1899
a(S'bvert_4MeV_neg30tilt_35rot_det7.npy'
p1900
F0.5118
F0.0049
F25.5436
F0.1139
F0.3068
F0.0031
F159.0
tp1901
a(S'bvert_4MeV_neg30tilt_35rot_det8.npy'
p1902
F0.2604
F0.0028
F25.6814
F0.0992
F0.1537
F0.0018
F155.0
tp1903
a(S'bvert_4MeV_neg30tilt_35rot_det9.npy'
p1904
F0.1
F0.0013
F23.715
F0.0969
F0.0631
F0.0007
F151.0
tp1905
a(S'bvert_4MeV_neg30tilt_45rot_det10.npy'
p1906
F0.0977
F0.0012
F22.1909
F0.1022
F0.0619
F0.0007
F153.0
tp1907
a(S'bvert_4MeV_neg30tilt_45rot_det11.npy'
p1908
F0.2456
F0.0026
F26.5272
F0.1067
F0.1449
F0.0016
F150.0
tp1909
a(S'bvert_4MeV_neg30tilt_45rot_det12.npy'
p1910
F0.4921
F0.0044
F26.6189
F0.1071
F0.2943
F0.0029
F149.0
tp1911
a(S'bvert_4MeV_neg30tilt_45rot_det13.npy'
p1912
F0.7912
F0.0066
F31.4949
F0.1426
F0.4899
F0.0043
F138.0
tp1913
a(S'bvert_4MeV_neg30tilt_45rot_det14.npy'
p1914
F1.0878
F0.0096
F41.2083
F0.2252
F0.6903
F0.0067
F127.0
tp1915
a(S'bvert_4MeV_neg30tilt_45rot_det15.npy'
p1916
F1.3322
F0.0154
F64.9542
F0.5388
F0.8642
F0.0114
F71.0
tp1917
a(S'bvert_4MeV_neg30tilt_45rot_det4.npy'
p1918
F1.3645
F0.0145
F63.2596
F0.5183
F0.8863
F0.0107
F79.0
tp1919
a(S'bvert_4MeV_neg30tilt_45rot_det5.npy'
p1920
F1.1146
F0.0098
F39.255
F0.2448
F0.7116
F0.0069
F101.0
tp1921
a(S'bvert_4MeV_neg30tilt_45rot_det6.npy'
p1922
F0.792
F0.0069
F28.9345
F0.1378
F0.4923
F0.0046
F140.0
tp1923
a(S'bvert_4MeV_neg30tilt_45rot_det7.npy'
p1924
F0.4977
F0.0044
F25.4172
F0.1052
F0.301
F0.0029
F150.0
tp1925
a(S'bvert_4MeV_neg30tilt_45rot_det8.npy'
p1926
F0.2514
F0.0024
F25.8632
F0.0873
F0.1484
F0.0015
F161.0
tp1927
a(S'bvert_4MeV_neg30tilt_45rot_det9.npy'
p1928
F0.0981
F0.0014
F23.7771
F0.1086
F0.0623
F0.0008
F123.0
tp1929
a(S'bvert_4MeV_neg30tilt_55rot_det10.npy'
p1930
F0.0995
F0.0014
F22.3513
F0.1143
F0.0627
F0.0008
F112.0
tp1931
a(S'bvert_4MeV_neg30tilt_55rot_det11.npy'
p1932
F0.2565
F0.003
F26.5831
F0.0954
F0.1515
F0.0018
F119.0
tp1933
a(S'bvert_4MeV_neg30tilt_55rot_det12.npy'
p1934
F0.4973
F0.005
F26.863
F0.1345
F0.2974
F0.0032
F141.0
tp1935
a(S'bvert_4MeV_neg30tilt_55rot_det13.npy'
p1936
F0.7953
F0.008
F31.657
F0.1604
F0.4904
F0.0056
F106.0
tp1937
a(S'bvert_4MeV_neg30tilt_55rot_det14.npy'
p1938
F1.0952
F0.0121
F41.1072
F0.3116
F0.6967
F0.0083
F73.0
tp1939
a(S'bvert_4MeV_neg30tilt_55rot_det15.npy'
p1940
F1.4034
F0.0162
F65.4586
F0.6006
F0.9092
F0.0116
F57.0
tp1941
a(S'bvert_4MeV_neg30tilt_55rot_det4.npy'
p1942
F1.3263
F0.0155
F63.2862
F0.5605
F0.8576
F0.011
F63.0
tp1943
a(S'bvert_4MeV_neg30tilt_55rot_det5.npy'
p1944
F1.0949
F0.0092
F39.0899
F0.2566
F0.6975
F0.0065
F89.0
tp1945
a(S'bvert_4MeV_neg30tilt_55rot_det6.npy'
p1946
F0.7616
F0.0083
F29.2179
F0.1669
F0.4717
F0.0056
F113.0
tp1947
a(S'bvert_4MeV_neg30tilt_55rot_det7.npy'
p1948
F0.4754
F0.0043
F25.4784
F0.1219
F0.2873
F0.0027
F127.0
tp1949
a(S'bvert_4MeV_neg30tilt_55rot_det8.npy'
p1950
F0.2408
F0.0032
F25.8087
F0.1012
F0.1431
F0.002
F108.0
tp1951
a(S'bvert_4MeV_neg30tilt_55rot_det9.npy'
p1952
F0.1003
F0.0012
F23.8386
F0.1023
F0.0628
F0.0006
F114.0
tp1953
a(S'bvert_4MeV_neg30tilt_5rot_det10.npy'
p1954
F0.0867
F0.0011
F22.313
F0.0875
F0.0552
F0.0006
F160.0
tp1955
a(S'bvert_4MeV_neg30tilt_5rot_det11.npy'
p1956
F0.2204
F0.0027
F26.6456
F0.0949
F0.1301
F0.0017
F152.0
tp1957
a(S'bvert_4MeV_neg30tilt_5rot_det12.npy'
p1958
F0.4432
F0.0041
F26.7719
F0.1085
F0.2638
F0.0025
F154.0
tp1959
a(S'bvert_4MeV_neg30tilt_5rot_det13.npy'
p1960
F0.7284
F0.0062
F31.5583
F0.1423
F0.4494
F0.0042
F161.0
tp1961
a(S'bvert_4MeV_neg30tilt_5rot_det14.npy'
p1962
F1.0655
F0.0092
F40.9041
F0.2237
F0.6777
F0.0066
F125.0
tp1963
a(S'bvert_4MeV_neg30tilt_5rot_det15.npy'
p1964
F1.3562
F0.0163
F65.4633
F0.529
F0.8793
F0.0113
F73.0
tp1965
a(S'bvert_4MeV_neg30tilt_5rot_det4.npy'
p1966
F1.5408
F0.0156
F63.0716
F0.5385
F0.997
F0.0107
F70.0
tp1967
a(S'bvert_4MeV_neg30tilt_5rot_det5.npy'
p1968
F1.2308
F0.0121
F39.2217
F0.2517
F0.7735
F0.0081
F111.0
tp1969
a(S'bvert_4MeV_neg30tilt_5rot_det6.npy'
p1970
F0.8913
F0.0078
F29.3569
F0.161
F0.5434
F0.0053
F135.0
tp1971
a(S'bvert_4MeV_neg30tilt_5rot_det7.npy'
p1972
F0.5488
F0.005
F25.5758
F0.1123
F0.3265
F0.0033
F151.0
tp1973
a(S'bvert_4MeV_neg30tilt_5rot_det8.npy'
p1974
F0.2603
F0.0027
F25.7397
F0.094
F0.1527
F0.0016
F142.0
tp1975
a(S'bvert_4MeV_neg30tilt_5rot_det9.npy'
p1976
F0.0962
F0.0014
F23.6243
F0.1081
F0.0611
F0.0008
F103.0
tp1977
a(S'bvert_4MeV_neg30tilt_75rot_det10.npy'
p1978
F0.0995
F0.0012
F21.9875
F0.099
F0.0629
F0.0007
F143.0
tp1979
a(S'bvert_4MeV_neg30tilt_75rot_det11.npy'
p1980
F0.2675
F0.0025
F26.6211
F0.1021
F0.1563
F0.0015
F143.0
tp1981
a(S'bvert_4MeV_neg30tilt_75rot_det12.npy'
p1982
F0.5375
F0.0045
F26.6123
F0.1043
F0.3202
F0.0028
F172.0
tp1983
a(S'bvert_4MeV_neg30tilt_75rot_det13.npy'
p1984
F0.8768
F0.0065
F31.5357
F0.1322
F0.5384
F0.0044
F170.0
tp1985
a(S'bvert_4MeV_neg30tilt_75rot_det14.npy'
p1986
F1.2092
F0.0099
F40.8787
F0.2469
F0.7634
F0.007
F99.0
tp1987
a(S'bvert_4MeV_neg30tilt_75rot_det15.npy'
p1988
F1.4431
F0.0168
F64.1834
F0.5572
F0.9283
F0.0118
F69.0
tp1989
a(S'bvert_4MeV_neg30tilt_75rot_det4.npy'
p1990
F1.3487
F0.0118
F62.854
F0.4579
F0.8728
F0.0083
F109.0
tp1991
a(S'bvert_4MeV_neg30tilt_75rot_det5.npy'
p1992
F1.0421
F0.0077
F38.8383
F0.2288
F0.6594
F0.0054
F130.0
tp1993
a(S'bvert_4MeV_neg30tilt_75rot_det6.npy'
p1994
F0.743
F0.0052
F29.1105
F0.1239
F0.4593
F0.0036
F186.0
tp1995
a(S'bvert_4MeV_neg30tilt_75rot_det7.npy'
p1996
F0.4423
F0.0035
F25.7831
F0.1105
F0.2654
F0.0023
F178.0
tp1997
a(S'bvert_4MeV_neg30tilt_75rot_det8.npy'
p1998
F0.2272
F0.0024
F25.708
F0.0981
F0.135
F0.0014
F168.0
tp1999
a(S'bvert_4MeV_neg30tilt_75rot_det9.npy'
p2000
F0.0911
F0.0012
F23.9022
F0.0987
F0.0578
F0.0006
F151.0
tp2001
a(S'bvert_4MeV_neg30tilt_95rot_det10.npy'
p2002
F0.099
F0.0012
F22.0318
F0.0966
F0.0622
F0.0007
F130.0
tp2003
a(S'bvert_4MeV_neg30tilt_95rot_det11.npy'
p2004
F0.2565
F0.0028
F26.7294
F0.1021
F0.1519
F0.0017
F159.0
tp2005
a(S'bvert_4MeV_neg30tilt_95rot_det12.npy'
p2006
F0.5443
F0.0052
F26.5955
F0.11
F0.3244
F0.0033
F144.0
tp2007
a(S'bvert_4MeV_neg30tilt_95rot_det13.npy'
p2008
F0.8868
F0.008
F31.6464
F0.1496
F0.5403
F0.0052
F143.0
tp2009
a(S'bvert_4MeV_neg30tilt_95rot_det14.npy'
p2010
F1.2739
F0.0111
F40.7752
F0.2489
F0.7971
F0.0075
F83.0
tp2011
a(S'bvert_4MeV_neg30tilt_95rot_det15.npy'
p2012
F1.5683
F0.0167
F63.5392
F0.5374
F0.9959
F0.0114
F76.0
tp2013
a(S'bvert_4MeV_neg30tilt_95rot_det4.npy'
p2014
F1.3945
F0.0129
F62.1484
F0.5193
F0.9059
F0.0091
F80.0
tp2015
a(S'bvert_4MeV_neg30tilt_95rot_det5.npy'
p2016
F1.0504
F0.0097
F38.9171
F0.2494
F0.6671
F0.0068
F111.0
tp2017
a(S'bvert_4MeV_neg30tilt_95rot_det6.npy'
p2018
F0.7245
F0.0067
F29.2195
F0.1417
F0.4447
F0.0045
F136.0
tp2019
a(S'bvert_4MeV_neg30tilt_95rot_det7.npy'
p2020
F0.4306
F0.0041
F25.7594
F0.1137
F0.2569
F0.0027
F153.0
tp2021
a(S'bvert_4MeV_neg30tilt_95rot_det8.npy'
p2022
F0.2158
F0.0023
F25.7974
F0.0837
F0.1278
F0.0014
F167.0
tp2023
a(S'bvert_4MeV_neg30tilt_95rot_det9.npy'
p2024
F0.0886
F0.0011
F23.7557
F0.0836
F0.0555
F0.0006
F166.0
tp2025
a(S'bvert_4MeV_neg45tilt_115rot_det10.npy'
p2026
F0.098
F0.0013
F22.4195
F0.0907
F0.0617
F0.0007
F145.0
tp2027
a(S'bvert_4MeV_neg45tilt_115rot_det11.npy'
p2028
F0.2672
F0.0033
F26.5892
F0.0982
F0.1581
F0.0021
F125.0
tp2029
a(S'bvert_4MeV_neg45tilt_115rot_det12.npy'
p2030
F0.5276
F0.0044
F26.9009
F0.1036
F0.3158
F0.0029
F171.0
tp2031
a(S'bvert_4MeV_neg45tilt_115rot_det13.npy'
p2032
F0.8852
F0.0072
F32.1002
F0.1452
F0.5434
F0.0048
F135.0
tp2033
a(S'bvert_4MeV_neg45tilt_115rot_det14.npy'
p2034
F1.2879
F0.0106
F41.202
F0.2057
F0.807
F0.007
F128.0
tp2035
a(S'bvert_4MeV_neg45tilt_115rot_det15.npy'
p2036
F1.6271
F0.0152
F65.5303
F0.5251
F1.03
F0.0096
F79.0
tp2037
a(S'bvert_4MeV_neg45tilt_115rot_det4.npy'
p2038
F1.4817
F0.0159
F62.5814
F0.487
F0.949
F0.0111
F95.0
tp2039
a(S'bvert_4MeV_neg45tilt_115rot_det5.npy'
p2040
F1.1419
F0.0107
F38.1347
F0.2254
F0.7223
F0.0073
F120.0
tp2041
a(S'bvert_4MeV_neg45tilt_115rot_det6.npy'
p2042
F0.7721
F0.0077
F28.9329
F0.1536
F0.4751
F0.0052
F138.0
tp2043
a(S'bvert_4MeV_neg45tilt_115rot_det7.npy'
p2044
F0.4591
F0.0042
F25.5139
F0.112
F0.274
F0.0027
F170.0
tp2045
a(S'bvert_4MeV_neg45tilt_115rot_det8.npy'
p2046
F0.2234
F0.0024
F25.8706
F0.1005
F0.1303
F0.0015
F163.0
tp2047
a(S'bvert_4MeV_neg45tilt_115rot_det9.npy'
p2048
F0.0865
F0.001
F24.0034
F0.093
F0.0544
F0.0005
F167.0
tp2049
a(S'bvert_4MeV_neg45tilt_135rot_det10.npy'
p2050
F0.0956
F0.0013
F22.4292
F0.1057
F0.0594
F0.0007
F129.0
tp2051
a(S'bvert_4MeV_neg45tilt_135rot_det11.npy'
p2052
F0.254
F0.0023
F26.8258
F0.1011
F0.1505
F0.0014
F155.0
tp2053
a(S'bvert_4MeV_neg45tilt_135rot_det12.npy'
p2054
F0.5063
F0.0043
F26.8052
F0.1096
F0.3055
F0.0029
F175.0
tp2055
a(S'bvert_4MeV_neg45tilt_135rot_det13.npy'
p2056
F0.8711
F0.0072
F31.9002
F0.1239
F0.5399
F0.0047
F178.0
tp2057
a(S'bvert_4MeV_neg45tilt_135rot_det14.npy'
p2058
F1.2621
F0.0097
F41.8542
F0.2286
F0.7983
F0.0068
F119.0
tp2059
a(S'bvert_4MeV_neg45tilt_135rot_det15.npy'
p2060
F1.6071
F0.017
F66.1809
F0.7256
F1.0299
F0.0124
F52.0
tp2061
a(S'bvert_4MeV_neg45tilt_135rot_det4.npy'
p2062
F1.5714
F0.0156
F61.478
F0.4469
F1.0009
F0.0106
F83.0
tp2063
a(S'bvert_4MeV_neg45tilt_135rot_det5.npy'
p2064
F1.2232
F0.0108
F38.3755
F0.2561
F0.7681
F0.0075
F113.0
tp2065
a(S'bvert_4MeV_neg45tilt_135rot_det6.npy'
p2066
F0.8249
F0.0062
F28.7102
F0.1304
F0.5082
F0.0042
F174.0
tp2067
a(S'bvert_4MeV_neg45tilt_135rot_det7.npy'
p2068
F0.4727
F0.0044
F25.55
F0.1059
F0.2832
F0.0029
F171.0
tp2069
a(S'bvert_4MeV_neg45tilt_135rot_det8.npy'
p2070
F0.2294
F0.0025
F25.885
F0.1014
F0.1344
F0.0015
F156.0
tp2071
a(S'bvert_4MeV_neg45tilt_135rot_det9.npy'
p2072
F0.0882
F0.001
F23.801
F0.095
F0.0557
F0.0006
F167.0
tp2073
a(S'bvert_4MeV_neg45tilt_15rot_det10.npy'
p2074
F0.0892
F0.0012
F22.176
F0.1098
F0.0565
F0.0007
F132.0
tp2075
a(S'bvert_4MeV_neg45tilt_15rot_det11.npy'
p2076
F0.2299
F0.0028
F26.7158
F0.1113
F0.1349
F0.0017
F131.0
tp2077
a(S'bvert_4MeV_neg45tilt_15rot_det12.npy'
p2078
F0.4637
F0.0051
F26.8224
F0.1121
F0.2762
F0.0032
F153.0
tp2079
a(S'bvert_4MeV_neg45tilt_15rot_det13.npy'
p2080
F0.7735
F0.0076
F31.485
F0.1596
F0.4773
F0.0051
F130.0
tp2081
a(S'bvert_4MeV_neg45tilt_15rot_det14.npy'
p2082
F1.1109
F0.011
F40.6555
F0.2237
F0.7032
F0.0075
F105.0
tp2083
a(S'bvert_4MeV_neg45tilt_15rot_det15.npy'
p2084
F1.4224
F0.0172
F64.9964
F0.6695
F0.9214
F0.012
F65.0
tp2085
a(S'bvert_4MeV_neg45tilt_15rot_det4.npy'
p2086
F1.4889
F0.0201
F63.0982
F0.6763
F0.958
F0.0138
F56.0
tp2087
a(S'bvert_4MeV_neg45tilt_15rot_det5.npy'
p2088
F1.2233
F0.0105
F39.1556
F0.2487
F0.771
F0.0073
F111.0
tp2089
a(S'bvert_4MeV_neg45tilt_15rot_det6.npy'
p2090
F0.8799
F0.0079
F29.4526
F0.1662
F0.539
F0.0053
F131.0
tp2091
a(S'bvert_4MeV_neg45tilt_15rot_det7.npy'
p2092
F0.5352
F0.0055
F25.5947
F0.1241
F0.3159
F0.0035
F146.0
tp2093
a(S'bvert_4MeV_neg45tilt_15rot_det8.npy'
p2094
F0.2683
F0.0029
F25.8202
F0.1017
F0.1579
F0.0018
F149.0
tp2095
a(S'bvert_4MeV_neg45tilt_15rot_det9.npy'
p2096
F0.1007
F0.0014
F23.9203
F0.104
F0.0629
F0.0007
F124.0
tp2097
a(S'bvert_4MeV_neg45tilt_25rot_det10.npy'
p2098
F0.0941
F0.0013
F22.3521
F0.1053
F0.0595
F0.0007
F127.0
tp2099
a(S'bvert_4MeV_neg45tilt_25rot_det11.npy'
p2100
F0.2409
F0.0027
F26.7305
F0.1064
F0.1406
F0.0017
F134.0
tp2101
a(S'bvert_4MeV_neg45tilt_25rot_det12.npy'
p2102
F0.4592
F0.0047
F26.6668
F0.12
F0.2747
F0.003
F154.0
tp2103
a(S'bvert_4MeV_neg45tilt_25rot_det13.npy'
p2104
F0.7798
F0.0067
F31.3799
F0.1463
F0.4819
F0.0045
F152.0
tp2105
a(S'bvert_4MeV_neg45tilt_25rot_det14.npy'
p2106
F1.0933
F0.0089
F40.7712
F0.2201
F0.6955
F0.0062
F128.0
tp2107
a(S'bvert_4MeV_neg45tilt_25rot_det15.npy'
p2108
F1.3931
F0.0169
F64.6836
F0.5275
F0.9026
F0.0121
F74.0
tp2109
a(S'bvert_4MeV_neg45tilt_25rot_det4.npy'
p2110
F1.4637
F0.0177
F63.0824
F0.5144
F0.9527
F0.0122
F75.0
tp2111
a(S'bvert_4MeV_neg45tilt_25rot_det5.npy'
p2112
F1.1976
F0.0105
F38.3075
F0.217
F0.7611
F0.0073
F122.0
tp2113
a(S'bvert_4MeV_neg45tilt_25rot_det6.npy'
p2114
F0.8589
F0.0079
F28.7124
F0.1534
F0.5292
F0.0053
F122.0
tp2115
a(S'bvert_4MeV_neg45tilt_25rot_det7.npy'
p2116
F0.5266
F0.0051
F25.7429
F0.1088
F0.3153
F0.0032
F159.0
tp2117
a(S'bvert_4MeV_neg45tilt_25rot_det8.npy'
p2118
F0.2683
F0.0031
F25.811
F0.1042
F0.1564
F0.0019
F128.0
tp2119
a(S'bvert_4MeV_neg45tilt_25rot_det9.npy'
p2120
F0.0985
F0.0013
F24.1225
F0.1101
F0.0626
F0.0007
F124.0
tp2121
a(S'bvert_4MeV_neg45tilt_315rot_det10.npy'
p2122
F0.0911
F0.0013
F22.0411
F0.1017
F0.0571
F0.0007
F136.0
tp2123
a(S'bvert_4MeV_neg45tilt_315rot_det11.npy'
p2124
F0.2383
F0.0026
F26.6267
F0.0951
F0.1401
F0.0015
F162.0
tp2125
a(S'bvert_4MeV_neg45tilt_315rot_det12.npy'
p2126
F0.498
F0.0049
F26.346
F0.1043
F0.2984
F0.0032
F173.0
tp2127
a(S'bvert_4MeV_neg45tilt_315rot_det13.npy'
p2128
F0.8328
F0.008
F31.4443
F0.1602
F0.5166
F0.0051
F128.0
tp2129
a(S'bvert_4MeV_neg45tilt_315rot_det14.npy'
p2130
F1.2267
F0.0093
F40.7852
F0.2628
F0.7723
F0.0067
F107.0
tp2131
a(S'bvert_4MeV_neg45tilt_315rot_det15.npy'
p2132
F1.5972
F0.0153
F64.6314
F0.5473
F1.0225
F0.0105
F77.0
tp2133
a(S'bvert_4MeV_neg45tilt_315rot_det4.npy'
p2134
F1.5815
F0.0158
F64.3384
F0.5293
F1.0051
F0.0109
F86.0
tp2135
a(S'bvert_4MeV_neg45tilt_315rot_det5.npy'
p2136
F1.2162
F0.01
F39.1263
F0.2325
F0.765
F0.007
F116.0
tp2137
a(S'bvert_4MeV_neg45tilt_315rot_det6.npy'
p2138
F0.8416
F0.0079
F29.5672
F0.1476
F0.5158
F0.0052
F138.0
tp2139
a(S'bvert_4MeV_neg45tilt_315rot_det7.npy'
p2140
F0.5021
F0.0042
F25.8628
F0.1152
F0.3008
F0.0027
F161.0
tp2141
a(S'bvert_4MeV_neg45tilt_315rot_det8.npy'
p2142
F0.2493
F0.0025
F25.8424
F0.0908
F0.1467
F0.0015
F137.0
tp2143
a(S'bvert_4MeV_neg45tilt_315rot_det9.npy'
p2144
F0.0938
F0.0012
F23.901
F0.0944
F0.0584
F0.0006
F151.0
tp2145
a(S'bvert_4MeV_neg45tilt_335rot_det10.npy'
p2146
F0.0869
F0.0011
F22.0974
F0.0867
F0.0545
F0.0006
F164.0
tp2147
a(S'bvert_4MeV_neg45tilt_335rot_det11.npy'
p2148
F0.2264
F0.0022
F26.6531
F0.1
F0.1319
F0.0013
F169.0
tp2149
a(S'bvert_4MeV_neg45tilt_335rot_det12.npy'
p2150
F0.47
F0.0042
F26.5588
F0.1072
F0.281
F0.0027
F175.0
tp2151
a(S'bvert_4MeV_neg45tilt_335rot_det13.npy'
p2152
F0.8178
F0.0065
F31.5044
F0.1427
F0.5058
F0.0045
F143.0
tp2153
a(S'bvert_4MeV_neg45tilt_335rot_det14.npy'
p2154
F1.1722
F0.0094
F40.8931
F0.2155
F0.7468
F0.0066
F111.0
tp2155
a(S'bvert_4MeV_neg45tilt_335rot_det15.npy'
p2156
F1.5162
F0.0193
F65.648
F0.6444
F0.9767
F0.0135
F48.0
tp2157
a(S'bvert_4MeV_neg45tilt_335rot_det4.npy'
p2158
F1.6276
F0.0202
F63.9425
F0.6517
F1.0299
F0.0136
F64.0
tp2159
a(S'bvert_4MeV_neg45tilt_335rot_det5.npy'
p2160
F1.2661
F0.0113
F39.3503
F0.2152
F0.7894
F0.0075
F125.0
tp2161
a(S'bvert_4MeV_neg45tilt_335rot_det6.npy'
p2162
F0.8823
F0.0075
F29.5326
F0.1552
F0.54
F0.005
F141.0
tp2163
a(S'bvert_4MeV_neg45tilt_335rot_det7.npy'
p2164
F0.5109
F0.0047
F25.9867
F0.1149
F0.3055
F0.003
F144.0
tp2165
a(S'bvert_4MeV_neg45tilt_335rot_det8.npy'
p2166
F0.2554
F0.0029
F25.7214
F0.0992
F0.151
F0.0018
F127.0
tp2167
a(S'bvert_4MeV_neg45tilt_335rot_det9.npy'
p2168
F0.0961
F0.0014
F23.9246
F0.104
F0.0604
F0.0007
F133.0
tp2169
a(S'bvert_4MeV_neg45tilt_345rot_det10.npy'
p2170
F0.0897
F0.0012
F22.0879
F0.1002
F0.0559
F0.0006
F137.0
tp2171
a(S'bvert_4MeV_neg45tilt_345rot_det11.npy'
p2172
F0.2294
F0.0026
F26.581
F0.1047
F0.1336
F0.0015
F157.0
tp2173
a(S'bvert_4MeV_neg45tilt_345rot_det12.npy'
p2174
F0.4671
F0.0046
F26.4262
F0.113
F0.278
F0.0028
F143.0
tp2175
a(S'bvert_4MeV_neg45tilt_345rot_det13.npy'
p2176
F0.7799
F0.0071
F31.3909
F0.1589
F0.4821
F0.0048
F140.0
tp2177
a(S'bvert_4MeV_neg45tilt_345rot_det14.npy'
p2178
F1.1538
F0.0102
F41.3259
F0.2505
F0.7345
F0.0071
F113.0
tp2179
a(S'bvert_4MeV_neg45tilt_345rot_det15.npy'
p2180
F1.4867
F0.0166
F64.4823
F0.4871
F0.963
F0.0119
F71.0
tp2181
a(S'bvert_4MeV_neg45tilt_345rot_det4.npy'
p2182
F1.6031
F0.0161
F63.5616
F0.5319
F1.013
F0.0107
F86.0
tp2183
a(S'bvert_4MeV_neg45tilt_345rot_det5.npy'
p2184
F1.2979
F0.0103
F39.1888
F0.2366
F0.8163
F0.0071
F115.0
tp2185
a(S'bvert_4MeV_neg45tilt_345rot_det6.npy'
p2186
F0.896
F0.0087
F29.35
F0.1764
F0.5432
F0.0057
F118.0
tp2187
a(S'bvert_4MeV_neg45tilt_345rot_det7.npy'
p2188
F0.5352
F0.0046
F25.7609
F0.113
F0.3184
F0.0028
F164.0
tp2189
a(S'bvert_4MeV_neg45tilt_345rot_det8.npy'
p2190
F0.2606
F0.0029
F25.8605
F0.096
F0.1522
F0.0016
F153.0
tp2191
a(S'bvert_4MeV_neg45tilt_345rot_det9.npy'
p2192
F0.0978
F0.0012
F23.754
F0.0951
F0.0612
F0.0007
F142.0
tp2193
a(S'bvert_4MeV_neg45tilt_355rot_det10.npy'
p2194
F0.0892
F0.0012
F22.1966
F0.098
F0.056
F0.0006
F141.0
tp2195
a(S'bvert_4MeV_neg45tilt_355rot_det11.npy'
p2196
F0.226
F0.0026
F26.6917
F0.1029
F0.1315
F0.0015
F134.0
tp2197
a(S'bvert_4MeV_neg45tilt_355rot_det12.npy'
p2198
F0.4677
F0.0049
F26.487
F0.1163
F0.2795
F0.0031
F141.0
tp2199
a(S'bvert_4MeV_neg45tilt_355rot_det13.npy'
p2200
F0.7751
F0.0062
F31.4011
F0.1321
F0.478
F0.0042
F174.0
tp2201
a(S'bvert_4MeV_neg45tilt_355rot_det14.npy'
p2202
F1.132
F0.0101
F40.6473
F0.2382
F0.7178
F0.0072
F92.0
tp2203
a(S'bvert_4MeV_neg45tilt_355rot_det15.npy'
p2204
F1.4656
F0.0183
F65.9868
F0.5919
F0.9503
F0.0139
F55.0
tp2205
a(S'bvert_4MeV_neg45tilt_355rot_det4.npy'
p2206
F1.5784
F0.0169
F63.7735
F0.5785
F1.0095
F0.012
F71.0
tp2207
a(S'bvert_4MeV_neg45tilt_355rot_det5.npy'
p2208
F1.2786
F0.0112
F39.606
F0.254
F0.798
F0.0078
F125.0
tp2209
a(S'bvert_4MeV_neg45tilt_355rot_det6.npy'
p2210
F0.912
F0.0077
F29.5296
F0.1536
F0.555
F0.0049
F139.0
tp2211
a(S'bvert_4MeV_neg45tilt_355rot_det7.npy'
p2212
F0.5465
F0.0048
F25.6546
F0.1163
F0.3254
F0.0031
F151.0
tp2213
a(S'bvert_4MeV_neg45tilt_355rot_det8.npy'
p2214
F0.2629
F0.0029
F25.837
F0.0908
F0.1542
F0.0018
F131.0
tp2215
a(S'bvert_4MeV_neg45tilt_355rot_det9.npy'
p2216
F0.0966
F0.0013
F23.7026
F0.0975
F0.0614
F0.0007
F150.0
tp2217
a(S'bvert_4MeV_neg45tilt_35rot_det10.npy'
p2218
F0.0918
F0.0012
F22.2351
F0.104
F0.0579
F0.0006
F137.0
tp2219
a(S'bvert_4MeV_neg45tilt_35rot_det11.npy'
p2220
F0.2431
F0.0029
F26.7373
F0.1015
F0.1433
F0.0017
F140.0
tp2221
a(S'bvert_4MeV_neg45tilt_35rot_det12.npy'
p2222
F0.4891
F0.0048
F26.4638
F0.1379
F0.2924
F0.003
F123.0
tp2223
a(S'bvert_4MeV_neg45tilt_35rot_det13.npy'
p2224
F0.7984
F0.0065
F31.4943
F0.1458
F0.4898
F0.0044
F158.0
tp2225
a(S'bvert_4MeV_neg45tilt_35rot_det14.npy'
p2226
F1.1186
F0.0092
F40.5479
F0.2676
F0.7071
F0.0062
F99.0
tp2227
a(S'bvert_4MeV_neg45tilt_35rot_det15.npy'
p2228
F1.4332
F0.0138
F63.393
F0.5325
F0.9287
F0.0096
F75.0
tp2229
a(S'bvert_4MeV_neg45tilt_35rot_det4.npy'
p2230
F1.4507
F0.0165
F62.2273
F0.5051
F0.9406
F0.0119
F67.0
tp2231
a(S'bvert_4MeV_neg45tilt_35rot_det5.npy'
p2232
F1.2007
F0.0091
F38.9573
F0.2519
F0.7652
F0.0064
F117.0
tp2233
a(S'bvert_4MeV_neg45tilt_35rot_det6.npy'
p2234
F0.836
F0.0074
F28.9745
F0.1646
F0.5163
F0.005
F111.0
tp2235
a(S'bvert_4MeV_neg45tilt_35rot_det7.npy'
p2236
F0.518
F0.0046
F25.738
F0.1148
F0.311
F0.0031
F148.0
tp2237
a(S'bvert_4MeV_neg45tilt_35rot_det8.npy'
p2238
F0.2634
F0.0027
F25.8522
F0.098
F0.1548
F0.0017
F137.0
tp2239
a(S'bvert_4MeV_neg45tilt_35rot_det9.npy'
p2240
F0.0998
F0.0015
F23.813
F0.0964
F0.0627
F0.0008
F125.0
tp2241
a(S'bvert_4MeV_neg45tilt_45rot_det10.npy'
p2242
F0.0985
F0.0013
F22.2372
F0.1118
F0.0624
F0.0008
F122.0
tp2243
a(S'bvert_4MeV_neg45tilt_45rot_det11.npy'
p2244
F0.2428
F0.0033
F26.471
F0.1157
F0.1441
F0.002
F124.0
tp2245
a(S'bvert_4MeV_neg45tilt_45rot_det12.npy'
p2246
F0.493
F0.0053
F26.8233
F0.1405
F0.2943
F0.0035
F127.0
tp2247
a(S'bvert_4MeV_neg45tilt_45rot_det13.npy'
p2248
F0.8086
F0.0066
F31.6435
F0.1378
F0.4978
F0.0046
F160.0
tp2249
a(S'bvert_4MeV_neg45tilt_45rot_det14.npy'
p2250
F1.1548
F0.0097
F41.0611
F0.26
F0.7323
F0.007
F103.0
tp2251
a(S'bvert_4MeV_neg45tilt_45rot_det15.npy'
p2252
F1.3988
F0.0145
F64.8022
F0.4301
F0.897
F0.0104
F85.0
tp2253
a(S'bvert_4MeV_neg45tilt_45rot_det4.npy'
p2254
F1.4182
F0.0185
F63.2311
F0.5525
F0.914
F0.0128
F71.0
tp2255
a(S'bvert_4MeV_neg45tilt_45rot_det5.npy'
p2256
F1.1606
F0.0096
F38.9378
F0.2177
F0.7395
F0.0069
F113.0
tp2257
a(S'bvert_4MeV_neg45tilt_45rot_det6.npy'
p2258
F0.8281
F0.0062
F29.2075
F0.1542
F0.5129
F0.0043
F131.0
tp2259
a(S'bvert_4MeV_neg45tilt_45rot_det7.npy'
p2260
F0.501
F0.005
F25.7492
F0.1157
F0.3016
F0.0032
F152.0
tp2261
a(S'bvert_4MeV_neg45tilt_45rot_det8.npy'
p2262
F0.2517
F0.0034
F25.7711
F0.1028
F0.1489
F0.002
F124.0
tp2263
a(S'bvert_4MeV_neg45tilt_45rot_det9.npy'
p2264
F0.0984
F0.0013
F23.9284
F0.0986
F0.0618
F0.0007
F135.0
tp2265
a(S'bvert_4MeV_neg45tilt_55rot_det10.npy'
p2266
F0.0992
F0.0014
F22.1636
F0.1061
F0.0614
F0.0007
F118.0
tp2267
a(S'bvert_4MeV_neg45tilt_55rot_det11.npy'
p2268
F0.2611
F0.0035
F26.7939
F0.1241
F0.1534
F0.0021
F121.0
tp2269
a(S'bvert_4MeV_neg45tilt_55rot_det12.npy'
p2270
F0.5104
F0.0049
F26.7463
F0.1137
F0.3041
F0.0032
F145.0
tp2271
a(S'bvert_4MeV_neg45tilt_55rot_det13.npy'
p2272
F0.8285
F0.0083
F31.3806
F0.1538
F0.509
F0.0056
F126.0
tp2273
a(S'bvert_4MeV_neg45tilt_55rot_det14.npy'
p2274
F1.1578
F0.0116
F41.042
F0.2806
F0.7284
F0.0078
F84.0
tp2275
a(S'bvert_4MeV_neg45tilt_55rot_det15.npy'
p2276
F1.4296
F0.0174
F63.7573
F0.6176
F0.9237
F0.0121
F63.0
tp2277
a(S'bvert_4MeV_neg45tilt_55rot_det4.npy'
p2278
F1.411
F0.0164
F62.433
F0.4735
F0.9143
F0.0122
F78.0
tp2279
a(S'bvert_4MeV_neg45tilt_55rot_det5.npy'
p2280
F1.1054
F0.0123
F39.0833
F0.2566
F0.7031
F0.0088
F101.0
tp2281
a(S'bvert_4MeV_neg45tilt_55rot_det6.npy'
p2282
F0.7974
F0.0067
F29.0378
F0.1559
F0.4938
F0.0046
F119.0
tp2283
a(S'bvert_4MeV_neg45tilt_55rot_det7.npy'
p2284
F0.4878
F0.0045
F25.3804
F0.1234
F0.2926
F0.0028
F143.0
tp2285
a(S'bvert_4MeV_neg45tilt_55rot_det8.npy'
p2286
F0.247
F0.0031
F25.7973
F0.12
F0.1459
F0.0018
F117.0
tp2287
a(S'bvert_4MeV_neg45tilt_55rot_det9.npy'
p2288
F0.0998
F0.0012
F23.8865
F0.1004
F0.0628
F0.0006
F128.0
tp2289
a(S'bvert_4MeV_neg45tilt_5rot_det10.npy'
p2290
F0.0893
F0.0011
F22.1722
F0.0952
F0.0561
F0.0006
F161.0
tp2291
a(S'bvert_4MeV_neg45tilt_5rot_det11.npy'
p2292
F0.2265
F0.0024
F26.6108
F0.0917
F0.1334
F0.0014
F161.0
tp2293
a(S'bvert_4MeV_neg45tilt_5rot_det12.npy'
p2294
F0.465
F0.004
F26.7399
F0.1226
F0.2776
F0.0026
F163.0
tp2295
a(S'bvert_4MeV_neg45tilt_5rot_det13.npy'
p2296
F0.772
F0.0061
F31.1297
F0.1423
F0.4777
F0.0042
F154.0
tp2297
a(S'bvert_4MeV_neg45tilt_5rot_det14.npy'
p2298
F1.1143
F0.0101
F40.8802
F0.2058
F0.7091
F0.0075
F120.0
tp2299
a(S'bvert_4MeV_neg45tilt_5rot_det15.npy'
p2300
F1.4266
F0.0147
F64.5267
F0.6236
F0.9231
F0.0101
F67.0
tp2301
a(S'bvert_4MeV_neg45tilt_5rot_det4.npy'
p2302
F1.563
F0.0145
F62.9272
F0.5273
F1.0034
F0.0098
F83.0
tp2303
a(S'bvert_4MeV_neg45tilt_5rot_det5.npy'
p2304
F1.2414
F0.0119
F38.8001
F0.23
F0.7828
F0.0081
F119.0
tp2305
a(S'bvert_4MeV_neg45tilt_5rot_det6.npy'
p2306
F0.8813
F0.0077
F29.0926
F0.1693
F0.5386
F0.005
F111.0
tp2307
a(S'bvert_4MeV_neg45tilt_5rot_det7.npy'
p2308
F0.5449
F0.0051
F25.6441
F0.1093
F0.3232
F0.0033
F146.0
tp2309
a(S'bvert_4MeV_neg45tilt_5rot_det8.npy'
p2310
F0.2682
F0.0029
F25.9033
F0.1068
F0.1574
F0.0017
F152.0
tp2311
a(S'bvert_4MeV_neg45tilt_5rot_det9.npy'
p2312
F0.0996
F0.0014
F23.8259
F0.1065
F0.0628
F0.0008
F132.0
tp2313
a(S'bvert_4MeV_neg45tilt_75rot_det10.npy'
p2314
F0.0996
F0.0014
F22.2526
F0.1139
F0.0627
F0.0008
F120.0
tp2315
a(S'bvert_4MeV_neg45tilt_75rot_det11.npy'
p2316
F0.272
F0.0029
F26.633
F0.0975
F0.1586
F0.0017
F160.0
tp2317
a(S'bvert_4MeV_neg45tilt_75rot_det12.npy'
p2318
F0.5414
F0.0053
F26.9871
F0.1173
F0.3223
F0.0033
F147.0
tp2319
a(S'bvert_4MeV_neg45tilt_75rot_det13.npy'
p2320
F0.8816
F0.0081
F31.8778
F0.1619
F0.5401
F0.0053
F131.0
tp2321
a(S'bvert_4MeV_neg45tilt_75rot_det14.npy'
p2322
F1.2369
F0.0111
F41.1442
F0.2091
F0.7786
F0.0076
F111.0
tp2323
a(S'bvert_4MeV_neg45tilt_75rot_det15.npy'
p2324
F1.5324
F0.0168
F63.8392
F0.5089
F0.9851
F0.012
F61.0
tp2325
a(S'bvert_4MeV_neg45tilt_75rot_det4.npy'
p2326
F1.405
F0.014
F61.964
F0.4706
F0.9072
F0.0096
F92.0
tp2327
a(S'bvert_4MeV_neg45tilt_75rot_det5.npy'
p2328
F1.0758
F0.0104
F38.9179
F0.2255
F0.6836
F0.0071
F127.0
tp2329
a(S'bvert_4MeV_neg45tilt_75rot_det6.npy'
p2330
F0.7685
F0.0065
F28.8024
F0.1399
F0.474
F0.0043
F145.0
tp2331
a(S'bvert_4MeV_neg45tilt_75rot_det7.npy'
p2332
F0.4641
F0.0045
F25.7351
F0.1203
F0.2774
F0.0029
F157.0
tp2333
a(S'bvert_4MeV_neg45tilt_75rot_det8.npy'
p2334
F0.2347
F0.0026
F25.8008
F0.0966
F0.1383
F0.0015
F150.0
tp2335
a(S'bvert_4MeV_neg45tilt_75rot_det9.npy'
p2336
F0.0929
F0.0013
F24.0164
F0.1017
F0.0581
F0.0007
F131.0
tp2337
a(S'bvert_4MeV_neg45tilt_95rot_det10.npy'
p2338
F0.0981
F0.0014
F22.3456
F0.1049
F0.0619
F0.0008
F123.0
tp2339
a(S'bvert_4MeV_neg45tilt_95rot_det11.npy'
p2340
F0.2602
F0.003
F26.8073
F0.1093
F0.1535
F0.0019
F142.0
tp2341
a(S'bvert_4MeV_neg45tilt_95rot_det12.npy'
p2342
F0.5391
F0.0048
F26.8533
F0.1037
F0.3212
F0.0031
F162.0
tp2343
a(S'bvert_4MeV_neg45tilt_95rot_det13.npy'
p2344
F0.8984
F0.0076
F31.7397
F0.1402
F0.5455
F0.0052
F142.0
tp2345
a(S'bvert_4MeV_neg45tilt_95rot_det14.npy'
p2346
F1.2625
F0.0121
F41.6198
F0.246
F0.7846
F0.0081
F104.0
tp2347
a(S'bvert_4MeV_neg45tilt_95rot_det15.npy'
p2348
F1.5838
F0.0196
F64.4087
F0.5793
F1.011
F0.0138
F64.0
tp2349
a(S'bvert_4MeV_neg45tilt_95rot_det4.npy'
p2350
F1.3975
F0.0174
F62.3612
F0.4928
F0.8969
F0.0125
F79.0
tp2351
a(S'bvert_4MeV_neg45tilt_95rot_det5.npy'
p2352
F1.0918
F0.0101
F38.7904
F0.2389
F0.69
F0.0069
F120.0
tp2353
a(S'bvert_4MeV_neg45tilt_95rot_det6.npy'
p2354
F0.7673
F0.0064
F28.9599
F0.1391
F0.472
F0.0044
F144.0
tp2355
a(S'bvert_4MeV_neg45tilt_95rot_det7.npy'
p2356
F0.4481
F0.0046
F25.5515
F0.1229
F0.2664
F0.0029
F150.0
tp2357
a(S'bvert_4MeV_neg45tilt_95rot_det8.npy'
p2358
F0.224
F0.0026
F25.9329
F0.0983
F0.1311
F0.0015
F149.0
tp2359
a(S'bvert_4MeV_neg45tilt_95rot_det9.npy'
p2360
F0.0876
F0.0013
F23.9006
F0.1017
F0.0554
F0.0007
F129.0
tp2361
a.