(lp0
(S'filename'
p1
S'ql_mean'
p2
S'ql_abs_uncert'
p3
S'tof_mean'
p4
S'tof_abs_uncert'
p5
S'qs_mean'
p6
S'qs_abs_uncert'
p7
S'counts'
p8
tp9
a(S'cpvert_4MeV_0tilt_115rot_det10.npy'
p10
F0.0763
F0.0013
F24.3825
F0.097
F0.0366
F0.0007
cnumpy.core.multiarray
scalar
p11
(cnumpy
dtype
p12
(S'f8'
p13
I0
I1
tp14
Rp15
(I3
S'<'
p16
NNNI-1
I-1
I0
tp17
bS'\x00\x00\x00\x00\x00@e@'
p18
tp19
Rp20
tp21
a(S'cpvert_4MeV_0tilt_115rot_det11.npy'
p22
F0.2497
F0.0029
F28.7854
F0.101
F0.1336
F0.0018
g11
(g15
S'\x00\x00\x00\x00\x00``@'
p23
tp24
Rp25
tp26
a(S'cpvert_4MeV_0tilt_115rot_det12.npy'
p27
F0.5561
F0.0048
F28.6547
F0.1029
F0.3211
F0.0032
g11
(g15
S'\x00\x00\x00\x00\x00\xc0a@'
p28
tp29
Rp30
tp31
a(S'cpvert_4MeV_0tilt_115rot_det13.npy'
p32
F0.9224
F0.0071
F33.4929
F0.1302
F0.5553
F0.0047
g11
(g15
S'\x00\x00\x00\x00\x00\x80c@'
p33
tp34
Rp35
tp36
a(S'cpvert_4MeV_0tilt_115rot_det14.npy'
p37
F1.3314
F0.0121
F43.7471
F0.2253
F0.8228
F0.0077
g11
(g15
S'\x00\x00\x00\x00\x00\x80[@'
p38
tp39
Rp40
tp41
a(S'cpvert_4MeV_0tilt_115rot_det15.npy'
p42
F1.6566
F0.0205
F67.2112
F0.4465
F1.0455
F0.0139
g11
(g15
S'\x00\x00\x00\x00\x00\x80T@'
p43
tp44
Rp45
tp46
a(S'cpvert_4MeV_0tilt_115rot_det4.npy'
p47
F1.6479
F0.0175
F64.5708
F0.4704
F1.0495
F0.0124
g11
(g15
S'\x00\x00\x00\x00\x00\x00T@'
p48
tp49
Rp50
tp51
a(S'cpvert_4MeV_0tilt_115rot_det5.npy'
p52
F1.2945
F0.0121
F41.1818
F0.199
F0.8095
F0.0083
g11
(g15
S'\x00\x00\x00\x00\x00@_@'
p53
tp54
Rp55
tp56
a(S'cpvert_4MeV_0tilt_115rot_det6.npy'
p57
F0.8923
F0.0076
F31.3968
F0.1186
F0.541
F0.005
g11
(g15
S'\x00\x00\x00\x00\x00\x80d@'
p58
tp59
Rp60
tp61
a(S'cpvert_4MeV_0tilt_115rot_det7.npy'
p62
F0.5254
F0.0054
F27.7098
F0.1014
F0.3018
F0.0034
g11
(g15
S'\x00\x00\x00\x00\x00\x00b@'
p63
tp64
Rp65
tp66
a(S'cpvert_4MeV_0tilt_115rot_det8.npy'
p67
F0.2432
F0.0035
F28.1006
F0.0905
F0.13
F0.0021
g11
(g15
S'\x00\x00\x00\x00\x00\xe0c@'
p68
tp69
Rp70
tp71
a(S'cpvert_4MeV_0tilt_115rot_det9.npy'
p72
F0.0772
F0.0013
F25.7507
F0.0753
F0.0363
F0.0007
g11
(g15
S'\x00\x00\x00\x00\x00\x80d@'
p73
tp74
Rp75
tp76
a(S'cpvert_4MeV_0tilt_135rot_det10.npy'
p77
F0.0768
F0.0014
F24.3384
F0.0985
F0.0362
F0.0007
g11
(g15
S'\x00\x00\x00\x00\x00@b@'
p78
tp79
Rp80
tp81
a(S'cpvert_4MeV_0tilt_135rot_det11.npy'
p82
F0.2424
F0.0028
F28.7656
F0.0989
F0.1299
F0.0016
g11
(g15
S'\x00\x00\x00\x00\x00 b@'
p83
tp84
Rp85
tp86
a(S'cpvert_4MeV_0tilt_135rot_det12.npy'
p87
F0.5255
F0.0054
F28.7377
F0.0956
F0.3026
F0.0034
g11
(g15
S'\x00\x00\x00\x00\x00 d@'
p88
tp89
Rp90
tp91
a(S'cpvert_4MeV_0tilt_135rot_det13.npy'
p92
F0.9231
F0.0092
F33.7251
F0.1573
F0.5589
F0.0064
g11
(g15
S'\x00\x00\x00\x00\x00\xa0`@'
p93
tp94
Rp95
tp96
a(S'cpvert_4MeV_0tilt_135rot_det14.npy'
p97
F1.3048
F0.0131
F43.427
F0.2299
F0.8156
F0.0086
g11
(g15
S'\x00\x00\x00\x00\x00\x00Z@'
p98
tp99
Rp100
tp101
a(S'cpvert_4MeV_0tilt_135rot_det15.npy'
p102
F1.7106
F0.019
F66.2015
F0.54
F1.0794
F0.0136
g11
(g15
S'\x00\x00\x00\x00\x00\xc0P@'
p103
tp104
Rp105
tp106
a(S'cpvert_4MeV_0tilt_135rot_det4.npy'
p107
F1.6415
F0.0193
F65.9716
F0.5989
F1.0371
F0.0131
g11
(g15
S'\x00\x00\x00\x00\x00\x00R@'
p108
tp109
Rp110
tp111
a(S'cpvert_4MeV_0tilt_135rot_det5.npy'
p112
F1.3144
F0.0112
F41.2433
F0.2208
F0.821
F0.0078
g11
(g15
S'\x00\x00\x00\x00\x00\x00]@'
p113
tp114
Rp115
tp116
a(S'cpvert_4MeV_0tilt_135rot_det6.npy'
p117
F0.9205
F0.0075
F31.0834
F0.1302
F0.5571
F0.0053
g11
(g15
S'\x00\x00\x00\x00\x00\x00[@'
p118
tp119
Rp120
tp121
a(S'cpvert_4MeV_0tilt_135rot_det7.npy'
p122
F0.5286
F0.0051
F27.9039
F0.1029
F0.3048
F0.0032
g11
(g15
S'\x00\x00\x00\x00\x00\x80c@'
p123
tp124
Rp125
tp126
a(S'cpvert_4MeV_0tilt_135rot_det8.npy'
p127
F0.2466
F0.003
F27.8957
F0.0932
F0.1309
F0.0019
g11
(g15
S'\x00\x00\x00\x00\x00 c@'
p128
tp129
Rp130
tp131
a(S'cpvert_4MeV_0tilt_135rot_det9.npy'
p132
F0.0749
F0.0014
F25.6889
F0.0955
F0.0355
F0.0008
g11
(g15
S'\x00\x00\x00\x00\x00\x80b@'
p133
tp134
Rp135
tp136
a(S'cpvert_4MeV_0tilt_15rot_det10.npy'
p137
F0.0766
F0.0016
F24.4594
F0.102
F0.0375
F0.0008
g11
(g15
S'\x00\x00\x00\x00\x00\x80d@'
p138
tp139
Rp140
tp141
a(S'cpvert_4MeV_0tilt_15rot_det11.npy'
p142
F0.2541
F0.0027
F28.7087
F0.0815
F0.1364
F0.0016
g11
(g15
S'\x00\x00\x00\x00\x00\x00h@'
p143
tp144
Rp145
tp146
a(S'cpvert_4MeV_0tilt_15rot_det12.npy'
p147
F0.5332
F0.005
F28.92
F0.1007
F0.3065
F0.0031
g11
(g15
S'\x00\x00\x00\x00\x00@f@'
p148
tp149
Rp150
tp151
a(S'cpvert_4MeV_0tilt_15rot_det13.npy'
p152
F0.8956
F0.0062
F33.7414
F0.1314
F0.543
F0.0047
g11
(g15
S'\x00\x00\x00\x00\x00\xe0e@'
p153
tp154
Rp155
tp156
a(S'cpvert_4MeV_0tilt_15rot_det14.npy'
p157
F1.268
F0.0109
F43.0546
F0.1959
F0.7983
F0.0077
g11
(g15
S'\x00\x00\x00\x00\x00 b@'
p158
tp159
Rp160
tp161
a(S'cpvert_4MeV_0tilt_15rot_det15.npy'
p162
F1.6139
F0.0144
F66.4904
F0.4749
F1.0361
F0.0102
g11
(g15
S'\x00\x00\x00\x00\x00\x80R@'
p163
tp164
Rp165
tp166
a(S'cpvert_4MeV_0tilt_15rot_det4.npy'
p167
F1.659
F0.0177
F65.3426
F0.5201
F1.0583
F0.012
g11
(g15
S'\x00\x00\x00\x00\x00\x80S@'
p168
tp169
Rp170
tp171
a(S'cpvert_4MeV_0tilt_15rot_det5.npy'
p172
F1.3041
F0.0104
F41.0493
F0.2002
F0.8131
F0.0074
g11
(g15
S'\x00\x00\x00\x00\x00``@'
p173
tp174
Rp175
tp176
a(S'cpvert_4MeV_0tilt_15rot_det6.npy'
p177
F0.9322
F0.0071
F31.2979
F0.131
F0.5611
F0.005
g11
(g15
S'\x00\x00\x00\x00\x00\xc0`@'
p178
tp179
Rp180
tp181
a(S'cpvert_4MeV_0tilt_15rot_det7.npy'
p182
F0.5424
F0.0047
F27.6346
F0.0907
F0.3119
F0.003
g11
(g15
S'\x00\x00\x00\x00\x00 h@'
p183
tp184
Rp185
tp186
a(S'cpvert_4MeV_0tilt_15rot_det8.npy'
p187
F0.2512
F0.0027
F27.9608
F0.0925
F0.1363
F0.0016
g11
(g15
S'\x00\x00\x00\x00\x00`b@'
p188
tp189
Rp190
tp191
a(S'cpvert_4MeV_0tilt_15rot_det9.npy'
p192
F0.079
F0.0013
F25.8016
F0.0892
F0.0395
F0.0007
g11
(g15
S'\x00\x00\x00\x00\x00\xa0e@'
p193
tp194
Rp195
tp196
a(S'cpvert_4MeV_0tilt_25rot_det10.npy'
p197
F0.0794
F0.0014
F24.3803
F0.0934
F0.0386
F0.0007
g11
(g15
S'\x00\x00\x00\x00\x00\xe0c@'
p198
tp199
Rp200
tp201
a(S'cpvert_4MeV_0tilt_25rot_det11.npy'
p202
F0.2559
F0.0027
F28.7937
F0.0882
F0.1396
F0.0017
g11
(g15
S'\x00\x00\x00\x00\x00 e@'
p203
tp204
Rp205
tp206
a(S'cpvert_4MeV_0tilt_25rot_det12.npy'
p207
F0.5255
F0.0052
F28.7836
F0.1011
F0.2997
F0.0033
g11
(g15
S'\x00\x00\x00\x00\x00@f@'
p208
tp209
Rp210
tp211
a(S'cpvert_4MeV_0tilt_25rot_det13.npy'
p212
F0.891
F0.0066
F33.7297
F0.119
F0.5387
F0.0044
g11
(g15
S'\x00\x00\x00\x00\x00\xe0f@'
p213
tp214
Rp215
tp216
a(S'cpvert_4MeV_0tilt_25rot_det14.npy'
p217
F1.2774
F0.0115
F43.2091
F0.1948
F0.8012
F0.0083
g11
(g15
S'\x00\x00\x00\x00\x00\xc0_@'
p218
tp219
Rp220
tp221
a(S'cpvert_4MeV_0tilt_25rot_det15.npy'
p222
F1.6375
F0.0152
F67.0449
F0.4659
F1.0542
F0.0109
g11
(g15
S'\x00\x00\x00\x00\x00\x00T@'
p223
tp224
Rp225
tp226
a(S'cpvert_4MeV_0tilt_25rot_det4.npy'
p227
F1.6131
F0.0173
F65.1966
F0.4551
F1.0294
F0.0119
g11
(g15
S'\x00\x00\x00\x00\x00\x80U@'
p228
tp229
Rp230
tp231
a(S'cpvert_4MeV_0tilt_25rot_det5.npy'
p232
F1.2875
F0.011
F41.0062
F0.188
F0.8045
F0.0075
g11
(g15
S'\x00\x00\x00\x00\x00\x00a@'
p233
tp234
Rp235
tp236
a(S'cpvert_4MeV_0tilt_25rot_det6.npy'
p237
F0.9164
F0.0081
F31.4835
F0.13
F0.5521
F0.0054
g11
(g15
S'\x00\x00\x00\x00\x00\xc0d@'
p238
tp239
Rp240
tp241
a(S'cpvert_4MeV_0tilt_25rot_det7.npy'
p242
F0.5474
F0.005
F27.6586
F0.0983
F0.3165
F0.0031
g11
(g15
S'\x00\x00\x00\x00\x00`e@'
p243
tp244
Rp245
tp246
a(S'cpvert_4MeV_0tilt_25rot_det8.npy'
p247
F0.2571
F0.0025
F27.886
F0.0752
F0.1395
F0.0015
g11
(g15
S'\x00\x00\x00\x00\x00\xe0g@'
p248
tp249
Rp250
tp251
a(S'cpvert_4MeV_0tilt_25rot_det9.npy'
p252
F0.0795
F0.0014
F25.7871
F0.0937
F0.0395
F0.0008
g11
(g15
S'\x00\x00\x00\x00\x00\x00c@'
p253
tp254
Rp255
tp256
a(S'cpvert_4MeV_0tilt_315rot_det10.npy'
p257
F0.0783
F0.0013
F24.3766
F0.0885
F0.0385
F0.0007
g11
(g15
S'\x00\x00\x00\x00\x00\xa0d@'
p258
tp259
Rp260
tp261
a(S'cpvert_4MeV_0tilt_315rot_det11.npy'
p262
F0.2509
F0.0024
F28.7698
F0.084
F0.1348
F0.0015
g11
(g15
S'\x00\x00\x00\x00\x00@i@'
p263
tp264
Rp265
tp266
a(S'cpvert_4MeV_0tilt_315rot_det12.npy'
p267
F0.5534
F0.0045
F28.7177
F0.0979
F0.3196
F0.003
g11
(g15
S'\x00\x00\x00\x00\x00 b@'
p268
tp269
Rp270
tp271
a(S'cpvert_4MeV_0tilt_315rot_det13.npy'
p272
F0.9159
F0.0065
F33.6111
F0.1449
F0.5561
F0.0046
g11
(g15
S'\x00\x00\x00\x00\x00@b@'
p273
tp274
Rp275
tp276
a(S'cpvert_4MeV_0tilt_315rot_det14.npy'
p277
F1.2945
F0.0119
F43.4188
F0.2144
F0.8078
F0.0086
g11
(g15
S'\x00\x00\x00\x00\x00\xc0\\@'
p278
tp279
Rp280
tp281
a(S'cpvert_4MeV_0tilt_315rot_det15.npy'
p282
F1.6531
F0.017
F67.508
F0.4752
F1.0522
F0.0121
g11
(g15
S'\x00\x00\x00\x00\x00\x00T@'
p283
tp284
Rp285
tp286
a(S'cpvert_4MeV_0tilt_315rot_det4.npy'
p287
F1.6331
F0.024
F65.662
F0.5507
F1.0277
F0.0166
g11
(g15
S'\x00\x00\x00\x00\x00\x00S@'
p288
tp289
Rp290
tp291
a(S'cpvert_4MeV_0tilt_315rot_det5.npy'
p292
F1.3752
F0.0116
F40.8583
F0.254
F0.8563
F0.0082
g11
(g15
S'\x00\x00\x00\x00\x00\x00R@'
p293
tp294
Rp295
tp296
a(S'cpvert_4MeV_0tilt_315rot_det6.npy'
p297
F0.917
F0.0078
F31.3273
F0.1232
F0.5505
F0.0052
g11
(g15
S'\x00\x00\x00\x00\x00\xc0d@'
p298
tp299
Rp300
tp301
a(S'cpvert_4MeV_0tilt_315rot_det7.npy'
p302
F0.5396
F0.0049
F27.561
F0.0919
F0.3099
F0.0032
g11
(g15
S'\x00\x00\x00\x00\x00\x00h@'
p303
tp304
Rp305
tp306
a(S'cpvert_4MeV_0tilt_315rot_det8.npy'
p307
F0.2504
F0.0027
F27.9723
F0.0867
F0.1362
F0.0018
g11
(g15
S'\x00\x00\x00\x00\x00\xe0d@'
p308
tp309
Rp310
tp311
a(S'cpvert_4MeV_0tilt_315rot_det9.npy'
p312
F0.0786
F0.0015
F25.8998
F0.0901
F0.0391
F0.0008
g11
(g15
S'\x00\x00\x00\x00\x00\xe0d@'
p313
tp314
Rp315
tp316
a(S'cpvert_4MeV_0tilt_335rot_det10.npy'
p317
F0.0791
F0.0014
F24.4849
F0.0987
F0.0382
F0.0008
g11
(g15
S'\x00\x00\x00\x00\x00\xa0b@'
p318
tp319
Rp320
tp321
a(S'cpvert_4MeV_0tilt_335rot_det11.npy'
p322
F0.2519
F0.0029
F28.9123
F0.0894
F0.1365
F0.0017
g11
(g15
S'\x00\x00\x00\x00\x00\x00d@'
p323
tp324
Rp325
tp326
a(S'cpvert_4MeV_0tilt_335rot_det12.npy'
p327
F0.5342
F0.0052
F28.8968
F0.0888
F0.3079
F0.0033
g11
(g15
S'\x00\x00\x00\x00\x00 e@'
p328
tp329
Rp330
tp331
a(S'cpvert_4MeV_0tilt_335rot_det13.npy'
p332
F0.9058
F0.007
F33.8138
F0.1319
F0.5478
F0.0046
g11
(g15
S'\x00\x00\x00\x00\x00\xe0d@'
p333
tp334
Rp335
tp336
a(S'cpvert_4MeV_0tilt_335rot_det14.npy'
p337
F1.3089
F0.0129
F43.5073
F0.2629
F0.8191
F0.0087
g11
(g15
S'\x00\x00\x00\x00\x00@V@'
p338
tp339
Rp340
tp341
a(S'cpvert_4MeV_0tilt_335rot_det15.npy'
p342
F1.6412
F0.0168
F66.6198
F0.4943
F1.0471
F0.0117
g11
(g15
S'\x00\x00\x00\x00\x00@T@'
p343
tp344
Rp345
tp346
a(S'cpvert_4MeV_0tilt_335rot_det4.npy'
p347
F1.675
F0.019
F64.4485
F0.4841
F1.0534
F0.0126
g11
(g15
S'\x00\x00\x00\x00\x00@S@'
p348
tp349
Rp350
tp351
a(S'cpvert_4MeV_0tilt_335rot_det5.npy'
p352
F1.3602
F0.0118
F40.4958
F0.1949
F0.8397
F0.0078
g11
(g15
S'\x00\x00\x00\x00\x00\xc0]@'
p353
tp354
Rp355
tp356
a(S'cpvert_4MeV_0tilt_335rot_det6.npy'
p357
F0.9175
F0.0079
F31.16
F0.1132
F0.5551
F0.0051
g11
(g15
S'\x00\x00\x00\x00\x00\x00e@'
p358
tp359
Rp360
tp361
a(S'cpvert_4MeV_0tilt_335rot_det7.npy'
p362
F0.5368
F0.0046
F27.6268
F0.0908
F0.3083
F0.003
g11
(g15
S'\x00\x00\x00\x00\x00\xa0f@'
p363
tp364
Rp365
tp366
a(S'cpvert_4MeV_0tilt_335rot_det8.npy'
p367
F0.252
F0.0029
F27.7303
F0.0806
F0.1369
F0.0017
g11
(g15
S'\x00\x00\x00\x00\x00`f@'
p368
tp369
Rp370
tp371
a(S'cpvert_4MeV_0tilt_335rot_det9.npy'
p372
F0.0774
F0.0012
F25.7243
F0.0862
F0.0382
F0.0007
g11
(g15
S'\x00\x00\x00\x00\x00\x00e@'
p373
tp374
Rp375
tp376
a(S'cpvert_4MeV_0tilt_345rot_det10.npy'
p377
F0.0764
F0.0015
F24.3514
F0.1009
F0.0369
F0.0008
g11
(g15
S'\x00\x00\x00\x00\x00\x80c@'
p378
tp379
Rp380
tp381
a(S'cpvert_4MeV_0tilt_345rot_det11.npy'
p382
F0.2527
F0.0029
F28.9324
F0.0945
F0.1373
F0.0018
g11
(g15
S'\x00\x00\x00\x00\x00`d@'
p383
tp384
Rp385
tp386
a(S'cpvert_4MeV_0tilt_345rot_det12.npy'
p387
F0.5358
F0.0048
F28.9992
F0.0961
F0.31
F0.0031
g11
(g15
S'\x00\x00\x00\x00\x00 h@'
p388
tp389
Rp390
tp391
a(S'cpvert_4MeV_0tilt_345rot_det13.npy'
p392
F0.8991
F0.0074
F33.8005
F0.1248
F0.5459
F0.005
g11
(g15
S'\x00\x00\x00\x00\x00\x80e@'
p393
tp394
Rp395
tp396
a(S'cpvert_4MeV_0tilt_345rot_det14.npy'
p397
F1.2973
F0.0113
F43.4104
F0.2129
F0.8115
F0.0079
g11
(g15
S'\x00\x00\x00\x00\x00\x80^@'
p398
tp399
Rp400
tp401
a(S'cpvert_4MeV_0tilt_345rot_det15.npy'
p402
F1.6285
F0.0215
F67.0437
F0.5632
F1.0393
F0.0151
g11
(g15
S'\x00\x00\x00\x00\x00\x80Q@'
p403
tp404
Rp405
tp406
a(S'cpvert_4MeV_0tilt_345rot_det4.npy'
p407
F1.6876
F0.0166
F65.0984
F0.4252
F1.0704
F0.0115
g11
(g15
S'\x00\x00\x00\x00\x00\x80X@'
p408
tp409
Rp410
tp411
a(S'cpvert_4MeV_0tilt_345rot_det5.npy'
p412
F1.3885
F0.0098
F40.2089
F0.2525
F0.8674
F0.0075
g11
(g15
S'\x00\x00\x00\x00\x00\xc0Q@'
p413
tp414
Rp415
tp416
a(S'cpvert_4MeV_0tilt_345rot_det6.npy'
p417
F0.9335
F0.0071
F31.1902
F0.1333
F0.5614
F0.0046
g11
(g15
S'\x00\x00\x00\x00\x00\x00a@'
p418
tp419
Rp420
tp421
a(S'cpvert_4MeV_0tilt_345rot_det7.npy'
p422
F0.5446
F0.0052
F27.6021
F0.0894
F0.314
F0.0033
g11
(g15
S'\x00\x00\x00\x00\x00\x80g@'
p423
tp424
Rp425
tp426
a(S'cpvert_4MeV_0tilt_345rot_det8.npy'
p427
F0.2551
F0.0033
F27.85
F0.0919
F0.1388
F0.002
g11
(g15
S'\x00\x00\x00\x00\x00\xe0a@'
p428
tp429
Rp430
tp431
a(S'cpvert_4MeV_0tilt_345rot_det9.npy'
p432
F0.0767
F0.0013
F25.7114
F0.0864
F0.0378
F0.0007
g11
(g15
S'\x00\x00\x00\x00\x00`e@'
p433
tp434
Rp435
tp436
a(S'cpvert_4MeV_0tilt_355rot_det10.npy'
p437
F0.0762
F0.0017
F24.4397
F0.1037
F0.0369
F0.001
g11
(g15
S'\x00\x00\x00\x00\x00\xc0c@'
p438
tp439
Rp440
tp441
a(S'cpvert_4MeV_0tilt_355rot_det11.npy'
p442
F0.246
F0.0028
F28.8189
F0.0948
F0.1318
F0.0017
g11
(g15
S'\x00\x00\x00\x00\x00`c@'
p443
tp444
Rp445
tp446
a(S'cpvert_4MeV_0tilt_355rot_det12.npy'
p447
F0.5237
F0.0051
F28.9475
F0.1009
F0.3028
F0.0034
g11
(g15
S'\x00\x00\x00\x00\x00\x00d@'
p448
tp449
Rp450
tp451
a(S'cpvert_4MeV_0tilt_355rot_det13.npy'
p452
F0.9005
F0.008
F33.7961
F0.1506
F0.5466
F0.0053
g11
(g15
S'\x00\x00\x00\x00\x00``@'
p453
tp454
Rp455
tp456
a(S'cpvert_4MeV_0tilt_355rot_det14.npy'
p457
F1.2826
F0.0113
F43.557
F0.2281
F0.8038
F0.0081
g11
(g15
S'\x00\x00\x00\x00\x00\x00]@'
p458
tp459
Rp460
tp461
a(S'cpvert_4MeV_0tilt_355rot_det15.npy'
p462
F1.6039
F0.016
F67.1676
F0.5405
F1.0301
F0.0114
g11
(g15
S'\x00\x00\x00\x00\x00\x00R@'
p463
tp464
Rp465
tp466
a(S'cpvert_4MeV_0tilt_355rot_det4.npy'
p467
F1.6527
F0.0194
F66.2631
F0.4973
F1.0482
F0.0132
g11
(g15
S'\x00\x00\x00\x00\x00\xc0Q@'
p468
tp469
Rp470
tp471
a(S'cpvert_4MeV_0tilt_355rot_det5.npy'
p472
F1.3419
F0.0107
F41.0108
F0.226
F0.8266
F0.0072
g11
(g15
S'\x00\x00\x00\x00\x00\x00\\@'
p473
tp474
Rp475
tp476
a(S'cpvert_4MeV_0tilt_355rot_det6.npy'
p477
F0.9296
F0.0074
F31.1979
F0.122
F0.557
F0.0048
g11
(g15
S'\x00\x00\x00\x00\x00@b@'
p478
tp479
Rp480
tp481
a(S'cpvert_4MeV_0tilt_355rot_det7.npy'
p482
F0.5482
F0.0057
F27.5736
F0.0948
F0.3173
F0.0037
g11
(g15
S'\x00\x00\x00\x00\x00\xe0b@'
p483
tp484
Rp485
tp486
a(S'cpvert_4MeV_0tilt_355rot_det8.npy'
p487
F0.2571
F0.003
F27.8438
F0.0848
F0.14
F0.0019
g11
(g15
S'\x00\x00\x00\x00\x00`b@'
p488
tp489
Rp490
tp491
a(S'cpvert_4MeV_0tilt_355rot_det9.npy'
p492
F0.0799
F0.0014
F25.7702
F0.0862
F0.0398
F0.0007
g11
(g15
S'\x00\x00\x00\x00\x00@b@'
p493
tp494
Rp495
tp496
a(S'cpvert_4MeV_0tilt_35rot_det10.npy'
p497
F0.0778
F0.0013
F24.2336
F0.0942
F0.0387
F0.0008
g11
(g15
S'\x00\x00\x00\x00\x00@e@'
p498
tp499
Rp500
tp501
a(S'cpvert_4MeV_0tilt_35rot_det11.npy'
p502
F0.2528
F0.0036
F28.7399
F0.0952
F0.1372
F0.0021
g11
(g15
S'\x00\x00\x00\x00\x00 c@'
p503
tp504
Rp505
tp506
a(S'cpvert_4MeV_0tilt_35rot_det12.npy'
p507
F0.5413
F0.0052
F28.8317
F0.0975
F0.3123
F0.0034
g11
(g15
S'\x00\x00\x00\x00\x00@d@'
p508
tp509
Rp510
tp511
a(S'cpvert_4MeV_0tilt_35rot_det13.npy'
p512
F0.9104
F0.0071
F33.5527
F0.1459
F0.5525
F0.0047
g11
(g15
S'\x00\x00\x00\x00\x00\x00b@'
p513
tp514
Rp515
tp516
a(S'cpvert_4MeV_0tilt_35rot_det14.npy'
p517
F1.2823
F0.0117
F43.208
F0.2326
F0.8078
F0.0086
g11
(g15
S'\x00\x00\x00\x00\x00\x00\\@'
p518
tp519
Rp520
tp521
a(S'cpvert_4MeV_0tilt_35rot_det15.npy'
p522
F1.6047
F0.0191
F66.5673
F0.4291
F1.0273
F0.0131
g11
(g15
S'\x00\x00\x00\x00\x00@V@'
p523
tp524
Rp525
tp526
a(S'cpvert_4MeV_0tilt_35rot_det4.npy'
p527
F1.6299
F0.0169
F65.9246
F0.5246
F1.0363
F0.0114
g11
(g15
S'\x00\x00\x00\x00\x00@S@'
p528
tp529
Rp530
tp531
a(S'cpvert_4MeV_0tilt_35rot_det5.npy'
p532
F1.305
F0.0119
F41.0053
F0.1783
F0.8171
F0.0085
g11
(g15
S'\x00\x00\x00\x00\x00\x80]@'
p533
tp534
Rp535
tp536
a(S'cpvert_4MeV_0tilt_35rot_det6.npy'
p537
F0.902
F0.0076
F31.251
F0.1189
F0.5406
F0.0053
g11
(g15
S'\x00\x00\x00\x00\x00\xc0b@'
p538
tp539
Rp540
tp541
a(S'cpvert_4MeV_0tilt_35rot_det7.npy'
p542
F0.54
F0.006
F27.6738
F0.103
F0.3107
F0.0039
g11
(g15
S'\x00\x00\x00\x00\x00`a@'
p543
tp544
Rp545
tp546
a(S'cpvert_4MeV_0tilt_35rot_det8.npy'
p547
F0.2517
F0.0031
F27.935
F0.0811
F0.1368
F0.0019
g11
(g15
S'\x00\x00\x00\x00\x00`c@'
p548
tp549
Rp550
tp551
a(S'cpvert_4MeV_0tilt_35rot_det9.npy'
p552
F0.078
F0.0014
F25.7351
F0.0981
F0.0386
F0.0008
g11
(g15
S'\x00\x00\x00\x00\x00@b@'
p553
tp554
Rp555
tp556
a(S'cpvert_4MeV_0tilt_45rot_det10.npy'
p557
F0.0773
F0.0014
F24.3331
F0.0858
F0.038
F0.0008
g11
(g15
S'\x00\x00\x00\x00\x00\xc0f@'
p558
tp559
Rp560
tp561
a(S'cpvert_4MeV_0tilt_45rot_det11.npy'
p562
F0.2557
F0.0033
F28.5757
F0.0894
F0.1392
F0.002
g11
(g15
S'\x00\x00\x00\x00\x00\xa0b@'
p563
tp564
Rp565
tp566
a(S'cpvert_4MeV_0tilt_45rot_det12.npy'
p567
F0.5425
F0.0044
F28.7192
F0.0939
F0.3128
F0.0028
g11
(g15
S'\x00\x00\x00\x00\x00\x00f@'
p568
tp569
Rp570
tp571
a(S'cpvert_4MeV_0tilt_45rot_det13.npy'
p572
F0.9022
F0.0073
F33.6456
F0.1195
F0.5449
F0.0049
g11
(g15
S'\x00\x00\x00\x00\x00 f@'
p573
tp574
Rp575
tp576
a(S'cpvert_4MeV_0tilt_45rot_det14.npy'
p577
F1.296
F0.0101
F43.1035
F0.2026
F0.8112
F0.0072
g11
(g15
S'\x00\x00\x00\x00\x00\xe0a@'
p578
tp579
Rp580
tp581
a(S'cpvert_4MeV_0tilt_45rot_det15.npy'
p582
F1.5713
F0.0213
F66.9984
F0.4996
F1.0104
F0.0142
g11
(g15
S'\x00\x00\x00\x00\x00\x80U@'
p583
tp584
Rp585
tp586
a(S'cpvert_4MeV_0tilt_45rot_det4.npy'
p587
F1.6045
F0.016
F65.1931
F0.4961
F1.0285
F0.0116
g11
(g15
S'\x00\x00\x00\x00\x00\x80T@'
p588
tp589
Rp590
tp591
a(S'cpvert_4MeV_0tilt_45rot_det5.npy'
p592
F1.3074
F0.0101
F41.0635
F0.198
F0.8207
F0.007
g11
(g15
S'\x00\x00\x00\x00\x00\x00_@'
p593
tp594
Rp595
tp596
a(S'cpvert_4MeV_0tilt_45rot_det6.npy'
p597
F0.9028
F0.0076
F31.3681
F0.1155
F0.5481
F0.0052
g11
(g15
S'\x00\x00\x00\x00\x00\xa0d@'
p598
tp599
Rp600
tp601
a(S'cpvert_4MeV_0tilt_45rot_det7.npy'
p602
F0.5449
F0.0045
F27.6236
F0.0856
F0.3137
F0.0029
g11
(g15
S'\x00\x00\x00\x00\x00\xe0d@'
p603
tp604
Rp605
tp606
a(S'cpvert_4MeV_0tilt_45rot_det8.npy'
p607
F0.2525
F0.0028
F27.8638
F0.0771
F0.1365
F0.0017
g11
(g15
S'\x00\x00\x00\x00\x00\x80e@'
p608
tp609
Rp610
tp611
a(S'cpvert_4MeV_0tilt_45rot_det9.npy'
p612
F0.0775
F0.0012
F25.7048
F0.0941
F0.0384
F0.0007
g11
(g15
S'\x00\x00\x00\x00\x00@d@'
p613
tp614
Rp615
tp616
a(S'cpvert_4MeV_0tilt_55rot_det10.npy'
p617
F0.0775
F0.0013
F24.2656
F0.0861
F0.0386
F0.0007
g11
(g15
S'\x00\x00\x00\x00\x00 f@'
p618
tp619
Rp620
tp621
a(S'cpvert_4MeV_0tilt_55rot_det11.npy'
p622
F0.2526
F0.0034
F28.9326
F0.0927
F0.1369
F0.002
g11
(g15
S'\x00\x00\x00\x00\x00\xe0d@'
p623
tp624
Rp625
tp626
a(S'cpvert_4MeV_0tilt_55rot_det12.npy'
p627
F0.5412
F0.0049
F28.65
F0.0851
F0.3118
F0.0031
g11
(g15
S'\x00\x00\x00\x00\x00\x80h@'
p628
tp629
Rp630
tp631
a(S'cpvert_4MeV_0tilt_55rot_det13.npy'
p632
F0.9035
F0.007
F33.5229
F0.125
F0.5444
F0.0047
g11
(g15
S'\x00\x00\x00\x00\x00\x00f@'
p633
tp634
Rp635
tp636
a(S'cpvert_4MeV_0tilt_55rot_det14.npy'
p637
F1.2851
F0.0118
F43.3064
F0.194
F0.8042
F0.0081
g11
(g15
S'\x00\x00\x00\x00\x00\xa0a@'
p638
tp639
Rp640
tp641
a(S'cpvert_4MeV_0tilt_55rot_det15.npy'
p642
F1.621
F0.02
F67.4054
F0.4947
F1.0405
F0.0147
g11
(g15
S'\x00\x00\x00\x00\x00\x80S@'
p643
tp644
Rp645
tp646
a(S'cpvert_4MeV_0tilt_55rot_det4.npy'
p647
F1.5827
F0.0188
F65.0781
F0.4311
F1.0133
F0.0133
g11
(g15
S'\x00\x00\x00\x00\x00\x80W@'
p648
tp649
Rp650
tp651
a(S'cpvert_4MeV_0tilt_55rot_det5.npy'
p652
F1.3028
F0.0104
F41.0623
F0.1974
F0.8185
F0.0072
g11
(g15
S'\x00\x00\x00\x00\x00\x80_@'
p653
tp654
Rp655
tp656
a(S'cpvert_4MeV_0tilt_55rot_det6.npy'
p657
F0.9039
F0.0069
F31.3299
F0.1121
F0.5467
F0.0046
g11
(g15
S'\x00\x00\x00\x00\x00`f@'
p658
tp659
Rp660
tp661
a(S'cpvert_4MeV_0tilt_55rot_det7.npy'
p662
F0.5188
F0.0051
F27.9413
F0.1048
F0.2977
F0.0033
g11
(g15
S'\x00\x00\x00\x00\x00\x00e@'
p663
tp664
Rp665
tp666
a(S'cpvert_4MeV_0tilt_55rot_det8.npy'
p667
F0.2538
F0.0029
F27.9336
F0.082
F0.1371
F0.0018
g11
(g15
S'\x00\x00\x00\x00\x00\x00g@'
p668
tp669
Rp670
tp671
a(S'cpvert_4MeV_0tilt_55rot_det9.npy'
p672
F0.0761
F0.0012
F25.7575
F0.0841
F0.0376
F0.0007
g11
(g15
S'\x00\x00\x00\x00\x00@g@'
p673
tp674
Rp675
tp676
a(S'cpvert_4MeV_0tilt_5rot_det10.npy'
p677
F0.0774
F0.0016
F24.3703
F0.1005
F0.0373
F0.0009
g11
(g15
S'\x00\x00\x00\x00\x00\x80`@'
p678
tp679
Rp680
tp681
a(S'cpvert_4MeV_0tilt_5rot_det11.npy'
p682
F0.2486
F0.0032
F28.9337
F0.0966
F0.1333
F0.0019
g11
(g15
S'\x00\x00\x00\x00\x00\xa0b@'
p683
tp684
Rp685
tp686
a(S'cpvert_4MeV_0tilt_5rot_det12.npy'
p687
F0.5367
F0.005
F28.9284
F0.0962
F0.3089
F0.0031
g11
(g15
S'\x00\x00\x00\x00\x00\x00d@'
p688
tp689
Rp690
tp691
a(S'cpvert_4MeV_0tilt_5rot_det13.npy'
p692
F0.8831
F0.0081
F33.8487
F0.1318
F0.5386
F0.0056
g11
(g15
S'\x00\x00\x00\x00\x00\x00a@'
p693
tp694
Rp695
tp696
a(S'cpvert_4MeV_0tilt_5rot_det14.npy'
p697
F1.2921
F0.0131
F43.6363
F0.2377
F0.8103
F0.0094
g11
(g15
S'\x00\x00\x00\x00\x00@Z@'
p698
tp699
Rp700
tp701
a(S'cpvert_4MeV_0tilt_5rot_det15.npy'
p702
F1.6475
F0.0155
F67.7225
F0.5317
F1.053
F0.011
g11
(g15
S'\x00\x00\x00\x00\x00\x00Q@'
p703
tp704
Rp705
tp706
a(S'cpvert_4MeV_0tilt_5rot_det4.npy'
p707
F1.6527
F0.0219
F65.9765
F0.549
F1.0506
F0.0154
g11
(g15
S'\x00\x00\x00\x00\x00@Q@'
p708
tp709
Rp710
tp711
a(S'cpvert_4MeV_0tilt_5rot_det5.npy'
p712
F1.3357
F0.0118
F41.1629
F0.1912
F0.8305
F0.008
g11
(g15
S'\x00\x00\x00\x00\x00\x00]@'
p713
tp714
Rp715
tp716
a(S'cpvert_4MeV_0tilt_5rot_det6.npy'
p717
F0.9333
F0.0076
F31.3286
F0.128
F0.5609
F0.0051
g11
(g15
S'\x00\x00\x00\x00\x00`a@'
p718
tp719
Rp720
tp721
a(S'cpvert_4MeV_0tilt_5rot_det7.npy'
p722
F0.5464
F0.0053
F27.5572
F0.0978
F0.3155
F0.0033
g11
(g15
S'\x00\x00\x00\x00\x00\xc0c@'
p723
tp724
Rp725
tp726
a(S'cpvert_4MeV_0tilt_5rot_det8.npy'
p727
F0.2582
F0.0033
F27.9375
F0.0847
F0.1401
F0.0019
g11
(g15
S'\x00\x00\x00\x00\x00\xc0d@'
p728
tp729
Rp730
tp731
a(S'cpvert_4MeV_0tilt_5rot_det9.npy'
p732
F0.0746
F0.0012
F25.8453
F0.0926
F0.0371
F0.0007
g11
(g15
S'\x00\x00\x00\x00\x00@d@'
p733
tp734
Rp735
tp736
a(S'cpvert_4MeV_0tilt_75rot_det10.npy'
p737
F0.0745
F0.0012
F24.4977
F0.0933
F0.037
F0.0007
g11
(g15
S'\x00\x00\x00\x00\x00\xc0f@'
p738
tp739
Rp740
tp741
a(S'cpvert_4MeV_0tilt_75rot_det11.npy'
p742
F0.2568
F0.0032
F28.6759
F0.0875
F0.1407
F0.0019
g11
(g15
S'\x00\x00\x00\x00\x00\xa0d@'
p743
tp744
Rp745
tp746
a(S'cpvert_4MeV_0tilt_75rot_det12.npy'
p747
F0.5456
F0.0047
F28.7209
F0.0902
F0.3146
F0.003
g11
(g15
S'\x00\x00\x00\x00\x00 k@'
p748
tp749
Rp750
tp751
a(S'cpvert_4MeV_0tilt_75rot_det13.npy'
p752
F0.9298
F0.0065
F33.666
F0.1147
F0.5626
F0.0046
g11
(g15
S'\x00\x00\x00\x00\x00`h@'
p753
tp754
Rp755
tp756
a(S'cpvert_4MeV_0tilt_75rot_det14.npy'
p757
F1.2818
F0.0139
F42.8613
F0.2129
F0.8
F0.0097
g11
(g15
S'\x00\x00\x00\x00\x00\x00_@'
p758
tp759
Rp760
tp761
a(S'cpvert_4MeV_0tilt_75rot_det15.npy'
p762
F1.6656
F0.0164
F66.6024
F0.4852
F1.0621
F0.0116
g11
(g15
S'\x00\x00\x00\x00\x00\xc0U@'
p763
tp764
Rp765
tp766
a(S'cpvert_4MeV_0tilt_75rot_det4.npy'
p767
F1.6179
F0.0144
F65.3176
F0.4601
F1.035
F0.0107
g11
(g15
S'\x00\x00\x00\x00\x00@W@'
p768
tp769
Rp770
tp771
a(S'cpvert_4MeV_0tilt_75rot_det5.npy'
p772
F1.2753
F0.01
F40.8551
F0.1883
F0.8023
F0.0071
g11
(g15
S'\x00\x00\x00\x00\x00\xe0b@'
p773
tp774
Rp775
tp776
a(S'cpvert_4MeV_0tilt_75rot_det6.npy'
p777
F0.9074
F0.0078
F31.2206
F0.1169
F0.5526
F0.0052
g11
(g15
S'\x00\x00\x00\x00\x00\x80d@'
p778
tp779
Rp780
tp781
a(S'cpvert_4MeV_0tilt_75rot_det7.npy'
p782
F0.5276
F0.0052
F27.8595
F0.0868
F0.3041
F0.0037
g11
(g15
S'\x00\x00\x00\x00\x00\x00h@'
p783
tp784
Rp785
tp786
a(S'cpvert_4MeV_0tilt_75rot_det8.npy'
p787
F0.2516
F0.0029
F27.8214
F0.082
F0.1354
F0.0017
g11
(g15
S'\x00\x00\x00\x00\x00\xc0d@'
p788
tp789
Rp790
tp791
a(S'cpvert_4MeV_0tilt_75rot_det9.npy'
p792
F0.0751
F0.0015
F25.955
F0.0962
F0.0361
F0.0009
g11
(g15
S'\x00\x00\x00\x00\x00\x00e@'
p793
tp794
Rp795
tp796
a(S'cpvert_4MeV_0tilt_95rot_det10.npy'
p797
F0.0749
F0.0013
F24.391
F0.0906
F0.0363
F0.0008
g11
(g15
S'\x00\x00\x00\x00\x00\x80d@'
p798
tp799
Rp800
tp801
a(S'cpvert_4MeV_0tilt_95rot_det11.npy'
p802
F0.2498
F0.0026
F28.7695
F0.0916
F0.135
F0.0016
g11
(g15
S'\x00\x00\x00\x00\x00\xe0f@'
p803
tp804
Rp805
tp806
a(S'cpvert_4MeV_0tilt_95rot_det12.npy'
p807
F0.5452
F0.0056
F28.6388
F0.0958
F0.3151
F0.0035
g11
(g15
S'\x00\x00\x00\x00\x00\xc0c@'
p808
tp809
Rp810
tp811
a(S'cpvert_4MeV_0tilt_95rot_det13.npy'
p812
F0.9206
F0.0072
F33.4822
F0.1264
F0.5518
F0.0048
g11
(g15
S'\x00\x00\x00\x00\x00`a@'
p813
tp814
Rp815
tp816
a(S'cpvert_4MeV_0tilt_95rot_det14.npy'
p817
F1.3125
F0.0136
F43.1021
F0.2217
F0.8116
F0.0094
g11
(g15
S'\x00\x00\x00\x00\x00\x00]@'
p818
tp819
Rp820
tp821
a(S'cpvert_4MeV_0tilt_95rot_det15.npy'
p822
F1.6673
F0.0184
F66.7422
F0.5147
F1.0497
F0.0129
g11
(g15
S'\x00\x00\x00\x00\x00\xc0P@'
p823
tp824
Rp825
tp826
a(S'cpvert_4MeV_0tilt_95rot_det4.npy'
p827
F1.595
F0.0188
F64.7363
F0.4839
F1.0193
F0.0131
g11
(g15
S'\x00\x00\x00\x00\x00@U@'
p828
tp829
Rp830
tp831
a(S'cpvert_4MeV_0tilt_95rot_det5.npy'
p832
F1.2958
F0.0114
F40.8159
F0.199
F0.8151
F0.0088
g11
(g15
S'\x00\x00\x00\x00\x00\x80\\@'
p833
tp834
Rp835
tp836
a(S'cpvert_4MeV_0tilt_95rot_det6.npy'
p837
F0.9071
F0.0073
F31.0133
F0.1263
F0.5539
F0.0051
g11
(g15
S'\x00\x00\x00\x00\x00\x00b@'
p838
tp839
Rp840
tp841
a(S'cpvert_4MeV_0tilt_95rot_det7.npy'
p842
F0.518
F0.0051
F27.7773
F0.0947
F0.2991
F0.0034
g11
(g15
S'\x00\x00\x00\x00\x00\x00g@'
p843
tp844
Rp845
tp846
a(S'cpvert_4MeV_0tilt_95rot_det8.npy'
p847
F0.2501
F0.0029
F27.9855
F0.0824
F0.1335
F0.0018
g11
(g15
S'\x00\x00\x00\x00\x00 d@'
p848
tp849
Rp850
tp851
a(S'cpvert_4MeV_0tilt_95rot_det9.npy'
p852
F0.0783
F0.0014
F25.7459
F0.0904
F0.0376
F0.0007
g11
(g15
S'\x00\x00\x00\x00\x00@e@'
p853
tp854
Rp855
tp856
a(S'cpvert_4MeV_15tilt_115rot_det10.npy'
p857
F0.0787
F0.0015
F24.4424
F0.1005
F0.0384
F0.0008
g11
(g15
S'\x00\x00\x00\x00\x00\x80a@'
p858
tp859
Rp860
tp861
a(S'cpvert_4MeV_15tilt_115rot_det11.npy'
p862
F0.2592
F0.0029
F28.7405
F0.0868
F0.1404
F0.0018
g11
(g15
S'\x00\x00\x00\x00\x00 a@'
p863
tp864
Rp865
tp866
a(S'cpvert_4MeV_15tilt_115rot_det12.npy'
p867
F0.5518
F0.0049
F28.8525
F0.0932
F0.3185
F0.0032
g11
(g15
S'\x00\x00\x00\x00\x00`d@'
p868
tp869
Rp870
tp871
a(S'cpvert_4MeV_15tilt_115rot_det13.npy'
p872
F0.93
F0.0083
F33.9892
F0.1307
F0.5649
F0.006
g11
(g15
S'\x00\x00\x00\x00\x00\xe0d@'
p873
tp874
Rp875
tp876
a(S'cpvert_4MeV_15tilt_115rot_det14.npy'
p877
F1.3554
F0.0109
F43.593
F0.2177
F0.8429
F0.0073
g11
(g15
S'\x00\x00\x00\x00\x00\xc0^@'
p878
tp879
Rp880
tp881
a(S'cpvert_4MeV_15tilt_115rot_det15.npy'
p882
F1.696
F0.0235
F66.6163
F0.4621
F1.0673
F0.0155
g11
(g15
S'\x00\x00\x00\x00\x00@S@'
p883
tp884
Rp885
tp886
a(S'cpvert_4MeV_15tilt_115rot_det4.npy'
p887
F1.6591
F0.0218
F63.9346
F0.4839
F1.0587
F0.0154
g11
(g15
S'\x00\x00\x00\x00\x00\x80R@'
p888
tp889
Rp890
tp891
a(S'cpvert_4MeV_15tilt_115rot_det5.npy'
p892
F1.3044
F0.011
F40.8166
F0.2012
F0.8156
F0.0071
g11
(g15
S'\x00\x00\x00\x00\x00\xc0\\@'
p893
tp894
Rp895
tp896
a(S'cpvert_4MeV_15tilt_115rot_det6.npy'
p897
F0.8878
F0.0078
F31.0197
F0.1252
F0.5372
F0.0055
g11
(g15
S'\x00\x00\x00\x00\x00\x80b@'
p898
tp899
Rp900
tp901
a(S'cpvert_4MeV_15tilt_115rot_det7.npy'
p902
F0.5343
F0.0048
F27.5745
F0.0914
F0.3084
F0.003
g11
(g15
S'\x00\x00\x00\x00\x00@d@'
p903
tp904
Rp905
tp906
a(S'cpvert_4MeV_15tilt_115rot_det8.npy'
p907
F0.2479
F0.0028
F28.1096
F0.087
F0.1334
F0.0017
g11
(g15
S'\x00\x00\x00\x00\x00@d@'
p908
tp909
Rp910
tp911
a(S'cpvert_4MeV_15tilt_115rot_det9.npy'
p912
F0.079
F0.0012
F25.8407
F0.0935
F0.0381
F0.0007
g11
(g15
S'\x00\x00\x00\x00\x00\xc0`@'
p913
tp914
Rp915
tp916
a(S'cpvert_4MeV_15tilt_135rot_det10.npy'
p917
F0.0788
F0.0015
F24.5523
F0.1125
F0.039
F0.0008
g11
(g15
S'\x00\x00\x00\x00\x00\xc0b@'
p918
tp919
Rp920
tp921
a(S'cpvert_4MeV_15tilt_135rot_det11.npy'
p922
F0.2495
F0.0026
F28.9331
F0.0877
F0.1352
F0.0016
g11
(g15
S'\x00\x00\x00\x00\x00`d@'
p923
tp924
Rp925
tp926
a(S'cpvert_4MeV_15tilt_135rot_det12.npy'
p927
F0.5457
F0.0052
F28.8714
F0.1172
F0.3153
F0.0035
g11
(g15
S'\x00\x00\x00\x00\x00@b@'
p928
tp929
Rp930
tp931
a(S'cpvert_4MeV_15tilt_135rot_det13.npy'
p932
F0.929
F0.0079
F33.7758
F0.1312
F0.5629
F0.0055
g11
(g15
S'\x00\x00\x00\x00\x00\xe0a@'
p933
tp934
Rp935
tp936
a(S'cpvert_4MeV_15tilt_135rot_det14.npy'
p937
F1.3278
F0.012
F43.7094
F0.2
F0.8326
F0.0081
g11
(g15
S'\x00\x00\x00\x00\x00\xc0]@'
p938
tp939
Rp940
tp941
a(S'cpvert_4MeV_15tilt_135rot_det15.npy'
p942
F1.6562
F0.0199
F67.1403
F0.471
F1.0493
F0.0136
g11
(g15
S'\x00\x00\x00\x00\x00\xc0U@'
p943
tp944
Rp945
tp946
a(S'cpvert_4MeV_15tilt_135rot_det4.npy'
p947
F1.6414
F0.02
F64.6475
F0.4668
F1.033
F0.0136
g11
(g15
S'\x00\x00\x00\x00\x00\xc0R@'
p948
tp949
Rp950
tp951
a(S'cpvert_4MeV_15tilt_135rot_det5.npy'
p952
F1.311
F0.0132
F40.5235
F0.214
F0.8148
F0.0091
g11
(g15
S'\x00\x00\x00\x00\x00@_@'
p953
tp954
Rp955
tp956
a(S'cpvert_4MeV_15tilt_135rot_det6.npy'
p957
F0.8759
F0.0091
F31.2323
F0.1248
F0.5294
F0.0061
g11
(g15
S'\x00\x00\x00\x00\x00\x00b@'
p958
tp959
Rp960
tp961
a(S'cpvert_4MeV_15tilt_135rot_det7.npy'
p962
F0.5158
F0.0053
F27.5759
F0.1064
F0.2973
F0.0034
g11
(g15
S'\x00\x00\x00\x00\x00 a@'
p963
tp964
Rp965
tp966
a(S'cpvert_4MeV_15tilt_135rot_det8.npy'
p967
F0.2386
F0.0028
F27.9014
F0.0888
F0.128
F0.0017
g11
(g15
S'\x00\x00\x00\x00\x00\xe0a@'
p968
tp969
Rp970
tp971
a(S'cpvert_4MeV_15tilt_135rot_det9.npy'
p972
F0.0744
F0.0013
F25.807
F0.0885
F0.0357
F0.0007
g11
(g15
S'\x00\x00\x00\x00\x00@f@'
p973
tp974
Rp975
tp976
a(S'cpvert_4MeV_15tilt_15rot_det10.npy'
p977
F0.0793
F0.0013
F24.2519
F0.0833
F0.04
F0.0007
g11
(g15
S'\x00\x00\x00\x00\x00\xa0e@'
p978
tp979
Rp980
tp981
a(S'cpvert_4MeV_15tilt_15rot_det11.npy'
p982
F0.2492
F0.0029
F28.6013
F0.0912
F0.1342
F0.0018
g11
(g15
S'\x00\x00\x00\x00\x00\xa0b@'
p983
tp984
Rp985
tp986
a(S'cpvert_4MeV_15tilt_15rot_det12.npy'
p987
F0.5361
F0.0053
F28.7326
F0.0976
F0.3117
F0.0036
g11
(g15
S'\x00\x00\x00\x00\x00@c@'
p988
tp989
Rp990
tp991
a(S'cpvert_4MeV_15tilt_15rot_det13.npy'
p992
F0.8834
F0.0072
F33.7427
F0.1226
F0.5376
F0.0049
g11
(g15
S'\x00\x00\x00\x00\x00\xc0f@'
p993
tp994
Rp995
tp996
a(S'cpvert_4MeV_15tilt_15rot_det14.npy'
p997
F1.2646
F0.011
F42.9282
F0.2234
F0.794
F0.0075
g11
(g15
S'\x00\x00\x00\x00\x00\x80_@'
p998
tp999
Rp1000
tp1001
a(S'cpvert_4MeV_15tilt_15rot_det15.npy'
p1002
F1.6162
F0.0165
F66.7198
F0.482
F1.0392
F0.0118
g11
(g15
S'\x00\x00\x00\x00\x00@Y@'
p1003
tp1004
Rp1005
tp1006
a(S'cpvert_4MeV_15tilt_15rot_det4.npy'
p1007
F1.6066
F0.0259
F65.8665
F0.501
F1.0222
F0.0178
g11
(g15
S'\x00\x00\x00\x00\x00\xc0S@'
p1008
tp1009
Rp1010
tp1011
a(S'cpvert_4MeV_15tilt_15rot_det5.npy'
p1012
F1.3291
F0.0126
F41.4287
F0.2215
F0.8336
F0.0087
g11
(g15
S'\x00\x00\x00\x00\x00\x80Y@'
p1013
tp1014
Rp1015
tp1016
a(S'cpvert_4MeV_15tilt_15rot_det6.npy'
p1017
F0.9383
F0.008
F31.1982
F0.133
F0.5649
F0.0052
g11
(g15
S'\x00\x00\x00\x00\x00`b@'
p1018
tp1019
Rp1020
tp1021
a(S'cpvert_4MeV_15tilt_15rot_det7.npy'
p1022
F0.5544
F0.0046
F27.6799
F0.0954
F0.32
F0.003
g11
(g15
S'\x00\x00\x00\x00\x00\x00e@'
p1023
tp1024
Rp1025
tp1026
a(S'cpvert_4MeV_15tilt_15rot_det8.npy'
p1027
F0.2616
F0.0031
F27.676
F0.0969
F0.1435
F0.0019
g11
(g15
S'\x00\x00\x00\x00\x00\xe0`@'
p1028
tp1029
Rp1030
tp1031
a(S'cpvert_4MeV_15tilt_15rot_det9.npy'
p1032
F0.079
F0.0013
F25.7491
F0.0974
F0.0402
F0.0008
g11
(g15
S'\x00\x00\x00\x00\x00\xc0a@'
p1033
tp1034
Rp1035
tp1036
a(S'cpvert_4MeV_15tilt_25rot_det10.npy'
p1037
F0.0792
F0.0014
F24.41
F0.0937
F0.0394
F0.0008
g11
(g15
S'\x00\x00\x00\x00\x00 b@'
p1038
tp1039
Rp1040
tp1041
a(S'cpvert_4MeV_15tilt_25rot_det11.npy'
p1042
F0.247
F0.0031
F28.9864
F0.0964
F0.1349
F0.002
g11
(g15
S'\x00\x00\x00\x00\x00\x00f@'
p1043
tp1044
Rp1045
tp1046
a(S'cpvert_4MeV_15tilt_25rot_det12.npy'
p1047
F0.529
F0.0061
F28.9457
F0.1029
F0.3041
F0.004
g11
(g15
S'\x00\x00\x00\x00\x00`a@'
p1048
tp1049
Rp1050
tp1051
a(S'cpvert_4MeV_15tilt_25rot_det13.npy'
p1052
F0.879
F0.008
F33.5476
F0.1511
F0.5343
F0.0054
g11
(g15
S'\x00\x00\x00\x00\x00\xc0a@'
p1053
tp1054
Rp1055
tp1056
a(S'cpvert_4MeV_15tilt_25rot_det14.npy'
p1057
F1.2873
F0.0095
F43.0328
F0.2208
F0.8161
F0.0068
g11
(g15
S'\x00\x00\x00\x00\x00\x00_@'
p1058
tp1059
Rp1060
tp1061
a(S'cpvert_4MeV_15tilt_25rot_det15.npy'
p1062
F1.6309
F0.0165
F66.361
F0.5207
F1.0434
F0.0119
g11
(g15
S'\x00\x00\x00\x00\x00\x80P@'
p1063
tp1064
Rp1065
tp1066
a(S'cpvert_4MeV_15tilt_25rot_det4.npy'
p1067
F1.5942
F0.0195
F65.359
F0.5226
F1.0277
F0.0141
g11
(g15
S'\x00\x00\x00\x00\x00\x00R@'
p1068
tp1069
Rp1070
tp1071
a(S'cpvert_4MeV_15tilt_25rot_det5.npy'
p1072
F1.3068
F0.01
F41.0606
F0.193
F0.8186
F0.0075
g11
(g15
S'\x00\x00\x00\x00\x00\xc0^@'
p1073
tp1074
Rp1075
tp1076
a(S'cpvert_4MeV_15tilt_25rot_det6.npy'
p1077
F0.9336
F0.0085
F31.271
F0.1305
F0.5668
F0.0061
g11
(g15
S'\x00\x00\x00\x00\x00 b@'
p1078
tp1079
Rp1080
tp1081
a(S'cpvert_4MeV_15tilt_25rot_det7.npy'
p1082
F0.546
F0.0047
F27.7885
F0.1097
F0.3162
F0.003
g11
(g15
S'\x00\x00\x00\x00\x00\xe0`@'
p1083
tp1084
Rp1085
tp1086
a(S'cpvert_4MeV_15tilt_25rot_det8.npy'
p1087
F0.2597
F0.0032
F27.9045
F0.0809
F0.1428
F0.0019
g11
(g15
S'\x00\x00\x00\x00\x00 e@'
p1088
tp1089
Rp1090
tp1091
a(S'cpvert_4MeV_15tilt_25rot_det9.npy'
p1092
F0.0814
F0.0013
F25.7916
F0.0844
F0.0416
F0.0008
g11
(g15
S'\x00\x00\x00\x00\x00`d@'
p1093
tp1094
Rp1095
tp1096
a(S'cpvert_4MeV_15tilt_315rot_det10.npy'
p1097
F0.0818
F0.0013
F24.2691
F0.0886
F0.0411
F0.0007
g11
(g15
S'\x00\x00\x00\x00\x00\xa0d@'
p1098
tp1099
Rp1100
tp1101
a(S'cpvert_4MeV_15tilt_315rot_det11.npy'
p1102
F0.2522
F0.0029
F28.7754
F0.0957
F0.137
F0.0018
g11
(g15
S'\x00\x00\x00\x00\x00`d@'
p1103
tp1104
Rp1105
tp1106
a(S'cpvert_4MeV_15tilt_315rot_det12.npy'
p1107
F0.5436
F0.0055
F28.7232
F0.1085
F0.3162
F0.0036
g11
(g15
S'\x00\x00\x00\x00\x00\x80a@'
p1108
tp1109
Rp1110
tp1111
a(S'cpvert_4MeV_15tilt_315rot_det13.npy'
p1112
F0.8996
F0.0079
F33.7539
F0.1391
F0.546
F0.0054
g11
(g15
S'\x00\x00\x00\x00\x00@c@'
p1113
tp1114
Rp1115
tp1116
a(S'cpvert_4MeV_15tilt_315rot_det14.npy'
p1117
F1.3148
F0.0114
F43.2871
F0.2049
F0.8218
F0.0083
g11
(g15
S'\x00\x00\x00\x00\x00``@'
p1118
tp1119
Rp1120
tp1121
a(S'cpvert_4MeV_15tilt_315rot_det15.npy'
p1122
F1.6668
F0.0193
F66.6642
F0.5446
F1.0531
F0.0138
g11
(g15
S'\x00\x00\x00\x00\x00@P@'
p1123
tp1124
Rp1125
tp1126
a(S'cpvert_4MeV_15tilt_315rot_det4.npy'
p1127
F1.7064
F0.019
F66.1382
F0.4718
F1.0848
F0.0134
g11
(g15
S'\x00\x00\x00\x00\x00\x00Q@'
p1128
tp1129
Rp1130
tp1131
a(S'cpvert_4MeV_15tilt_315rot_det5.npy'
p1132
F1.3208
F0.0115
F40.8753
F0.2047
F0.8238
F0.0079
g11
(g15
S'\x00\x00\x00\x00\x00\x80\\@'
p1133
tp1134
Rp1135
tp1136
a(S'cpvert_4MeV_15tilt_315rot_det6.npy'
p1137
F0.9117
F0.0075
F31.3278
F0.1292
F0.5554
F0.0052
g11
(g15
S'\x00\x00\x00\x00\x00\x80a@'
p1138
tp1139
Rp1140
tp1141
a(S'cpvert_4MeV_15tilt_315rot_det7.npy'
p1142
F0.5348
F0.0048
F27.6536
F0.0895
F0.3096
F0.003
g11
(g15
S'\x00\x00\x00\x00\x00\xe0c@'
p1143
tp1144
Rp1145
tp1146
a(S'cpvert_4MeV_15tilt_315rot_det8.npy'
p1147
F0.2545
F0.0028
F27.8597
F0.0881
F0.138
F0.0017
g11
(g15
S'\x00\x00\x00\x00\x00\xa0`@'
p1148
tp1149
Rp1150
tp1151
a(S'cpvert_4MeV_15tilt_315rot_det9.npy'
p1152
F0.0796
F0.0013
F25.893
F0.089
F0.0406
F0.0007
g11
(g15
S'\x00\x00\x00\x00\x00\x80d@'
p1153
tp1154
Rp1155
tp1156
a(S'cpvert_4MeV_15tilt_335rot_det10.npy'
p1157
F0.079
F0.0014
F24.381
F0.0984
F0.0396
F0.0008
g11
(g15
S'\x00\x00\x00\x00\x00`g@'
p1158
tp1159
Rp1160
tp1161
a(S'cpvert_4MeV_15tilt_335rot_det11.npy'
p1162
F0.2543
F0.0029
F28.9021
F0.0988
F0.1374
F0.0017
g11
(g15
S'\x00\x00\x00\x00\x00`d@'
p1163
tp1164
Rp1165
tp1166
a(S'cpvert_4MeV_15tilt_335rot_det12.npy'
p1167
F0.5397
F0.0051
F28.6065
F0.0895
F0.3132
F0.0033
g11
(g15
S'\x00\x00\x00\x00\x00`f@'
p1168
tp1169
Rp1170
tp1171
a(S'cpvert_4MeV_15tilt_335rot_det13.npy'
p1172
F0.901
F0.0083
F33.6908
F0.1356
F0.5486
F0.0055
g11
(g15
S'\x00\x00\x00\x00\x00\xa0b@'
p1173
tp1174
Rp1175
tp1176
a(S'cpvert_4MeV_15tilt_335rot_det14.npy'
p1177
F1.285
F0.0116
F43.2374
F0.1926
F0.8066
F0.0081
g11
(g15
S'\x00\x00\x00\x00\x00\x80_@'
p1178
tp1179
Rp1180
tp1181
a(S'cpvert_4MeV_15tilt_335rot_det15.npy'
p1182
F1.6365
F0.0171
F66.5503
F0.4495
F1.0429
F0.0115
g11
(g15
S'\x00\x00\x00\x00\x00\xc0V@'
p1183
tp1184
Rp1185
tp1186
a(S'cpvert_4MeV_15tilt_335rot_det4.npy'
p1187
F1.7027
F0.017
F64.82
F0.4832
F1.0714
F0.0113
g11
(g15
S'\x00\x00\x00\x00\x00\x80T@'
p1188
tp1189
Rp1190
tp1191
a(S'cpvert_4MeV_15tilt_335rot_det5.npy'
p1192
F1.3438
F0.0108
F40.7641
F0.2241
F0.8339
F0.0073
g11
(g15
S'\x00\x00\x00\x00\x00@\\@'
p1193
tp1194
Rp1195
tp1196
a(S'cpvert_4MeV_15tilt_335rot_det6.npy'
p1197
F0.9285
F0.008
F31.2509
F0.1179
F0.5625
F0.0054
g11
(g15
S'\x00\x00\x00\x00\x00`c@'
p1198
tp1199
Rp1200
tp1201
a(S'cpvert_4MeV_15tilt_335rot_det7.npy'
p1202
F0.5387
F0.0054
F27.8548
F0.1006
F0.3123
F0.0034
g11
(g15
S'\x00\x00\x00\x00\x00\xa0d@'
p1203
tp1204
Rp1205
tp1206
a(S'cpvert_4MeV_15tilt_335rot_det8.npy'
p1207
F0.2574
F0.003
F27.8844
F0.0844
F0.1406
F0.0017
g11
(g15
S'\x00\x00\x00\x00\x00\xc0b@'
p1208
tp1209
Rp1210
tp1211
a(S'cpvert_4MeV_15tilt_335rot_det9.npy'
p1212
F0.0792
F0.0015
F25.8464
F0.0809
F0.0403
F0.0008
g11
(g15
S'\x00\x00\x00\x00\x00\x00e@'
p1213
tp1214
Rp1215
tp1216
a(S'cpvert_4MeV_15tilt_345rot_det10.npy'
p1217
F0.0784
F0.0012
F24.4021
F0.0904
F0.0391
F0.0007
g11
(g15
S'\x00\x00\x00\x00\x00@h@'
p1218
tp1219
Rp1220
tp1221
a(S'cpvert_4MeV_15tilt_345rot_det11.npy'
p1222
F0.2499
F0.0027
F28.6641
F0.0857
F0.1365
F0.0016
g11
(g15
S'\x00\x00\x00\x00\x00@g@'
p1223
tp1224
Rp1225
tp1226
a(S'cpvert_4MeV_15tilt_345rot_det12.npy'
p1227
F0.5305
F0.0046
F28.7489
F0.0955
F0.3071
F0.003
g11
(g15
S'\x00\x00\x00\x00\x00@e@'
p1228
tp1229
Rp1230
tp1231
a(S'cpvert_4MeV_15tilt_345rot_det13.npy'
p1232
F0.8985
F0.0078
F33.5938
F0.129
F0.5427
F0.0052
g11
(g15
S'\x00\x00\x00\x00\x00@c@'
p1233
tp1234
Rp1235
tp1236
a(S'cpvert_4MeV_15tilt_345rot_det14.npy'
p1237
F1.2776
F0.0111
F43.0574
F0.2134
F0.8062
F0.0076
g11
(g15
S'\x00\x00\x00\x00\x00\x00`@'
p1238
tp1239
Rp1240
tp1241
a(S'cpvert_4MeV_15tilt_345rot_det15.npy'
p1242
F1.6253
F0.0214
F66.8983
F0.527
F1.0435
F0.0151
g11
(g15
S'\x00\x00\x00\x00\x00\xc0V@'
p1243
tp1244
Rp1245
tp1246
a(S'cpvert_4MeV_15tilt_345rot_det4.npy'
p1247
F1.6891
F0.0169
F65.1351
F0.4033
F1.0715
F0.0117
g11
(g15
S'\x00\x00\x00\x00\x00\xc0V@'
p1248
tp1249
Rp1250
tp1251
a(S'cpvert_4MeV_15tilt_345rot_det5.npy'
p1252
F1.3369
F0.0124
F40.6164
F0.1956
F0.8314
F0.0084
g11
(g15
S'\x00\x00\x00\x00\x00\x80`@'
p1253
tp1254
Rp1255
tp1256
a(S'cpvert_4MeV_15tilt_345rot_det6.npy'
p1257
F0.9466
F0.0075
F31.2799
F0.1281
F0.5691
F0.005
g11
(g15
S'\x00\x00\x00\x00\x00\x80c@'
p1258
tp1259
Rp1260
tp1261
a(S'cpvert_4MeV_15tilt_345rot_det7.npy'
p1262
F0.5493
F0.0047
F27.705
F0.1039
F0.3173
F0.0029
g11
(g15
S'\x00\x00\x00\x00\x00\xc0e@'
p1263
tp1264
Rp1265
tp1266
a(S'cpvert_4MeV_15tilt_345rot_det8.npy'
p1267
F0.2606
F0.003
F27.8127
F0.0848
F0.1432
F0.0018
g11
(g15
S'\x00\x00\x00\x00\x00@b@'
p1268
tp1269
Rp1270
tp1271
a(S'cpvert_4MeV_15tilt_345rot_det9.npy'
p1272
F0.0833
F0.0014
F25.8511
F0.097
F0.0423
F0.0008
g11
(g15
S'\x00\x00\x00\x00\x00\xc0b@'
p1273
tp1274
Rp1275
tp1276
a(S'cpvert_4MeV_15tilt_355rot_det10.npy'
p1277
F0.0742
F0.0018
F24.4802
F0.104
F0.037
F0.001
g11
(g15
S'\x00\x00\x00\x00\x00`e@'
p1278
tp1279
Rp1280
tp1281
a(S'cpvert_4MeV_15tilt_355rot_det11.npy'
p1282
F0.2428
F0.0028
F28.7656
F0.0874
F0.1322
F0.0017
g11
(g15
S'\x00\x00\x00\x00\x00@g@'
p1283
tp1284
Rp1285
tp1286
a(S'cpvert_4MeV_15tilt_355rot_det12.npy'
p1287
F0.5211
F0.0044
F28.9853
F0.0964
F0.3007
F0.0029
g11
(g15
S'\x00\x00\x00\x00\x00 d@'
p1288
tp1289
Rp1290
tp1291
a(S'cpvert_4MeV_15tilt_355rot_det13.npy'
p1292
F0.886
F0.0066
F33.6392
F0.1316
F0.5373
F0.0045
g11
(g15
S'\x00\x00\x00\x00\x00\xe0d@'
p1293
tp1294
Rp1295
tp1296
a(S'cpvert_4MeV_15tilt_355rot_det14.npy'
p1297
F1.2847
F0.0115
F43.2647
F0.2066
F0.8125
F0.0079
g11
(g15
S'\x00\x00\x00\x00\x00\x00_@'
p1298
tp1299
Rp1300
tp1301
a(S'cpvert_4MeV_15tilt_355rot_det15.npy'
p1302
F1.6056
F0.02
F65.847
F0.5059
F1.0275
F0.0139
g11
(g15
S'\x00\x00\x00\x00\x00\x00X@'
p1303
tp1304
Rp1305
tp1306
a(S'cpvert_4MeV_15tilt_355rot_det4.npy'
p1307
F1.7097
F0.0184
F65.0018
F0.474
F1.0826
F0.0132
g11
(g15
S'\x00\x00\x00\x00\x00\x80P@'
p1308
tp1309
Rp1310
tp1311
a(S'cpvert_4MeV_15tilt_355rot_det5.npy'
p1312
F1.3729
F0.0104
F40.9558
F0.2235
F0.8503
F0.0074
g11
(g15
S'\x00\x00\x00\x00\x00\x80Y@'
p1313
tp1314
Rp1315
tp1316
a(S'cpvert_4MeV_15tilt_355rot_det6.npy'
p1317
F0.945
F0.0073
F31.1655
F0.1206
F0.569
F0.0049
g11
(g15
S'\x00\x00\x00\x00\x00\x00c@'
p1318
tp1319
Rp1320
tp1321
a(S'cpvert_4MeV_15tilt_355rot_det7.npy'
p1322
F0.5539
F0.0055
F27.5373
F0.0929
F0.3187
F0.0037
g11
(g15
S'\x00\x00\x00\x00\x00\xe0c@'
p1323
tp1324
Rp1325
tp1326
a(S'cpvert_4MeV_15tilt_355rot_det8.npy'
p1327
F0.265
F0.0031
F27.9649
F0.0795
F0.1465
F0.002
g11
(g15
S'\x00\x00\x00\x00\x00\xe0c@'
p1328
tp1329
Rp1330
tp1331
a(S'cpvert_4MeV_15tilt_355rot_det9.npy'
p1332
F0.0812
F0.0015
F25.8223
F0.0917
F0.0419
F0.0008
g11
(g15
S'\x00\x00\x00\x00\x00\xa0c@'
p1333
tp1334
Rp1335
tp1336
a(S'cpvert_4MeV_15tilt_35rot_det10.npy'
p1337
F0.0782
F0.0013
F24.4148
F0.0974
F0.0396
F0.0008
g11
(g15
S'\x00\x00\x00\x00\x00 d@'
p1338
tp1339
Rp1340
tp1341
a(S'cpvert_4MeV_15tilt_35rot_det11.npy'
p1342
F0.25
F0.0031
F28.766
F0.1058
F0.1353
F0.0019
g11
(g15
S'\x00\x00\x00\x00\x00\xe0`@'
p1343
tp1344
Rp1345
tp1346
a(S'cpvert_4MeV_15tilt_35rot_det12.npy'
p1347
F0.5334
F0.0045
F28.7646
F0.1042
F0.3098
F0.0028
g11
(g15
S'\x00\x00\x00\x00\x00`d@'
p1348
tp1349
Rp1350
tp1351
a(S'cpvert_4MeV_15tilt_35rot_det13.npy'
p1352
F0.8696
F0.0088
F33.7989
F0.1252
F0.5277
F0.0059
g11
(g15
S'\x00\x00\x00\x00\x00\xc0c@'
p1353
tp1354
Rp1355
tp1356
a(S'cpvert_4MeV_15tilt_35rot_det14.npy'
p1357
F1.2756
F0.0118
F43.1368
F0.2165
F0.8019
F0.0083
g11
(g15
S'\x00\x00\x00\x00\x00\x00]@'
p1358
tp1359
Rp1360
tp1361
a(S'cpvert_4MeV_15tilt_35rot_det15.npy'
p1362
F1.6518
F0.0168
F66.193
F0.4536
F1.0605
F0.0119
g11
(g15
S'\x00\x00\x00\x00\x00\xc0P@'
p1363
tp1364
Rp1365
tp1366
a(S'cpvert_4MeV_15tilt_35rot_det4.npy'
p1367
F1.6394
F0.0154
F65.4894
F0.6196
F1.0509
F0.0102
g11
(g15
S'\x00\x00\x00\x00\x00\x80K@'
p1368
tp1369
Rp1370
tp1371
a(S'cpvert_4MeV_15tilt_35rot_det5.npy'
p1372
F1.3126
F0.0114
F41.0506
F0.2052
F0.8284
F0.0083
g11
(g15
S'\x00\x00\x00\x00\x00\x00^@'
p1373
tp1374
Rp1375
tp1376
a(S'cpvert_4MeV_15tilt_35rot_det6.npy'
p1377
F0.9051
F0.0084
F31.1624
F0.1366
F0.5487
F0.0055
g11
(g15
S'\x00\x00\x00\x00\x00\xc0`@'
p1378
tp1379
Rp1380
tp1381
a(S'cpvert_4MeV_15tilt_35rot_det7.npy'
p1382
F0.542
F0.0057
F27.7822
F0.1021
F0.3143
F0.0037
g11
(g15
S'\x00\x00\x00\x00\x00\xa0b@'
p1383
tp1384
Rp1385
tp1386
a(S'cpvert_4MeV_15tilt_35rot_det8.npy'
p1387
F0.2597
F0.0034
F27.9115
F0.0922
F0.1425
F0.002
g11
(g15
S'\x00\x00\x00\x00\x00`a@'
p1388
tp1389
Rp1390
tp1391
a(S'cpvert_4MeV_15tilt_35rot_det9.npy'
p1392
F0.0782
F0.0015
F25.7878
F0.0985
F0.0402
F0.0009
g11
(g15
S'\x00\x00\x00\x00\x00\xc0b@'
p1393
tp1394
Rp1395
tp1396
a(S'cpvert_4MeV_15tilt_45rot_det10.npy'
p1397
F0.081
F0.0013
F24.2858
F0.0977
F0.0405
F0.0007
g11
(g15
S'\x00\x00\x00\x00\x00\xc0b@'
p1398
tp1399
Rp1400
tp1401
a(S'cpvert_4MeV_15tilt_45rot_det11.npy'
p1402
F0.2528
F0.0028
F28.7938
F0.096
F0.1376
F0.0017
g11
(g15
S'\x00\x00\x00\x00\x00`a@'
p1403
tp1404
Rp1405
tp1406
a(S'cpvert_4MeV_15tilt_45rot_det12.npy'
p1407
F0.5276
F0.0055
F28.9069
F0.1025
F0.3046
F0.0035
g11
(g15
S'\x00\x00\x00\x00\x00\xe0b@'
p1408
tp1409
Rp1410
tp1411
a(S'cpvert_4MeV_15tilt_45rot_det13.npy'
p1412
F0.9122
F0.008
F33.6283
F0.143
F0.5503
F0.0055
g11
(g15
S'\x00\x00\x00\x00\x00 a@'
p1413
tp1414
Rp1415
tp1416
a(S'cpvert_4MeV_15tilt_45rot_det14.npy'
p1417
F1.2543
F0.012
F43.2456
F0.2165
F0.7826
F0.0084
g11
(g15
S'\x00\x00\x00\x00\x00\x00Z@'
p1418
tp1419
Rp1420
tp1421
a(S'cpvert_4MeV_15tilt_45rot_det15.npy'
p1422
F1.5905
F0.0208
F65.2949
F0.5321
F1.0233
F0.0151
g11
(g15
S'\x00\x00\x00\x00\x00\x00Q@'
p1423
tp1424
Rp1425
tp1426
a(S'cpvert_4MeV_15tilt_45rot_det4.npy'
p1427
F1.5756
F0.0237
F65.4431
F0.4484
F1.0133
F0.0163
g11
(g15
S'\x00\x00\x00\x00\x00\x00S@'
p1428
tp1429
Rp1430
tp1431
a(S'cpvert_4MeV_15tilt_45rot_det5.npy'
p1432
F1.2879
F0.0125
F40.8076
F0.198
F0.8118
F0.0087
g11
(g15
S'\x00\x00\x00\x00\x00\x80[@'
p1433
tp1434
Rp1435
tp1436
a(S'cpvert_4MeV_15tilt_45rot_det6.npy'
p1437
F0.9059
F0.0088
F31.2301
F0.1355
F0.5516
F0.0059
g11
(g15
S'\x00\x00\x00\x00\x00@a@'
p1438
tp1439
Rp1440
tp1441
a(S'cpvert_4MeV_15tilt_45rot_det7.npy'
p1442
F0.5326
F0.0057
F27.92
F0.0943
F0.308
F0.0036
g11
(g15
S'\x00\x00\x00\x00\x00\x00e@'
p1443
tp1444
Rp1445
tp1446
a(S'cpvert_4MeV_15tilt_45rot_det8.npy'
p1447
F0.2562
F0.0032
F27.7849
F0.0938
F0.1406
F0.002
g11
(g15
S'\x00\x00\x00\x00\x00\xc0_@'
p1448
tp1449
Rp1450
tp1451
a(S'cpvert_4MeV_15tilt_45rot_det9.npy'
p1452
F0.0808
F0.0015
F25.9268
F0.0978
F0.0407
F0.0008
g11
(g15
S'\x00\x00\x00\x00\x00@a@'
p1453
tp1454
Rp1455
tp1456
a(S'cpvert_4MeV_15tilt_55rot_det10.npy'
p1457
F0.083
F0.0014
F24.2708
F0.0988
F0.0427
F0.0008
g11
(g15
S'\x00\x00\x00\x00\x00\x80c@'
p1458
tp1459
Rp1460
tp1461
a(S'cpvert_4MeV_15tilt_55rot_det11.npy'
p1462
F0.2514
F0.0029
F28.8281
F0.0923
F0.1376
F0.0017
g11
(g15
S'\x00\x00\x00\x00\x00 e@'
p1463
tp1464
Rp1465
tp1466
a(S'cpvert_4MeV_15tilt_55rot_det12.npy'
p1467
F0.544
F0.0048
F28.7352
F0.0984
F0.314
F0.0031
g11
(g15
S'\x00\x00\x00\x00\x00\xc0e@'
p1468
tp1469
Rp1470
tp1471
a(S'cpvert_4MeV_15tilt_55rot_det13.npy'
p1472
F0.9057
F0.0077
F33.8472
F0.1341
F0.5494
F0.0055
g11
(g15
S'\x00\x00\x00\x00\x00\xc0b@'
p1473
tp1474
Rp1475
tp1476
a(S'cpvert_4MeV_15tilt_55rot_det14.npy'
p1477
F1.2559
F0.0127
F42.8181
F0.2149
F0.7846
F0.0088
g11
(g15
S'\x00\x00\x00\x00\x00\x80]@'
p1478
tp1479
Rp1480
tp1481
a(S'cpvert_4MeV_15tilt_55rot_det15.npy'
p1482
F1.6239
F0.0198
F66.2242
F0.4513
F1.0422
F0.0138
g11
(g15
S'\x00\x00\x00\x00\x00\xc0R@'
p1483
tp1484
Rp1485
tp1486
a(S'cpvert_4MeV_15tilt_55rot_det4.npy'
p1487
F1.6006
F0.0197
F65.5302
F0.4515
F1.026
F0.0136
g11
(g15
S'\x00\x00\x00\x00\x00\x00V@'
p1488
tp1489
Rp1490
tp1491
a(S'cpvert_4MeV_15tilt_55rot_det5.npy'
p1492
F1.2825
F0.0092
F40.8024
F0.1796
F0.8093
F0.0066
g11
(g15
S'\x00\x00\x00\x00\x00\xc0b@'
p1493
tp1494
Rp1495
tp1496
a(S'cpvert_4MeV_15tilt_55rot_det6.npy'
p1497
F0.9196
F0.0068
F31.1971
F0.1321
F0.5601
F0.0047
g11
(g15
S'\x00\x00\x00\x00\x00\x80c@'
p1498
tp1499
Rp1500
tp1501
a(S'cpvert_4MeV_15tilt_55rot_det7.npy'
p1502
F0.5236
F0.0051
F27.8208
F0.0951
F0.3043
F0.0033
g11
(g15
S'\x00\x00\x00\x00\x00 e@'
p1503
tp1504
Rp1505
tp1506
a(S'cpvert_4MeV_15tilt_55rot_det8.npy'
p1507
F0.2494
F0.0028
F28.0245
F0.0854
F0.135
F0.0017
g11
(g15
S'\x00\x00\x00\x00\x00\x80e@'
p1508
tp1509
Rp1510
tp1511
a(S'cpvert_4MeV_15tilt_55rot_det9.npy'
p1512
F0.0796
F0.0014
F25.7137
F0.0898
F0.0399
F0.0008
g11
(g15
S'\x00\x00\x00\x00\x00\xa0d@'
p1513
tp1514
Rp1515
tp1516
a(S'cpvert_4MeV_15tilt_5rot_det10.npy'
p1517
F0.0771
F0.0012
F24.3798
F0.0975
F0.0385
F0.0007
g11
(g15
S'\x00\x00\x00\x00\x00\xe0d@'
p1518
tp1519
Rp1520
tp1521
a(S'cpvert_4MeV_15tilt_5rot_det11.npy'
p1522
F0.2498
F0.0031
F28.753
F0.0922
F0.1354
F0.0019
g11
(g15
S'\x00\x00\x00\x00\x00@d@'
p1523
tp1524
Rp1525
tp1526
a(S'cpvert_4MeV_15tilt_5rot_det12.npy'
p1527
F0.5306
F0.0048
F28.7868
F0.0932
F0.3065
F0.0031
g11
(g15
S'\x00\x00\x00\x00\x00\xa0f@'
p1528
tp1529
Rp1530
tp1531
a(S'cpvert_4MeV_15tilt_5rot_det13.npy'
p1532
F0.892
F0.007
F33.4796
F0.1305
F0.5438
F0.0048
g11
(g15
S'\x00\x00\x00\x00\x00\xa0e@'
p1533
tp1534
Rp1535
tp1536
a(S'cpvert_4MeV_15tilt_5rot_det14.npy'
p1537
F1.2563
F0.0125
F43.5412
F0.1923
F0.794
F0.0087
g11
(g15
S'\x00\x00\x00\x00\x00@`@'
p1538
tp1539
Rp1540
tp1541
a(S'cpvert_4MeV_15tilt_5rot_det15.npy'
p1542
F1.6108
F0.0192
F67.1303
F0.5658
F1.0345
F0.0127
g11
(g15
S'\x00\x00\x00\x00\x00\x80R@'
p1543
tp1544
Rp1545
tp1546
a(S'cpvert_4MeV_15tilt_5rot_det4.npy'
p1547
F1.6516
F0.0193
F65.6932
F0.4393
F1.0562
F0.0129
g11
(g15
S'\x00\x00\x00\x00\x00@W@'
p1548
tp1549
Rp1550
tp1551
a(S'cpvert_4MeV_15tilt_5rot_det5.npy'
p1552
F1.3525
F0.0135
F40.808
F0.2025
F0.8395
F0.0096
g11
(g15
S'\x00\x00\x00\x00\x00@Z@'
p1553
tp1554
Rp1555
tp1556
a(S'cpvert_4MeV_15tilt_5rot_det6.npy'
p1557
F0.9531
F0.0086
F31.3724
F0.1263
F0.573
F0.0057
g11
(g15
S'\x00\x00\x00\x00\x00\x00c@'
p1558
tp1559
Rp1560
tp1561
a(S'cpvert_4MeV_15tilt_5rot_det7.npy'
p1562
F0.5525
F0.0055
F27.5941
F0.0941
F0.3176
F0.0034
g11
(g15
S'\x00\x00\x00\x00\x00\xa0d@'
p1563
tp1564
Rp1565
tp1566
a(S'cpvert_4MeV_15tilt_5rot_det8.npy'
p1567
F0.2629
F0.0029
F27.9041
F0.0956
F0.144
F0.0017
g11
(g15
S'\x00\x00\x00\x00\x00\xa0`@'
p1568
tp1569
Rp1570
tp1571
a(S'cpvert_4MeV_15tilt_5rot_det9.npy'
p1572
F0.0796
F0.0014
F25.7652
F0.0942
F0.0413
F0.0008
g11
(g15
S'\x00\x00\x00\x00\x00\xa0c@'
p1573
tp1574
Rp1575
tp1576
a(S'cpvert_4MeV_15tilt_75rot_det10.npy'
p1577
F0.08
F0.0015
F24.3595
F0.1009
F0.0407
F0.0008
g11
(g15
S'\x00\x00\x00\x00\x00\xa0a@'
p1578
tp1579
Rp1580
tp1581
a(S'cpvert_4MeV_15tilt_75rot_det11.npy'
p1582
F0.261
F0.0035
F28.8482
F0.1031
F0.1423
F0.0022
g11
(g15
S'\x00\x00\x00\x00\x00\xe0a@'
p1583
tp1584
Rp1585
tp1586
a(S'cpvert_4MeV_15tilt_75rot_det12.npy'
p1587
F0.5581
F0.0048
F28.767
F0.0906
F0.322
F0.0031
g11
(g15
S'\x00\x00\x00\x00\x00 f@'
p1588
tp1589
Rp1590
tp1591
a(S'cpvert_4MeV_15tilt_75rot_det13.npy'
p1592
F0.9306
F0.0075
F33.8877
F0.115
F0.5618
F0.0051
g11
(g15
S'\x00\x00\x00\x00\x00@g@'
p1593
tp1594
Rp1595
tp1596
a(S'cpvert_4MeV_15tilt_75rot_det14.npy'
p1597
F1.2807
F0.012
F43.4304
F0.2157
F0.7942
F0.0085
g11
(g15
S'\x00\x00\x00\x00\x00\x00^@'
p1598
tp1599
Rp1600
tp1601
a(S'cpvert_4MeV_15tilt_75rot_det15.npy'
p1602
F1.6106
F0.0223
F66.8639
F0.4973
F1.0234
F0.015
g11
(g15
S'\x00\x00\x00\x00\x00\x00R@'
p1603
tp1604
Rp1605
tp1606
a(S'cpvert_4MeV_15tilt_75rot_det4.npy'
p1607
F1.6065
F0.0198
F63.893
F0.4973
F1.0284
F0.0149
g11
(g15
S'\x00\x00\x00\x00\x00\x80P@'
p1608
tp1609
Rp1610
tp1611
a(S'cpvert_4MeV_15tilt_75rot_det5.npy'
p1612
F1.2469
F0.0115
F41.0474
F0.1979
F0.7808
F0.0081
g11
(g15
S'\x00\x00\x00\x00\x00\x00`@'
p1613
tp1614
Rp1615
tp1616
a(S'cpvert_4MeV_15tilt_75rot_det6.npy'
p1617
F0.8767
F0.0085
F31.1971
F0.1374
F0.5335
F0.0053
g11
(g15
S'\x00\x00\x00\x00\x00\x80b@'
p1618
tp1619
Rp1620
tp1621
a(S'cpvert_4MeV_15tilt_75rot_det7.npy'
p1622
F0.5207
F0.0052
F27.5898
F0.096
F0.3014
F0.0036
g11
(g15
S'\x00\x00\x00\x00\x00\x00e@'
p1623
tp1624
Rp1625
tp1626
a(S'cpvert_4MeV_15tilt_75rot_det8.npy'
p1627
F0.2488
F0.003
F27.916
F0.0943
F0.1344
F0.0019
g11
(g15
S'\x00\x00\x00\x00\x00\xe0`@'
p1628
tp1629
Rp1630
tp1631
a(S'cpvert_4MeV_15tilt_75rot_det9.npy'
p1632
F0.0789
F0.0014
F25.7782
F0.0946
F0.0385
F0.0008
g11
(g15
S'\x00\x00\x00\x00\x00@c@'
p1633
tp1634
Rp1635
tp1636
a(S'cpvert_4MeV_15tilt_95rot_det10.npy'
p1637
F0.075
F0.0018
F24.491
F0.1078
F0.0375
F0.001
g11
(g15
S'\x00\x00\x00\x00\x00`b@'
p1638
tp1639
Rp1640
tp1641
a(S'cpvert_4MeV_15tilt_95rot_det11.npy'
p1642
F0.2612
F0.0028
F28.8499
F0.0972
F0.1432
F0.0017
g11
(g15
S'\x00\x00\x00\x00\x00@f@'
p1643
tp1644
Rp1645
tp1646
a(S'cpvert_4MeV_15tilt_95rot_det12.npy'
p1647
F0.5499
F0.0055
F28.7889
F0.0984
F0.3173
F0.0034
g11
(g15
S'\x00\x00\x00\x00\x00`f@'
p1648
tp1649
Rp1650
tp1651
a(S'cpvert_4MeV_15tilt_95rot_det13.npy'
p1652
F0.9362
F0.0072
F33.5825
F0.1257
F0.5633
F0.0049
g11
(g15
S'\x00\x00\x00\x00\x00\xc0c@'
p1653
tp1654
Rp1655
tp1656
a(S'cpvert_4MeV_15tilt_95rot_det14.npy'
p1657
F1.3307
F0.013
F43.4113
F0.2441
F0.826
F0.009
g11
(g15
S'\x00\x00\x00\x00\x00\x00Z@'
p1658
tp1659
Rp1660
tp1661
a(S'cpvert_4MeV_15tilt_95rot_det15.npy'
p1662
F1.6814
F0.0203
F66.111
F0.4839
F1.0656
F0.0143
g11
(g15
S'\x00\x00\x00\x00\x00\xc0R@'
p1663
tp1664
Rp1665
tp1666
a(S'cpvert_4MeV_15tilt_95rot_det4.npy'
p1667
F1.6402
F0.0155
F64.3524
F0.5126
F1.0552
F0.0113
g11
(g15
S'\x00\x00\x00\x00\x00\xc0S@'
p1668
tp1669
Rp1670
tp1671
a(S'cpvert_4MeV_15tilt_95rot_det5.npy'
p1672
F1.2638
F0.0126
F40.5435
F0.1963
F0.7945
F0.0087
g11
(g15
S'\x00\x00\x00\x00\x00@a@'
p1673
tp1674
Rp1675
tp1676
a(S'cpvert_4MeV_15tilt_95rot_det6.npy'
p1677
F0.8846
F0.0073
F31.1294
F0.1437
F0.5371
F0.0052
g11
(g15
S'\x00\x00\x00\x00\x00\x00_@'
p1678
tp1679
Rp1680
tp1681
a(S'cpvert_4MeV_15tilt_95rot_det7.npy'
p1682
F0.512
F0.0046
F27.6914
F0.116
F0.2949
F0.0032
g11
(g15
S'\x00\x00\x00\x00\x00`b@'
p1683
tp1684
Rp1685
tp1686
a(S'cpvert_4MeV_15tilt_95rot_det8.npy'
p1687
F0.245
F0.0029
F27.8917
F0.0836
F0.1321
F0.0017
g11
(g15
S'\x00\x00\x00\x00\x00\x00d@'
p1688
tp1689
Rp1690
tp1691
a(S'cpvert_4MeV_15tilt_95rot_det9.npy'
p1692
F0.0761
F0.0013
F26.0085
F0.0885
F0.0369
F0.0007
g11
(g15
S'\x00\x00\x00\x00\x00`f@'
p1693
tp1694
Rp1695
tp1696
a(S'cpvert_4MeV_30tilt_115rot_det10.npy'
p1697
F0.0735
F0.0012
F24.6999
F0.0943
F0.0352
F0.0007
g11
(g15
S'\x00\x00\x00\x00\x00\xc0e@'
p1698
tp1699
Rp1700
tp1701
a(S'cpvert_4MeV_30tilt_115rot_det11.npy'
p1702
F0.2549
F0.0036
F28.8981
F0.089
F0.1383
F0.0021
g11
(g15
S'\x00\x00\x00\x00\x00\x80^@'
p1703
tp1704
Rp1705
tp1706
a(S'cpvert_4MeV_30tilt_115rot_det12.npy'
p1707
F0.5495
F0.0055
F28.9889
F0.1043
F0.3195
F0.0036
g11
(g15
S'\x00\x00\x00\x00\x00@b@'
p1708
tp1709
Rp1710
tp1711
a(S'cpvert_4MeV_30tilt_115rot_det13.npy'
p1712
F0.9236
F0.0066
F34.0732
F0.1348
F0.5562
F0.0043
g11
(g15
S'\x00\x00\x00\x00\x00`b@'
p1713
tp1714
Rp1715
tp1716
a(S'cpvert_4MeV_30tilt_115rot_det14.npy'
p1717
F1.3222
F0.012
F43.7326
F0.2496
F0.8143
F0.0082
g11
(g15
S'\x00\x00\x00\x00\x00\x80W@'
p1718
tp1719
Rp1720
tp1721
a(S'cpvert_4MeV_30tilt_115rot_det15.npy'
p1722
F1.6325
F0.0268
F67.3105
F0.5538
F1.0238
F0.0172
g11
(g15
S'\x00\x00\x00\x00\x00\x00O@'
p1723
tp1724
Rp1725
tp1726
a(S'cpvert_4MeV_30tilt_115rot_det4.npy'
p1727
F1.5762
F0.0222
F63.7487
F0.5352
F1.0063
F0.0153
g11
(g15
S'\x00\x00\x00\x00\x00\x80R@'
p1728
tp1729
Rp1730
tp1731
a(S'cpvert_4MeV_30tilt_115rot_det5.npy'
p1732
F1.2037
F0.012
F40.8818
F0.2022
F0.752
F0.0085
g11
(g15
S'\x00\x00\x00\x00\x00\x00^@'
p1733
tp1734
Rp1735
tp1736
a(S'cpvert_4MeV_30tilt_115rot_det6.npy'
p1737
F0.847
F0.0077
F31.228
F0.1194
F0.5131
F0.0052
g11
(g15
S'\x00\x00\x00\x00\x00\xe0c@'
p1738
tp1739
Rp1740
tp1741
a(S'cpvert_4MeV_30tilt_115rot_det7.npy'
p1742
F0.4971
F0.0044
F27.8525
F0.0992
F0.2837
F0.0028
g11
(g15
S'\x00\x00\x00\x00\x00\x80f@'
p1743
tp1744
Rp1745
tp1746
a(S'cpvert_4MeV_30tilt_115rot_det8.npy'
p1747
F0.2275
F0.0027
F27.864
F0.0798
F0.1208
F0.0017
g11
(g15
S'\x00\x00\x00\x00\x00\xe0b@'
p1748
tp1749
Rp1750
tp1751
a(S'cpvert_4MeV_30tilt_115rot_det9.npy'
p1752
F0.0697
F0.0013
F25.8807
F0.0856
F0.0322
F0.0007
g11
(g15
S'\x00\x00\x00\x00\x00`d@'
p1753
tp1754
Rp1755
tp1756
a(S'cpvert_4MeV_30tilt_135rot_det10.npy'
p1757
F0.0749
F0.0013
F24.5158
F0.0928
F0.0346
F0.0007
g11
(g15
S'\x00\x00\x00\x00\x00`e@'
p1758
tp1759
Rp1760
tp1761
a(S'cpvert_4MeV_30tilt_135rot_det11.npy'
p1762
F0.2422
F0.003
F28.9223
F0.0905
F0.1306
F0.0018
g11
(g15
S'\x00\x00\x00\x00\x00\x80a@'
p1763
tp1764
Rp1765
tp1766
a(S'cpvert_4MeV_30tilt_135rot_det12.npy'
p1767
F0.5308
F0.0044
F29.1439
F0.0981
F0.3071
F0.0028
g11
(g15
S'\x00\x00\x00\x00\x00\xa0d@'
p1768
tp1769
Rp1770
tp1771
a(S'cpvert_4MeV_30tilt_135rot_det13.npy'
p1772
F0.9008
F0.0075
F33.7034
F0.1346
F0.5485
F0.0053
g11
(g15
S'\x00\x00\x00\x00\x00 b@'
p1773
tp1774
Rp1775
tp1776
a(S'cpvert_4MeV_30tilt_135rot_det14.npy'
p1777
F1.2942
F0.0117
F43.4684
F0.1996
F0.8106
F0.0084
g11
(g15
S'\x00\x00\x00\x00\x00@_@'
p1778
tp1779
Rp1780
tp1781
a(S'cpvert_4MeV_30tilt_135rot_det15.npy'
p1782
F1.7074
F0.0178
F67.6774
F0.5333
F1.0766
F0.0127
g11
(g15
S'\x00\x00\x00\x00\x00\x00R@'
p1783
tp1784
Rp1785
tp1786
a(S'cpvert_4MeV_30tilt_135rot_det4.npy'
p1787
F1.5838
F0.0252
F64.852
F0.5563
F1.0033
F0.0172
g11
(g15
S'\x00\x00\x00\x00\x00\xc0Q@'
p1788
tp1789
Rp1790
tp1791
a(S'cpvert_4MeV_30tilt_135rot_det5.npy'
p1792
F1.2796
F0.013
F40.3498
F0.1942
F0.794
F0.0085
g11
(g15
S'\x00\x00\x00\x00\x00\x80[@'
p1793
tp1794
Rp1795
tp1796
a(S'cpvert_4MeV_30tilt_135rot_det6.npy'
p1797
F0.8778
F0.0077
F30.9666
F0.122
F0.5297
F0.0051
g11
(g15
S'\x00\x00\x00\x00\x00@d@'
p1798
tp1799
Rp1800
tp1801
a(S'cpvert_4MeV_30tilt_135rot_det7.npy'
p1802
F0.508
F0.0047
F27.5477
F0.094
F0.293
F0.0033
g11
(g15
S'\x00\x00\x00\x00\x00\xe0c@'
p1803
tp1804
Rp1805
tp1806
a(S'cpvert_4MeV_30tilt_135rot_det8.npy'
p1807
F0.2304
F0.0033
F27.8402
F0.0856
F0.1227
F0.0019
g11
(g15
S'\x00\x00\x00\x00\x00\xa0a@'
p1808
tp1809
Rp1810
tp1811
a(S'cpvert_4MeV_30tilt_135rot_det9.npy'
p1812
F0.0692
F0.0012
F25.7101
F0.085
F0.0317
F0.0007
g11
(g15
S'\x00\x00\x00\x00\x00@e@'
p1813
tp1814
Rp1815
tp1816
a(S'cpvert_4MeV_30tilt_15rot_det10.npy'
p1817
F0.0734
F0.0013
F24.2554
F0.0935
F0.0359
F0.0008
g11
(g15
S'\x00\x00\x00\x00\x00@b@'
p1818
tp1819
Rp1820
tp1821
a(S'cpvert_4MeV_30tilt_15rot_det11.npy'
p1822
F0.2325
F0.0028
F28.7537
F0.096
F0.1259
F0.0017
g11
(g15
S'\x00\x00\x00\x00\x00\xe0a@'
p1823
tp1824
Rp1825
tp1826
a(S'cpvert_4MeV_30tilt_15rot_det12.npy'
p1827
F0.5
F0.0047
F28.74
F0.0947
F0.2875
F0.003
g11
(g15
S'\x00\x00\x00\x00\x00\x00f@'
p1828
tp1829
Rp1830
tp1831
a(S'cpvert_4MeV_30tilt_15rot_det13.npy'
p1832
F0.8445
F0.0082
F33.5452
F0.1352
F0.5114
F0.0056
g11
(g15
S'\x00\x00\x00\x00\x00`b@'
p1833
tp1834
Rp1835
tp1836
a(S'cpvert_4MeV_30tilt_15rot_det14.npy'
p1837
F1.2016
F0.0117
F43.6849
F0.2015
F0.7552
F0.008
g11
(g15
S'\x00\x00\x00\x00\x00\xa0`@'
p1838
tp1839
Rp1840
tp1841
a(S'cpvert_4MeV_30tilt_15rot_det15.npy'
p1842
F1.5463
F0.0202
F66.7983
F0.5227
F0.9926
F0.0141
g11
(g15
S'\x00\x00\x00\x00\x00\xc0R@'
p1843
tp1844
Rp1845
tp1846
a(S'cpvert_4MeV_30tilt_15rot_det4.npy'
p1847
F1.643
F0.0168
F65.163
F0.4429
F1.058
F0.0115
g11
(g15
S'\x00\x00\x00\x00\x00@V@'
p1848
tp1849
Rp1850
tp1851
a(S'cpvert_4MeV_30tilt_15rot_det5.npy'
p1852
F1.3195
F0.0099
F40.8882
F0.2045
F0.8267
F0.007
g11
(g15
S'\x00\x00\x00\x00\x00\x00Z@'
p1853
tp1854
Rp1855
tp1856
a(S'cpvert_4MeV_30tilt_15rot_det6.npy'
p1857
F0.9047
F0.0076
F31.4499
F0.1286
F0.5475
F0.0051
g11
(g15
S'\x00\x00\x00\x00\x00\x80c@'
p1858
tp1859
Rp1860
tp1861
a(S'cpvert_4MeV_30tilt_15rot_det7.npy'
p1862
F0.5538
F0.0046
F27.7119
F0.0961
F0.3191
F0.0029
g11
(g15
S'\x00\x00\x00\x00\x00\xa0d@'
p1863
tp1864
Rp1865
tp1866
a(S'cpvert_4MeV_30tilt_15rot_det8.npy'
p1867
F0.2544
F0.0034
F28.1791
F0.0888
F0.1379
F0.002
g11
(g15
S'\x00\x00\x00\x00\x00\x80a@'
p1868
tp1869
Rp1870
tp1871
a(S'cpvert_4MeV_30tilt_15rot_det9.npy'
p1872
F0.0788
F0.0016
F26.007
F0.1045
F0.0399
F0.0009
g11
(g15
S'\x00\x00\x00\x00\x00@a@'
p1873
tp1874
Rp1875
tp1876
a(S'cpvert_4MeV_30tilt_25rot_det10.npy'
p1877
F0.0702
F0.0012
F24.2241
F0.1052
F0.0345
F0.0007
g11
(g15
S'\x00\x00\x00\x00\x00\xc0d@'
p1878
tp1879
Rp1880
tp1881
a(S'cpvert_4MeV_30tilt_25rot_det11.npy'
p1882
F0.2394
F0.0028
F28.7215
F0.0855
F0.1306
F0.0016
g11
(g15
S'\x00\x00\x00\x00\x00@c@'
p1883
tp1884
Rp1885
tp1886
a(S'cpvert_4MeV_30tilt_25rot_det12.npy'
p1887
F0.5122
F0.0051
F28.7835
F0.1034
F0.2962
F0.0032
g11
(g15
S'\x00\x00\x00\x00\x00\x80c@'
p1888
tp1889
Rp1890
tp1891
a(S'cpvert_4MeV_30tilt_25rot_det13.npy'
p1892
F0.865
F0.0078
F33.6178
F0.1337
F0.5245
F0.0054
g11
(g15
S'\x00\x00\x00\x00\x00\xc0b@'
p1893
tp1894
Rp1895
tp1896
a(S'cpvert_4MeV_30tilt_25rot_det14.npy'
p1897
F1.2054
F0.0105
F43.0355
F0.2019
F0.7579
F0.0078
g11
(g15
S'\x00\x00\x00\x00\x00\x80^@'
p1898
tp1899
Rp1900
tp1901
a(S'cpvert_4MeV_30tilt_25rot_det15.npy'
p1902
F1.5616
F0.0161
F67.0862
F0.513
F1.0037
F0.0116
g11
(g15
S'\x00\x00\x00\x00\x00@Q@'
p1903
tp1904
Rp1905
tp1906
a(S'cpvert_4MeV_30tilt_25rot_det4.npy'
p1907
F1.5837
F0.0217
F65.0777
F0.4647
F1.0175
F0.0153
g11
(g15
S'\x00\x00\x00\x00\x00\x00W@'
p1908
tp1909
Rp1910
tp1911
a(S'cpvert_4MeV_30tilt_25rot_det5.npy'
p1912
F1.2862
F0.012
F41.1102
F0.2008
F0.8081
F0.0088
g11
(g15
S'\x00\x00\x00\x00\x00\x80\\@'
p1913
tp1914
Rp1915
tp1916
a(S'cpvert_4MeV_30tilt_25rot_det6.npy'
p1917
F0.9223
F0.0067
F30.9164
F0.1367
F0.5583
F0.0047
g11
(g15
S'\x00\x00\x00\x00\x00\xc0^@'
p1918
tp1919
Rp1920
tp1921
a(S'cpvert_4MeV_30tilt_25rot_det7.npy'
p1922
F0.5337
F0.0054
F27.9118
F0.1017
F0.3091
F0.0035
g11
(g15
S'\x00\x00\x00\x00\x00@c@'
p1923
tp1924
Rp1925
tp1926
a(S'cpvert_4MeV_30tilt_25rot_det8.npy'
p1927
F0.2598
F0.0034
F27.942
F0.0852
F0.1426
F0.002
g11
(g15
S'\x00\x00\x00\x00\x00\xc0b@'
p1928
tp1929
Rp1930
tp1931
a(S'cpvert_4MeV_30tilt_25rot_det9.npy'
p1932
F0.0806
F0.0013
F25.624
F0.0899
F0.0411
F0.0008
g11
(g15
S'\x00\x00\x00\x00\x00@d@'
p1933
tp1934
Rp1935
tp1936
a(S'cpvert_4MeV_30tilt_315rot_det10.npy'
p1937
F0.0748
F0.0014
F24.4153
F0.0891
F0.0373
F0.0007
g11
(g15
S'\x00\x00\x00\x00\x00\x00f@'
p1938
tp1939
Rp1940
tp1941
a(S'cpvert_4MeV_30tilt_315rot_det11.npy'
p1942
F0.2445
F0.0031
F28.8076
F0.0929
F0.1333
F0.002
g11
(g15
S'\x00\x00\x00\x00\x00`e@'
p1943
tp1944
Rp1945
tp1946
a(S'cpvert_4MeV_30tilt_315rot_det12.npy'
p1947
F0.5211
F0.0048
F28.7715
F0.1027
F0.3019
F0.0031
g11
(g15
S'\x00\x00\x00\x00\x00 f@'
p1948
tp1949
Rp1950
tp1951
a(S'cpvert_4MeV_30tilt_315rot_det13.npy'
p1952
F0.898
F0.0079
F33.6688
F0.1412
F0.5471
F0.0052
g11
(g15
S'\x00\x00\x00\x00\x00\xe0a@'
p1953
tp1954
Rp1955
tp1956
a(S'cpvert_4MeV_30tilt_315rot_det14.npy'
p1957
F1.3092
F0.012
F42.9004
F0.2341
F0.8219
F0.0085
g11
(g15
S'\x00\x00\x00\x00\x00\x80]@'
p1958
tp1959
Rp1960
tp1961
a(S'cpvert_4MeV_30tilt_315rot_det15.npy'
p1962
F1.6669
F0.0205
F66.5499
F0.4733
F1.0569
F0.014
g11
(g15
S'\x00\x00\x00\x00\x00\xc0U@'
p1963
tp1964
Rp1965
tp1966
a(S'cpvert_4MeV_30tilt_315rot_det4.npy'
p1967
F1.6482
F0.0197
F64.6494
F0.5134
F1.0429
F0.0139
g11
(g15
S'\x00\x00\x00\x00\x00\x80R@'
p1968
tp1969
Rp1970
tp1971
a(S'cpvert_4MeV_30tilt_315rot_det5.npy'
p1972
F1.2904
F0.0128
F41.2954
F0.2211
F0.8043
F0.0088
g11
(g15
S'\x00\x00\x00\x00\x00@Z@'
p1973
tp1974
Rp1975
tp1976
a(S'cpvert_4MeV_30tilt_315rot_det6.npy'
p1977
F0.8942
F0.0079
F31.6843
F0.13
F0.5427
F0.0054
g11
(g15
S'\x00\x00\x00\x00\x00`a@'
p1978
tp1979
Rp1980
tp1981
a(S'cpvert_4MeV_30tilt_315rot_det7.npy'
p1982
F0.5171
F0.0052
F27.8427
F0.1029
F0.3008
F0.0035
g11
(g15
S'\x00\x00\x00\x00\x00\xe0c@'
p1983
tp1984
Rp1985
tp1986
a(S'cpvert_4MeV_30tilt_315rot_det8.npy'
p1987
F0.2472
F0.0028
F27.7889
F0.0861
F0.1347
F0.0017
g11
(g15
S'\x00\x00\x00\x00\x00\xc0a@'
p1988
tp1989
Rp1990
tp1991
a(S'cpvert_4MeV_30tilt_315rot_det9.npy'
p1992
F0.0783
F0.0014
F26.0022
F0.0962
F0.0387
F0.0008
g11
(g15
S'\x00\x00\x00\x00\x00\x00b@'
p1993
tp1994
Rp1995
tp1996
a(S'cpvert_4MeV_30tilt_335rot_det10.npy'
p1997
F0.0739
F0.0013
F24.435
F0.1055
F0.0366
F0.0007
g11
(g15
S'\x00\x00\x00\x00\x00@d@'
p1998
tp1999
Rp2000
tp2001
a(S'cpvert_4MeV_30tilt_335rot_det11.npy'
p2002
F0.2317
F0.0029
F28.8404
F0.0857
F0.1249
F0.0017
g11
(g15
S'\x00\x00\x00\x00\x00 f@'
p2003
tp2004
Rp2005
tp2006
a(S'cpvert_4MeV_30tilt_335rot_det12.npy'
p2007
F0.5167
F0.0048
F28.8412
F0.1064
F0.3017
F0.0033
g11
(g15
S'\x00\x00\x00\x00\x00\x80f@'
p2008
tp2009
Rp2010
tp2011
a(S'cpvert_4MeV_30tilt_335rot_det13.npy'
p2012
F0.8714
F0.0075
F33.4885
F0.1406
F0.5328
F0.0052
g11
(g15
S'\x00\x00\x00\x00\x00\x00c@'
p2013
tp2014
Rp2015
tp2016
a(S'cpvert_4MeV_30tilt_335rot_det14.npy'
p2017
F1.2929
F0.0113
F43.176
F0.2159
F0.8138
F0.0078
g11
(g15
S'\x00\x00\x00\x00\x00\xc0^@'
p2018
tp2019
Rp2020
tp2021
a(S'cpvert_4MeV_30tilt_335rot_det15.npy'
p2022
F1.5988
F0.0204
F66.433
F0.4506
F1.0252
F0.0143
g11
(g15
S'\x00\x00\x00\x00\x00\x00V@'
p2023
tp2024
Rp2025
tp2026
a(S'cpvert_4MeV_30tilt_335rot_det4.npy'
p2027
F1.7235
F0.0168
F65.1273
F0.498
F1.083
F0.0116
g11
(g15
S'\x00\x00\x00\x00\x00\x00P@'
p2028
tp2029
Rp2030
tp2031
a(S'cpvert_4MeV_30tilt_335rot_det5.npy'
p2032
F1.3347
F0.0143
F41.4328
F0.1974
F0.8267
F0.0096
g11
(g15
S'\x00\x00\x00\x00\x00\x80^@'
p2033
tp2034
Rp2035
tp2036
a(S'cpvert_4MeV_30tilt_335rot_det6.npy'
p2037
F0.9192
F0.0086
F31.3898
F0.1503
F0.5542
F0.0058
g11
(g15
S'\x00\x00\x00\x00\x00\x00[@'
p2038
tp2039
Rp2040
tp2041
a(S'cpvert_4MeV_30tilt_335rot_det7.npy'
p2042
F0.5346
F0.0048
F27.814
F0.1059
F0.3095
F0.0032
g11
(g15
S'\x00\x00\x00\x00\x00 c@'
p2043
tp2044
Rp2045
tp2046
a(S'cpvert_4MeV_30tilt_335rot_det8.npy'
p2047
F0.248
F0.0032
F28.0042
F0.0953
F0.1349
F0.0019
g11
(g15
S'\x00\x00\x00\x00\x00\x00c@'
p2048
tp2049
Rp2050
tp2051
a(S'cpvert_4MeV_30tilt_335rot_det9.npy'
p2052
F0.0779
F0.0014
F26.0393
F0.0818
F0.0386
F0.0008
g11
(g15
S'\x00\x00\x00\x00\x00\xa0d@'
p2053
tp2054
Rp2055
tp2056
a(S'cpvert_4MeV_30tilt_345rot_det10.npy'
p2057
F0.0729
F0.0013
F24.413
F0.1033
F0.0354
F0.0007
g11
(g15
S'\x00\x00\x00\x00\x00@d@'
p2058
tp2059
Rp2060
tp2061
a(S'cpvert_4MeV_30tilt_345rot_det11.npy'
p2062
F0.2314
F0.0027
F28.8321
F0.0894
F0.1243
F0.0016
g11
(g15
S'\x00\x00\x00\x00\x00\x00f@'
p2063
tp2064
Rp2065
tp2066
a(S'cpvert_4MeV_30tilt_345rot_det12.npy'
p2067
F0.5088
F0.0053
F28.8298
F0.0958
F0.2954
F0.0033
g11
(g15
S'\x00\x00\x00\x00\x00\xc0g@'
p2068
tp2069
Rp2070
tp2071
a(S'cpvert_4MeV_30tilt_345rot_det13.npy'
p2072
F0.857
F0.0081
F33.8627
F0.1406
F0.5242
F0.0054
g11
(g15
S'\x00\x00\x00\x00\x00\xe0d@'
p2073
tp2074
Rp2075
tp2076
a(S'cpvert_4MeV_30tilt_345rot_det14.npy'
p2077
F1.2443
F0.0119
F43.1956
F0.2239
F0.7829
F0.0084
g11
(g15
S'\x00\x00\x00\x00\x00\x00^@'
p2078
tp2079
Rp2080
tp2081
a(S'cpvert_4MeV_30tilt_345rot_det15.npy'
p2082
F1.6141
F0.0171
F65.9669
F0.4292
F1.0378
F0.0126
g11
(g15
S'\x00\x00\x00\x00\x00\x00W@'
p2083
tp2084
Rp2085
tp2086
a(S'cpvert_4MeV_30tilt_345rot_det4.npy'
p2087
F1.7335
F0.0171
F65.2372
F0.5218
F1.0971
F0.0117
g11
(g15
S'\x00\x00\x00\x00\x00\x80R@'
p2088
tp2089
Rp2090
tp2091
a(S'cpvert_4MeV_30tilt_345rot_det5.npy'
p2092
F1.3265
F0.0111
F40.9368
F0.2358
F0.8217
F0.0074
g11
(g15
S'\x00\x00\x00\x00\x00\x00]@'
p2093
tp2094
Rp2095
tp2096
a(S'cpvert_4MeV_30tilt_345rot_det6.npy'
p2097
F0.9135
F0.0081
F31.3365
F0.1334
F0.5476
F0.0053
g11
(g15
S'\x00\x00\x00\x00\x00\xc0_@'
p2098
tp2099
Rp2100
tp2101
a(S'cpvert_4MeV_30tilt_345rot_det7.npy'
p2102
F0.542
F0.0057
F27.7799
F0.0897
F0.3145
F0.0036
g11
(g15
S'\x00\x00\x00\x00\x00\xa0f@'
p2103
tp2104
Rp2105
tp2106
a(S'cpvert_4MeV_30tilt_345rot_det8.npy'
p2107
F0.2561
F0.0032
F27.934
F0.0861
F0.14
F0.0018
g11
(g15
S'\x00\x00\x00\x00\x00\xa0b@'
p2108
tp2109
Rp2110
tp2111
a(S'cpvert_4MeV_30tilt_345rot_det9.npy'
p2112
F0.0781
F0.0014
F25.9289
F0.0968
F0.0395
F0.0008
g11
(g15
S'\x00\x00\x00\x00\x00 b@'
p2113
tp2114
Rp2115
tp2116
a(S'cpvert_4MeV_30tilt_355rot_det10.npy'
p2117
F0.0684
F0.0017
F24.242
F0.1036
F0.034
F0.0009
g11
(g15
S'\x00\x00\x00\x00\x00\x00c@'
p2118
tp2119
Rp2120
tp2121
a(S'cpvert_4MeV_30tilt_355rot_det11.npy'
p2122
F0.2397
F0.0027
F28.8039
F0.08
F0.1284
F0.0016
g11
(g15
S'\x00\x00\x00\x00\x00\xc0f@'
p2123
tp2124
Rp2125
tp2126
a(S'cpvert_4MeV_30tilt_355rot_det12.npy'
p2127
F0.5081
F0.0056
F28.8299
F0.1047
F0.2927
F0.0036
g11
(g15
S'\x00\x00\x00\x00\x00\xe0b@'
p2128
tp2129
Rp2130
tp2131
a(S'cpvert_4MeV_30tilt_355rot_det13.npy'
p2132
F0.862
F0.0076
F33.4787
F0.1298
F0.5261
F0.0051
g11
(g15
S'\x00\x00\x00\x00\x00\xc0c@'
p2133
tp2134
Rp2135
tp2136
a(S'cpvert_4MeV_30tilt_355rot_det14.npy'
p2137
F1.2252
F0.0104
F43.1915
F0.2117
F0.7722
F0.0072
g11
(g15
S'\x00\x00\x00\x00\x00\x80a@'
p2138
tp2139
Rp2140
tp2141
a(S'cpvert_4MeV_30tilt_355rot_det15.npy'
p2142
F1.6239
F0.0166
F66.8402
F0.4195
F1.0482
F0.012
g11
(g15
S'\x00\x00\x00\x00\x00\x80V@'
p2143
tp2144
Rp2145
tp2146
a(S'cpvert_4MeV_30tilt_355rot_det4.npy'
p2147
F1.7197
F0.0153
F64.8496
F0.4847
F1.0962
F0.0111
g11
(g15
S'\x00\x00\x00\x00\x00@S@'
p2148
tp2149
Rp2150
tp2151
a(S'cpvert_4MeV_30tilt_355rot_det5.npy'
p2152
F1.327
F0.0135
F40.8998
F0.1943
F0.8205
F0.0091
g11
(g15
S'\x00\x00\x00\x00\x00\xc0Z@'
p2153
tp2154
Rp2155
tp2156
a(S'cpvert_4MeV_30tilt_355rot_det6.npy'
p2157
F0.9454
F0.0079
F31.1579
F0.1396
F0.5688
F0.0054
g11
(g15
S'\x00\x00\x00\x00\x00\xe0`@'
p2158
tp2159
Rp2160
tp2161
a(S'cpvert_4MeV_30tilt_355rot_det7.npy'
p2162
F0.5436
F0.0057
F27.784
F0.0994
F0.3134
F0.0038
g11
(g15
S'\x00\x00\x00\x00\x00\x80c@'
p2163
tp2164
Rp2165
tp2166
a(S'cpvert_4MeV_30tilt_355rot_det8.npy'
p2167
F0.2578
F0.0032
F27.9197
F0.0952
F0.141
F0.0019
g11
(g15
S'\x00\x00\x00\x00\x00\x00`@'
p2168
tp2169
Rp2170
tp2171
a(S'cpvert_4MeV_30tilt_355rot_det9.npy'
p2172
F0.0792
F0.0014
F25.8155
F0.091
F0.0397
F0.0008
g11
(g15
S'\x00\x00\x00\x00\x00 d@'
p2173
tp2174
Rp2175
tp2176
a(S'cpvert_4MeV_30tilt_35rot_det10.npy'
p2177
F0.0725
F0.0015
F24.4312
F0.1068
F0.0359
F0.0008
g11
(g15
S'\x00\x00\x00\x00\x00\x00d@'
p2178
tp2179
Rp2180
tp2181
a(S'cpvert_4MeV_30tilt_35rot_det11.npy'
p2182
F0.2411
F0.003
F28.772
F0.0922
F0.131
F0.0018
g11
(g15
S'\x00\x00\x00\x00\x00`b@'
p2183
tp2184
Rp2185
tp2186
a(S'cpvert_4MeV_30tilt_35rot_det12.npy'
p2187
F0.5149
F0.0055
F28.9083
F0.0901
F0.298
F0.0037
g11
(g15
S'\x00\x00\x00\x00\x00\x80c@'
p2188
tp2189
Rp2190
tp2191
a(S'cpvert_4MeV_30tilt_35rot_det13.npy'
p2192
F0.8555
F0.0066
F33.7254
F0.1428
F0.5186
F0.0045
g11
(g15
S'\x00\x00\x00\x00\x00\x80b@'
p2193
tp2194
Rp2195
tp2196
a(S'cpvert_4MeV_30tilt_35rot_det14.npy'
p2197
F1.2422
F0.0105
F43.366
F0.22
F0.7799
F0.0078
g11
(g15
S'\x00\x00\x00\x00\x00\x00^@'
p2198
tp2199
Rp2200
tp2201
a(S'cpvert_4MeV_30tilt_35rot_det15.npy'
p2202
F1.5326
F0.0186
F65.7309
F0.4719
F0.984
F0.0133
g11
(g15
S'\x00\x00\x00\x00\x00@U@'
p2203
tp2204
Rp2205
tp2206
a(S'cpvert_4MeV_30tilt_35rot_det4.npy'
p2207
F1.5819
F0.0194
F64.6352
F0.5686
F1.0208
F0.0136
g11
(g15
S'\x00\x00\x00\x00\x00\x80R@'
p2208
tp2209
Rp2210
tp2211
a(S'cpvert_4MeV_30tilt_35rot_det5.npy'
p2212
F1.2609
F0.012
F41.0352
F0.2022
F0.7919
F0.0084
g11
(g15
S'\x00\x00\x00\x00\x00\xc0_@'
p2213
tp2214
Rp2215
tp2216
a(S'cpvert_4MeV_30tilt_35rot_det6.npy'
p2217
F0.8843
F0.0088
F31.3591
F0.1227
F0.5366
F0.006
g11
(g15
S'\x00\x00\x00\x00\x00\xe0`@'
p2218
tp2219
Rp2220
tp2221
a(S'cpvert_4MeV_30tilt_35rot_det7.npy'
p2222
F0.537
F0.0059
F27.8137
F0.1002
F0.3094
F0.0039
g11
(g15
S'\x00\x00\x00\x00\x00\xe0c@'
p2223
tp2224
Rp2225
tp2226
a(S'cpvert_4MeV_30tilt_35rot_det8.npy'
p2227
F0.26
F0.0034
F27.8326
F0.0856
F0.1434
F0.0021
g11
(g15
S'\x00\x00\x00\x00\x00\xc0a@'
p2228
tp2229
Rp2230
tp2231
a(S'cpvert_4MeV_30tilt_35rot_det9.npy'
p2232
F0.0817
F0.0016
F25.8634
F0.1013
F0.0413
F0.0009
g11
(g15
S'\x00\x00\x00\x00\x00\xe0`@'
p2233
tp2234
Rp2235
tp2236
a(S'cpvert_4MeV_30tilt_45rot_det10.npy'
p2237
F0.0735
F0.0014
F24.4502
F0.1019
F0.0361
F0.0008
g11
(g15
S'\x00\x00\x00\x00\x00\x00c@'
p2238
tp2239
Rp2240
tp2241
a(S'cpvert_4MeV_30tilt_45rot_det11.npy'
p2242
F0.2515
F0.0033
F28.7921
F0.0938
F0.1363
F0.002
g11
(g15
S'\x00\x00\x00\x00\x00\x80a@'
p2243
tp2244
Rp2245
tp2246
a(S'cpvert_4MeV_30tilt_45rot_det12.npy'
p2247
F0.5304
F0.005
F28.8092
F0.1106
F0.3061
F0.0032
g11
(g15
S'\x00\x00\x00\x00\x00 e@'
p2248
tp2249
Rp2250
tp2251
a(S'cpvert_4MeV_30tilt_45rot_det13.npy'
p2252
F0.8666
F0.0075
F33.7039
F0.1251
F0.5234
F0.005
g11
(g15
S'\x00\x00\x00\x00\x00 e@'
p2253
tp2254
Rp2255
tp2256
a(S'cpvert_4MeV_30tilt_45rot_det14.npy'
p2257
F1.2249
F0.0123
F43.3473
F0.2297
F0.7643
F0.0088
g11
(g15
S'\x00\x00\x00\x00\x00\x80X@'
p2258
tp2259
Rp2260
tp2261
a(S'cpvert_4MeV_30tilt_45rot_det15.npy'
p2262
F1.5662
F0.0167
F66.9461
F0.5119
F1.0061
F0.0121
g11
(g15
S'\x00\x00\x00\x00\x00\xc0Q@'
p2263
tp2264
Rp2265
tp2266
a(S'cpvert_4MeV_30tilt_45rot_det4.npy'
p2267
F1.5093
F0.0224
F65.0452
F0.4942
F0.9684
F0.0157
g11
(g15
S'\x00\x00\x00\x00\x00\x00U@'
p2268
tp2269
Rp2270
tp2271
a(S'cpvert_4MeV_30tilt_45rot_det5.npy'
p2272
F1.2518
F0.0107
F40.9966
F0.2041
F0.7889
F0.0075
g11
(g15
S'\x00\x00\x00\x00\x00\xc0^@'
p2273
tp2274
Rp2275
tp2276
a(S'cpvert_4MeV_30tilt_45rot_det6.npy'
p2277
F0.8888
F0.0086
F31.1042
F0.1322
F0.5409
F0.0059
g11
(g15
S'\x00\x00\x00\x00\x00\x00^@'
p2278
tp2279
Rp2280
tp2281
a(S'cpvert_4MeV_30tilt_45rot_det7.npy'
p2282
F0.5245
F0.0059
F27.5499
F0.123
F0.3036
F0.0038
g11
(g15
S'\x00\x00\x00\x00\x00@[@'
p2283
tp2284
Rp2285
tp2286
a(S'cpvert_4MeV_30tilt_45rot_det8.npy'
p2287
F0.2517
F0.003
F28.005
F0.0899
F0.1367
F0.0018
g11
(g15
S'\x00\x00\x00\x00\x00`b@'
p2288
tp2289
Rp2290
tp2291
a(S'cpvert_4MeV_30tilt_45rot_det9.npy'
p2292
F0.0769
F0.0015
F25.8939
F0.0963
F0.0375
F0.0008
g11
(g15
S'\x00\x00\x00\x00\x00\x80_@'
p2293
tp2294
Rp2295
tp2296
a(S'cpvert_4MeV_30tilt_55rot_det10.npy'
p2297
F0.0739
F0.0013
F24.288
F0.0943
F0.0366
F0.0008
g11
(g15
S'\x00\x00\x00\x00\x00\xe0g@'
p2298
tp2299
Rp2300
tp2301
a(S'cpvert_4MeV_30tilt_55rot_det11.npy'
p2302
F0.2472
F0.003
F28.8141
F0.0916
F0.1347
F0.0019
g11
(g15
S'\x00\x00\x00\x00\x00\xa0g@'
p2303
tp2304
Rp2305
tp2306
a(S'cpvert_4MeV_30tilt_55rot_det12.npy'
p2307
F0.5334
F0.0048
F28.6089
F0.0892
F0.307
F0.003
g11
(g15
S'\x00\x00\x00\x00\x00 h@'
p2308
tp2309
Rp2310
tp2311
a(S'cpvert_4MeV_30tilt_55rot_det13.npy'
p2312
F0.8704
F0.0075
F33.8721
F0.13
F0.525
F0.005
g11
(g15
S'\x00\x00\x00\x00\x00\x00f@'
p2313
tp2314
Rp2315
tp2316
a(S'cpvert_4MeV_30tilt_55rot_det14.npy'
p2317
F1.2389
F0.0099
F43.0907
F0.2259
F0.7792
F0.007
g11
(g15
S'\x00\x00\x00\x00\x00@a@'
p2318
tp2319
Rp2320
tp2321
a(S'cpvert_4MeV_30tilt_55rot_det15.npy'
p2322
F1.5735
F0.0167
F66.0868
F0.4364
F1.0095
F0.0113
g11
(g15
S'\x00\x00\x00\x00\x00\x80V@'
p2323
tp2324
Rp2325
tp2326
a(S'cpvert_4MeV_30tilt_55rot_det4.npy'
p2327
F1.5326
F0.016
F64.7592
F0.424
F0.9884
F0.0119
g11
(g15
S'\x00\x00\x00\x00\x00\x00]@'
p2328
tp2329
Rp2330
tp2331
a(S'cpvert_4MeV_30tilt_55rot_det5.npy'
p2332
F1.2371
F0.0101
F41.0174
F0.1853
F0.78
F0.0069
g11
(g15
S'\x00\x00\x00\x00\x00\xa0b@'
p2333
tp2334
Rp2335
tp2336
a(S'cpvert_4MeV_30tilt_55rot_det6.npy'
p2337
F0.865
F0.0067
F31.2302
F0.1116
F0.5259
F0.0046
g11
(g15
S'\x00\x00\x00\x00\x00\xe0e@'
p2338
tp2339
Rp2340
tp2341
a(S'cpvert_4MeV_30tilt_55rot_det7.npy'
p2342
F0.5169
F0.0043
F27.9369
F0.089
F0.2993
F0.0027
g11
(g15
S'\x00\x00\x00\x00\x00\xc0f@'
p2343
tp2344
Rp2345
tp2346
a(S'cpvert_4MeV_30tilt_55rot_det8.npy'
p2347
F0.2456
F0.0025
F27.8999
F0.0717
F0.133
F0.0015
g11
(g15
S'\x00\x00\x00\x00\x00\xc0h@'
p2348
tp2349
Rp2350
tp2351
a(S'cpvert_4MeV_30tilt_55rot_det9.npy'
p2352
F0.0758
F0.0012
F25.6837
F0.0809
F0.0371
F0.0007
g11
(g15
S'\x00\x00\x00\x00\x00\x80g@'
p2353
tp2354
Rp2355
tp2356
a(S'cpvert_4MeV_30tilt_5rot_det10.npy'
p2357
F0.0734
F0.0013
F24.4636
F0.0933
F0.036
F0.0007
g11
(g15
S'\x00\x00\x00\x00\x00`d@'
p2358
tp2359
Rp2360
tp2361
a(S'cpvert_4MeV_30tilt_5rot_det11.npy'
p2362
F0.2329
F0.0029
F28.7232
F0.0981
F0.1259
F0.0018
g11
(g15
S'\x00\x00\x00\x00\x00\xe0c@'
p2363
tp2364
Rp2365
tp2366
a(S'cpvert_4MeV_30tilt_5rot_det12.npy'
p2367
F0.4987
F0.0047
F28.7561
F0.0941
F0.2886
F0.0033
g11
(g15
S'\x00\x00\x00\x00\x00\xa0e@'
p2368
tp2369
Rp2370
tp2371
a(S'cpvert_4MeV_30tilt_5rot_det13.npy'
p2372
F0.8457
F0.0077
F33.5999
F0.1305
F0.513
F0.0051
g11
(g15
S'\x00\x00\x00\x00\x00\xa0d@'
p2373
tp2374
Rp2375
tp2376
a(S'cpvert_4MeV_30tilt_5rot_det14.npy'
p2377
F1.2213
F0.0118
F43.3151
F0.2292
F0.7661
F0.0081
g11
(g15
S'\x00\x00\x00\x00\x00\x00_@'
p2378
tp2379
Rp2380
tp2381
a(S'cpvert_4MeV_30tilt_5rot_det15.npy'
p2382
F1.5768
F0.0181
F66.8762
F0.4857
F1.0126
F0.0125
g11
(g15
S'\x00\x00\x00\x00\x00\x80Q@'
p2383
tp2384
Rp2385
tp2386
a(S'cpvert_4MeV_30tilt_5rot_det4.npy'
p2387
F1.6637
F0.0215
F65.4691
F0.4852
F1.0604
F0.0143
g11
(g15
S'\x00\x00\x00\x00\x00\x80Q@'
p2388
tp2389
Rp2390
tp2391
a(S'cpvert_4MeV_30tilt_5rot_det5.npy'
p2392
F1.3242
F0.0135
F40.6372
F0.2018
F0.8255
F0.0092
g11
(g15
S'\x00\x00\x00\x00\x00\x80\\@'
p2393
tp2394
Rp2395
tp2396
a(S'cpvert_4MeV_30tilt_5rot_det6.npy'
p2397
F0.9271
F0.0078
F31.284
F0.126
F0.5567
F0.0053
g11
(g15
S'\x00\x00\x00\x00\x00\x00b@'
p2398
tp2399
Rp2400
tp2401
a(S'cpvert_4MeV_30tilt_5rot_det7.npy'
p2402
F0.5456
F0.0056
F27.7031
F0.111
F0.3142
F0.0037
g11
(g15
S'\x00\x00\x00\x00\x00\xa0c@'
p2403
tp2404
Rp2405
tp2406
a(S'cpvert_4MeV_30tilt_5rot_det8.npy'
p2407
F0.2557
F0.0035
F28.0719
F0.0993
F0.1409
F0.0021
g11
(g15
S'\x00\x00\x00\x00\x00``@'
p2408
tp2409
Rp2410
tp2411
a(S'cpvert_4MeV_30tilt_5rot_det9.npy'
p2412
F0.0781
F0.0014
F25.9638
F0.0955
F0.0397
F0.0008
g11
(g15
S'\x00\x00\x00\x00\x00\xa0c@'
p2413
tp2414
Rp2415
tp2416
a(S'cpvert_4MeV_30tilt_75rot_det10.npy'
p2417
F0.0782
F0.0013
F24.3558
F0.0913
F0.0384
F0.0007
g11
(g15
S'\x00\x00\x00\x00\x00`h@'
p2418
tp2419
Rp2420
tp2421
a(S'cpvert_4MeV_30tilt_75rot_det11.npy'
p2422
F0.2547
F0.0033
F28.7567
F0.0918
F0.1384
F0.0019
g11
(g15
S'\x00\x00\x00\x00\x00`e@'
p2423
tp2424
Rp2425
tp2426
a(S'cpvert_4MeV_30tilt_75rot_det12.npy'
p2427
F0.5513
F0.0045
F28.811
F0.1009
F0.3179
F0.0028
g11
(g15
S'\x00\x00\x00\x00\x00\xa0e@'
p2428
tp2429
Rp2430
tp2431
a(S'cpvert_4MeV_30tilt_75rot_det13.npy'
p2432
F0.9194
F0.0074
F33.9427
F0.1488
F0.5508
F0.0049
g11
(g15
S'\x00\x00\x00\x00\x00\xc0^@'
p2433
tp2434
Rp2435
tp2436
a(S'cpvert_4MeV_30tilt_75rot_det14.npy'
p2437
F1.2728
F0.0134
F43.3024
F0.2059
F0.796
F0.0091
g11
(g15
S'\x00\x00\x00\x00\x00\x80^@'
p2438
tp2439
Rp2440
tp2441
a(S'cpvert_4MeV_30tilt_75rot_det15.npy'
p2442
F1.5909
F0.0217
F66.5285
F0.4231
F1.0126
F0.015
g11
(g15
S'\x00\x00\x00\x00\x00\xc0W@'
p2443
tp2444
Rp2445
tp2446
a(S'cpvert_4MeV_30tilt_75rot_det4.npy'
p2447
F1.551
F0.0162
F64.1746
F0.4272
F0.9923
F0.0113
g11
(g15
S'\x00\x00\x00\x00\x00@Y@'
p2448
tp2449
Rp2450
tp2451
a(S'cpvert_4MeV_30tilt_75rot_det5.npy'
p2452
F1.2723
F0.0107
F40.7764
F0.2272
F0.8086
F0.009
g11
(g15
S'\x00\x00\x00\x00\x00@Y@'
p2453
tp2454
Rp2455
tp2456
a(S'cpvert_4MeV_30tilt_75rot_det6.npy'
p2457
F0.8515
F0.0078
F31.3583
F0.1323
F0.5164
F0.0053
g11
(g15
S'\x00\x00\x00\x00\x00\xa0b@'
p2458
tp2459
Rp2460
tp2461
a(S'cpvert_4MeV_30tilt_75rot_det7.npy'
p2462
F0.5016
F0.0051
F27.7458
F0.092
F0.2885
F0.0031
g11
(g15
S'\x00\x00\x00\x00\x00\xa0e@'
p2463
tp2464
Rp2465
tp2466
a(S'cpvert_4MeV_30tilt_75rot_det8.npy'
p2467
F0.2325
F0.0035
F27.9068
F0.0899
F0.1252
F0.002
g11
(g15
S'\x00\x00\x00\x00\x00\x80b@'
p2468
tp2469
Rp2470
tp2471
a(S'cpvert_4MeV_30tilt_75rot_det9.npy'
p2472
F0.0733
F0.0013
F25.7812
F0.0952
F0.0352
F0.0007
g11
(g15
S'\x00\x00\x00\x00\x00\xe0c@'
p2473
tp2474
Rp2475
tp2476
a(S'cpvert_4MeV_30tilt_95rot_det10.npy'
p2477
F0.0769
F0.0014
F24.3931
F0.0985
F0.0376
F0.0008
g11
(g15
S'\x00\x00\x00\x00\x00`a@'
p2478
tp2479
Rp2480
tp2481
a(S'cpvert_4MeV_30tilt_95rot_det11.npy'
p2482
F0.2509
F0.0028
F28.8635
F0.0959
F0.1362
F0.0017
g11
(g15
S'\x00\x00\x00\x00\x00\xc0c@'
p2483
tp2484
Rp2485
tp2486
a(S'cpvert_4MeV_30tilt_95rot_det12.npy'
p2487
F0.5696
F0.0056
F28.961
F0.1001
F0.3291
F0.004
g11
(g15
S'\x00\x00\x00\x00\x00\xc0a@'
p2488
tp2489
Rp2490
tp2491
a(S'cpvert_4MeV_30tilt_95rot_det13.npy'
p2492
F0.9326
F0.0073
F33.8724
F0.135
F0.5617
F0.0049
g11
(g15
S'\x00\x00\x00\x00\x00\xe0b@'
p2493
tp2494
Rp2495
tp2496
a(S'cpvert_4MeV_30tilt_95rot_det14.npy'
p2497
F1.3391
F0.0112
F43.4689
F0.2296
F0.8277
F0.0075
g11
(g15
S'\x00\x00\x00\x00\x00\x00[@'
p2498
tp2499
Rp2500
tp2501
a(S'cpvert_4MeV_30tilt_95rot_det15.npy'
p2502
F1.6367
F0.0219
F68.3675
F0.5068
F1.0347
F0.0143
g11
(g15
S'\x00\x00\x00\x00\x00\xc0R@'
p2503
tp2504
Rp2505
tp2506
a(S'cpvert_4MeV_30tilt_95rot_det4.npy'
p2507
F1.584
F0.0186
F63.992
F0.5546
F1.0188
F0.0135
g11
(g15
S'\x00\x00\x00\x00\x00\x80Q@'
p2508
tp2509
Rp2510
tp2511
a(S'cpvert_4MeV_30tilt_95rot_det5.npy'
p2512
F1.2317
F0.0105
F40.6769
F0.2248
F0.7772
F0.0076
g11
(g15
S'\x00\x00\x00\x00\x00\xc0[@'
p2513
tp2514
Rp2515
tp2516
a(S'cpvert_4MeV_30tilt_95rot_det6.npy'
p2517
F0.8463
F0.0071
F31.1441
F0.1173
F0.5125
F0.005
g11
(g15
S'\x00\x00\x00\x00\x00\x00d@'
p2518
tp2519
Rp2520
tp2521
a(S'cpvert_4MeV_30tilt_95rot_det7.npy'
p2522
F0.5017
F0.0044
F27.5189
F0.105
F0.288
F0.0028
g11
(g15
S'\x00\x00\x00\x00\x00\x00c@'
p2523
tp2524
Rp2525
tp2526
a(S'cpvert_4MeV_30tilt_95rot_det8.npy'
p2527
F0.2323
F0.0028
F27.9337
F0.0883
F0.1239
F0.0017
g11
(g15
S'\x00\x00\x00\x00\x00\xa0b@'
p2528
tp2529
Rp2530
tp2531
a(S'cpvert_4MeV_30tilt_95rot_det9.npy'
p2532
F0.0728
F0.0013
F25.9701
F0.0761
F0.0344
F0.0007
g11
(g15
S'\x00\x00\x00\x00\x00\xc0d@'
p2533
tp2534
Rp2535
tp2536
a(S'cpvert_4MeV_neg15tilt_115rot_det10.npy'
p2537
F0.072
F0.0015
F24.5045
F0.1078
F0.033
F0.0008
g11
(g15
S'\x00\x00\x00\x00\x00\xa0c@'
p2538
tp2539
Rp2540
tp2541
a(S'cpvert_4MeV_neg15tilt_115rot_det11.npy'
p2542
F0.24
F0.0033
F28.8349
F0.0891
F0.129
F0.0019
g11
(g15
S'\x00\x00\x00\x00\x00@f@'
p2543
tp2544
Rp2545
tp2546
a(S'cpvert_4MeV_neg15tilt_115rot_det12.npy'
p2547
F0.532
F0.0049
F28.8385
F0.087
F0.3043
F0.0031
g11
(g15
S'\x00\x00\x00\x00\x00\xa0f@'
p2548
tp2549
Rp2550
tp2551
a(S'cpvert_4MeV_neg15tilt_115rot_det13.npy'
p2552
F0.9081
F0.0075
F33.6029
F0.1129
F0.546
F0.0053
g11
(g15
S'\x00\x00\x00\x00\x00\x80f@'
p2553
tp2554
Rp2555
tp2556
a(S'cpvert_4MeV_neg15tilt_115rot_det14.npy'
p2557
F1.2974
F0.0108
F43.0905
F0.2089
F0.8011
F0.0071
g11
(g15
S'\x00\x00\x00\x00\x00\xc0[@'
p2558
tp2559
Rp2560
tp2561
a(S'cpvert_4MeV_neg15tilt_115rot_det15.npy'
p2562
F1.7017
F0.016
F66.6341
F0.4902
F1.0691
F0.0114
g11
(g15
S'\x00\x00\x00\x00\x00\x80R@'
p2563
tp2564
Rp2565
tp2566
a(S'cpvert_4MeV_neg15tilt_115rot_det4.npy'
p2567
F1.6434
F0.0178
F65.0135
F0.582
F1.0454
F0.0125
g11
(g15
S'\x00\x00\x00\x00\x00\xc0Q@'
p2568
tp2569
Rp2570
tp2571
a(S'cpvert_4MeV_neg15tilt_115rot_det5.npy'
p2572
F1.2874
F0.0109
F40.7788
F0.2032
F0.8053
F0.0075
g11
(g15
S'\x00\x00\x00\x00\x00\x00_@'
p2573
tp2574
Rp2575
tp2576
a(S'cpvert_4MeV_neg15tilt_115rot_det6.npy'
p2577
F0.9055
F0.0074
F31.0185
F0.1326
F0.5486
F0.0051
g11
(g15
S'\x00\x00\x00\x00\x00\x00c@'
p2578
tp2579
Rp2580
tp2581
a(S'cpvert_4MeV_neg15tilt_115rot_det7.npy'
p2582
F0.5196
F0.0052
F27.6474
F0.1096
F0.2973
F0.0034
g11
(g15
S'\x00\x00\x00\x00\x00\xc0^@'
p2583
tp2584
Rp2585
tp2586
a(S'cpvert_4MeV_neg15tilt_115rot_det8.npy'
p2587
F0.2418
F0.0029
F27.8134
F0.0932
F0.127
F0.0018
g11
(g15
S'\x00\x00\x00\x00\x00@b@'
p2588
tp2589
Rp2590
tp2591
a(S'cpvert_4MeV_neg15tilt_115rot_det9.npy'
p2592
F0.0734
F0.0012
F25.8532
F0.1018
F0.0327
F0.0006
g11
(g15
S'\x00\x00\x00\x00\x00\x80d@'
p2593
tp2594
Rp2595
tp2596
a(S'cpvert_4MeV_neg15tilt_135rot_det10.npy'
p2597
F0.0722
F0.0013
F24.4381
F0.1066
F0.0328
F0.0007
g11
(g15
S'\x00\x00\x00\x00\x00\xc0a@'
p2598
tp2599
Rp2600
tp2601
a(S'cpvert_4MeV_neg15tilt_135rot_det11.npy'
p2602
F0.2433
F0.003
F28.8061
F0.0972
F0.1292
F0.0018
g11
(g15
S'\x00\x00\x00\x00\x00\x80d@'
p2603
tp2604
Rp2605
tp2606
a(S'cpvert_4MeV_neg15tilt_135rot_det12.npy'
p2607
F0.5327
F0.0053
F28.8564
F0.1075
F0.3092
F0.0038
g11
(g15
S'\x00\x00\x00\x00\x00\x00d@'
p2608
tp2609
Rp2610
tp2611
a(S'cpvert_4MeV_neg15tilt_135rot_det13.npy'
p2612
F0.9006
F0.0085
F33.7485
F0.1303
F0.5432
F0.0056
g11
(g15
S'\x00\x00\x00\x00\x00\x00c@'
p2613
tp2614
Rp2615
tp2616
a(S'cpvert_4MeV_neg15tilt_135rot_det14.npy'
p2617
F1.3143
F0.0112
F43.0275
F0.2156
F0.8173
F0.0079
g11
(g15
S'\x00\x00\x00\x00\x00\x00]@'
p2618
tp2619
Rp2620
tp2621
a(S'cpvert_4MeV_neg15tilt_135rot_det15.npy'
p2622
F1.6731
F0.0173
F66.4515
F0.5073
F1.0558
F0.0116
g11
(g15
S'\x00\x00\x00\x00\x00\xc0R@'
p2623
tp2624
Rp2625
tp2626
a(S'cpvert_4MeV_neg15tilt_135rot_det4.npy'
p2627
F1.6534
F0.0184
F64.3096
F0.4825
F1.0457
F0.0135
g11
(g15
S'\x00\x00\x00\x00\x00\xc0S@'
p2628
tp2629
Rp2630
tp2631
a(S'cpvert_4MeV_neg15tilt_135rot_det5.npy'
p2632
F1.2989
F0.0138
F41.0428
F0.2085
F0.8104
F0.0095
g11
(g15
S'\x00\x00\x00\x00\x00\xc0]@'
p2633
tp2634
Rp2635
tp2636
a(S'cpvert_4MeV_neg15tilt_135rot_det6.npy'
p2637
F0.8949
F0.0086
F30.9173
F0.1201
F0.5407
F0.006
g11
(g15
S'\x00\x00\x00\x00\x00@b@'
p2638
tp2639
Rp2640
tp2641
a(S'cpvert_4MeV_neg15tilt_135rot_det7.npy'
p2642
F0.5283
F0.005
F27.4676
F0.0877
F0.3041
F0.0033
g11
(g15
S'\x00\x00\x00\x00\x00\xa0c@'
p2643
tp2644
Rp2645
tp2646
a(S'cpvert_4MeV_neg15tilt_135rot_det8.npy'
p2647
F0.2383
F0.0037
F27.9627
F0.1103
F0.1266
F0.0023
g11
(g15
S'\x00\x00\x00\x00\x00\x00_@'
p2648
tp2649
Rp2650
tp2651
a(S'cpvert_4MeV_neg15tilt_135rot_det9.npy'
p2652
F0.072
F0.0015
F25.7716
F0.0892
F0.0321
F0.0008
g11
(g15
S'\x00\x00\x00\x00\x00@b@'
p2653
tp2654
Rp2655
tp2656
a(S'cpvert_4MeV_neg15tilt_15rot_det10.npy'
p2657
F0.073
F0.0012
F24.221
F0.0912
F0.0348
F0.0007
g11
(g15
S'\x00\x00\x00\x00\x00@e@'
p2658
tp2659
Rp2660
tp2661
a(S'cpvert_4MeV_neg15tilt_15rot_det11.npy'
p2662
F0.2472
F0.0028
F28.6181
F0.0958
F0.1313
F0.0017
g11
(g15
S'\x00\x00\x00\x00\x00@f@'
p2663
tp2664
Rp2665
tp2666
a(S'cpvert_4MeV_neg15tilt_15rot_det12.npy'
p2667
F0.5212
F0.0049
F28.8284
F0.1021
F0.3003
F0.0031
g11
(g15
S'\x00\x00\x00\x00\x00\xe0d@'
p2668
tp2669
Rp2670
tp2671
a(S'cpvert_4MeV_neg15tilt_15rot_det13.npy'
p2672
F0.8823
F0.0072
F33.6334
F0.1333
F0.5351
F0.0046
g11
(g15
S'\x00\x00\x00\x00\x00\xc0c@'
p2673
tp2674
Rp2675
tp2676
a(S'cpvert_4MeV_neg15tilt_15rot_det14.npy'
p2677
F1.2548
F0.0104
F42.9615
F0.1917
F0.7854
F0.0071
g11
(g15
S'\x00\x00\x00\x00\x00\xa0`@'
p2678
tp2679
Rp2680
tp2681
a(S'cpvert_4MeV_neg15tilt_15rot_det15.npy'
p2682
F1.5625
F0.0215
F67.3415
F0.4462
F1.0017
F0.0152
g11
(g15
S'\x00\x00\x00\x00\x00\x80S@'
p2683
tp2684
Rp2685
tp2686
a(S'cpvert_4MeV_neg15tilt_15rot_det4.npy'
p2687
F1.6374
F0.0157
F65.2888
F0.4635
F1.0395
F0.0111
g11
(g15
S'\x00\x00\x00\x00\x00\x80T@'
p2688
tp2689
Rp2690
tp2691
a(S'cpvert_4MeV_neg15tilt_15rot_det5.npy'
p2692
F1.3073
F0.0143
F40.9
F0.2028
F0.8138
F0.0096
g11
(g15
S'\x00\x00\x00\x00\x00\xc0Z@'
p2693
tp2694
Rp2695
tp2696
a(S'cpvert_4MeV_neg15tilt_15rot_det6.npy'
p2697
F0.9359
F0.0079
F31.0467
F0.1456
F0.5639
F0.0055
g11
(g15
S'\x00\x00\x00\x00\x00\x80]@'
p2698
tp2699
Rp2700
tp2701
a(S'cpvert_4MeV_neg15tilt_15rot_det7.npy'
p2702
F0.5532
F0.0057
F27.9612
F0.0982
F0.3185
F0.0036
g11
(g15
S'\x00\x00\x00\x00\x00`c@'
p2703
tp2704
Rp2705
tp2706
a(S'cpvert_4MeV_neg15tilt_15rot_det8.npy'
p2707
F0.2653
F0.0032
F27.8621
F0.0928
F0.1445
F0.0022
g11
(g15
S'\x00\x00\x00\x00\x00@b@'
p2708
tp2709
Rp2710
tp2711
a(S'cpvert_4MeV_neg15tilt_15rot_det9.npy'
p2712
F0.0763
F0.0014
F25.7532
F0.0975
F0.0374
F0.0008
g11
(g15
S'\x00\x00\x00\x00\x00 `@'
p2713
tp2714
Rp2715
tp2716
a(S'cpvert_4MeV_neg15tilt_25rot_det10.npy'
p2717
F0.0725
F0.0013
F24.4231
F0.1063
F0.0343
F0.0007
g11
(g15
S'\x00\x00\x00\x00\x00\xc0a@'
p2718
tp2719
Rp2720
tp2721
a(S'cpvert_4MeV_neg15tilt_25rot_det11.npy'
p2722
F0.2467
F0.0033
F28.7108
F0.1092
F0.1324
F0.002
g11
(g15
S'\x00\x00\x00\x00\x00@]@'
p2723
tp2724
Rp2725
tp2726
a(S'cpvert_4MeV_neg15tilt_25rot_det12.npy'
p2727
F0.5282
F0.0052
F28.8159
F0.1047
F0.304
F0.0033
g11
(g15
S'\x00\x00\x00\x00\x00\x80c@'
p2728
tp2729
Rp2730
tp2731
a(S'cpvert_4MeV_neg15tilt_25rot_det13.npy'
p2732
F0.8889
F0.0072
F33.4664
F0.1507
F0.5389
F0.0052
g11
(g15
S'\x00\x00\x00\x00\x00\xa0`@'
p2733
tp2734
Rp2735
tp2736
a(S'cpvert_4MeV_neg15tilt_25rot_det14.npy'
p2737
F1.279
F0.0109
F42.6801
F0.204
F0.8051
F0.0077
g11
(g15
S'\x00\x00\x00\x00\x00\x80^@'
p2738
tp2739
Rp2740
tp2741
a(S'cpvert_4MeV_neg15tilt_25rot_det15.npy'
p2742
F1.6098
F0.0183
F65.4566
F0.5012
F1.0304
F0.0126
g11
(g15
S'\x00\x00\x00\x00\x00\x00T@'
p2743
tp2744
Rp2745
tp2746
a(S'cpvert_4MeV_neg15tilt_25rot_det4.npy'
p2747
F1.6217
F0.0186
F65.0856
F0.5435
F1.0396
F0.013
g11
(g15
S'\x00\x00\x00\x00\x00\x80P@'
p2748
tp2749
Rp2750
tp2751
a(S'cpvert_4MeV_neg15tilt_25rot_det5.npy'
p2752
F1.2872
F0.0141
F41.1255
F0.2457
F0.8046
F0.0098
g11
(g15
S'\x00\x00\x00\x00\x00\x80W@'
p2753
tp2754
Rp2755
tp2756
a(S'cpvert_4MeV_neg15tilt_25rot_det6.npy'
p2757
F0.9005
F0.0082
F31.6525
F0.132
F0.5411
F0.0057
g11
(g15
S'\x00\x00\x00\x00\x00\x00a@'
p2758
tp2759
Rp2760
tp2761
a(S'cpvert_4MeV_neg15tilt_25rot_det7.npy'
p2762
F0.5398
F0.0051
F27.765
F0.1046
F0.3108
F0.0032
g11
(g15
S'\x00\x00\x00\x00\x00`a@'
p2763
tp2764
Rp2765
tp2766
a(S'cpvert_4MeV_neg15tilt_25rot_det8.npy'
p2767
F0.2545
F0.0036
F27.9732
F0.0995
F0.1369
F0.0022
g11
(g15
S'\x00\x00\x00\x00\x00\xa0`@'
p2768
tp2769
Rp2770
tp2771
a(S'cpvert_4MeV_neg15tilt_25rot_det9.npy'
p2772
F0.08
F0.0018
F25.9733
F0.1055
F0.0398
F0.001
g11
(g15
S'\x00\x00\x00\x00\x00\xc0^@'
p2773
tp2774
Rp2775
tp2776
a(S'cpvert_4MeV_neg15tilt_315rot_det10.npy'
p2777
F0.0781
F0.0013
F24.3272
F0.1021
F0.0379
F0.0007
g11
(g15
S'\x00\x00\x00\x00\x00\x00f@'
p2778
tp2779
Rp2780
tp2781
a(S'cpvert_4MeV_neg15tilt_315rot_det11.npy'
p2782
F0.2474
F0.0027
F28.7308
F0.0885
F0.1329
F0.0016
g11
(g15
S'\x00\x00\x00\x00\x00`f@'
p2783
tp2784
Rp2785
tp2786
a(S'cpvert_4MeV_neg15tilt_315rot_det12.npy'
p2787
F0.5392
F0.005
F28.6644
F0.0901
F0.3108
F0.0033
g11
(g15
S'\x00\x00\x00\x00\x00\xe0f@'
p2788
tp2789
Rp2790
tp2791
a(S'cpvert_4MeV_neg15tilt_315rot_det13.npy'
p2792
F0.9
F0.0081
F33.5815
F0.1286
F0.5454
F0.0054
g11
(g15
S'\x00\x00\x00\x00\x00\x00d@'
p2793
tp2794
Rp2795
tp2796
a(S'cpvert_4MeV_neg15tilt_315rot_det14.npy'
p2797
F1.314
F0.0121
F43.1762
F0.1999
F0.8182
F0.0084
g11
(g15
S'\x00\x00\x00\x00\x00\xc0^@'
p2798
tp2799
Rp2800
tp2801
a(S'cpvert_4MeV_neg15tilt_315rot_det15.npy'
p2802
F1.7385
F0.0177
F67.7575
F0.4778
F1.0963
F0.0117
g11
(g15
S'\x00\x00\x00\x00\x00\x00N@'
p2803
tp2804
Rp2805
tp2806
a(S'cpvert_4MeV_neg15tilt_315rot_det4.npy'
p2807
F1.6353
F0.0214
F64.9389
F0.569
F1.0332
F0.0143
g11
(g15
S'\x00\x00\x00\x00\x00\x00O@'
p2808
tp2809
Rp2810
tp2811
a(S'cpvert_4MeV_neg15tilt_315rot_det5.npy'
p2812
F1.3313
F0.0122
F41.1209
F0.2088
F0.8327
F0.0085
g11
(g15
S'\x00\x00\x00\x00\x00\x00]@'
p2813
tp2814
Rp2815
tp2816
a(S'cpvert_4MeV_neg15tilt_315rot_det6.npy'
p2817
F0.9242
F0.008
F31.3872
F0.1285
F0.5613
F0.0054
g11
(g15
S'\x00\x00\x00\x00\x00\xc0_@'
p2818
tp2819
Rp2820
tp2821
a(S'cpvert_4MeV_neg15tilt_315rot_det7.npy'
p2822
F0.5412
F0.0051
F27.9281
F0.097
F0.3138
F0.0033
g11
(g15
S'\x00\x00\x00\x00\x00@g@'
p2823
tp2824
Rp2825
tp2826
a(S'cpvert_4MeV_neg15tilt_315rot_det8.npy'
p2827
F0.2527
F0.003
F27.8712
F0.0852
F0.137
F0.0019
g11
(g15
S'\x00\x00\x00\x00\x00\xc0e@'
p2828
tp2829
Rp2830
tp2831
a(S'cpvert_4MeV_neg15tilt_315rot_det9.npy'
p2832
F0.0796
F0.0013
F25.771
F0.0883
F0.0385
F0.0007
g11
(g15
S'\x00\x00\x00\x00\x00\xc0e@'
p2833
tp2834
Rp2835
tp2836
a(S'cpvert_4MeV_neg15tilt_335rot_det10.npy'
p2837
F0.076
F0.0015
F24.2713
F0.0936
F0.036
F0.0008
g11
(g15
S'\x00\x00\x00\x00\x00`e@'
p2838
tp2839
Rp2840
tp2841
a(S'cpvert_4MeV_neg15tilt_335rot_det11.npy'
p2842
F0.2446
F0.0032
F28.7296
F0.0938
F0.1309
F0.0019
g11
(g15
S'\x00\x00\x00\x00\x00\xa0d@'
p2843
tp2844
Rp2845
tp2846
a(S'cpvert_4MeV_neg15tilt_335rot_det12.npy'
p2847
F0.53
F0.0051
F28.7036
F0.0974
F0.3047
F0.0032
g11
(g15
S'\x00\x00\x00\x00\x00\x80d@'
p2848
tp2849
Rp2850
tp2851
a(S'cpvert_4MeV_neg15tilt_335rot_det13.npy'
p2852
F0.8937
F0.0074
F33.7354
F0.1392
F0.5401
F0.005
g11
(g15
S'\x00\x00\x00\x00\x00@c@'
p2853
tp2854
Rp2855
tp2856
a(S'cpvert_4MeV_neg15tilt_335rot_det14.npy'
p2857
F1.2785
F0.0112
F42.9123
F0.1905
F0.8027
F0.0079
g11
(g15
S'\x00\x00\x00\x00\x00\x80b@'
p2858
tp2859
Rp2860
tp2861
a(S'cpvert_4MeV_neg15tilt_335rot_det15.npy'
p2862
F1.6505
F0.0153
F65.5096
F0.4745
F1.0559
F0.011
g11
(g15
S'\x00\x00\x00\x00\x00\x00V@'
p2863
tp2864
Rp2865
tp2866
a(S'cpvert_4MeV_neg15tilt_335rot_det4.npy'
p2867
F1.7113
F0.0145
F65.7714
F0.4829
F1.0751
F0.01
g11
(g15
S'\x00\x00\x00\x00\x00\xc0R@'
p2868
tp2869
Rp2870
tp2871
a(S'cpvert_4MeV_neg15tilt_335rot_det5.npy'
p2872
F1.3421
F0.0137
F41.1106
F0.219
F0.8313
F0.0091
g11
(g15
S'\x00\x00\x00\x00\x00@\\@'
p2873
tp2874
Rp2875
tp2876
a(S'cpvert_4MeV_neg15tilt_335rot_det6.npy'
p2877
F0.944
F0.0076
F31.3878
F0.1157
F0.5698
F0.0051
g11
(g15
S'\x00\x00\x00\x00\x00`e@'
p2878
tp2879
Rp2880
tp2881
a(S'cpvert_4MeV_neg15tilt_335rot_det7.npy'
p2882
F0.5523
F0.0054
F27.8429
F0.0994
F0.3205
F0.0035
g11
(g15
S'\x00\x00\x00\x00\x00`d@'
p2883
tp2884
Rp2885
tp2886
a(S'cpvert_4MeV_neg15tilt_335rot_det8.npy'
p2887
F0.2543
F0.0029
F27.974
F0.0853
F0.1382
F0.0018
g11
(g15
S'\x00\x00\x00\x00\x00\xe0c@'
p2888
tp2889
Rp2890
tp2891
a(S'cpvert_4MeV_neg15tilt_335rot_det9.npy'
p2892
F0.0839
F0.0017
F25.8173
F0.0994
F0.0415
F0.0009
g11
(g15
S'\x00\x00\x00\x00\x00\xa0`@'
p2893
tp2894
Rp2895
tp2896
a(S'cpvert_4MeV_neg15tilt_345rot_det10.npy'
p2897
F0.074
F0.0014
F24.3604
F0.0959
F0.0348
F0.0008
g11
(g15
S'\x00\x00\x00\x00\x00`b@'
p2898
tp2899
Rp2900
tp2901
a(S'cpvert_4MeV_neg15tilt_345rot_det11.npy'
p2902
F0.244
F0.0027
F28.7934
F0.0893
F0.1307
F0.0016
g11
(g15
S'\x00\x00\x00\x00\x00 f@'
p2903
tp2904
Rp2905
tp2906
a(S'cpvert_4MeV_neg15tilt_345rot_det12.npy'
p2907
F0.5322
F0.0044
F28.618
F0.0972
F0.3069
F0.0029
g11
(g15
S'\x00\x00\x00\x00\x00\xe0d@'
p2908
tp2909
Rp2910
tp2911
a(S'cpvert_4MeV_neg15tilt_345rot_det13.npy'
p2912
F0.8858
F0.0066
F33.5675
F0.1351
F0.5361
F0.0046
g11
(g15
S'\x00\x00\x00\x00\x00\xc0b@'
p2913
tp2914
Rp2915
tp2916
a(S'cpvert_4MeV_neg15tilt_345rot_det14.npy'
p2917
F1.2948
F0.0099
F43.1339
F0.2073
F0.8107
F0.0071
g11
(g15
S'\x00\x00\x00\x00\x00\x80^@'
p2918
tp2919
Rp2920
tp2921
a(S'cpvert_4MeV_neg15tilt_345rot_det15.npy'
p2922
F1.6181
F0.0229
F66.4098
F0.4181
F1.0329
F0.0159
g11
(g15
S'\x00\x00\x00\x00\x00\x00T@'
p2923
tp2924
Rp2925
tp2926
a(S'cpvert_4MeV_neg15tilt_345rot_det4.npy'
p2927
F1.6932
F0.0191
F64.9654
F0.4799
F1.0734
F0.0132
g11
(g15
S'\x00\x00\x00\x00\x00\x00W@'
p2928
tp2929
Rp2930
tp2931
a(S'cpvert_4MeV_neg15tilt_345rot_det5.npy'
p2932
F1.3423
F0.0113
F40.9504
F0.1989
F0.8319
F0.0078
g11
(g15
S'\x00\x00\x00\x00\x00\x80\\@'
p2933
tp2934
Rp2935
tp2936
a(S'cpvert_4MeV_neg15tilt_345rot_det6.npy'
p2937
F0.9537
F0.0069
F31.4887
F0.1109
F0.5749
F0.0044
g11
(g15
S'\x00\x00\x00\x00\x00 d@'
p2938
tp2939
Rp2940
tp2941
a(S'cpvert_4MeV_neg15tilt_345rot_det7.npy'
p2942
F0.5552
F0.0048
F27.8508
F0.0913
F0.3214
F0.0031
g11
(g15
S'\x00\x00\x00\x00\x00\xc0f@'
p2943
tp2944
Rp2945
tp2946
a(S'cpvert_4MeV_neg15tilt_345rot_det8.npy'
p2947
F0.2681
F0.0028
F27.8495
F0.0816
F0.1472
F0.0018
g11
(g15
S'\x00\x00\x00\x00\x00\xc0c@'
p2948
tp2949
Rp2950
tp2951
a(S'cpvert_4MeV_neg15tilt_345rot_det9.npy'
p2952
F0.0784
F0.0014
F25.92
F0.087
F0.0387
F0.0007
g11
(g15
S'\x00\x00\x00\x00\x00\xe0d@'
p2953
tp2954
Rp2955
tp2956
a(S'cpvert_4MeV_neg15tilt_355rot_det10.npy'
p2957
F0.0765
F0.0015
F24.3955
F0.1021
F0.0367
F0.0008
g11
(g15
S'\x00\x00\x00\x00\x00`b@'
p2958
tp2959
Rp2960
tp2961
a(S'cpvert_4MeV_neg15tilt_355rot_det11.npy'
p2962
F0.242
F0.0029
F28.8432
F0.0907
F0.1305
F0.0017
g11
(g15
S'\x00\x00\x00\x00\x00\x00f@'
p2963
tp2964
Rp2965
tp2966
a(S'cpvert_4MeV_neg15tilt_355rot_det12.npy'
p2967
F0.5222
F0.0054
F28.707
F0.094
F0.2993
F0.0034
g11
(g15
S'\x00\x00\x00\x00\x00 b@'
p2968
tp2969
Rp2970
tp2971
a(S'cpvert_4MeV_neg15tilt_355rot_det13.npy'
p2972
F0.876
F0.0081
F33.715
F0.1413
F0.5325
F0.0055
g11
(g15
S'\x00\x00\x00\x00\x00@a@'
p2973
tp2974
Rp2975
tp2976
a(S'cpvert_4MeV_neg15tilt_355rot_det14.npy'
p2977
F1.2671
F0.0133
F43.4276
F0.2258
F0.7976
F0.009
g11
(g15
S'\x00\x00\x00\x00\x00\xc0^@'
p2978
tp2979
Rp2980
tp2981
a(S'cpvert_4MeV_neg15tilt_355rot_det15.npy'
p2982
F1.6172
F0.0168
F66.895
F0.5279
F1.0327
F0.0115
g11
(g15
S'\x00\x00\x00\x00\x00\x80T@'
p2983
tp2984
Rp2985
tp2986
a(S'cpvert_4MeV_neg15tilt_355rot_det4.npy'
p2987
F1.68
F0.0188
F65.7037
F0.5516
F1.0657
F0.0135
g11
(g15
S'\x00\x00\x00\x00\x00\x00S@'
p2988
tp2989
Rp2990
tp2991
a(S'cpvert_4MeV_neg15tilt_355rot_det5.npy'
p2992
F1.3613
F0.0107
F41.1461
F0.2259
F0.8475
F0.0073
g11
(g15
S'\x00\x00\x00\x00\x00\x00Y@'
p2993
tp2994
Rp2995
tp2996
a(S'cpvert_4MeV_neg15tilt_355rot_det6.npy'
p2997
F0.9307
F0.0077
F31.3344
F0.1281
F0.5604
F0.0051
g11
(g15
S'\x00\x00\x00\x00\x00\xa0b@'
p2998
tp2999
Rp3000
tp3001
a(S'cpvert_4MeV_neg15tilt_355rot_det7.npy'
p3002
F0.5561
F0.0052
F27.8283
F0.098
F0.3221
F0.0035
g11
(g15
S'\x00\x00\x00\x00\x00\x80f@'
p3003
tp3004
Rp3005
tp3006
a(S'cpvert_4MeV_neg15tilt_355rot_det8.npy'
p3007
F0.2555
F0.0028
F27.9068
F0.0822
F0.1397
F0.0017
g11
(g15
S'\x00\x00\x00\x00\x00`e@'
p3008
tp3009
Rp3010
tp3011
a(S'cpvert_4MeV_neg15tilt_355rot_det9.npy'
p3012
F0.0791
F0.0014
F25.6976
F0.0952
F0.0385
F0.0008
g11
(g15
S'\x00\x00\x00\x00\x00\x80a@'
p3013
tp3014
Rp3015
tp3016
a(S'cpvert_4MeV_neg15tilt_35rot_det10.npy'
p3017
F0.0715
F0.0013
F24.1915
F0.0999
F0.0343
F0.0007
g11
(g15
S'\x00\x00\x00\x00\x00`d@'
p3018
tp3019
Rp3020
tp3021
a(S'cpvert_4MeV_neg15tilt_35rot_det11.npy'
p3022
F0.2431
F0.0028
F28.7802
F0.1038
F0.1314
F0.0017
g11
(g15
S'\x00\x00\x00\x00\x00\xa0b@'
p3023
tp3024
Rp3025
tp3026
a(S'cpvert_4MeV_neg15tilt_35rot_det12.npy'
p3027
F0.5346
F0.0045
F28.5254
F0.0908
F0.3087
F0.0029
g11
(g15
S'\x00\x00\x00\x00\x00\x00h@'
p3028
tp3029
Rp3030
tp3031
a(S'cpvert_4MeV_neg15tilt_35rot_det13.npy'
p3032
F0.8832
F0.0073
F33.4611
F0.1279
F0.5336
F0.0051
g11
(g15
S'\x00\x00\x00\x00\x00\xa0b@'
p3033
tp3034
Rp3035
tp3036
a(S'cpvert_4MeV_neg15tilt_35rot_det14.npy'
p3037
F1.2559
F0.01
F43.2504
F0.1995
F0.7843
F0.007
g11
(g15
S'\x00\x00\x00\x00\x00 a@'
p3038
tp3039
Rp3040
tp3041
a(S'cpvert_4MeV_neg15tilt_35rot_det15.npy'
p3042
F1.5872
F0.0178
F65.9476
F0.5616
F1.0174
F0.0124
g11
(g15
S'\x00\x00\x00\x00\x00\x80Q@'
p3043
tp3044
Rp3045
tp3046
a(S'cpvert_4MeV_neg15tilt_35rot_det4.npy'
p3047
F1.6124
F0.0175
F65.0647
F0.4867
F1.0339
F0.0126
g11
(g15
S'\x00\x00\x00\x00\x00\x00S@'
p3048
tp3049
Rp3050
tp3051
a(S'cpvert_4MeV_neg15tilt_35rot_det5.npy'
p3052
F1.2902
F0.0125
F40.8595
F0.2135
F0.807
F0.0086
g11
(g15
S'\x00\x00\x00\x00\x00\x80Y@'
p3053
tp3054
Rp3055
tp3056
a(S'cpvert_4MeV_neg15tilt_35rot_det6.npy'
p3057
F0.9055
F0.0073
F31.5615
F0.1425
F0.5496
F0.0052
g11
(g15
S'\x00\x00\x00\x00\x00\x00a@'
p3058
tp3059
Rp3060
tp3061
a(S'cpvert_4MeV_neg15tilt_35rot_det7.npy'
p3062
F0.5319
F0.006
F27.7063
F0.0926
F0.3067
F0.004
g11
(g15
S'\x00\x00\x00\x00\x00@d@'
p3063
tp3064
Rp3065
tp3066
a(S'cpvert_4MeV_neg15tilt_35rot_det8.npy'
p3067
F0.2506
F0.0028
F27.7846
F0.0784
F0.1358
F0.0017
g11
(g15
S'\x00\x00\x00\x00\x00`d@'
p3068
tp3069
Rp3070
tp3071
a(S'cpvert_4MeV_neg15tilt_35rot_det9.npy'
p3072
F0.0777
F0.0015
F25.8932
F0.0868
F0.0376
F0.0008
g11
(g15
S'\x00\x00\x00\x00\x00\xa0b@'
p3073
tp3074
Rp3075
tp3076
a(S'cpvert_4MeV_neg15tilt_45rot_det10.npy'
p3077
F0.0762
F0.0015
F24.3083
F0.1069
F0.0369
F0.0008
g11
(g15
S'\x00\x00\x00\x00\x00\xa0a@'
p3078
tp3079
Rp3080
tp3081
a(S'cpvert_4MeV_neg15tilt_45rot_det11.npy'
p3082
F0.2455
F0.0032
F28.7598
F0.0925
F0.1329
F0.002
g11
(g15
S'\x00\x00\x00\x00\x00\xe0d@'
p3083
tp3084
Rp3085
tp3086
a(S'cpvert_4MeV_neg15tilt_45rot_det12.npy'
p3087
F0.5374
F0.0043
F28.6909
F0.0968
F0.3096
F0.0028
g11
(g15
S'\x00\x00\x00\x00\x00\xe0c@'
p3088
tp3089
Rp3090
tp3091
a(S'cpvert_4MeV_neg15tilt_45rot_det13.npy'
p3092
F0.879
F0.0074
F33.624
F0.1266
F0.5313
F0.0049
g11
(g15
S'\x00\x00\x00\x00\x00 e@'
p3093
tp3094
Rp3095
tp3096
a(S'cpvert_4MeV_neg15tilt_45rot_det14.npy'
p3097
F1.2702
F0.0108
F43.304
F0.1966
F0.7962
F0.0078
g11
(g15
S'\x00\x00\x00\x00\x00\xc0`@'
p3098
tp3099
Rp3100
tp3101
a(S'cpvert_4MeV_neg15tilt_45rot_det15.npy'
p3102
F1.6161
F0.0167
F65.5926
F0.5043
F1.0354
F0.0115
g11
(g15
S'\x00\x00\x00\x00\x00\xc0S@'
p3103
tp3104
Rp3105
tp3106
a(S'cpvert_4MeV_neg15tilt_45rot_det4.npy'
p3107
F1.619
F0.0173
F64.2432
F0.4506
F1.0348
F0.0112
g11
(g15
S'\x00\x00\x00\x00\x00\xc0R@'
p3108
tp3109
Rp3110
tp3111
a(S'cpvert_4MeV_neg15tilt_45rot_det5.npy'
p3112
F1.2737
F0.012
F41.1896
F0.2045
F0.7982
F0.0087
g11
(g15
S'\x00\x00\x00\x00\x00\xc0Z@'
p3113
tp3114
Rp3115
tp3116
a(S'cpvert_4MeV_neg15tilt_45rot_det6.npy'
p3117
F0.8919
F0.0067
F31.4833
F0.1185
F0.539
F0.0047
g11
(g15
S'\x00\x00\x00\x00\x00\x80b@'
p3118
tp3119
Rp3120
tp3121
a(S'cpvert_4MeV_neg15tilt_45rot_det7.npy'
p3122
F0.5378
F0.0052
F27.8867
F0.0893
F0.3107
F0.0033
g11
(g15
S'\x00\x00\x00\x00\x00`e@'
p3123
tp3124
Rp3125
tp3126
a(S'cpvert_4MeV_neg15tilt_45rot_det8.npy'
p3127
F0.2504
F0.0028
F27.8574
F0.083
F0.1355
F0.0017
g11
(g15
S'\x00\x00\x00\x00\x00 e@'
p3128
tp3129
Rp3130
tp3131
a(S'cpvert_4MeV_neg15tilt_45rot_det9.npy'
p3132
F0.0767
F0.0014
F25.7661
F0.0845
F0.0369
F0.0008
g11
(g15
S'\x00\x00\x00\x00\x00\x00f@'
p3133
tp3134
Rp3135
tp3136
a(S'cpvert_4MeV_neg15tilt_55rot_det10.npy'
p3137
F0.0741
F0.0012
F24.3201
F0.091
F0.036
F0.0007
g11
(g15
S'\x00\x00\x00\x00\x00\xc0e@'
p3138
tp3139
Rp3140
tp3141
a(S'cpvert_4MeV_neg15tilt_55rot_det11.npy'
p3142
F0.2497
F0.003
F28.6749
F0.0871
F0.1351
F0.002
g11
(g15
S'\x00\x00\x00\x00\x00\xe0d@'
p3143
tp3144
Rp3145
tp3146
a(S'cpvert_4MeV_neg15tilt_55rot_det12.npy'
p3147
F0.5478
F0.0048
F28.5485
F0.0979
F0.3151
F0.0031
g11
(g15
S'\x00\x00\x00\x00\x00 b@'
p3148
tp3149
Rp3150
tp3151
a(S'cpvert_4MeV_neg15tilt_55rot_det13.npy'
p3152
F0.8988
F0.0071
F33.7241
F0.118
F0.5427
F0.0046
g11
(g15
S'\x00\x00\x00\x00\x00\xa0b@'
p3153
tp3154
Rp3155
tp3156
a(S'cpvert_4MeV_neg15tilt_55rot_det14.npy'
p3157
F1.2842
F0.0109
F43.0034
F0.2004
F0.8015
F0.0075
g11
(g15
S'\x00\x00\x00\x00\x00``@'
p3158
tp3159
Rp3160
tp3161
a(S'cpvert_4MeV_neg15tilt_55rot_det15.npy'
p3162
F1.6425
F0.0167
F65.1475
F0.4671
F1.0557
F0.0124
g11
(g15
S'\x00\x00\x00\x00\x00\x00R@'
p3163
tp3164
Rp3165
tp3166
a(S'cpvert_4MeV_neg15tilt_55rot_det4.npy'
p3167
F1.5865
F0.0173
F65.1627
F0.5009
F1.0198
F0.0121
g11
(g15
S'\x00\x00\x00\x00\x00\x00U@'
p3168
tp3169
Rp3170
tp3171
a(S'cpvert_4MeV_neg15tilt_55rot_det5.npy'
p3172
F1.2625
F0.0128
F41.1305
F0.1993
F0.7925
F0.0094
g11
(g15
S'\x00\x00\x00\x00\x00\xc0Y@'
p3173
tp3174
Rp3175
tp3176
a(S'cpvert_4MeV_neg15tilt_55rot_det6.npy'
p3177
F0.8772
F0.0091
F31.385
F0.1179
F0.5332
F0.0062
g11
(g15
S'\x00\x00\x00\x00\x00@`@'
p3178
tp3179
Rp3180
tp3181
a(S'cpvert_4MeV_neg15tilt_55rot_det7.npy'
p3182
F0.5307
F0.0052
F27.8095
F0.096
F0.3061
F0.0033
g11
(g15
S'\x00\x00\x00\x00\x00\xc0a@'
p3183
tp3184
Rp3185
tp3186
a(S'cpvert_4MeV_neg15tilt_55rot_det8.npy'
p3187
F0.2526
F0.0031
F28.0835
F0.0835
F0.1358
F0.0019
g11
(g15
S'\x00\x00\x00\x00\x00`b@'
p3188
tp3189
Rp3190
tp3191
a(S'cpvert_4MeV_neg15tilt_55rot_det9.npy'
p3192
F0.0743
F0.0016
F25.8626
F0.0886
F0.0357
F0.0009
g11
(g15
S'\x00\x00\x00\x00\x00\xe0c@'
p3193
tp3194
Rp3195
tp3196
a(S'cpvert_4MeV_neg15tilt_5rot_det10.npy'
p3197
F0.076
F0.0016
F24.2822
F0.1026
F0.0363
F0.0009
g11
(g15
S'\x00\x00\x00\x00\x00`e@'
p3198
tp3199
Rp3200
tp3201
a(S'cpvert_4MeV_neg15tilt_5rot_det11.npy'
p3202
F0.2465
F0.0027
F28.6586
F0.0872
F0.1323
F0.0017
g11
(g15
S'\x00\x00\x00\x00\x00\xc0f@'
p3203
tp3204
Rp3205
tp3206
a(S'cpvert_4MeV_neg15tilt_5rot_det12.npy'
p3207
F0.5281
F0.0045
F28.5333
F0.0967
F0.3046
F0.0029
g11
(g15
S'\x00\x00\x00\x00\x00\xc0g@'
p3208
tp3209
Rp3210
tp3211
a(S'cpvert_4MeV_neg15tilt_5rot_det13.npy'
p3212
F0.8841
F0.0078
F33.4888
F0.1527
F0.537
F0.0053
g11
(g15
S'\x00\x00\x00\x00\x00 a@'
p3213
tp3214
Rp3215
tp3216
a(S'cpvert_4MeV_neg15tilt_5rot_det14.npy'
p3217
F1.269
F0.011
F43.2988
F0.1916
F0.7977
F0.0077
g11
(g15
S'\x00\x00\x00\x00\x00\x00a@'
p3218
tp3219
Rp3220
tp3221
a(S'cpvert_4MeV_neg15tilt_5rot_det15.npy'
p3222
F1.5399
F0.0251
F65.9918
F0.4775
F0.9932
F0.0175
g11
(g15
S'\x00\x00\x00\x00\x00\x80V@'
p3223
tp3224
Rp3225
tp3226
a(S'cpvert_4MeV_neg15tilt_5rot_det4.npy'
p3227
F1.6328
F0.0203
F66.0992
F0.5367
F1.0471
F0.0137
g11
(g15
S'\x00\x00\x00\x00\x00\x80R@'
p3228
tp3229
Rp3230
tp3231
a(S'cpvert_4MeV_neg15tilt_5rot_det5.npy'
p3232
F1.3099
F0.0123
F41.1368
F0.2002
F0.8097
F0.0087
g11
(g15
S'\x00\x00\x00\x00\x00\xc0Z@'
p3233
tp3234
Rp3235
tp3236
a(S'cpvert_4MeV_neg15tilt_5rot_det6.npy'
p3237
F0.9247
F0.0084
F31.5107
F0.122
F0.5549
F0.0055
g11
(g15
S'\x00\x00\x00\x00\x00@d@'
p3238
tp3239
Rp3240
tp3241
a(S'cpvert_4MeV_neg15tilt_5rot_det7.npy'
p3242
F0.5546
F0.0058
F27.6937
F0.1083
F0.3193
F0.0037
g11
(g15
S'\x00\x00\x00\x00\x00\xc0c@'
p3243
tp3244
Rp3245
tp3246
a(S'cpvert_4MeV_neg15tilt_5rot_det8.npy'
p3247
F0.2643
F0.0031
F27.8055
F0.0835
F0.1435
F0.0019
g11
(g15
S'\x00\x00\x00\x00\x00 b@'
p3248
tp3249
Rp3250
tp3251
a(S'cpvert_4MeV_neg15tilt_5rot_det9.npy'
p3252
F0.0791
F0.0013
F25.7869
F0.08
F0.0392
F0.0007
g11
(g15
S'\x00\x00\x00\x00\x00 e@'
p3253
tp3254
Rp3255
tp3256
a(S'cpvert_4MeV_neg15tilt_75rot_det10.npy'
p3257
F0.071
F0.0013
F24.38
F0.1064
F0.0341
F0.0007
g11
(g15
S'\x00\x00\x00\x00\x00@b@'
p3258
tp3259
Rp3260
tp3261
a(S'cpvert_4MeV_neg15tilt_75rot_det11.npy'
p3262
F0.25
F0.0031
F28.6642
F0.0924
F0.1338
F0.0019
g11
(g15
S'\x00\x00\x00\x00\x00\x00d@'
p3263
tp3264
Rp3265
tp3266
a(S'cpvert_4MeV_neg15tilt_75rot_det12.npy'
p3267
F0.5336
F0.005
F28.8285
F0.0931
F0.3064
F0.0032
g11
(g15
S'\x00\x00\x00\x00\x00\xe0c@'
p3268
tp3269
Rp3270
tp3271
a(S'cpvert_4MeV_neg15tilt_75rot_det13.npy'
p3272
F0.9028
F0.0085
F33.5977
F0.1291
F0.5402
F0.0057
g11
(g15
S'\x00\x00\x00\x00\x00 c@'
p3273
tp3274
Rp3275
tp3276
a(S'cpvert_4MeV_neg15tilt_75rot_det14.npy'
p3277
F1.3012
F0.0118
F42.6635
F0.2001
F0.8092
F0.0083
g11
(g15
S'\x00\x00\x00\x00\x00\xc0^@'
p3278
tp3279
Rp3280
tp3281
a(S'cpvert_4MeV_neg15tilt_75rot_det15.npy'
p3282
F1.6602
F0.0169
F65.9779
F0.5138
F1.0571
F0.012
g11
(g15
S'\x00\x00\x00\x00\x00\x00Q@'
p3283
tp3284
Rp3285
tp3286
a(S'cpvert_4MeV_neg15tilt_75rot_det4.npy'
p3287
F1.5973
F0.0159
F64.3852
F0.5671
F1.0206
F0.0111
g11
(g15
S'\x00\x00\x00\x00\x00@Q@'
p3288
tp3289
Rp3290
tp3291
a(S'cpvert_4MeV_neg15tilt_75rot_det5.npy'
p3292
F1.264
F0.0111
F40.9291
F0.1912
F0.7935
F0.0081
g11
(g15
S'\x00\x00\x00\x00\x00@]@'
p3293
tp3294
Rp3295
tp3296
a(S'cpvert_4MeV_neg15tilt_75rot_det6.npy'
p3297
F0.8954
F0.0069
F31.4635
F0.1412
F0.5437
F0.0047
g11
(g15
S'\x00\x00\x00\x00\x00@a@'
p3298
tp3299
Rp3300
tp3301
a(S'cpvert_4MeV_neg15tilt_75rot_det7.npy'
p3302
F0.5197
F0.0047
F27.7456
F0.1045
F0.2988
F0.003
g11
(g15
S'\x00\x00\x00\x00\x00 b@'
p3303
tp3304
Rp3305
tp3306
a(S'cpvert_4MeV_neg15tilt_75rot_det8.npy'
p3307
F0.2503
F0.0028
F27.9641
F0.0839
F0.1329
F0.0017
g11
(g15
S'\x00\x00\x00\x00\x00\xa0b@'
p3308
tp3309
Rp3310
tp3311
a(S'cpvert_4MeV_neg15tilt_75rot_det9.npy'
p3312
F0.0728
F0.0013
F25.8984
F0.1013
F0.0338
F0.0007
g11
(g15
S'\x00\x00\x00\x00\x00\x80a@'
p3313
tp3314
Rp3315
tp3316
a(S'cpvert_4MeV_neg15tilt_95rot_det10.npy'
p3317
F0.0746
F0.0013
F24.5217
F0.0868
F0.0352
F0.0007
g11
(g15
S'\x00\x00\x00\x00\x00`d@'
p3318
tp3319
Rp3320
tp3321
a(S'cpvert_4MeV_neg15tilt_95rot_det11.npy'
p3322
F0.2504
F0.0033
F28.8082
F0.0992
F0.1337
F0.0019
g11
(g15
S'\x00\x00\x00\x00\x00\xe0b@'
p3323
tp3324
Rp3325
tp3326
a(S'cpvert_4MeV_neg15tilt_95rot_det12.npy'
p3327
F0.5464
F0.0053
F28.7817
F0.0918
F0.312
F0.0033
g11
(g15
S'\x00\x00\x00\x00\x00\xc0e@'
p3328
tp3329
Rp3330
tp3331
a(S'cpvert_4MeV_neg15tilt_95rot_det13.npy'
p3332
F0.9166
F0.0079
F33.5721
F0.1338
F0.5509
F0.0053
g11
(g15
S'\x00\x00\x00\x00\x00 c@'
p3333
tp3334
Rp3335
tp3336
a(S'cpvert_4MeV_neg15tilt_95rot_det14.npy'
p3337
F1.3281
F0.01
F42.952
F0.2003
F0.8216
F0.0068
g11
(g15
S'\x00\x00\x00\x00\x00\xe0a@'
p3338
tp3339
Rp3340
tp3341
a(S'cpvert_4MeV_neg15tilt_95rot_det15.npy'
p3342
F1.6506
F0.0201
F65.7641
F0.4846
F1.047
F0.0141
g11
(g15
S'\x00\x00\x00\x00\x00\xc0S@'
p3343
tp3344
Rp3345
tp3346
a(S'cpvert_4MeV_neg15tilt_95rot_det4.npy'
p3347
F1.6398
F0.0159
F64.2661
F0.4893
F1.0535
F0.0114
g11
(g15
S'\x00\x00\x00\x00\x00@S@'
p3348
tp3349
Rp3350
tp3351
a(S'cpvert_4MeV_neg15tilt_95rot_det5.npy'
p3352
F1.2964
F0.011
F40.7316
F0.2032
F0.8155
F0.0078
g11
(g15
S'\x00\x00\x00\x00\x00@[@'
p3353
tp3354
Rp3355
tp3356
a(S'cpvert_4MeV_neg15tilt_95rot_det6.npy'
p3357
F0.8688
F0.0091
F31.4009
F0.1289
F0.5244
F0.0064
g11
(g15
S'\x00\x00\x00\x00\x00\x80a@'
p3358
tp3359
Rp3360
tp3361
a(S'cpvert_4MeV_neg15tilt_95rot_det7.npy'
p3362
F0.5201
F0.0048
F27.6854
F0.0988
F0.2994
F0.0032
g11
(g15
S'\x00\x00\x00\x00\x00\x80d@'
p3363
tp3364
Rp3365
tp3366
a(S'cpvert_4MeV_neg15tilt_95rot_det8.npy'
p3367
F0.2415
F0.0027
F27.8868
F0.0925
F0.1275
F0.0016
g11
(g15
S'\x00\x00\x00\x00\x00\xa0b@'
p3368
tp3369
Rp3370
tp3371
a(S'cpvert_4MeV_neg15tilt_95rot_det9.npy'
p3372
F0.0731
F0.0013
F25.8129
F0.0837
F0.0333
F0.0007
g11
(g15
S'\x00\x00\x00\x00\x00@f@'
p3373
tp3374
Rp3375
tp3376
a(S'cpvert_4MeV_neg30tilt_115rot_det10.npy'
p3377
F0.0719
F0.0012
F24.4117
F0.1083
F0.0349
F0.0007
g11
(g15
S'\x00\x00\x00\x00\x00\x80c@'
p3378
tp3379
Rp3380
tp3381
a(S'cpvert_4MeV_neg30tilt_115rot_det11.npy'
p3382
F0.238
F0.0032
F28.9812
F0.0953
F0.1294
F0.002
g11
(g15
S'\x00\x00\x00\x00\x00@e@'
p3383
tp3384
Rp3385
tp3386
a(S'cpvert_4MeV_neg30tilt_115rot_det12.npy'
p3387
F0.5153
F0.005
F29.0303
F0.1122
F0.2962
F0.0032
g11
(g15
S'\x00\x00\x00\x00\x00`a@'
p3388
tp3389
Rp3390
tp3391
a(S'cpvert_4MeV_neg30tilt_115rot_det13.npy'
p3392
F0.8952
F0.0082
F33.704
F0.1527
F0.5393
F0.0056
g11
(g15
S'\x00\x00\x00\x00\x00\xa0`@'
p3393
tp3394
Rp3395
tp3396
a(S'cpvert_4MeV_neg30tilt_115rot_det14.npy'
p3397
F1.3211
F0.012
F43.4961
F0.2415
F0.8178
F0.0083
g11
(g15
S'\x00\x00\x00\x00\x00\xc0[@'
p3398
tp3399
Rp3400
tp3401
a(S'cpvert_4MeV_neg30tilt_115rot_det15.npy'
p3402
F1.6203
F0.0276
F66.2329
F0.5063
F1.0194
F0.0181
g11
(g15
S'\x00\x00\x00\x00\x00\xc0R@'
p3403
tp3404
Rp3405
tp3406
a(S'cpvert_4MeV_neg30tilt_115rot_det4.npy'
p3407
F1.5948
F0.0178
F65.0352
F0.495
F1.0205
F0.0123
g11
(g15
S'\x00\x00\x00\x00\x00\x00U@'
p3408
tp3409
Rp3410
tp3411
a(S'cpvert_4MeV_neg30tilt_115rot_det5.npy'
p3412
F1.243
F0.0096
F40.7392
F0.2201
F0.7824
F0.0067
g11
(g15
S'\x00\x00\x00\x00\x00 `@'
p3413
tp3414
Rp3415
tp3416
a(S'cpvert_4MeV_neg30tilt_115rot_det6.npy'
p3417
F0.8596
F0.0078
F31.1628
F0.1235
F0.5238
F0.0053
g11
(g15
S'\x00\x00\x00\x00\x00\xc0a@'
p3418
tp3419
Rp3420
tp3421
a(S'cpvert_4MeV_neg30tilt_115rot_det7.npy'
p3422
F0.5066
F0.0049
F27.8193
F0.1056
F0.2931
F0.0032
g11
(g15
S'\x00\x00\x00\x00\x00\x80d@'
p3423
tp3424
Rp3425
tp3426
a(S'cpvert_4MeV_neg30tilt_115rot_det8.npy'
p3427
F0.2361
F0.0027
F27.9084
F0.0863
F0.1262
F0.0016
g11
(g15
S'\x00\x00\x00\x00\x00\xe0c@'
p3428
tp3429
Rp3430
tp3431
a(S'cpvert_4MeV_neg30tilt_115rot_det9.npy'
p3432
F0.0733
F0.0013
F25.8825
F0.0824
F0.035
F0.0007
g11
(g15
S'\x00\x00\x00\x00\x00@d@'
p3433
tp3434
Rp3435
tp3436
a(S'cpvert_4MeV_neg30tilt_135rot_det10.npy'
p3437
F0.0732
F0.0013
F24.5705
F0.0948
F0.0357
F0.0008
g11
(g15
S'\x00\x00\x00\x00\x00@d@'
p3438
tp3439
Rp3440
tp3441
a(S'cpvert_4MeV_neg30tilt_135rot_det11.npy'
p3442
F0.2357
F0.0027
F29.0147
F0.102
F0.1271
F0.0016
g11
(g15
S'\x00\x00\x00\x00\x00 b@'
p3443
tp3444
Rp3445
tp3446
a(S'cpvert_4MeV_neg30tilt_135rot_det12.npy'
p3447
F0.5166
F0.005
F28.9821
F0.1004
F0.298
F0.0033
g11
(g15
S'\x00\x00\x00\x00\x00\x00e@'
p3448
tp3449
Rp3450
tp3451
a(S'cpvert_4MeV_neg30tilt_135rot_det13.npy'
p3452
F0.8787
F0.0082
F34.0069
F0.1237
F0.5333
F0.0057
g11
(g15
S'\x00\x00\x00\x00\x00\x00d@'
p3453
tp3454
Rp3455
tp3456
a(S'cpvert_4MeV_neg30tilt_135rot_det14.npy'
p3457
F1.2725
F0.0143
F43.375
F0.2457
F0.7948
F0.0097
g11
(g15
S'\x00\x00\x00\x00\x00@Z@'
p3458
tp3459
Rp3460
tp3461
a(S'cpvert_4MeV_neg30tilt_135rot_det15.npy'
p3462
F1.6358
F0.0174
F67.0367
F0.4657
F1.0366
F0.0122
g11
(g15
S'\x00\x00\x00\x00\x00@U@'
p3463
tp3464
Rp3465
tp3466
a(S'cpvert_4MeV_neg30tilt_135rot_det4.npy'
p3467
F1.6763
F0.0158
F63.8361
F0.4346
F1.0645
F0.0115
g11
(g15
S'\x00\x00\x00\x00\x00\xc0W@'
p3468
tp3469
Rp3470
tp3471
a(S'cpvert_4MeV_neg30tilt_135rot_det5.npy'
p3472
F1.307
F0.0123
F40.1863
F0.2209
F0.8146
F0.0085
g11
(g15
S'\x00\x00\x00\x00\x00@W@'
p3473
tp3474
Rp3475
tp3476
a(S'cpvert_4MeV_neg30tilt_135rot_det6.npy'
p3477
F0.8887
F0.0076
F31.026
F0.1163
F0.541
F0.0051
g11
(g15
S'\x00\x00\x00\x00\x00@b@'
p3478
tp3479
Rp3480
tp3481
a(S'cpvert_4MeV_neg30tilt_135rot_det7.npy'
p3482
F0.5075
F0.0052
F27.7641
F0.0963
F0.2947
F0.0033
g11
(g15
S'\x00\x00\x00\x00\x00`g@'
p3483
tp3484
Rp3485
tp3486
a(S'cpvert_4MeV_neg30tilt_135rot_det8.npy'
p3487
F0.2299
F0.0031
F27.9358
F0.0824
F0.1232
F0.0017
g11
(g15
S'\x00\x00\x00\x00\x00@c@'
p3488
tp3489
Rp3490
tp3491
a(S'cpvert_4MeV_neg30tilt_135rot_det9.npy'
p3492
F0.0717
F0.0017
F25.8866
F0.084
F0.0349
F0.001
g11
(g15
S'\x00\x00\x00\x00\x00\x80`@'
p3493
tp3494
Rp3495
tp3496
a(S'cpvert_4MeV_neg30tilt_15rot_det10.npy'
p3497
F0.0688
F0.0015
F24.494
F0.1064
F0.0328
F0.0008
g11
(g15
S'\x00\x00\x00\x00\x00\xa0b@'
p3498
tp3499
Rp3500
tp3501
a(S'cpvert_4MeV_neg30tilt_15rot_det11.npy'
p3502
F0.236
F0.0029
F28.8711
F0.0905
F0.1269
F0.0017
g11
(g15
S'\x00\x00\x00\x00\x00`e@'
p3503
tp3504
Rp3505
tp3506
a(S'cpvert_4MeV_neg30tilt_15rot_det12.npy'
p3507
F0.5126
F0.0059
F28.8044
F0.0982
F0.296
F0.0039
g11
(g15
S'\x00\x00\x00\x00\x00\xe0a@'
p3508
tp3509
Rp3510
tp3511
a(S'cpvert_4MeV_neg30tilt_15rot_det13.npy'
p3512
F0.835
F0.0076
F33.5779
F0.145
F0.5055
F0.0051
g11
(g15
S'\x00\x00\x00\x00\x00\xc0c@'
p3513
tp3514
Rp3515
tp3516
a(S'cpvert_4MeV_neg30tilt_15rot_det14.npy'
p3517
F1.2261
F0.0093
F42.8842
F0.1857
F0.7717
F0.0069
g11
(g15
S'\x00\x00\x00\x00\x00`c@'
p3518
tp3519
Rp3520
tp3521
a(S'cpvert_4MeV_neg30tilt_15rot_det15.npy'
p3522
F1.5163
F0.0184
F66.2418
F0.4582
F0.9744
F0.0127
g11
(g15
S'\x00\x00\x00\x00\x00\x00S@'
p3523
tp3524
Rp3525
tp3526
a(S'cpvert_4MeV_neg30tilt_15rot_det4.npy'
p3527
F1.5937
F0.0176
F65.1085
F0.5347
F1.0172
F0.0121
g11
(g15
S'\x00\x00\x00\x00\x00@S@'
p3528
tp3529
Rp3530
tp3531
a(S'cpvert_4MeV_neg30tilt_15rot_det5.npy'
p3532
F1.2602
F0.0148
F41.1653
F0.222
F0.7841
F0.0098
g11
(g15
S'\x00\x00\x00\x00\x00\xc0X@'
p3533
tp3534
Rp3535
tp3536
a(S'cpvert_4MeV_neg30tilt_15rot_det6.npy'
p3537
F0.9147
F0.008
F31.4015
F0.1323
F0.5505
F0.0054
g11
(g15
S'\x00\x00\x00\x00\x00\xa0`@'
p3538
tp3539
Rp3540
tp3541
a(S'cpvert_4MeV_neg30tilt_15rot_det7.npy'
p3542
F0.5464
F0.0057
F27.8612
F0.1079
F0.3142
F0.0037
g11
(g15
S'\x00\x00\x00\x00\x00\xe0b@'
p3543
tp3544
Rp3545
tp3546
a(S'cpvert_4MeV_neg30tilt_15rot_det8.npy'
p3547
F0.2599
F0.0032
F27.9641
F0.0847
F0.1421
F0.0019
g11
(g15
S'\x00\x00\x00\x00\x00\xe0a@'
p3548
tp3549
Rp3550
tp3551
a(S'cpvert_4MeV_neg30tilt_15rot_det9.npy'
p3552
F0.0792
F0.0017
F25.7786
F0.0921
F0.039
F0.0009
g11
(g15
S'\x00\x00\x00\x00\x00\x00c@'
p3553
tp3554
Rp3555
tp3556
a(S'cpvert_4MeV_neg30tilt_25rot_det10.npy'
p3557
F0.0716
F0.0014
F24.2626
F0.1094
F0.0347
F0.0007
g11
(g15
S'\x00\x00\x00\x00\x00 a@'
p3558
tp3559
Rp3560
tp3561
a(S'cpvert_4MeV_neg30tilt_25rot_det11.npy'
p3562
F0.234
F0.0034
F29.032
F0.1209
F0.1271
F0.002
g11
(g15
S'\x00\x00\x00\x00\x00\x80_@'
p3563
tp3564
Rp3565
tp3566
a(S'cpvert_4MeV_neg30tilt_25rot_det12.npy'
p3567
F0.4995
F0.0047
F28.8207
F0.1091
F0.2891
F0.0032
g11
(g15
S'\x00\x00\x00\x00\x00\x80c@'
p3568
tp3569
Rp3570
tp3571
a(S'cpvert_4MeV_neg30tilt_25rot_det13.npy'
p3572
F0.8479
F0.0072
F33.3953
F0.1423
F0.5125
F0.0049
g11
(g15
S'\x00\x00\x00\x00\x00@b@'
p3573
tp3574
Rp3575
tp3576
a(S'cpvert_4MeV_neg30tilt_25rot_det14.npy'
p3577
F1.2114
F0.0118
F42.9403
F0.1858
F0.7636
F0.0087
g11
(g15
S'\x00\x00\x00\x00\x00``@'
p3578
tp3579
Rp3580
tp3581
a(S'cpvert_4MeV_neg30tilt_25rot_det15.npy'
p3582
F1.4663
F0.0261
F66.6554
F0.5464
F0.9463
F0.0186
g11
(g15
S'\x00\x00\x00\x00\x00\x00R@'
p3583
tp3584
Rp3585
tp3586
a(S'cpvert_4MeV_neg30tilt_25rot_det4.npy'
p3587
F1.5762
F0.0181
F65.2002
F0.4286
F1.015
F0.0118
g11
(g15
S'\x00\x00\x00\x00\x00@S@'
p3588
tp3589
Rp3590
tp3591
a(S'cpvert_4MeV_neg30tilt_25rot_det5.npy'
p3592
F1.2842
F0.0115
F40.6424
F0.2061
F0.8055
F0.0078
g11
(g15
S'\x00\x00\x00\x00\x00\xc0Y@'
p3593
tp3594
Rp3595
tp3596
a(S'cpvert_4MeV_neg30tilt_25rot_det6.npy'
p3597
F0.8891
F0.008
F31.39
F0.1283
F0.5356
F0.0055
g11
(g15
S'\x00\x00\x00\x00\x00`a@'
p3598
tp3599
Rp3600
tp3601
a(S'cpvert_4MeV_neg30tilt_25rot_det7.npy'
p3602
F0.5447
F0.0048
F27.9025
F0.1047
F0.3166
F0.0036
g11
(g15
S'\x00\x00\x00\x00\x00\x80`@'
p3603
tp3604
Rp3605
tp3606
a(S'cpvert_4MeV_neg30tilt_25rot_det8.npy'
p3607
F0.2612
F0.0029
F27.9403
F0.0939
F0.1424
F0.0018
g11
(g15
S'\x00\x00\x00\x00\x00\xc0`@'
p3608
tp3609
Rp3610
tp3611
a(S'cpvert_4MeV_neg30tilt_25rot_det9.npy'
p3612
F0.0787
F0.0016
F25.8046
F0.0962
F0.0389
F0.0009
g11
(g15
S'\x00\x00\x00\x00\x00@_@'
p3613
tp3614
Rp3615
tp3616
a(S'cpvert_4MeV_neg30tilt_315rot_det10.npy'
p3617
F0.0682
F0.0014
F24.3835
F0.1092
F0.0308
F0.0008
g11
(g15
S'\x00\x00\x00\x00\x00`a@'
p3618
tp3619
Rp3620
tp3621
a(S'cpvert_4MeV_neg30tilt_315rot_det11.npy'
p3622
F0.2347
F0.0032
F29.085
F0.0979
F0.1254
F0.0019
g11
(g15
S'\x00\x00\x00\x00\x00\x00b@'
p3623
tp3624
Rp3625
tp3626
a(S'cpvert_4MeV_neg30tilt_315rot_det12.npy'
p3627
F0.5073
F0.0056
F28.8276
F0.1121
F0.2926
F0.0037
g11
(g15
S'\x00\x00\x00\x00\x00\x80a@'
p3628
tp3629
Rp3630
tp3631
a(S'cpvert_4MeV_neg30tilt_315rot_det13.npy'
p3632
F0.8974
F0.007
F33.676
F0.1594
F0.545
F0.0053
g11
(g15
S'\x00\x00\x00\x00\x00@[@'
p3633
tp3634
Rp3635
tp3636
a(S'cpvert_4MeV_neg30tilt_315rot_det14.npy'
p3637
F1.3076
F0.0123
F43.0226
F0.2379
F0.8095
F0.0086
g11
(g15
S'\x00\x00\x00\x00\x00\xc0W@'
p3638
tp3639
Rp3640
tp3641
a(S'cpvert_4MeV_neg30tilt_315rot_det15.npy'
p3642
F1.6071
F0.0234
F66.9916
F0.5692
F1.0198
F0.0161
g11
(g15
S'\x00\x00\x00\x00\x00\x80M@'
p3643
tp3644
Rp3645
tp3646
a(S'cpvert_4MeV_neg30tilt_315rot_det4.npy'
p3647
F1.6785
F0.0178
F66.1974
F0.552
F1.0637
F0.0121
g11
(g15
S'\x00\x00\x00\x00\x00\x80M@'
p3648
tp3649
Rp3650
tp3651
a(S'cpvert_4MeV_neg30tilt_315rot_det5.npy'
p3652
F1.3246
F0.0128
F41.3605
F0.2492
F0.8317
F0.0088
g11
(g15
S'\x00\x00\x00\x00\x00\x00T@'
p3653
tp3654
Rp3655
tp3656
a(S'cpvert_4MeV_neg30tilt_315rot_det6.npy'
p3657
F0.8859
F0.0085
F31.4557
F0.1527
F0.5373
F0.0057
g11
(g15
S'\x00\x00\x00\x00\x00\x00\\@'
p3658
tp3659
Rp3660
tp3661
a(S'cpvert_4MeV_neg30tilt_315rot_det7.npy'
p3662
F0.5261
F0.0051
F27.9062
F0.101
F0.3037
F0.0035
g11
(g15
S'\x00\x00\x00\x00\x00\xa0a@'
p3663
tp3664
Rp3665
tp3666
a(S'cpvert_4MeV_neg30tilt_315rot_det8.npy'
p3667
F0.2456
F0.0031
F28.0607
F0.1015
F0.1325
F0.0019
g11
(g15
S'\x00\x00\x00\x00\x00\xc0]@'
p3668
tp3669
Rp3670
tp3671
a(S'cpvert_4MeV_neg30tilt_315rot_det9.npy'
p3672
F0.0708
F0.0016
F25.853
F0.1002
F0.0328
F0.0008
g11
(g15
S'\x00\x00\x00\x00\x00``@'
p3673
tp3674
Rp3675
tp3676
a(S'cpvert_4MeV_neg30tilt_335rot_det10.npy'
p3677
F0.0682
F0.0013
F24.4488
F0.1041
F0.0308
F0.0007
g11
(g15
S'\x00\x00\x00\x00\x00@b@'
p3678
tp3679
Rp3680
tp3681
a(S'cpvert_4MeV_neg30tilt_335rot_det11.npy'
p3682
F0.231
F0.0032
F28.9554
F0.0933
F0.1213
F0.0019
g11
(g15
S'\x00\x00\x00\x00\x00\xa0c@'
p3683
tp3684
Rp3685
tp3686
a(S'cpvert_4MeV_neg30tilt_335rot_det12.npy'
p3687
F0.4928
F0.0058
F28.7859
F0.1024
F0.2829
F0.0037
g11
(g15
S'\x00\x00\x00\x00\x00 f@'
p3688
tp3689
Rp3690
tp3691
a(S'cpvert_4MeV_neg30tilt_335rot_det13.npy'
p3692
F0.8556
F0.0074
F33.2383
F0.1212
F0.5201
F0.005
g11
(g15
S'\x00\x00\x00\x00\x00\xa0`@'
p3693
tp3694
Rp3695
tp3696
a(S'cpvert_4MeV_neg30tilt_335rot_det14.npy'
p3697
F1.2409
F0.0114
F42.8605
F0.223
F0.7794
F0.008
g11
(g15
S'\x00\x00\x00\x00\x00\x00^@'
p3698
tp3699
Rp3700
tp3701
a(S'cpvert_4MeV_neg30tilt_335rot_det15.npy'
p3702
F1.6012
F0.0163
F66.1945
F0.5735
F1.0208
F0.0124
g11
(g15
S'\x00\x00\x00\x00\x00\xc0P@'
p3703
tp3704
Rp3705
tp3706
a(S'cpvert_4MeV_neg30tilt_335rot_det4.npy'
p3707
F1.6827
F0.0193
F65.4904
F0.5281
F1.0556
F0.0134
g11
(g15
S'\x00\x00\x00\x00\x00\x00S@'
p3708
tp3709
Rp3710
tp3711
a(S'cpvert_4MeV_neg30tilt_335rot_det5.npy'
p3712
F1.3445
F0.0105
F41.107
F0.232
F0.8343
F0.007
g11
(g15
S'\x00\x00\x00\x00\x00\xc0Y@'
p3713
tp3714
Rp3715
tp3716
a(S'cpvert_4MeV_neg30tilt_335rot_det6.npy'
p3717
F0.935
F0.0069
F31.4902
F0.124
F0.5639
F0.0045
g11
(g15
S'\x00\x00\x00\x00\x00@^@'
p3718
tp3719
Rp3720
tp3721
a(S'cpvert_4MeV_neg30tilt_335rot_det7.npy'
p3722
F0.5529
F0.0056
F27.8082
F0.1058
F0.3219
F0.0035
g11
(g15
S'\x00\x00\x00\x00\x00\x00`@'
p3723
tp3724
Rp3725
tp3726
a(S'cpvert_4MeV_neg30tilt_335rot_det8.npy'
p3727
F0.2423
F0.0021
F28.0986
F0.1049
F0.1309
F0.0014
g11
(g15
S'\x00\x00\x00\x00\x00@Y@'
p3728
tp3729
Rp3730
tp3731
a(S'cpvert_4MeV_neg30tilt_335rot_det9.npy'
p3732
F0.0769
F0.0017
F25.8183
F0.1124
F0.0363
F0.0009
g11
(g15
S'\x00\x00\x00\x00\x00@^@'
p3733
tp3734
Rp3735
tp3736
a(S'cpvert_4MeV_neg30tilt_345rot_det10.npy'
p3737
F0.0664
F0.0012
F24.4526
F0.104
F0.0305
F0.0006
g11
(g15
S'\x00\x00\x00\x00\x00 d@'
p3738
tp3739
Rp3740
tp3741
a(S'cpvert_4MeV_neg30tilt_345rot_det11.npy'
p3742
F0.2337
F0.0027
F28.9692
F0.0984
F0.1248
F0.0017
g11
(g15
S'\x00\x00\x00\x00\x00\xe0c@'
p3743
tp3744
Rp3745
tp3746
a(S'cpvert_4MeV_neg30tilt_345rot_det12.npy'
p3747
F0.5032
F0.0047
F28.7636
F0.0938
F0.2893
F0.0031
g11
(g15
S'\x00\x00\x00\x00\x00\xc0e@'
p3748
tp3749
Rp3750
tp3751
a(S'cpvert_4MeV_neg30tilt_345rot_det13.npy'
p3752
F0.8655
F0.0072
F33.3528
F0.1254
F0.5241
F0.0049
g11
(g15
S'\x00\x00\x00\x00\x00\xe0c@'
p3753
tp3754
Rp3755
tp3756
a(S'cpvert_4MeV_neg30tilt_345rot_det14.npy'
p3757
F1.2366
F0.0114
F43.1297
F0.2437
F0.7754
F0.0082
g11
(g15
S'\x00\x00\x00\x00\x00\x80Z@'
p3758
tp3759
Rp3760
tp3761
a(S'cpvert_4MeV_neg30tilt_345rot_det15.npy'
p3762
F1.5349
F0.0246
F67.6656
F0.565
F0.9811
F0.0162
g11
(g15
S'\x00\x00\x00\x00\x00\x00R@'
p3763
tp3764
Rp3765
tp3766
a(S'cpvert_4MeV_neg30tilt_345rot_det4.npy'
p3767
F1.6545
F0.0184
F66.3944
F0.4725
F1.0417
F0.0129
g11
(g15
S'\x00\x00\x00\x00\x00\x00V@'
p3768
tp3769
Rp3770
tp3771
a(S'cpvert_4MeV_neg30tilt_345rot_det5.npy'
p3772
F1.3286
F0.0139
F41.2821
F0.2252
F0.8238
F0.0097
g11
(g15
S'\x00\x00\x00\x00\x00\xc0^@'
p3773
tp3774
Rp3775
tp3776
a(S'cpvert_4MeV_neg30tilt_345rot_det6.npy'
p3777
F0.9311
F0.0076
F31.5212
F0.1207
F0.5602
F0.0051
g11
(g15
S'\x00\x00\x00\x00\x00`b@'
p3778
tp3779
Rp3780
tp3781
a(S'cpvert_4MeV_neg30tilt_345rot_det7.npy'
p3782
F0.5511
F0.0054
F27.9362
F0.0971
F0.3199
F0.0033
g11
(g15
S'\x00\x00\x00\x00\x00 d@'
p3783
tp3784
Rp3785
tp3786
a(S'cpvert_4MeV_neg30tilt_345rot_det8.npy'
p3787
F0.2489
F0.0031
F27.8419
F0.0845
F0.1356
F0.0018
g11
(g15
S'\x00\x00\x00\x00\x00@f@'
p3788
tp3789
Rp3790
tp3791
a(S'cpvert_4MeV_neg30tilt_345rot_det9.npy'
p3792
F0.0773
F0.0014
F25.8904
F0.0986
F0.0374
F0.0008
g11
(g15
S'\x00\x00\x00\x00\x00``@'
p3793
tp3794
Rp3795
tp3796
a(S'cpvert_4MeV_neg30tilt_355rot_det10.npy'
p3797
F0.0694
F0.0014
F24.3863
F0.1061
F0.0324
F0.0008
g11
(g15
S'\x00\x00\x00\x00\x00\xa0c@'
p3798
tp3799
Rp3800
tp3801
a(S'cpvert_4MeV_neg30tilt_355rot_det11.npy'
p3802
F0.2338
F0.0026
F28.7304
F0.0949
F0.1245
F0.0015
g11
(g15
S'\x00\x00\x00\x00\x00@c@'
p3803
tp3804
Rp3805
tp3806
a(S'cpvert_4MeV_neg30tilt_355rot_det12.npy'
p3807
F0.4899
F0.0052
F28.691
F0.0978
F0.2815
F0.0033
g11
(g15
S'\x00\x00\x00\x00\x00\x00f@'
p3808
tp3809
Rp3810
tp3811
a(S'cpvert_4MeV_neg30tilt_355rot_det13.npy'
p3812
F0.8498
F0.0071
F33.4894
F0.1401
F0.5151
F0.0047
g11
(g15
S'\x00\x00\x00\x00\x00\xe0a@'
p3813
tp3814
Rp3815
tp3816
a(S'cpvert_4MeV_neg30tilt_355rot_det14.npy'
p3817
F1.2367
F0.0101
F42.8923
F0.2315
F0.7782
F0.0072
g11
(g15
S'\x00\x00\x00\x00\x00@^@'
p3818
tp3819
Rp3820
tp3821
a(S'cpvert_4MeV_neg30tilt_355rot_det15.npy'
p3822
F1.5546
F0.0182
F67.2874
F0.5081
F0.9867
F0.0121
g11
(g15
S'\x00\x00\x00\x00\x00\x80P@'
p3823
tp3824
Rp3825
tp3826
a(S'cpvert_4MeV_neg30tilt_355rot_det4.npy'
p3827
F1.6748
F0.0193
F65.1002
F0.5433
F1.0597
F0.0141
g11
(g15
S'\x00\x00\x00\x00\x00\x80O@'
p3828
tp3829
Rp3830
tp3831
a(S'cpvert_4MeV_neg30tilt_355rot_det5.npy'
p3832
F1.3456
F0.0122
F41.3821
F0.2115
F0.83
F0.0084
g11
(g15
S'\x00\x00\x00\x00\x00@]@'
p3833
tp3834
Rp3835
tp3836
a(S'cpvert_4MeV_neg30tilt_355rot_det6.npy'
p3837
F0.9361
F0.0084
F31.3151
F0.14
F0.5642
F0.0061
g11
(g15
S'\x00\x00\x00\x00\x00\x00]@'
p3838
tp3839
Rp3840
tp3841
a(S'cpvert_4MeV_neg30tilt_355rot_det7.npy'
p3842
F0.5531
F0.0056
F27.8112
F0.1079
F0.3199
F0.0036
g11
(g15
S'\x00\x00\x00\x00\x00\x80a@'
p3843
tp3844
Rp3845
tp3846
a(S'cpvert_4MeV_neg30tilt_355rot_det8.npy'
p3847
F0.2582
F0.0031
F27.9624
F0.0973
F0.1399
F0.002
g11
(g15
S'\x00\x00\x00\x00\x00\x00_@'
p3848
tp3849
Rp3850
tp3851
a(S'cpvert_4MeV_neg30tilt_355rot_det9.npy'
p3852
F0.081
F0.0014
F25.8166
F0.0992
F0.0396
F0.0008
g11
(g15
S'\x00\x00\x00\x00\x00\x00_@'
p3853
tp3854
Rp3855
tp3856
a(S'cpvert_4MeV_neg30tilt_35rot_det10.npy'
p3857
F0.0723
F0.0013
F24.2171
F0.0995
F0.0354
F0.0007
g11
(g15
S'\x00\x00\x00\x00\x00\xc0`@'
p3858
tp3859
Rp3860
tp3861
a(S'cpvert_4MeV_neg30tilt_35rot_det11.npy'
p3862
F0.2371
F0.0033
F28.7664
F0.0981
F0.1281
F0.0019
g11
(g15
S'\x00\x00\x00\x00\x00\x80c@'
p3863
tp3864
Rp3865
tp3866
a(S'cpvert_4MeV_neg30tilt_35rot_det12.npy'
p3867
F0.5093
F0.0057
F28.6402
F0.1083
F0.2937
F0.0036
g11
(g15
S'\x00\x00\x00\x00\x00`a@'
p3868
tp3869
Rp3870
tp3871
a(S'cpvert_4MeV_neg30tilt_35rot_det13.npy'
p3872
F0.8776
F0.008
F33.4704
F0.1385
F0.5344
F0.0057
g11
(g15
S'\x00\x00\x00\x00\x00\xc0`@'
p3873
tp3874
Rp3875
tp3876
a(S'cpvert_4MeV_neg30tilt_35rot_det14.npy'
p3877
F1.2031
F0.0127
F43.0671
F0.2089
F0.7564
F0.0088
g11
(g15
S'\x00\x00\x00\x00\x00\xc0\\@'
p3878
tp3879
Rp3880
tp3881
a(S'cpvert_4MeV_neg30tilt_35rot_det15.npy'
p3882
F1.5355
F0.0166
F65.8507
F0.5261
F0.989
F0.012
g11
(g15
S'\x00\x00\x00\x00\x00\xc0S@'
p3883
tp3884
Rp3885
tp3886
a(S'cpvert_4MeV_neg30tilt_35rot_det4.npy'
p3887
F1.549
F0.0226
F64.9116
F0.6215
F0.9931
F0.0157
g11
(g15
S'\x00\x00\x00\x00\x00\x80P@'
p3888
tp3889
Rp3890
tp3891
a(S'cpvert_4MeV_neg30tilt_35rot_det5.npy'
p3892
F1.2394
F0.0115
F41.2162
F0.2045
F0.7783
F0.0082
g11
(g15
S'\x00\x00\x00\x00\x00@\\@'
p3893
tp3894
Rp3895
tp3896
a(S'cpvert_4MeV_neg30tilt_35rot_det6.npy'
p3897
F0.8776
F0.0078
F31.4305
F0.1231
F0.5312
F0.0054
g11
(g15
S'\x00\x00\x00\x00\x00@b@'
p3898
tp3899
Rp3900
tp3901
a(S'cpvert_4MeV_neg30tilt_35rot_det7.npy'
p3902
F0.5199
F0.0054
F27.9233
F0.1105
F0.299
F0.0034
g11
(g15
S'\x00\x00\x00\x00\x00@b@'
p3903
tp3904
Rp3905
tp3906
a(S'cpvert_4MeV_neg30tilt_35rot_det8.npy'
p3907
F0.2471
F0.0031
F27.9136
F0.0978
F0.1336
F0.0018
g11
(g15
S'\x00\x00\x00\x00\x00@b@'
p3908
tp3909
Rp3910
tp3911
a(S'cpvert_4MeV_neg30tilt_35rot_det9.npy'
p3912
F0.0782
F0.0014
F25.7796
F0.0948
F0.0388
F0.0008
g11
(g15
S'\x00\x00\x00\x00\x00\x80b@'
p3913
tp3914
Rp3915
tp3916
a(S'cpvert_4MeV_neg30tilt_45rot_det10.npy'
p3917
F0.0745
F0.0015
F24.0992
F0.1
F0.0362
F0.0008
g11
(g15
S'\x00\x00\x00\x00\x00\x80\\@'
p3918
tp3919
Rp3920
tp3921
a(S'cpvert_4MeV_neg30tilt_45rot_det11.npy'
p3922
F0.2453
F0.0033
F28.9126
F0.1078
F0.1332
F0.002
g11
(g15
S'\x00\x00\x00\x00\x00 `@'
p3923
tp3924
Rp3925
tp3926
a(S'cpvert_4MeV_neg30tilt_45rot_det12.npy'
p3927
F0.5213
F0.0062
F28.913
F0.1173
F0.302
F0.004
g11
(g15
S'\x00\x00\x00\x00\x00\xc0\\@'
p3928
tp3929
Rp3930
tp3931
a(S'cpvert_4MeV_neg30tilt_45rot_det13.npy'
p3932
F0.8602
F0.0072
F33.6364
F0.1278
F0.5219
F0.0051
g11
(g15
S'\x00\x00\x00\x00\x00\xc0_@'
p3933
tp3934
Rp3935
tp3936
a(S'cpvert_4MeV_neg30tilt_45rot_det14.npy'
p3937
F1.2192
F0.0137
F43.2468
F0.2367
F0.7648
F0.0095
g11
(g15
S'\x00\x00\x00\x00\x00@Y@'
p3938
tp3939
Rp3940
tp3941
a(S'cpvert_4MeV_neg30tilt_45rot_det15.npy'
p3942
F1.5424
F0.0247
F66.5556
F0.5876
F0.9891
F0.0168
g11
(g15
S'\x00\x00\x00\x00\x00\x00G@'
p3943
tp3944
Rp3945
tp3946
a(S'cpvert_4MeV_neg30tilt_45rot_det4.npy'
p3947
F1.5111
F0.0257
F65.7182
F0.5847
F0.968
F0.0171
g11
(g15
S'\x00\x00\x00\x00\x00\x00Q@'
p3948
tp3949
Rp3950
tp3951
a(S'cpvert_4MeV_neg30tilt_45rot_det5.npy'
p3952
F1.2223
F0.0124
F41.229
F0.2172
F0.7682
F0.0086
g11
(g15
S'\x00\x00\x00\x00\x00@X@'
p3953
tp3954
Rp3955
tp3956
a(S'cpvert_4MeV_neg30tilt_45rot_det6.npy'
p3957
F0.8765
F0.0084
F31.3335
F0.1343
F0.5301
F0.0057
g11
(g15
S'\x00\x00\x00\x00\x00\x80^@'
p3958
tp3959
Rp3960
tp3961
a(S'cpvert_4MeV_neg30tilt_45rot_det7.npy'
p3962
F0.5057
F0.0067
F28.1029
F0.1103
F0.2898
F0.0043
g11
(g15
S'\x00\x00\x00\x00\x00\xe0`@'
p3963
tp3964
Rp3965
tp3966
a(S'cpvert_4MeV_neg30tilt_45rot_det8.npy'
p3967
F0.2473
F0.003
F28.0678
F0.1007
F0.1334
F0.0018
g11
(g15
S'\x00\x00\x00\x00\x00\x00c@'
p3968
tp3969
Rp3970
tp3971
a(S'cpvert_4MeV_neg30tilt_45rot_det9.npy'
p3972
F0.0788
F0.0015
F25.9546
F0.0969
F0.0384
F0.0009
g11
(g15
S'\x00\x00\x00\x00\x00 `@'
p3973
tp3974
Rp3975
tp3976
a(S'cpvert_4MeV_neg30tilt_55rot_det10.npy'
p3977
F0.0743
F0.0013
F24.5472
F0.1213
F0.0366
F0.0007
g11
(g15
S'\x00\x00\x00\x00\x00\x00`@'
p3978
tp3979
Rp3980
tp3981
a(S'cpvert_4MeV_neg30tilt_55rot_det11.npy'
p3982
F0.2449
F0.0031
F28.6038
F0.1017
F0.1331
F0.0019
g11
(g15
S'\x00\x00\x00\x00\x00@b@'
p3983
tp3984
Rp3985
tp3986
a(S'cpvert_4MeV_neg30tilt_55rot_det12.npy'
p3987
F0.5344
F0.0051
F28.6847
F0.1124
F0.3107
F0.0033
g11
(g15
S'\x00\x00\x00\x00\x00@a@'
p3988
tp3989
Rp3990
tp3991
a(S'cpvert_4MeV_neg30tilt_55rot_det13.npy'
p3992
F0.8935
F0.0076
F33.6441
F0.1432
F0.5413
F0.0052
g11
(g15
S'\x00\x00\x00\x00\x00 `@'
p3993
tp3994
Rp3995
tp3996
a(S'cpvert_4MeV_neg30tilt_55rot_det14.npy'
p3997
F1.2459
F0.0128
F43.3104
F0.2335
F0.7838
F0.0091
g11
(g15
S'\x00\x00\x00\x00\x00\x00[@'
p3998
tp3999
Rp4000
tp4001
a(S'cpvert_4MeV_neg30tilt_55rot_det15.npy'
p4002
F1.5804
F0.0179
F66.4843
F0.5354
F1.0132
F0.013
g11
(g15
S'\x00\x00\x00\x00\x00\x00S@'
p4003
tp4004
Rp4005
tp4006
a(S'cpvert_4MeV_neg30tilt_55rot_det4.npy'
p4007
F1.5416
F0.0176
F65.3146
F0.5288
F0.9868
F0.0126
g11
(g15
S'\x00\x00\x00\x00\x00\xc0P@'
p4008
tp4009
Rp4010
tp4011
a(S'cpvert_4MeV_neg30tilt_55rot_det5.npy'
p4012
F1.2286
F0.0114
F41.0353
F0.247
F0.7721
F0.0079
g11
(g15
S'\x00\x00\x00\x00\x00\x00V@'
p4013
tp4014
Rp4015
tp4016
a(S'cpvert_4MeV_neg30tilt_55rot_det6.npy'
p4017
F0.8535
F0.0081
F31.6625
F0.133
F0.5182
F0.0056
g11
(g15
S'\x00\x00\x00\x00\x00\x80_@'
p4018
tp4019
Rp4020
tp4021
a(S'cpvert_4MeV_neg30tilt_55rot_det7.npy'
p4022
F0.5098
F0.0052
F28.0995
F0.1083
F0.2926
F0.0034
g11
(g15
S'\x00\x00\x00\x00\x00\x80b@'
p4023
tp4024
Rp4025
tp4026
a(S'cpvert_4MeV_neg30tilt_55rot_det8.npy'
p4027
F0.2447
F0.003
F28.0181
F0.0921
F0.1313
F0.0018
g11
(g15
S'\x00\x00\x00\x00\x00\x00`@'
p4028
tp4029
Rp4030
tp4031
a(S'cpvert_4MeV_neg30tilt_55rot_det9.npy'
p4032
F0.0754
F0.0014
F25.8059
F0.0969
F0.0375
F0.0008
g11
(g15
S'\x00\x00\x00\x00\x00\xe0a@'
p4033
tp4034
Rp4035
tp4036
a(S'cpvert_4MeV_neg30tilt_5rot_det10.npy'
p4037
F0.0701
F0.0017
F24.5406
F0.1092
F0.0328
F0.0009
g11
(g15
S'\x00\x00\x00\x00\x00\xc0^@'
p4038
tp4039
Rp4040
tp4041
a(S'cpvert_4MeV_neg30tilt_5rot_det11.npy'
p4042
F0.2343
F0.0033
F28.872
F0.1044
F0.1262
F0.0019
g11
(g15
S'\x00\x00\x00\x00\x00\x80a@'
p4043
tp4044
Rp4045
tp4046
a(S'cpvert_4MeV_neg30tilt_5rot_det12.npy'
p4047
F0.5096
F0.0051
F28.5375
F0.1174
F0.2926
F0.0034
g11
(g15
S'\x00\x00\x00\x00\x00@_@'
p4048
tp4049
Rp4050
tp4051
a(S'cpvert_4MeV_neg30tilt_5rot_det13.npy'
p4052
F0.8407
F0.0075
F33.8387
F0.1508
F0.5077
F0.0051
g11
(g15
S'\x00\x00\x00\x00\x00@`@'
p4053
tp4054
Rp4055
tp4056
a(S'cpvert_4MeV_neg30tilt_5rot_det14.npy'
p4057
F1.2026
F0.0116
F43.1077
F0.2218
F0.7558
F0.0082
g11
(g15
S'\x00\x00\x00\x00\x00\xc0[@'
p4058
tp4059
Rp4060
tp4061
a(S'cpvert_4MeV_neg30tilt_5rot_det15.npy'
p4062
F1.5341
F0.0201
F66.1252
F0.5914
F0.9809
F0.0138
g11
(g15
S'\x00\x00\x00\x00\x00\x80M@'
p4063
tp4064
Rp4065
tp4066
a(S'cpvert_4MeV_neg30tilt_5rot_det4.npy'
p4067
F1.6066
F0.0179
F65.3513
F0.6132
F1.02
F0.0129
g11
(g15
S'\x00\x00\x00\x00\x00@P@'
p4068
tp4069
Rp4070
tp4071
a(S'cpvert_4MeV_neg30tilt_5rot_det5.npy'
p4072
F1.3098
F0.0122
F40.762
F0.2275
F0.8132
F0.0082
g11
(g15
S'\x00\x00\x00\x00\x00\x00Y@'
p4073
tp4074
Rp4075
tp4076
a(S'cpvert_4MeV_neg30tilt_5rot_det6.npy'
p4077
F0.9253
F0.0081
F31.4182
F0.1334
F0.5543
F0.0054
g11
(g15
S'\x00\x00\x00\x00\x00\x00_@'
p4078
tp4079
Rp4080
tp4081
a(S'cpvert_4MeV_neg30tilt_5rot_det7.npy'
p4082
F0.5533
F0.0049
F27.7351
F0.1035
F0.3176
F0.0031
g11
(g15
S'\x00\x00\x00\x00\x00@b@'
p4083
tp4084
Rp4085
tp4086
a(S'cpvert_4MeV_neg30tilt_5rot_det8.npy'
p4087
F0.2541
F0.0036
F28.029
F0.1002
F0.1375
F0.0021
g11
(g15
S'\x00\x00\x00\x00\x00\x00_@'
p4088
tp4089
Rp4090
tp4091
a(S'cpvert_4MeV_neg30tilt_5rot_det9.npy'
p4092
F0.0787
F0.0015
F25.8777
F0.1068
F0.0381
F0.0008
g11
(g15
S'\x00\x00\x00\x00\x00\x80_@'
p4093
tp4094
Rp4095
tp4096
a(S'cpvert_4MeV_neg30tilt_75rot_det10.npy'
p4097
F0.0781
F0.0015
F24.434
F0.1063
F0.0389
F0.0008
g11
(g15
S'\x00\x00\x00\x00\x00\xc0b@'
p4098
tp4099
Rp4100
tp4101
a(S'cpvert_4MeV_neg30tilt_75rot_det11.npy'
p4102
F0.2515
F0.0031
F28.752
F0.1067
F0.1368
F0.0018
g11
(g15
S'\x00\x00\x00\x00\x00@c@'
p4103
tp4104
Rp4105
tp4106
a(S'cpvert_4MeV_neg30tilt_75rot_det12.npy'
p4107
F0.5483
F0.0054
F28.7699
F0.1033
F0.3177
F0.0036
g11
(g15
S'\x00\x00\x00\x00\x00\x00a@'
p4108
tp4109
Rp4110
tp4111
a(S'cpvert_4MeV_neg30tilt_75rot_det13.npy'
p4112
F0.9163
F0.0086
F33.6286
F0.1354
F0.5563
F0.0056
g11
(g15
S'\x00\x00\x00\x00\x00@a@'
p4113
tp4114
Rp4115
tp4116
a(S'cpvert_4MeV_neg30tilt_75rot_det14.npy'
p4117
F1.2955
F0.0135
F43.5458
F0.2325
F0.8074
F0.0094
g11
(g15
S'\x00\x00\x00\x00\x00\x80X@'
p4118
tp4119
Rp4120
tp4121
a(S'cpvert_4MeV_neg30tilt_75rot_det15.npy'
p4122
F1.636
F0.0177
F66.4394
F0.4806
F1.0513
F0.0121
g11
(g15
S'\x00\x00\x00\x00\x00\xc0S@'
p4123
tp4124
Rp4125
tp4126
a(S'cpvert_4MeV_neg30tilt_75rot_det4.npy'
p4127
F1.5331
F0.0194
F63.763
F0.4975
F0.9841
F0.0134
g11
(g15
S'\x00\x00\x00\x00\x00\x80S@'
p4128
tp4129
Rp4130
tp4131
a(S'cpvert_4MeV_neg30tilt_75rot_det5.npy'
p4132
F1.2065
F0.0116
F41.358
F0.2369
F0.7577
F0.0082
g11
(g15
S'\x00\x00\x00\x00\x00\x00Y@'
p4133
tp4134
Rp4135
tp4136
a(S'cpvert_4MeV_neg30tilt_75rot_det6.npy'
p4137
F0.8395
F0.0082
F31.4798
F0.1327
F0.5083
F0.0055
g11
(g15
S'\x00\x00\x00\x00\x00\x00^@'
p4138
tp4139
Rp4140
tp4141
a(S'cpvert_4MeV_neg30tilt_75rot_det7.npy'
p4142
F0.4978
F0.0047
F27.8553
F0.1002
F0.2869
F0.003
g11
(g15
S'\x00\x00\x00\x00\x00\x80d@'
p4143
tp4144
Rp4145
tp4146
a(S'cpvert_4MeV_neg30tilt_75rot_det8.npy'
p4147
F0.2331
F0.0031
F28.1197
F0.0838
F0.1245
F0.0018
g11
(g15
S'\x00\x00\x00\x00\x00\xe0b@'
p4148
tp4149
Rp4150
tp4151
a(S'cpvert_4MeV_neg30tilt_75rot_det9.npy'
p4152
F0.0734
F0.0013
F25.7627
F0.0882
F0.0362
F0.0008
g11
(g15
S'\x00\x00\x00\x00\x00\x00b@'
p4153
tp4154
Rp4155
tp4156
a(S'cpvert_4MeV_neg30tilt_95rot_det10.npy'
p4157
F0.073
F0.0013
F24.2876
F0.1004
F0.036
F0.0007
g11
(g15
S'\x00\x00\x00\x00\x00\xa0b@'
p4158
tp4159
Rp4160
tp4161
a(S'cpvert_4MeV_neg30tilt_95rot_det11.npy'
p4162
F0.2409
F0.0032
F29.1786
F0.1053
F0.1312
F0.002
g11
(g15
S'\x00\x00\x00\x00\x00 a@'
p4163
tp4164
Rp4165
tp4166
a(S'cpvert_4MeV_neg30tilt_95rot_det12.npy'
p4167
F0.5364
F0.0053
F28.8853
F0.1079
F0.3095
F0.0034
g11
(g15
S'\x00\x00\x00\x00\x00\xa0c@'
p4168
tp4169
Rp4170
tp4171
a(S'cpvert_4MeV_neg30tilt_95rot_det13.npy'
p4172
F0.9076
F0.0084
F33.6999
F0.1477
F0.5444
F0.0059
g11
(g15
S'\x00\x00\x00\x00\x00\x80b@'
p4173
tp4174
Rp4175
tp4176
a(S'cpvert_4MeV_neg30tilt_95rot_det14.npy'
p4177
F1.3192
F0.0133
F42.9579
F0.2428
F0.8173
F0.0087
g11
(g15
S'\x00\x00\x00\x00\x00\x00Y@'
p4178
tp4179
Rp4180
tp4181
a(S'cpvert_4MeV_neg30tilt_95rot_det15.npy'
p4182
F1.6638
F0.0194
F65.6627
F0.5467
F1.0533
F0.0142
g11
(g15
S'\x00\x00\x00\x00\x00\x80P@'
p4183
tp4184
Rp4185
tp4186
a(S'cpvert_4MeV_neg30tilt_95rot_det4.npy'
p4187
F1.5738
F0.0175
F64.9267
F0.4646
F1.0114
F0.0127
g11
(g15
S'\x00\x00\x00\x00\x00\xc0V@'
p4188
tp4189
Rp4190
tp4191
a(S'cpvert_4MeV_neg30tilt_95rot_det5.npy'
p4192
F1.2281
F0.0119
F40.9987
F0.2219
F0.771
F0.0082
g11
(g15
S'\x00\x00\x00\x00\x00\x00Z@'
p4193
tp4194
Rp4195
tp4196
a(S'cpvert_4MeV_neg30tilt_95rot_det6.npy'
p4197
F0.8522
F0.007
F31.3291
F0.1298
F0.5159
F0.0048
g11
(g15
S'\x00\x00\x00\x00\x00\x80a@'
p4198
tp4199
Rp4200
tp4201
a(S'cpvert_4MeV_neg30tilt_95rot_det7.npy'
p4202
F0.4844
F0.0057
F27.8373
F0.1036
F0.278
F0.0037
g11
(g15
S'\x00\x00\x00\x00\x00 c@'
p4203
tp4204
Rp4205
tp4206
a(S'cpvert_4MeV_neg30tilt_95rot_det8.npy'
p4207
F0.2378
F0.0033
F27.9269
F0.1035
F0.1284
F0.002
g11
(g15
S'\x00\x00\x00\x00\x00\x80^@'
p4208
tp4209
Rp4210
tp4211
a(S'cpvert_4MeV_neg30tilt_95rot_det9.npy'
p4212
F0.0669
F0.0011
F25.9034
F0.1055
F0.0318
F0.0006
g11
(g15
S'\x00\x00\x00\x00\x00\x80[@'
p4213
tp4214
Rp4215
tp4216
a.