(lp0
(((lp1
cnumpy.core.multiarray
scalar
p2
(cnumpy
dtype
p3
(S'f8'
p4
I0
I1
tp5
Rp6
(I3
S'<'
p7
NNNI-1
I-1
I0
tp8
bS'\x96^k\xb5\x1d\x00$@'
p9
tp10
Rp11
ag2
(g6
S'\xcc\xcc\xcc\xcc\xcc\xfc @'
p12
tp13
Rp14
ag2
(g6
S'\xbe\x06\x81\x16H\x95\x1a@'
p15
tp16
Rp17
ag2
(g6
S'\r\xc6K\xb6\x84\xb7\x12@'
p18
tp19
Rp20
ag2
(g6
S'effff\xa6\x06@'
p21
tp22
Rp23
ag2
(g6
S'v>\xd8\x87E2\xf5?'
p24
tp25
Rp26
a(lp27
g2
(g6
S'?\xc6\xdc\xb5\x84\xbc\x15@'
p28
tp29
Rp30
ag2
(g6
S'\xe4\x83\x9e\xcd\xaaO\x11@'
p31
tp32
Rp33
ag2
(g6
S'>\xe8\xd9\xac\xfa\xdc\x08@'
p34
tp35
Rp36
ag2
(g6
S'\xfd\x87\xf4\xdb\xd7\x81\xfe?'
p37
tp38
Rp39
ag2
(g6
S'\x0f\x0b\xb5\xa6y\xc7\xed?'
p40
tp41
Rp42
ag2
(g6
S'\xb9\x8d\x06\xf0\x16H\xd4?'
p43
tp44
Rp45
a(lp46
g2
(g6
S'-\x0c|\xb7\xa4\x9a\xc6?'
p47
tp48
Rp49
ag2
(g6
S'\x8e\x18|\xdbR\x03\xc2?'
p50
tp51
Rp52
ag2
(g6
S'\x9b\xf5\xee\xbf\x13\xf9\xb9?'
p53
tp54
Rp55
ag2
(g6
S'\\ILUp\x02\xb0?'
p56
tp57
Rp58
ag2
(g6
S'p\x1eM#\xe0\xc2\x9f?'
p59
tp60
Rp61
ag2
(g6
S'\xd0\xddd\x0f\x0c$\x86?'
p62
tp63
Rp64
a(lp65
g2
(g6
S'\x9b\t\xaab\xdf\xc8\xb1?'
p66
tp67
Rp68
ag2
(g6
S'\xf5\x9b\x7f`;\x1b\xb8?'
p69
tp70
Rp71
ag2
(g6
S']:\xbb!\x06\xb0\xbb?'
p72
tp73
Rp74
ag2
(g6
S'\x8a8\xb9i!y\xbb?'
p75
tp76
Rp77
ag2
(g6
S'\x96\xbcw\x1c\x11\x98\xb7?'
p78
tp79
Rp80
ag2
(g6
S'\xf7\x98\xd4\x9f\xd5C\xb1?'
p81
tp82
Rp83
atp84
((lp85
g2
(g6
S'\x96^k\xb5\x1d\x00$@'
p86
tp87
Rp88
ag2
(g6
S'\xcc\xcc\xcc\xcc\xcc\xfc @'
p89
tp90
Rp91
ag2
(g6
S'\xbe\x06\x81\x16H\x95\x1a@'
p92
tp93
Rp94
ag2
(g6
S'\r\xc6K\xb6\x84\xb7\x12@'
p95
tp96
Rp97
ag2
(g6
S'effff\xa6\x06@'
p98
tp99
Rp100
ag2
(g6
S'v>\xd8\x87E2\xf5?'
p101
tp102
Rp103
a(lp104
g2
(g6
S'B`\xe5\xd0"\x9b\x11@'
p105
tp106
Rp107
ag2
(g6
S'\x13a\xc3\xd3+\xe5\x0b@'
p108
tp109
Rp110
ag2
(g6
S'9\xb4\xc8v\xbe\x9f\x03@'
p111
tp112
Rp113
ag2
(g6
S'\xf1\xf4JY\x868\xf7?'
p114
tp115
Rp116
ag2
(g6
S'\x1aQ\xda\x1b|a\xe6?'
p117
tp118
Rp119
ag2
(g6
S'\xf1\xf4JY\x868\xce?'
p120
tp121
Rp122
a(lp123
g2
(g6
S'\xf2x\xb05\xadR\xc2?'
p124
tp125
Rp126
ag2
(g6
S'\xb4B\x05M\xda\x15\xbd?'
p127
tp128
Rp129
ag2
(g6
S'\x9b\xdf\x85\xcc\n\x89\xb4?'
p130
tp131
Rp132
ag2
(g6
S'e\xb2\xbc\xc8\x86g\xa8?'
p133
tp134
Rp135
ag2
(g6
S'\x95:Q\xe7\xd2\xc2\x97?'
p136
tp137
Rp138
ag2
(g6
S'Lq\xea\xd6I\x9f\x80?'
p139
tp140
Rp141
a(lp142
g2
(g6
S' \xc4\xb2\xc9B\xeb\xb1?'
p143
tp144
Rp145
ag2
(g6
S'\xde\xd7\xf1\xfb\x95X\xb8?'
p146
tp147
Rp148
ag2
(g6
S'8\x0c\xe2d\x1f\xaa\xbb?'
p149
tp150
Rp151
ag2
(g6
S'\xee\xaa\x97o\x10d\xbb?'
p152
tp153
Rp154
ag2
(g6
S'\x9e\xb5\x94\x8a\x15\x80\xb7?'
p155
tp156
Rp157
ag2
(g6
S'Da\xbc\xee\xe4@\xb1?'
p158
tp159
Rp160
atp161
tp162
a(((lp163
g2
(g6
S'\x96^k\xb5\x1d\x00$@'
p164
tp165
Rp166
ag2
(g6
S'\xcc\xcc\xcc\xcc\xcc\xfc @'
p167
tp168
Rp169
ag2
(g6
S'\xbe\x06\x81\x16H\x95\x1a@'
p170
tp171
Rp172
ag2
(g6
S'\r\xc6K\xb6\x84\xb7\x12@'
p173
tp174
Rp175
ag2
(g6
S'effff\xa6\x06@'
p176
tp177
Rp178
ag2
(g6
S'v>\xd8\x87E2\xf5?'
p179
tp180
Rp181
a(lp182
g2
(g6
S'\xe8j+\xf6\x97\xdd\x14@'
p183
tp184
Rp185
ag2
(g6
S'w-!\x1f\xf4\xac\x10@'
p186
tp187
Rp188
ag2
(g6
S'~\x1d8gD\xe9\x07@'
p189
tp190
Rp191
ag2
(g6
S'\x0c\x93\xa9\x82QI\xfd?'
p192
tp193
Rp194
ag2
(g6
S'h\xb3\xeas\xb5\x15\xed?'
p195
tp196
Rp197
ag2
(g6
S'\xaeG\xe1z\x14\xae\xd3?'
p198
tp199
Rp200
a(lp201
g2
(g6
S'\xc5O\xc1\xe7\xf5\xac\xc9?'
p202
tp203
Rp204
ag2
(g6
S'` \xf4\x84^\x89\xc4?'
p205
tp206
Rp207
ag2
(g6
S'\x97\x99\xf8\xc0\xebz\xbd?'
p208
tp209
Rp210
ag2
(g6
S'y-\xae_\xc4#\xb2?'
p211
tp212
Rp213
ag2
(g6
S'\xfdtr\xb50?\xa2?'
p214
tp215
Rp216
ag2
(g6
S'f\xee\xf1\x01"z\x89?'
p217
tp218
Rp219
a(lp220
g2
(g6
S'6g\x02\x15\x1f\xe7\xb1?'
p221
tp222
Rp223
ag2
(g6
S'\x19v\xaf\xce\x087\xb8?'
p224
tp225
Rp226
ag2
(g6
S'\x15w\x85\xd8\x07\xc3\xbb?'
p227
tp228
Rp229
ag2
(g6
S'\xecO\xab\x01\x04{\xbb?'
p230
tp231
Rp232
ag2
(g6
S'\xce\xc1c\xef\xa7\xae\xb7?'
p233
tp234
Rp235
ag2
(g6
S'\xad/\x18\xc2\x91P\xb1?'
p236
tp237
Rp238
atp239
((lp240
g2
(g6
S'\x96^k\xb5\x1d\x00$@'
p241
tp242
Rp243
ag2
(g6
S'\xcc\xcc\xcc\xcc\xcc\xfc @'
p244
tp245
Rp246
ag2
(g6
S'\xbe\x06\x81\x16H\x95\x1a@'
p247
tp248
Rp249
ag2
(g6
S'\r\xc6K\xb6\x84\xb7\x12@'
p250
tp251
Rp252
ag2
(g6
S'effff\xa6\x06@'
p253
tp254
Rp255
ag2
(g6
S'v>\xd8\x87E2\xf5?'
p256
tp257
Rp258
a(lp259
g2
(g6
S'O@\x13a\xc3\xd3\x13@'
p260
tp261
Rp262
ag2
(g6
S'g\xd5\xe7j+\xf6\x0f@'
p263
tp264
Rp265
ag2
(g6
S'h\x91\xed|?\xb5\x06@'
p266
tp267
Rp268
ag2
(g6
S'Nb\x10X9\xb4\xfb?'
p269
tp270
Rp271
ag2
(g6
S'V}\xae\xb6b\x7f\xeb?'
p272
tp273
Rp274
ag2
(g6
S'u\x02\x9a\x08\x1b\x9e\xd2?'
p275
tp276
Rp277
a(lp278
g2
(g6
S'E\xda\x80atd\xc8?'
p279
tp280
Rp281
ag2
(g6
S'O\x02m]\x04\xaf\xc3?'
p282
tp283
Rp284
ag2
(g6
S'}W\xa1D\xf1\x05\xbc?'
p285
tp286
Rp287
ag2
(g6
S'\xaf\x9cT\xcf\xff7\xb1?'
p288
tp289
Rp290
ag2
(g6
S'\xffHpi\x98@\xa1?'
p291
tp292
Rp293
ag2
(g6
S'\x81\xca5\xb6!\xfd\x87?'
p294
tp295
Rp296
a(lp297
g2
(g6
S'\xf3\xe3s\x8be\xcc\xb1?'
p298
tp299
Rp300
ag2
(g6
S'#[\xa5\xf2\xbcb\xb8?'
p301
tp302
Rp303
ag2
(g6
S'1\xb3\xc8p\x86\xce\xbb?'
p304
tp305
Rp306
ag2
(g6
S'\xd0\xde\xe4\x1c\xec|\xbb?'
p307
tp308
Rp309
ag2
(g6
S'\xa6ac\xc6\xa4\xb3\xb7?'
p310
tp311
Rp312
ag2
(g6
S'\xc5zG\xe0\x8b\\\xb1?'
p313
tp314
Rp315
atp316
tp317
a(((lp318
g2
(g6
S'\x97\x84\xb2\x10\xd6\n\x11@'
p319
tp320
Rp321
ag2
(g6
S'23333\xf3\x0c@'
p322
tp323
Rp324
ag2
(g6
S'\x05\xbag\xcb\xc2\xa6\x06@'
p325
tp326
Rp327
ag2
(g6
S"'\xbfc\x9c\xad\xe5\xff?"
p328
tp329
Rp330
ag2
(g6
S'\xcc\xcc\xcc\xcc\xccL\xf3?'
p331
tp332
Rp333
ag2
(g6
S'\xa9A\xd2\xe0\xb5\x0f\xe2?'
p334
tp335
Rp336
ag2
(g6
S'\xcc\xcc\xcc\xcc\xccL\xf3?'
p337
tp338
Rp339
ag2
(g6
S'\x05\xbag\xcb\xc2\xa6\x06@'
p340
tp341
Rp342
ag2
(g6
S'\x97\x84\xb2\x10\xd6\n\x11@'
p343
tp344
Rp345
a(lp346
cnumpy.core.multiarray
_reconstruct
p347
(cnumpy
ndarray
p348
(I0
tp349
S'b'
p350
tp351
Rp352
(I1
(L1L
tp353
g6
I00
S'\x8b\xfde\xf7\xe4a\xf9?'
p354
tp355
bag347
(g348
(I0
tp356
g350
tp357
Rp358
(I1
(L1L
tp359
g6
I00
S'\xc1\xa8\xa4N@\x13\xf4?'
p360
tp361
bag347
(g348
(I0
tp362
g350
tp363
Rp364
(I1
(L1L
tp365
g6
I00
S'}\xd0\xb3Y\xf5\xb9\xec?'
p366
tp367
bag347
(g348
(I0
tp368
g350
tp369
Rp370
(I1
(L1L
tp371
g6
I00
S'\x0e\xbe0\x99*\x18\xe1?'
p372
tp373
bag347
(g348
(I0
tp374
g350
tp375
Rp376
(I1
(L1L
tp377
g6
I00
S'\xbc\x05\x12\x14?\xc6\xd0?'
p378
tp379
bag347
(g348
(I0
tp380
g350
tp381
Rp382
(I1
(L1L
tp383
g6
I00
S'\xe9&1\x08\xac\x1c\xba?'
p384
tp385
bag347
(g348
(I0
tp386
g350
tp387
Rp388
(I1
(L1L
tp389
g6
I00
S'5\xef8EGr\xd1?'
p390
tp391
bag347
(g348
(I0
tp392
g350
tp393
Rp394
(I1
(L1L
tp395
g6
I00
S'\x1b\x9e^)\xcb\x10\xed?'
p396
tp397
bag347
(g348
(I0
tp398
g350
tp399
Rp400
(I1
(L1L
tp401
g6
I00
S'\x054\x116<\xbd\xf9?'
p402
tp403
ba(lp404
g347
(g348
(I0
tp405
g350
tp406
Rp407
(I1
(L1L
tp408
g6
I00
S'\x0b+\x9a\xc3^\x1b\xa0?'
p409
tp410
bag347
(g348
(I0
tp411
g350
tp412
Rp413
(I1
(L1L
tp414
g6
I00
S'\xa4\xc8\x90R\xe5\x9b\x9a?'
p415
tp416
bag347
(g348
(I0
tp417
g350
tp418
Rp419
(I1
(L1L
tp420
g6
I00
S'\x02\t\x12\x81Cj\x91?'
p421
tp422
bag347
(g348
(I0
tp423
g350
tp424
Rp425
(I1
(L1L
tp426
g6
I00
S'\xb9\xd9\x1d+\x81{\x85?'
p427
tp428
bag347
(g348
(I0
tp429
g350
tp430
Rp431
(I1
(L1L
tp432
g6
I00
S'!\x9c^\x8diCu?'
p433
tp434
bag347
(g348
(I0
tp435
g350
tp436
Rp437
(I1
(L1L
tp438
g6
I00
S'\x0em\x07\x86\x16\xafe?'
p439
tp440
bag347
(g348
(I0
tp441
g350
tp442
Rp443
(I1
(L1L
tp444
g6
I00
S'\x1bs\x02\x12%\x9dy?'
p445
tp446
bag347
(g348
(I0
tp447
g350
tp448
Rp449
(I1
(L1L
tp450
g6
I00
S'\xae\xaf\xa0\xcc\x81F\x90?'
p451
tp452
bag347
(g348
(I0
tp453
g350
tp454
Rp455
(I1
(L1L
tp456
g6
I00
S'&\xd6\xf4*;\xce\x9d?'
p457
tp458
ba(lp459
g347
(g348
(I0
tp460
g350
tp461
Rp462
(I1
(L1L
tp463
g6
I00
S' k\x89\xf6=\x06\xa3?'
p464
tp465
bag347
(g348
(I0
tp466
g350
tp467
Rp468
(I1
(L1L
tp469
g6
I00
S'\x0e\xf6G\xc5\xcdt\xa6?'
p470
tp471
bag347
(g348
(I0
tp472
g350
tp473
Rp474
(I1
(L1L
tp475
g6
I00
S',\xab\xe1\xf6Ox\xa8?'
p476
tp477
bag347
(g348
(I0
tp478
g350
tp479
Rp480
(I1
(L1L
tp481
g6
I00
S'~\xdd(\xcdF\xea\xa7?'
p482
tp483
bag347
(g348
(I0
tp484
g350
tp485
Rp486
(I1
(L1L
tp487
g6
I00
S'\xea\xc1F\x8e%\x9c\xa4?'
p488
tp489
bag347
(g348
(I0
tp490
g350
tp491
Rp492
(I1
(L1L
tp493
g6
I00
S'%?\x1a\x91\xfeO\x9e?'
p494
tp495
bag347
(g348
(I0
tp496
g350
tp497
Rp498
(I1
(L1L
tp499
g6
I00
S'5\xeaE\x99-\xa5\xa4?'
p500
tp501
bag347
(g348
(I0
tp502
g350
tp503
Rp504
(I1
(L1L
tp505
g6
I00
S'~~v\xd2%v\xa8?'
p506
tp507
bag347
(g348
(I0
tp508
g350
tp509
Rp510
(I1
(L1L
tp511
g6
I00
S'\xd3\xd61\xc2\xc7\xf5\xa3?'
p512
tp513
batp514
((lp515
g2
(g6
S'23333\xf3\x0c@'
p516
tp517
Rp518
ag2
(g6
S"'\xbfc\x9c\xad\xe5\xff?"
p519
tp520
Rp521
ag2
(g6
S'\xa9A\xd2\xe0\xb5\x0f\xe2?'
p522
tp523
Rp524
ag2
(g6
S'\xa9A\xd2\xe0\xb5\x0f\xe2?'
p525
tp526
Rp527
ag2
(g6
S'\xcc\xcc\xcc\xcc\xccL\xf3?'
p528
tp529
Rp530
ag2
(g6
S"'\xbfc\x9c\xad\xe5\xff?"
p531
tp532
Rp533
ag2
(g6
S'\x05\xbag\xcb\xc2\xa6\x06@'
p534
tp535
Rp536
ag2
(g6
S'23333\xf3\x0c@'
p537
tp538
Rp539
ag2
(g6
S'\x97\x84\xb2\x10\xd6\n\x11@'
p540
tp541
Rp542
a(lp543
g347
(g348
(I0
tp544
g350
tp545
Rp546
(I1
(L1L
tp547
g6
I00
S'\xc19#J{\x83\xef?'
p548
tp549
bag347
(g348
(I0
tp550
g350
tp551
Rp552
(I1
(L1L
tp553
g6
I00
S'\xfc\x18s\xd7\x12\xf2\xd9?'
p554
tp555
bag347
(g348
(I0
tp556
g350
tp557
Rp558
(I1
(L1L
tp559
g6
I00
S'U0*\xa9\x13\xd0\xb4?'
p560
tp561
bag347
(g348
(I0
tp562
g350
tp563
Rp564
(I1
(L1L
tp565
g6
I00
S'\xbe0\x99*\x18\x95\xb4?'
p566
tp567
bag347
(g348
(I0
tp568
g350
tp569
Rp570
(I1
(L1L
tp571
g6
I00
S'\x83QI\x9d\x80&\xca?'
p572
tp573
bag347
(g348
(I0
tp574
g350
tp575
Rp576
(I1
(L1L
tp577
g6
I00
S'\x86\xc9T\xc1\xa8\xa4\xda?'
p578
tp579
bag347
(g348
(I0
tp580
g350
tp581
Rp582
(I1
(L1L
tp583
g6
I00
S'\xb8@\x82\xe2\xc7\x98\xe5?'
p584
tp585
bag347
(g348
(I0
tp586
g350
tp587
Rp588
(I1
(L1L
tp589
g6
I00
S'V}\xae\xb6b\x7f\xef?'
p590
tp591
bag347
(g348
(I0
tp592
g350
tp593
Rp594
(I1
(L1L
tp595
g6
I00
S'8gDio\xf0\xf3?'
p596
tp597
ba(lp598
g347
(g348
(I0
tp599
g350
tp600
Rp601
(I1
(L1L
tp602
g6
I00
S'\x01 Q\xe0L\x82\x98?'
p603
tp604
bag347
(g348
(I0
tp605
g350
tp606
Rp607
(I1
(L1L
tp608
g6
I00
S'\xba3\xebT!\x8c\x94?'
p609
tp610
bag347
(g348
(I0
tp611
g350
tp612
Rp613
(I1
(L1L
tp614
g6
I00
S'\x05\x99[\x96\xba\xb8\x86?'
p615
tp616
bag347
(g348
(I0
tp617
g350
tp618
Rp619
(I1
(L1L
tp620
g6
I00
S'b\x13\xd5#\xed\xa0~?'
p621
tp622
bag347
(g348
(I0
tp623
g350
tp624
Rp625
(I1
(L1L
tp626
g6
I00
S'\xdf\xff\x0eDV\xdfr?'
p627
tp628
bag347
(g348
(I0
tp629
g350
tp630
Rp631
(I1
(L1L
tp632
g6
I00
S'\xca;\xb0U\xd0\x85z?'
p633
tp634
bag347
(g348
(I0
tp635
g350
tp636
Rp637
(I1
(L1L
tp638
g6
I00
S'\x94\xeb\xec\xb2\x08\xf7\x84?'
p639
tp640
bag347
(g348
(I0
tp641
g350
tp642
Rp643
(I1
(L1L
tp644
g6
I00
S'\xe3\xb9.\xefIr\x91?'
p645
tp646
bag347
(g348
(I0
tp647
g350
tp648
Rp649
(I1
(L1L
tp650
g6
I00
S'\xac\xdd\x1c\x07X\x96\x97?'
p651
tp652
ba(lp653
g347
(g348
(I0
tp654
g350
tp655
Rp656
(I1
(L1L
tp657
g6
I00
S'\xd5\xbd\xc9\xb3\x15\x88\xa6?'
p658
tp659
bag347
(g348
(I0
tp660
g350
tp661
Rp662
(I1
(L1L
tp663
g6
I00
S'"]\x7fme\x11\xa8?'
p664
tp665
bag347
(g348
(I0
tp666
g350
tp667
Rp668
(I1
(L1L
tp669
g6
I00
S'\x9c\x8d\x11\x84\xd5F\x9e?'
p670
tp671
bag347
(g348
(I0
tp672
g350
tp673
Rp674
(I1
(L1L
tp675
g6
I00
S'\xacb\x19\x87\xdc\xfa\x9d?'
p676
tp677
bag347
(g348
(I0
tp678
g350
tp679
Rp680
(I1
(L1L
tp681
g6
I00
S'm\xb1\xc7H\xecN\xa4?'
p682
tp683
bag347
(g348
(I0
tp684
g350
tp685
Rp686
(I1
(L1L
tp687
g6
I00
S'\xdco\x00?K\x14\xa8?'
p688
tp689
bag347
(g348
(I0
tp690
g350
tp691
Rp692
(I1
(L1L
tp693
g6
I00
S'\xcf;H]0b\xa8?'
p694
tp695
bag347
(g348
(I0
tp696
g350
tp697
Rp698
(I1
(L1L
tp699
g6
I00
S'\xa1wX\x13\xcaM\xa6?'
p700
tp701
bag347
(g348
(I0
tp702
g350
tp703
Rp704
(I1
(L1L
tp705
g6
I00
S'\xe0v$(\xd1>\xa3?'
p706
tp707
batp708
tp709
a(((lp710
g2
(g6
S'\x97\x84\xb2\x10\xd6\n\x11@'
p711
tp712
Rp713
ag2
(g6
S'23333\xf3\x0c@'
p714
tp715
Rp716
ag2
(g6
S'\x05\xbag\xcb\xc2\xa6\x06@'
p717
tp718
Rp719
ag2
(g6
S"'\xbfc\x9c\xad\xe5\xff?"
p720
tp721
Rp722
ag2
(g6
S'\xcc\xcc\xcc\xcc\xccL\xf3?'
p723
tp724
Rp725
ag2
(g6
S'\xa9A\xd2\xe0\xb5\x0f\xe2?'
p726
tp727
Rp728
ag2
(g6
S'\xcc\xcc\xcc\xcc\xccL\xf3?'
p729
tp730
Rp731
ag2
(g6
S'\x05\xbag\xcb\xc2\xa6\x06@'
p732
tp733
Rp734
ag2
(g6
S'\x97\x84\xb2\x10\xd6\n\x11@'
p735
tp736
Rp737
a(lp738
g347
(g348
(I0
tp739
g350
tp740
Rp741
(I1
(L1L
tp742
g6
I00
S'\x7f\xd9=yX\xa8\xf9?'
p743
tp744
bag347
(g348
(I0
tp745
g350
tp746
Rp747
(I1
(L1L
tp748
g6
I00
S'P\xfc\x18s\xd7\x12\xf4?'
p749
tp750
bag347
(g348
(I0
tp751
g350
tp752
Rp753
(I1
(L1L
tp754
g6
I00
S'\xc2\x17&S\x05\xa3\xec?'
p755
tp756
bag347
(g348
(I0
tp757
g350
tp758
Rp759
(I1
(L1L
tp760
g6
I00
S'\xe36\x1a\xc0[ \xe1?'
p761
tp762
bag347
(g348
(I0
tp763
g350
tp764
Rp765
(I1
(L1L
tp766
g6
I00
S'\xd6\xc5m4\x80\xb7\xd0?'
p767
tp768
bag347
(g348
(I0
tp769
g350
tp770
Rp771
(I1
(L1L
tp772
g6
I00
S'\x9a\x99\x99\x99\x99\x99\xb9?'
p773
tp774
bag347
(g348
(I0
tp775
g350
tp776
Rp777
(I1
(L1L
tp778
g6
I00
S'2w-!\x1f\xf4\xd0?'
p779
tp780
bag347
(g348
(I0
tp781
g350
tp782
Rp783
(I1
(L1L
tp784
g6
I00
S'tF\x94\xf6\x06_\xec?'
p785
tp786
bag347
(g348
(I0
tp787
g350
tp788
Rp789
(I1
(L1L
tp790
g6
I00
S'\xa5N@\x13a\xc3\xf9?'
p791
tp792
ba(lp793
g347
(g348
(I0
tp794
g350
tp795
Rp796
(I1
(L1L
tp797
g6
I00
S'Usj\xb0:f\xa4?'
p798
tp799
bag347
(g348
(I0
tp800
g350
tp801
Rp802
(I1
(L1L
tp803
g6
I00
S'\x0cHV\xae\xb3\r\xa0?'
p804
tp805
bag347
(g348
(I0
tp806
g350
tp807
Rp808
(I1
(L1L
tp809
g6
I00
S'du\xb0\xb7\x85\xbf\x94?'
p810
tp811
bag347
(g348
(I0
tp812
g350
tp813
Rp814
(I1
(L1L
tp815
g6
I00
S'\xbc\x87\xe8ts\x91\x8c?'
p816
tp817
bag347
(g348
(I0
tp818
g350
tp819
Rp820
(I1
(L1L
tp821
g6
I00
S'\xe2\x04\x08\xa3\xdc\x8a\x80?'
p822
tp823
bag347
(g348
(I0
tp824
g350
tp825
Rp826
(I1
(L1L
tp827
g6
I00
S'\xc7_XGI\xf7f?'
p828
tp829
bag347
(g348
(I0
tp830
g350
tp831
Rp832
(I1
(L1L
tp833
g6
I00
S'K\xeca\t\xaf\x0b|?'
p834
tp835
bag347
(g348
(I0
tp836
g350
tp837
Rp838
(I1
(L1L
tp839
g6
I00
S'y\x94K\xd3H8\x96?'
p840
tp841
bag347
(g348
(I0
tp842
g350
tp843
Rp844
(I1
(L1L
tp845
g6
I00
S'bs\xa7\xfaU\x19\xa4?'
p846
tp847
ba(lp848
g347
(g348
(I0
tp849
g350
tp850
Rp851
(I1
(L1L
tp852
g6
I00
S',\xbd6-3$\xa3?'
p853
tp854
bag347
(g348
(I0
tp855
g350
tp856
Rp857
(I1
(L1L
tp858
g6
I00
S'\n\x92a\xaf\xbc\x8e\xa6?'
p859
tp860
bag347
(g348
(I0
tp861
g350
tp862
Rp863
(I1
(L1L
tp864
g6
I00
S'u\xaf\x8a\xf0\x13J\xa8?'
p865
tp866
bag347
(g348
(I0
tp867
g350
tp868
Rp869
(I1
(L1L
tp870
g6
I00
S'!i\xbe9\xbe\xcb\xa7?'
p871
tp872
bag347
(g348
(I0
tp873
g350
tp874
Rp875
(I1
(L1L
tp876
g6
I00
S'\xe7\x9c\x8a\xaa\x89t\xa4?'
p877
tp878
bag347
(g348
(I0
tp879
g350
tp880
Rp881
(I1
(L1L
tp882
g6
I00
S'@/$\xdan\xdd\x9d?'
p883
tp884
bag347
(g348
(I0
tp885
g350
tp886
Rp887
(I1
(L1L
tp888
g6
I00
S'\xb5\x849\xd6\xd78\xa4?'
p889
tp890
bag347
(g348
(I0
tp891
g350
tp892
Rp893
(I1
(L1L
tp894
g6
I00
S'\xe0J\xb4=\xe6\xa3\xa8?'
p895
tp896
bag347
(g348
(I0
tp897
g350
tp898
Rp899
(I1
(L1L
tp900
g6
I00
S'\xa8|!\x88h\x1f\xa3?'
p901
tp902
batp903
((lp904
g2
(g6
S'23333\xf3\x0c@'
p905
tp906
Rp907
ag2
(g6
S"'\xbfc\x9c\xad\xe5\xff?"
p908
tp909
Rp910
ag2
(g6
S'\xa9A\xd2\xe0\xb5\x0f\xe2?'
p911
tp912
Rp913
ag2
(g6
S'\xa9A\xd2\xe0\xb5\x0f\xe2?'
p914
tp915
Rp916
ag2
(g6
S'\xcc\xcc\xcc\xcc\xccL\xf3?'
p917
tp918
Rp919
ag2
(g6
S"'\xbfc\x9c\xad\xe5\xff?"
p920
tp921
Rp922
ag2
(g6
S'\x05\xbag\xcb\xc2\xa6\x06@'
p923
tp924
Rp925
ag2
(g6
S'23333\xf3\x0c@'
p926
tp927
Rp928
ag2
(g6
S'\x97\x84\xb2\x10\xd6\n\x11@'
p929
tp930
Rp931
a(lp932
g347
(g348
(I0
tp933
g350
tp934
Rp935
(I1
(L1L
tp936
g6
I00
S'\xfee\xf7\xe4a\xa1\xf3?'
p937
tp938
bag347
(g348
(I0
tp939
g350
tp940
Rp941
(I1
(L1L
tp942
g6
I00
S"aTR'\xa0\x89\xe0?"
p943
tp944
bag347
(g348
(I0
tp945
g350
tp946
Rp947
(I1
(L1L
tp948
g6
I00
S'\xe1\x0b\x93\xa9\x82Q\xb9?'
p949
tp950
bag347
(g348
(I0
tp951
g350
tp952
Rp953
(I1
(L1L
tp954
g6
I00
S'\x13a\xc3\xd3+e\xb9?'
p955
tp956
bag347
(g348
(I0
tp957
g350
tp958
Rp959
(I1
(L1L
tp960
g6
I00
S'Nb\x10X9\xb4\xd0?'
p961
tp962
bag347
(g348
(I0
tp963
g350
tp964
Rp965
(I1
(L1L
tp966
g6
I00
S'\x10X9\xb4\xc8v\xe0?'
p967
tp968
bag347
(g348
(I0
tp969
g350
tp970
Rp971
(I1
(L1L
tp972
g6
I00
S'\xbf}\x1d8gD\xeb?'
p973
tp974
bag347
(g348
(I0
tp975
g350
tp976
Rp977
(I1
(L1L
tp978
g6
I00
S'\xa0\x89\xb0\xe1\xe9\x95\xf3?'
p979
tp980
bag347
(g348
(I0
tp981
g350
tp982
Rp983
(I1
(L1L
tp984
g6
I00
S'\x8bl\xe7\xfb\xa9\xf1\xf8?'
p985
tp986
ba(lp987
g347
(g348
(I0
tp988
g350
tp989
Rp990
(I1
(L1L
tp991
g6
I00
S'\x9d\xc7C\x11k]\x9f?'
p992
tp993
bag347
(g348
(I0
tp994
g350
tp995
Rp996
(I1
(L1L
tp997
g6
I00
S'\xeb\x8d\xb9\xdfS\x13\x92?'
p998
tp999
bag347
(g348
(I0
tp1000
g350
tp1001
Rp1002
(I1
(L1L
tp1003
g6
I00
S'\x02\xfc\xf8\xa4Q2u?'
p1004
tp1005
bag347
(g348
(I0
tp1006
g350
tp1007
Rp1008
(I1
(L1L
tp1009
g6
I00
S'K\xf7e1\xd3K~?'
p1010
tp1011
bag347
(g348
(I0
tp1012
g350
tp1013
Rp1014
(I1
(L1L
tp1015
g6
I00
S'\xe5\xc6\x19T6f\x80?'
p1016
tp1017
bag347
(g348
(I0
tp1018
g350
tp1019
Rp1020
(I1
(L1L
tp1021
g6
I00
S'\x11\xa3;\x9e\xf4\x02\x88?'
p1022
tp1023
bag347
(g348
(I0
tp1024
g350
tp1025
Rp1026
(I1
(L1L
tp1027
g6
I00
S'l\xc3\xb0\x02V\xd4\x93?'
p1028
tp1029
bag347
(g348
(I0
tp1030
g350
tp1031
Rp1032
(I1
(L1L
tp1033
g6
I00
S'\x0e~\x8e"\xe4\x16\x9d?'
p1034
tp1035
bag347
(g348
(I0
tp1036
g350
tp1037
Rp1038
(I1
(L1L
tp1039
g6
I00
S'\x83\xc9\xe4\xe5F\x19\xa3?'
p1040
tp1041
ba(lp1042
g347
(g348
(I0
tp1043
g350
tp1044
Rp1045
(I1
(L1L
tp1046
g6
I00
S'\xae\xa2[0\x93\xb9\xa5?'
p1047
tp1048
bag347
(g348
(I0
tp1049
g350
tp1050
Rp1051
(I1
(L1L
tp1052
g6
I00
S'$\xb5*Ul\xb1\xa7?'
p1053
tp1054
bag347
(g348
(I0
tp1055
g350
tp1056
Rp1057
(I1
(L1L
tp1058
g6
I00
S'\x90\x10\x02\xd2o\xb5\x9d?'
p1059
tp1060
bag347
(g348
(I0
tp1061
g350
tp1062
Rp1063
(I1
(L1L
tp1064
g6
I00
S'FY\n\x83\xc2\xd8\x9d?'
p1065
tp1066
bag347
(g348
(I0
tp1067
g350
tp1068
Rp1069
(I1
(L1L
tp1070
g6
I00
S'\xa7\x8c\xcc"\xf4L\xa4?'
p1071
tp1072
bag347
(g348
(I0
tp1073
g350
tp1074
Rp1075
(I1
(L1L
tp1076
g6
I00
S'G\xe2\xacB9\xd5\xa7?'
p1077
tp1078
bag347
(g348
(I0
tp1079
g350
tp1080
Rp1081
(I1
(L1L
tp1082
g6
I00
S'J*M3[\xba\xa8?'
p1083
tp1084
bag347
(g348
(I0
tp1085
g350
tp1086
Rp1087
(I1
(L1L
tp1088
g6
I00
S'B\xd6\xe3\xf9\x1d\xb0\xa5?'
p1089
tp1090
bag347
(g348
(I0
tp1091
g350
tp1092
Rp1093
(I1
(L1L
tp1094
g6
I00
S'\x8e1\xf2\xe4\xfd\xd6\xa2?'
p1095
tp1096
batp1097
tp1098
a.