(lp0
(S'filename'
p1
S'ql_mean'
p2
S'ql_abs_uncert'
p3
S'tof_mean'
p4
S'tof_abs_uncert'
p5
S'qs_mean'
p6
S'qs_abs_uncert'
p7
S'counts'
p8
tp9
a(S'bvert_11MeV_0tilt_105rot_det10.npy'
p10
F0.276
F0.0032
F13.8206
F0.0358
F0.1617
F0.0019
F187.0
tp11
a(S'bvert_11MeV_0tilt_105rot_det11.npy'
p12
F0.8734
F0.0073
F17.8928
F0.0326
F0.536
F0.0048
F153.0
tp13
a(S'bvert_11MeV_0tilt_105rot_det12.npy'
p14
F1.8196
F0.0095
F16.8905
F0.0427
F1.165
F0.0066
F185.0
tp15
a(S'bvert_11MeV_0tilt_105rot_det13.npy'
p16
F3.0518
F0.0119
F20.1407
F0.0578
F2.0051
F0.0087
F181.0
tp17
a(S'bvert_11MeV_0tilt_105rot_det14.npy'
p18
F4.2893
F0.013
F24.7992
F0.1014
F2.8786
F0.0112
F137.0
tp19
a(S'bvert_11MeV_0tilt_105rot_det15.npy'
p20
F5.3003
F0.0144
F39.1837
F0.2613
F3.6077
F0.0142
F95.0
tp21
a(S'bvert_11MeV_0tilt_105rot_det4.npy'
p22
F4.7039
F0.015
F37.732
F0.268
F3.2936
F0.0139
F70.0
tp23
a(S'bvert_11MeV_0tilt_105rot_det5.npy'
p24
F3.6165
F0.0129
F22.7689
F0.0917
F2.4906
F0.0106
F153.0
tp25
a(S'bvert_11MeV_0tilt_105rot_det6.npy'
p26
F2.4542
F0.0111
F17.4412
F0.0619
F1.6399
F0.0083
F173.0
tp27
a(S'bvert_11MeV_0tilt_105rot_det7.npy'
p28
F1.4547
F0.0075
F15.7692
F0.0386
F0.9335
F0.0054
F185.0
tp29
a(S'bvert_11MeV_0tilt_105rot_det8.npy'
p30
F0.6994
F0.005
F17.2049
F0.0328
F0.4257
F0.0034
F206.0
tp31
a(S'bvert_11MeV_0tilt_105rot_det9.npy'
p32
F0.2424
F0.0029
F15.6986
F0.0362
F0.1399
F0.0016
F203.0
tp33
a(S'bvert_11MeV_0tilt_115rot_det10.npy'
p34
F0.2667
F0.003
F13.7706
F0.0331
F0.1558
F0.0018
F197.0
tp35
a(S'bvert_11MeV_0tilt_115rot_det11.npy'
p36
F0.8451
F0.0076
F17.8862
F0.0331
F0.5201
F0.005
F169.0
tp37
a(S'bvert_11MeV_0tilt_115rot_det12.npy'
p38
F1.8047
F0.0095
F16.9182
F0.0376
F1.1646
F0.0066
F174.0
tp39
a(S'bvert_11MeV_0tilt_115rot_det13.npy'
p40
F3.0176
F0.0123
F20.226
F0.0547
F2.004
F0.0091
F193.0
tp41
a(S'bvert_11MeV_0tilt_115rot_det14.npy'
p42
F4.2649
F0.0117
F24.7278
F0.1017
F2.89
F0.0099
F145.0
tp43
a(S'bvert_11MeV_0tilt_115rot_det15.npy'
p44
F5.3526
F0.0141
F39.4421
F0.2205
F3.6467
F0.0133
F102.0
tp45
a(S'bvert_11MeV_0tilt_115rot_det4.npy'
p46
F4.8358
F0.0153
F37.5015
F0.2553
F3.3507
F0.0136
F83.0
tp47
a(S'bvert_11MeV_0tilt_115rot_det5.npy'
p48
F3.7538
F0.0122
F22.8246
F0.0895
F2.5867
F0.0098
F186.0
tp49
a(S'bvert_11MeV_0tilt_115rot_det6.npy'
p50
F2.5601
F0.01
F17.5761
F0.0551
F1.7129
F0.0075
F187.0
tp51
a(S'bvert_11MeV_0tilt_115rot_det7.npy'
p52
F1.4749
F0.0083
F15.7539
F0.0405
F0.9493
F0.006
F190.0
tp53
a(S'bvert_11MeV_0tilt_115rot_det8.npy'
p54
F0.7069
F0.006
F17.2099
F0.033
F0.4304
F0.004
F175.0
tp55
a(S'bvert_11MeV_0tilt_115rot_det9.npy'
p56
F0.2361
F0.0026
F15.7603
F0.0361
F0.1364
F0.0015
F192.0
tp57
a(S'bvert_11MeV_0tilt_125rot_det10.npy'
p58
F0.2611
F0.0032
F13.8445
F0.0363
F0.1518
F0.0019
F190.0
tp59
a(S'bvert_11MeV_0tilt_125rot_det11.npy'
p60
F0.8215
F0.0061
F17.9493
F0.035
F0.5064
F0.0043
F159.0
tp61
a(S'bvert_11MeV_0tilt_125rot_det12.npy'
p62
F1.7576
F0.0096
F17.0194
F0.0428
F1.141
F0.0071
F176.0
tp63
a(S'bvert_11MeV_0tilt_125rot_det13.npy'
p64
F2.9402
F0.0125
F20.2101
F0.0569
F1.9762
F0.0093
F173.0
tp65
a(S'bvert_11MeV_0tilt_125rot_det14.npy'
p66
F4.2015
F0.0134
F24.9422
F0.1141
F2.8563
F0.0109
F120.0
tp67
a(S'bvert_11MeV_0tilt_125rot_det15.npy'
p68
F5.3235
F0.0139
F39.5682
F0.258
F3.6454
F0.0129
F96.0
tp69
a(S'bvert_11MeV_0tilt_125rot_det4.npy'
p70
F5.013
F0.0164
F37.9004
F0.2518
F3.47
F0.0151
F86.0
tp71
a(S'bvert_11MeV_0tilt_125rot_det5.npy'
p72
F3.9085
F0.0131
F22.9108
F0.1052
F2.6672
F0.0112
F128.0
tp73
a(S'bvert_11MeV_0tilt_125rot_det6.npy'
p74
F2.6455
F0.0112
F17.5721
F0.0573
F1.7693
F0.0088
F157.0
tp75
a(S'bvert_11MeV_0tilt_125rot_det7.npy'
p76
F1.5354
F0.0091
F15.7798
F0.0406
F0.9919
F0.0066
F188.0
tp77
a(S'bvert_11MeV_0tilt_125rot_det8.npy'
p78
F0.714
F0.0063
F17.1978
F0.0355
F0.434
F0.0041
F167.0
tp79
a(S'bvert_11MeV_0tilt_125rot_det9.npy'
p80
F0.2348
F0.0029
F15.7018
F0.0358
F0.1356
F0.0017
F197.0
tp81
a(S'bvert_11MeV_0tilt_135rot_det10.npy'
p82
F0.2532
F0.0031
F13.8575
F0.0329
F0.1467
F0.0018
F202.0
tp83
a(S'bvert_11MeV_0tilt_135rot_det11.npy'
p84
F0.7882
F0.0069
F17.9422
F0.0344
F0.4865
F0.0045
F149.0
tp85
a(S'bvert_11MeV_0tilt_135rot_det12.npy'
p86
F1.6908
F0.0098
F16.9654
F0.0426
F1.099
F0.0071
F176.0
tp87
a(S'bvert_11MeV_0tilt_135rot_det13.npy'
p88
F2.8627
F0.0129
F20.2889
F0.0625
F1.918
F0.0098
F143.0
tp89
a(S'bvert_11MeV_0tilt_135rot_det14.npy'
p90
F4.0844
F0.0126
F24.8898
F0.1028
F2.8064
F0.0107
F149.0
tp91
a(S'bvert_11MeV_0tilt_135rot_det15.npy'
p92
F5.2287
F0.014
F39.7883
F0.2773
F3.614
F0.0138
F91.0
tp93
a(S'bvert_11MeV_0tilt_135rot_det4.npy'
p94
F5.1318
F0.0156
F36.866
F0.2216
F3.5254
F0.0133
F82.0
tp95
a(S'bvert_11MeV_0tilt_135rot_det5.npy'
p96
F4.006
F0.0158
F22.5616
F0.1056
F2.7313
F0.0126
F136.0
tp97
a(S'bvert_11MeV_0tilt_135rot_det6.npy'
p98
F2.7588
F0.0124
F17.4259
F0.0634
F1.8533
F0.0097
F132.0
tp99
a(S'bvert_11MeV_0tilt_135rot_det7.npy'
p100
F1.5885
F0.0085
F15.7262
F0.0389
F1.0258
F0.0062
F181.0
tp101
a(S'bvert_11MeV_0tilt_135rot_det8.npy'
p102
F0.749
F0.0064
F17.1846
F0.0326
F0.4596
F0.0042
F168.0
tp103
a(S'bvert_11MeV_0tilt_135rot_det9.npy'
p104
F0.2399
F0.003
F15.7829
F0.037
F0.1386
F0.0017
F171.0
tp105
a(S'bvert_11MeV_0tilt_15rot_det10.npy'
p106
F0.2583
F0.003
F13.7868
F0.0362
F0.1501
F0.0017
F190.0
tp107
a(S'bvert_11MeV_0tilt_15rot_det11.npy'
p108
F0.7473
F0.0059
F17.9279
F0.0358
F0.4558
F0.0039
F172.0
tp109
a(S'bvert_11MeV_0tilt_15rot_det12.npy'
p110
F1.4985
F0.0082
F16.8416
F0.0402
F0.9653
F0.0062
F184.0
tp111
a(S'bvert_11MeV_0tilt_15rot_det13.npy'
p112
F2.4615
F0.0092
F20.0824
F0.0507
F1.647
F0.0075
F194.0
tp113
a(S'bvert_11MeV_0tilt_15rot_det14.npy'
p114
F3.473
F0.0108
F24.759
F0.1073
F2.3781
F0.0087
F154.0
tp115
a(S'bvert_11MeV_0tilt_15rot_det15.npy'
p116
F4.4872
F0.013
F39.5606
F0.2523
F3.1342
F0.0119
F85.0
tp117
a(S'bvert_11MeV_0tilt_15rot_det4.npy'
p118
F4.9738
F0.0172
F38.0638
F0.2548
F3.4787
F0.0158
F80.0
tp119
a(S'bvert_11MeV_0tilt_15rot_det5.npy'
p120
F4.123
F0.0124
F22.8496
F0.1027
F2.8284
F0.0112
F138.0
tp121
a(S'bvert_11MeV_0tilt_15rot_det6.npy'
p122
F3.0136
F0.0106
F17.5954
F0.0534
F1.9964
F0.0084
F198.0
tp123
a(S'bvert_11MeV_0tilt_15rot_det7.npy'
p124
F1.8873
F0.0093
F15.7554
F0.0391
F1.1989
F0.0071
F173.0
tp125
a(S'bvert_11MeV_0tilt_15rot_det8.npy'
p126
F0.9306
F0.0073
F17.0538
F0.0313
F0.5603
F0.0048
F187.0
tp127
a(S'bvert_11MeV_0tilt_15rot_det9.npy'
p128
F0.3027
F0.0039
F15.6093
F0.0359
F0.1746
F0.0023
F180.0
tp129
a(S'bvert_11MeV_0tilt_25rot_det10.npy'
p130
F0.265
F0.003
F13.7545
F0.0406
F0.1545
F0.0018
F176.0
tp131
a(S'bvert_11MeV_0tilt_25rot_det11.npy'
p132
F0.7759
F0.0057
F17.89
F0.0305
F0.4765
F0.0037
F194.0
tp133
a(S'bvert_11MeV_0tilt_25rot_det12.npy'
p134
F1.5656
F0.0079
F16.989
F0.0391
F1.0109
F0.006
F208.0
tp135
a(S'bvert_11MeV_0tilt_25rot_det13.npy'
p136
F2.5124
F0.01
F20.1393
F0.0559
F1.6898
F0.0079
F168.0
tp137
a(S'bvert_11MeV_0tilt_25rot_det14.npy'
p138
F3.4896
F0.0108
F24.7665
F0.0889
F2.394
F0.0094
F165.0
tp139
a(S'bvert_11MeV_0tilt_25rot_det15.npy'
p140
F4.4084
F0.0118
F39.4164
F0.2452
F3.0756
F0.0112
F99.0
tp141
a(S'bvert_11MeV_0tilt_25rot_det4.npy'
p142
F4.866
F0.0127
F37.9786
F0.2411
F3.4186
F0.0137
F91.0
tp143
a(S'bvert_11MeV_0tilt_25rot_det5.npy'
p144
F4.023
F0.0107
F23.0188
F0.0925
F2.777
F0.009
F171.0
tp145
a(S'bvert_11MeV_0tilt_25rot_det6.npy'
p146
F2.9271
F0.0111
F17.5503
F0.0615
F1.9621
F0.0084
F178.0
tp147
a(S'bvert_11MeV_0tilt_25rot_det7.npy'
p148
F1.8473
F0.0099
F15.7087
F0.0377
F1.1823
F0.0073
F191.0
tp149
a(S'bvert_11MeV_0tilt_25rot_det8.npy'
p150
F0.9296
F0.0076
F17.1562
F0.0379
F0.5616
F0.005
F173.0
tp151
a(S'bvert_11MeV_0tilt_25rot_det9.npy'
p152
F0.3169
F0.0033
F15.5697
F0.0335
F0.1826
F0.002
F189.0
tp153
a(S'bvert_11MeV_0tilt_315rot_det10.npy'
p154
F0.2537
F0.0031
F13.8424
F0.038
F0.1469
F0.0018
F180.0
tp155
a(S'bvert_11MeV_0tilt_315rot_det11.npy'
p156
F0.7864
F0.0065
F17.8651
F0.0331
F0.4801
F0.0043
F191.0
tp157
a(S'bvert_11MeV_0tilt_315rot_det12.npy'
p158
F1.6924
F0.0094
F16.911
F0.0397
F1.0995
F0.0067
F215.0
tp159
a(S'bvert_11MeV_0tilt_315rot_det13.npy'
p160
F2.8814
F0.0131
F20.1312
F0.054
F1.9397
F0.0098
F164.0
tp161
a(S'bvert_11MeV_0tilt_315rot_det14.npy'
p162
F4.1414
F0.0128
F24.876
F0.089
F2.8407
F0.0101
F164.0
tp163
a(S'bvert_11MeV_0tilt_315rot_det15.npy'
p164
F5.3081
F0.0144
F40.0089
F0.2681
F3.6586
F0.012
F92.0
tp165
a(S'bvert_11MeV_0tilt_315rot_det4.npy'
p166
F5.2481
F0.015
F38.0511
F0.227
F3.5965
F0.0142
F89.0
tp167
a(S'bvert_11MeV_0tilt_315rot_det5.npy'
p168
F4.1397
F0.0125
F22.9323
F0.0963
F2.8189
F0.0098
F136.0
tp169
a(S'bvert_11MeV_0tilt_315rot_det6.npy'
p170
F2.8061
F0.0108
F17.6101
F0.0556
F1.875
F0.0083
F175.0
tp171
a(S'bvert_11MeV_0tilt_315rot_det7.npy'
p172
F1.6505
F0.0096
F15.8023
F0.0394
F1.0649
F0.0072
F172.0
tp173
a(S'bvert_11MeV_0tilt_315rot_det8.npy'
p174
F0.756
F0.0058
F17.2105
F0.0331
F0.4609
F0.0039
F192.0
tp175
a(S'bvert_11MeV_0tilt_315rot_det9.npy'
p176
F0.2483
F0.0027
F15.7036
F0.0335
F0.1427
F0.0016
F200.0
tp177
a(S'bvert_11MeV_0tilt_325rot_det10.npy'
p178
F0.25
F0.0029
F13.9141
F0.0361
F0.1447
F0.0016
F187.0
tp179
a(S'bvert_11MeV_0tilt_325rot_det11.npy'
p180
F0.7658
F0.0057
F17.9121
F0.0319
F0.4708
F0.0039
F193.0
tp181
a(S'bvert_11MeV_0tilt_325rot_det12.npy'
p182
F1.6381
F0.0088
F16.9383
F0.0389
F1.0626
F0.0065
F189.0
tp183
a(S'bvert_11MeV_0tilt_325rot_det13.npy'
p184
F2.7781
F0.0119
F20.1995
F0.0564
F1.8712
F0.0093
F206.0
tp185
a(S'bvert_11MeV_0tilt_325rot_det14.npy'
p186
F4.0127
F0.0142
F24.8056
F0.1003
F2.7623
F0.0115
F143.0
tp187
a(S'bvert_11MeV_0tilt_325rot_det15.npy'
p188
F5.1675
F0.0171
F39.3378
F0.2763
F3.5806
F0.0149
F93.0
tp189
a(S'bvert_11MeV_0tilt_325rot_det4.npy'
p190
F5.3408
F0.0144
F37.5678
F0.2027
F3.6422
F0.0133
F86.0
tp191
a(S'bvert_11MeV_0tilt_325rot_det5.npy'
p192
F4.2313
F0.0139
F23.0153
F0.0983
F2.8599
F0.0113
F161.0
tp193
a(S'bvert_11MeV_0tilt_325rot_det6.npy'
p194
F2.8844
F0.0123
F17.5397
F0.0571
F1.9154
F0.0093
F169.0
tp195
a(S'bvert_11MeV_0tilt_325rot_det7.npy'
p196
F1.7169
F0.0102
F15.7853
F0.047
F1.1034
F0.0073
F153.0
tp197
a(S'bvert_11MeV_0tilt_325rot_det8.npy'
p198
F0.8036
F0.0061
F17.1845
F0.0368
F0.4928
F0.0042
F164.0
tp199
a(S'bvert_11MeV_0tilt_325rot_det9.npy'
p200
F0.2493
F0.0026
F15.6735
F0.0353
F0.144
F0.0016
F200.0
tp201
a(S'bvert_11MeV_0tilt_335rot_det10.npy'
p202
F0.2398
F0.0029
F13.8425
F0.0343
F0.1387
F0.0016
F201.0
tp203
a(S'bvert_11MeV_0tilt_335rot_det11.npy'
p204
F0.732
F0.0055
F17.9412
F0.0318
F0.4447
F0.0037
F192.0
tp205
a(S'bvert_11MeV_0tilt_335rot_det12.npy'
p206
F1.5655
F0.0093
F16.9404
F0.0405
F1.0138
F0.0066
F190.0
tp207
a(S'bvert_11MeV_0tilt_335rot_det13.npy'
p208
F2.6876
F0.0114
F20.1063
F0.0514
F1.8129
F0.0084
F192.0
tp209
a(S'bvert_11MeV_0tilt_335rot_det14.npy'
p210
F3.8963
F0.0124
F24.6846
F0.0931
F2.6832
F0.0104
F163.0
tp211
a(S'bvert_11MeV_0tilt_335rot_det15.npy'
p212
F5.0541
F0.0145
F39.807
F0.257
F3.5229
F0.0128
F94.0
tp213
a(S'bvert_11MeV_0tilt_335rot_det4.npy'
p214
F5.4341
F0.0127
F38.3995
F0.2484
F3.6828
F0.013
F100.0
tp215
a(S'bvert_11MeV_0tilt_335rot_det5.npy'
p216
F4.2865
F0.0158
F22.9393
F0.1067
F2.8773
F0.0125
F140.0
tp217
a(S'bvert_11MeV_0tilt_335rot_det6.npy'
p218
F3.0133
F0.0121
F17.5755
F0.0514
F1.9911
F0.0093
F204.0
tp219
a(S'bvert_11MeV_0tilt_335rot_det7.npy'
p220
F1.7684
F0.0108
F15.7652
F0.0375
F1.1359
F0.0075
F194.0
tp221
a(S'bvert_11MeV_0tilt_335rot_det8.npy'
p222
F0.8201
F0.0061
F17.1867
F0.0339
F0.5028
F0.0041
F184.0
tp223
a(S'bvert_11MeV_0tilt_335rot_det9.npy'
p224
F0.2672
F0.0032
F15.6713
F0.0351
F0.1549
F0.0019
F210.0
tp225
a(S'bvert_11MeV_0tilt_345rot_det10.npy'
p226
F0.2411
F0.0026
F13.8816
F0.0386
F0.1385
F0.0015
F199.0
tp227
a(S'bvert_11MeV_0tilt_345rot_det11.npy'
p228
F0.7232
F0.0058
F17.9514
F0.0331
F0.439
F0.0039
F177.0
tp229
a(S'bvert_11MeV_0tilt_345rot_det12.npy'
p230
F1.5186
F0.008
F16.9537
F0.0372
F0.982
F0.0059
F190.0
tp231
a(S'bvert_11MeV_0tilt_345rot_det13.npy'
p232
F2.5825
F0.0091
F20.2209
F0.0542
F1.7321
F0.0067
F228.0
tp233
a(S'bvert_11MeV_0tilt_345rot_det14.npy'
p234
F3.7664
F0.0135
F24.7727
F0.1056
F2.6073
F0.0114
F144.0
tp235
a(S'bvert_11MeV_0tilt_345rot_det15.npy'
p236
F4.8988
F0.0172
F39.9484
F0.3136
F3.4222
F0.0156
F73.0
tp237
a(S'bvert_11MeV_0tilt_345rot_det4.npy'
p238
F5.3818
F0.0139
F38.5669
F0.2588
F3.6827
F0.0132
F76.0
tp239
a(S'bvert_11MeV_0tilt_345rot_det5.npy'
p240
F4.3278
F0.0113
F22.6561
F0.0959
F2.8986
F0.0102
F171.0
tp241
a(S'bvert_11MeV_0tilt_345rot_det6.npy'
p242
F3.0794
F0.0129
F17.6201
F0.056
F2.0176
F0.0099
F190.0
tp243
a(S'bvert_11MeV_0tilt_345rot_det7.npy'
p244
F1.8383
F0.0103
F15.7395
F0.0458
F1.1704
F0.0073
F164.0
tp245
a(S'bvert_11MeV_0tilt_345rot_det8.npy'
p246
F0.8687
F0.0074
F17.1047
F0.0317
F0.5285
F0.0047
F188.0
tp247
a(S'bvert_11MeV_0tilt_345rot_det9.npy'
p248
F0.2836
F0.0034
F15.6502
F0.0332
F0.1642
F0.002
F193.0
tp249
a(S'bvert_11MeV_0tilt_355rot_det10.npy'
p250
F0.2395
F0.003
F13.8755
F0.0379
F0.1385
F0.0018
F189.0
tp251
a(S'bvert_11MeV_0tilt_355rot_det11.npy'
p252
F0.721
F0.0055
F17.9408
F0.0317
F0.4372
F0.0036
F189.0
tp253
a(S'bvert_11MeV_0tilt_355rot_det12.npy'
p254
F1.4992
F0.0079
F16.938
F0.0353
F0.9633
F0.0057
F208.0
tp255
a(S'bvert_11MeV_0tilt_355rot_det13.npy'
p256
F2.5142
F0.0107
F20.1632
F0.0567
F1.6898
F0.0084
F193.0
tp257
a(S'bvert_11MeV_0tilt_355rot_det14.npy'
p258
F3.5967
F0.013
F24.6282
F0.1091
F2.4872
F0.0105
F152.0
tp259
a(S'bvert_11MeV_0tilt_355rot_det15.npy'
p260
F4.7278
F0.0131
F39.4843
F0.246
F3.3202
F0.0123
F89.0
tp261
a(S'bvert_11MeV_0tilt_355rot_det4.npy'
p262
F5.2597
F0.0131
F38.1955
F0.237
F3.607
F0.0125
F102.0
tp263
a(S'bvert_11MeV_0tilt_355rot_det5.npy'
p264
F4.3126
F0.0121
F22.8218
F0.083
F2.9084
F0.0098
F186.0
tp265
a(S'bvert_11MeV_0tilt_355rot_det6.npy'
p266
F3.1079
F0.0122
F17.5695
F0.0573
F2.0403
F0.0095
F168.0
tp267
a(S'bvert_11MeV_0tilt_355rot_det7.npy'
p268
F1.8583
F0.01
F15.6755
F0.0358
F1.1676
F0.007
F213.0
tp269
a(S'bvert_11MeV_0tilt_355rot_det8.npy'
p270
F0.8852
F0.0067
F17.068
F0.0324
F0.5362
F0.0045
F180.0
tp271
a(S'bvert_11MeV_0tilt_355rot_det9.npy'
p272
F0.294
F0.0034
F15.6309
F0.0363
F0.171
F0.002
F207.0
tp273
a(S'bvert_11MeV_0tilt_35rot_det10.npy'
p274
F0.281
F0.0035
F13.7087
F0.0409
F0.1632
F0.002
F174.0
tp275
a(S'bvert_11MeV_0tilt_35rot_det11.npy'
p276
F0.7975
F0.0062
F17.8305
F0.0342
F0.487
F0.0041
F182.0
tp277
a(S'bvert_11MeV_0tilt_35rot_det12.npy'
p278
F1.6184
F0.0077
F16.9017
F0.0404
F1.041
F0.0055
F167.0
tp279
a(S'bvert_11MeV_0tilt_35rot_det13.npy'
p280
F2.5783
F0.0097
F20.1016
F0.0548
F1.7281
F0.0074
F194.0
tp281
a(S'bvert_11MeV_0tilt_35rot_det14.npy'
p282
F3.5368
F0.0114
F24.6696
F0.0967
F2.4276
F0.0097
F147.0
tp283
a(S'bvert_11MeV_0tilt_35rot_det15.npy'
p284
F4.3713
F0.0124
F39.3268
F0.2526
F3.0398
F0.0107
F101.0
tp285
a(S'bvert_11MeV_0tilt_35rot_det4.npy'
p286
F4.7026
F0.0118
F37.7072
F0.2624
F3.3065
F0.0119
F90.0
tp287
a(S'bvert_11MeV_0tilt_35rot_det5.npy'
p288
F3.8697
F0.0104
F22.7931
F0.0972
F2.6747
F0.01
F147.0
tp289
a(S'bvert_11MeV_0tilt_35rot_det6.npy'
p290
F2.8295
F0.0099
F17.5483
F0.0559
F1.9057
F0.0079
F187.0
tp291
a(S'bvert_11MeV_0tilt_35rot_det7.npy'
p292
F1.7763
F0.0086
F15.7249
F0.0418
F1.1437
F0.0064
F181.0
tp293
a(S'bvert_11MeV_0tilt_35rot_det8.npy'
p294
F0.9043
F0.0063
F17.1306
F0.0323
F0.5481
F0.0042
F200.0
tp295
a(S'bvert_11MeV_0tilt_35rot_det9.npy'
p296
F0.3123
F0.0035
F15.5642
F0.0353
F0.1798
F0.0021
F186.0
tp297
a(S'bvert_11MeV_0tilt_45rot_det10.npy'
p298
F0.297
F0.0036
F13.6673
F0.0357
F0.1704
F0.0021
F180.0
tp299
a(S'bvert_11MeV_0tilt_45rot_det11.npy'
p300
F0.8399
F0.007
F17.8205
F0.0359
F0.5104
F0.0046
F165.0
tp301
a(S'bvert_11MeV_0tilt_45rot_det12.npy'
p302
F1.6821
F0.0094
F16.8375
F0.0441
F1.0862
F0.007
F174.0
tp303
a(S'bvert_11MeV_0tilt_45rot_det13.npy'
p304
F2.6802
F0.0084
F20.1417
F0.0555
F1.795
F0.007
F178.0
tp305
a(S'bvert_11MeV_0tilt_45rot_det14.npy'
p306
F3.6497
F0.0109
F24.8099
F0.1172
F2.5087
F0.009
F129.0
tp307
a(S'bvert_11MeV_0tilt_45rot_det15.npy'
p308
F4.4755
F0.0126
F39.704
F0.2743
F3.1208
F0.0113
F81.0
tp309
a(S'bvert_11MeV_0tilt_45rot_det4.npy'
p310
F4.5499
F0.014
F37.9349
F0.2754
F3.1914
F0.0134
F77.0
tp311
a(S'bvert_11MeV_0tilt_45rot_det5.npy'
p312
F3.7366
F0.011
F22.8614
F0.1039
F2.5842
F0.0098
F155.0
tp313
a(S'bvert_11MeV_0tilt_45rot_det6.npy'
p314
F2.7639
F0.0109
F17.5971
F0.0638
F1.8645
F0.0087
F141.0
tp315
a(S'bvert_11MeV_0tilt_45rot_det7.npy'
p316
F1.7044
F0.0088
F15.7646
F0.0394
F1.1067
F0.0065
F176.0
tp317
a(S'bvert_11MeV_0tilt_45rot_det8.npy'
p318
F0.8758
F0.0066
F17.1312
F0.0323
F0.5369
F0.0046
F166.0
tp319
a(S'bvert_11MeV_0tilt_45rot_det9.npy'
p320
F0.3013
F0.0035
F15.5862
F0.0396
F0.1754
F0.0021
F170.0
tp321
a(S'bvert_11MeV_0tilt_55rot_det10.npy'
p322
F0.2989
F0.0038
F13.6642
F0.0368
F0.1708
F0.0022
F188.0
tp323
a(S'bvert_11MeV_0tilt_55rot_det11.npy'
p324
F0.8811
F0.0068
F17.8124
F0.0359
F0.5324
F0.0045
F178.0
tp325
a(S'bvert_11MeV_0tilt_55rot_det12.npy'
p326
F1.7542
F0.0091
F16.9367
F0.0449
F1.1246
F0.0067
F168.0
tp327
a(S'bvert_11MeV_0tilt_55rot_det13.npy'
p328
F2.7474
F0.0101
F20.0515
F0.0523
F1.8442
F0.0076
F188.0
tp329
a(S'bvert_11MeV_0tilt_55rot_det14.npy'
p330
F3.7373
F0.0102
F24.6804
F0.0868
F2.5746
F0.0092
F159.0
tp331
a(S'bvert_11MeV_0tilt_55rot_det15.npy'
p332
F4.5732
F0.0137
F39.4046
F0.298
F3.1884
F0.0119
F75.0
tp333
a(S'bvert_11MeV_0tilt_55rot_det4.npy'
p334
F4.4726
F0.012
F38.2327
F0.2721
F3.1273
F0.0111
F84.0
tp335
a(S'bvert_11MeV_0tilt_55rot_det5.npy'
p336
F3.6208
F0.0111
F22.8512
F0.0932
F2.5035
F0.0095
F158.0
tp337
a(S'bvert_11MeV_0tilt_55rot_det6.npy'
p338
F2.6438
F0.0103
F17.5725
F0.0597
F1.778
F0.0079
F172.0
tp339
a(S'bvert_11MeV_0tilt_55rot_det7.npy'
p340
F1.6592
F0.0085
F15.7898
F0.0392
F1.0795
F0.0063
F183.0
tp341
a(S'bvert_11MeV_0tilt_55rot_det8.npy'
p342
F0.8373
F0.0071
F17.1275
F0.0349
F0.5165
F0.0049
F158.0
tp343
a(S'bvert_11MeV_0tilt_55rot_det9.npy'
p344
F0.2979
F0.0032
F15.6291
F0.0325
F0.1735
F0.0019
F196.0
tp345
a(S'bvert_11MeV_0tilt_5rot_det10.npy'
p346
F0.2443
F0.0028
F13.7884
F0.0389
F0.1409
F0.0016
F187.0
tp347
a(S'bvert_11MeV_0tilt_5rot_det11.npy'
p348
F0.7173
F0.0054
F17.9327
F0.033
F0.4376
F0.0035
F191.0
tp349
a(S'bvert_11MeV_0tilt_5rot_det12.npy'
p350
F1.4823
F0.0077
F16.9105
F0.0357
F0.9533
F0.0055
F201.0
tp351
a(S'bvert_11MeV_0tilt_5rot_det13.npy'
p352
F2.4447
F0.0096
F20.0861
F0.0574
F1.6374
F0.0072
F182.0
tp353
a(S'bvert_11MeV_0tilt_5rot_det14.npy'
p354
F3.5375
F0.0117
F24.7819
F0.104
F2.4432
F0.0092
F150.0
tp355
a(S'bvert_11MeV_0tilt_5rot_det15.npy'
p356
F4.5824
F0.0142
F39.4258
F0.2625
F3.2084
F0.015
F72.0
tp357
a(S'bvert_11MeV_0tilt_5rot_det4.npy'
p358
F5.1304
F0.0136
F37.998
F0.2615
F3.5559
F0.0129
F99.0
tp359
a(S'bvert_11MeV_0tilt_5rot_det5.npy'
p360
F4.2167
F0.0123
F22.9499
F0.1052
F2.8744
F0.0104
F129.0
tp361
a(S'bvert_11MeV_0tilt_5rot_det6.npy'
p362
F3.0552
F0.0122
F17.4813
F0.0613
F2.0072
F0.0092
F170.0
tp363
a(S'bvert_11MeV_0tilt_5rot_det7.npy'
p364
F1.9067
F0.0097
F15.741
F0.0422
F1.2025
F0.0069
F173.0
tp365
a(S'bvert_11MeV_0tilt_5rot_det8.npy'
p366
F0.9317
F0.0081
F17.1643
F0.038
F0.5597
F0.0052
F186.0
tp367
a(S'bvert_11MeV_0tilt_5rot_det9.npy'
p368
F0.3027
F0.0036
F15.5503
F0.0361
F0.1764
F0.0022
F165.0
tp369
a(S'bvert_11MeV_0tilt_65rot_det10.npy'
p370
F0.3007
F0.0039
F13.6932
F0.0453
F0.1725
F0.0023
F174.0
tp371
a(S'bvert_11MeV_0tilt_65rot_det11.npy'
p372
F0.8927
F0.007
F17.8172
F0.0357
F0.5369
F0.0046
F164.0
tp373
a(S'bvert_11MeV_0tilt_65rot_det12.npy'
p374
F1.8147
F0.0089
F16.8157
F0.0389
F1.154
F0.0066
F180.0
tp375
a(S'bvert_11MeV_0tilt_65rot_det13.npy'
p376
F2.8603
F0.0115
F20.1795
F0.061
F1.9008
F0.0086
F159.0
tp377
a(S'bvert_11MeV_0tilt_65rot_det14.npy'
p378
F3.8753
F0.0113
F24.7148
F0.1041
F2.6575
F0.0097
F148.0
tp379
a(S'bvert_11MeV_0tilt_65rot_det15.npy'
p380
F4.7037
F0.0147
F39.3694
F0.2753
F3.2788
F0.013
F75.0
tp381
a(S'bvert_11MeV_0tilt_65rot_det4.npy'
p382
F4.4015
F0.011
F37.839
F0.2273
F3.0598
F0.0105
F91.0
tp383
a(S'bvert_11MeV_0tilt_65rot_det5.npy'
p384
F3.5154
F0.0097
F22.6937
F0.0915
F2.4227
F0.0077
F167.0
tp385
a(S'bvert_11MeV_0tilt_65rot_det6.npy'
p386
F2.5572
F0.0093
F17.5653
F0.0606
F1.7235
F0.0074
F151.0
tp387
a(S'bvert_11MeV_0tilt_65rot_det7.npy'
p388
F1.5948
F0.0086
F15.8547
F0.0369
F1.0345
F0.0063
F179.0
tp389
a(S'bvert_11MeV_0tilt_65rot_det8.npy'
p390
F0.8074
F0.0062
F17.2133
F0.0377
F0.4966
F0.0041
F182.0
tp391
a(S'bvert_11MeV_0tilt_65rot_det9.npy'
p392
F0.2832
F0.0034
F15.6434
F0.0343
F0.1648
F0.002
F186.0
tp393
a(S'bvert_11MeV_0tilt_75rot_det10.npy'
p394
F0.3019
F0.0037
F13.6581
F0.037
F0.1749
F0.0022
F193.0
tp395
a(S'bvert_11MeV_0tilt_75rot_det11.npy'
p396
F0.9031
F0.0073
F17.8004
F0.0387
F0.5414
F0.0047
F175.0
tp397
a(S'bvert_11MeV_0tilt_75rot_det12.npy'
p398
F1.8804
F0.01
F16.8261
F0.0393
F1.1902
F0.0072
F196.0
tp399
a(S'bvert_11MeV_0tilt_75rot_det13.npy'
p400
F2.9499
F0.0107
F19.9081
F0.0562
F1.9488
F0.0087
F175.0
tp401
a(S'bvert_11MeV_0tilt_75rot_det14.npy'
p402
F4.0313
F0.0113
F24.6673
F0.1064
F2.7518
F0.0104
F150.0
tp403
a(S'bvert_11MeV_0tilt_75rot_det15.npy'
p404
F4.8903
F0.0127
F39.9532
F0.2811
F3.4087
F0.0115
F88.0
tp405
a(S'bvert_11MeV_0tilt_75rot_det4.npy'
p406
F4.388
F0.0136
F37.8353
F0.3065
F3.049
F0.0137
F81.0
tp407
a(S'bvert_11MeV_0tilt_75rot_det5.npy'
p408
F3.4869
F0.0112
F22.9419
F0.1104
F2.4096
F0.0091
F141.0
tp409
a(S'bvert_11MeV_0tilt_75rot_det6.npy'
p410
F2.4866
F0.0093
F17.5783
F0.054
F1.6691
F0.0074
F171.0
tp411
a(S'bvert_11MeV_0tilt_75rot_det7.npy'
p412
F1.547
F0.0088
F15.822
F0.0427
F0.9997
F0.0064
F159.0
tp413
a(S'bvert_11MeV_0tilt_75rot_det8.npy'
p414
F0.7629
F0.0053
F17.1367
F0.0296
F0.4688
F0.0036
F183.0
tp415
a(S'bvert_11MeV_0tilt_75rot_det9.npy'
p416
F0.272
F0.0033
F15.6835
F0.0378
F0.1583
F0.0019
F193.0
tp417
a(S'bvert_11MeV_0tilt_85rot_det10.npy'
p418
F0.3076
F0.0036
F13.7365
F0.0377
F0.1791
F0.0021
F185.0
tp419
a(S'bvert_11MeV_0tilt_85rot_det11.npy'
p420
F0.9139
F0.0072
F17.8491
F0.0386
F0.5511
F0.0047
F164.0
tp421
a(S'bvert_11MeV_0tilt_85rot_det12.npy'
p422
F1.9004
F0.0094
F16.8722
F0.0371
F1.1971
F0.0067
F201.0
tp423
a(S'bvert_11MeV_0tilt_85rot_det13.npy'
p424
F3.0536
F0.0109
F20.1163
F0.0572
F2.008
F0.0082
F156.0
tp425
a(S'bvert_11MeV_0tilt_85rot_det14.npy'
p426
F4.1787
F0.012
F24.7738
F0.1149
F2.8232
F0.0109
F138.0
tp427
a(S'bvert_11MeV_0tilt_85rot_det15.npy'
p428
F5.0353
F0.014
F39.7133
F0.2809
F3.4899
F0.0125
F86.0
tp429
a(S'bvert_11MeV_0tilt_85rot_det4.npy'
p430
F4.4478
F0.0139
F38.1594
F0.2619
F3.1095
F0.0138
F93.0
tp431
a(S'bvert_11MeV_0tilt_85rot_det5.npy'
p432
F3.5052
F0.0098
F22.9236
F0.0973
F2.4096
F0.0085
F152.0
tp433
a(S'bvert_11MeV_0tilt_85rot_det6.npy'
p434
F2.453
F0.0105
F17.6945
F0.0556
F1.6416
F0.0075
F171.0
tp435
a(S'bvert_11MeV_0tilt_85rot_det7.npy'
p436
F1.4937
F0.0078
F15.8225
F0.0407
F0.9624
F0.0056
F203.0
tp437
a(S'bvert_11MeV_0tilt_85rot_det8.npy'
p438
F0.748
F0.0052
F17.1772
F0.0333
F0.4551
F0.0036
F172.0
tp439
a(S'bvert_11MeV_0tilt_85rot_det9.npy'
p440
F0.2563
F0.0027
F15.7128
F0.033
F0.1492
F0.0016
F201.0
tp441
a(S'bvert_11MeV_0tilt_95rot_det10.npy'
p442
F0.2938
F0.0035
F13.7931
F0.0386
F0.1717
F0.0021
F179.0
tp443
a(S'bvert_11MeV_0tilt_95rot_det11.npy'
p444
F0.9057
F0.007
F17.8823
F0.0351
F0.5504
F0.0046
F165.0
tp445
a(S'bvert_11MeV_0tilt_95rot_det12.npy'
p446
F1.8824
F0.0097
F16.951
F0.0421
F1.1955
F0.0071
F192.0
tp447
a(S'bvert_11MeV_0tilt_95rot_det13.npy'
p448
F3.0741
F0.0112
F20.0532
F0.0549
F2.0099
F0.0086
F163.0
tp449
a(S'bvert_11MeV_0tilt_95rot_det14.npy'
p450
F4.2526
F0.0118
F24.8175
F0.092
F2.8607
F0.0096
F155.0
tp451
a(S'bvert_11MeV_0tilt_95rot_det15.npy'
p452
F5.1776
F0.0147
F39.5288
F0.3221
F3.5602
F0.0149
F69.0
tp453
a(S'bvert_11MeV_0tilt_95rot_det4.npy'
p454
F4.5587
F0.0138
F38.0305
F0.2891
F3.1758
F0.0126
F77.0
tp455
a(S'bvert_11MeV_0tilt_95rot_det5.npy'
p456
F3.5256
F0.012
F22.9661
F0.1065
F2.4305
F0.01
F142.0
tp457
a(S'bvert_11MeV_0tilt_95rot_det6.npy'
p458
F2.4259
F0.0106
F17.5312
F0.0587
F1.6221
F0.0082
F146.0
tp459
a(S'bvert_11MeV_0tilt_95rot_det7.npy'
p460
F1.4513
F0.0077
F15.7829
F0.0383
F0.93
F0.0055
F185.0
tp461
a(S'bvert_11MeV_0tilt_95rot_det8.npy'
p462
F0.717
F0.0058
F17.1411
F0.0381
F0.4379
F0.0039
F149.0
tp463
a(S'bvert_11MeV_0tilt_95rot_det9.npy'
p464
F0.2482
F0.0028
F15.7511
F0.035
F0.1433
F0.0016
F177.0
tp465
a(S'bvert_11MeV_15tilt_105rot_det10.npy'
p466
F0.284
F0.0034
F13.7544
F0.0393
F0.1658
F0.002
F186.0
tp467
a(S'bvert_11MeV_15tilt_105rot_det11.npy'
p468
F0.8695
F0.0067
F17.8676
F0.0313
F0.5349
F0.0044
F169.0
tp469
a(S'bvert_11MeV_15tilt_105rot_det12.npy'
p470
F1.8115
F0.0101
F16.8692
F0.0422
F1.1654
F0.007
F170.0
tp471
a(S'bvert_11MeV_15tilt_105rot_det13.npy'
p472
F3.0262
F0.0126
F20.1197
F0.0549
F2.009
F0.0092
F173.0
tp473
a(S'bvert_11MeV_15tilt_105rot_det14.npy'
p474
F4.251
F0.0122
F24.914
F0.092
F2.8682
F0.0097
F138.0
tp475
a(S'bvert_11MeV_15tilt_105rot_det15.npy'
p476
F5.2081
F0.0132
F39.0556
F0.2551
F3.5565
F0.0133
F82.0
tp477
a(S'bvert_11MeV_15tilt_105rot_det4.npy'
p478
F4.6759
F0.0174
F37.9896
F0.3363
F3.266
F0.0151
F72.0
tp479
a(S'bvert_11MeV_15tilt_105rot_det5.npy'
p480
F3.6172
F0.0113
F22.6549
F0.0994
F2.4975
F0.0096
F141.0
tp481
a(S'bvert_11MeV_15tilt_105rot_det6.npy'
p482
F2.48
F0.0115
F17.5884
F0.0566
F1.6659
F0.0088
F167.0
tp483
a(S'bvert_11MeV_15tilt_105rot_det7.npy'
p484
F1.4711
F0.009
F15.7714
F0.0424
F0.9517
F0.0065
F158.0
tp485
a(S'bvert_11MeV_15tilt_105rot_det8.npy'
p486
F0.7165
F0.006
F17.2097
F0.0388
F0.4399
F0.0041
F150.0
tp487
a(S'bvert_11MeV_15tilt_105rot_det9.npy'
p488
F0.2387
F0.0031
F15.7301
F0.0362
F0.1391
F0.0018
F183.0
tp489
a(S'bvert_11MeV_15tilt_115rot_det10.npy'
p490
F0.271
F0.0033
F13.7185
F0.0378
F0.1585
F0.0019
F165.0
tp491
a(S'bvert_11MeV_15tilt_115rot_det11.npy'
p492
F0.8326
F0.007
F17.8862
F0.0361
F0.5149
F0.0049
F160.0
tp493
a(S'bvert_11MeV_15tilt_115rot_det12.npy'
p494
F1.7798
F0.0113
F16.9343
F0.0415
F1.1547
F0.0079
F149.0
tp495
a(S'bvert_11MeV_15tilt_115rot_det13.npy'
p496
F2.9902
F0.0121
F20.1553
F0.0611
F1.9962
F0.0098
F134.0
tp497
a(S'bvert_11MeV_15tilt_115rot_det14.npy'
p498
F4.2117
F0.0128
F24.6711
F0.1024
F2.8632
F0.0105
F137.0
tp499
a(S'bvert_11MeV_15tilt_115rot_det15.npy'
p500
F5.299
F0.0141
F39.432
F0.2821
F3.6201
F0.0127
F75.0
tp501
a(S'bvert_11MeV_15tilt_115rot_det4.npy'
p502
F4.8081
F0.0161
F37.3573
F0.262
F3.3641
F0.0137
F81.0
tp503
a(S'bvert_11MeV_15tilt_115rot_det5.npy'
p504
F3.7127
F0.0127
F22.4581
F0.1005
F2.5634
F0.01
F140.0
tp505
a(S'bvert_11MeV_15tilt_115rot_det6.npy'
p506
F2.5267
F0.0103
F17.4055
F0.0487
F1.6932
F0.0078
F173.0
tp507
a(S'bvert_11MeV_15tilt_115rot_det7.npy'
p508
F1.4907
F0.0085
F15.7328
F0.0395
F0.9643
F0.0063
F177.0
tp509
a(S'bvert_11MeV_15tilt_115rot_det8.npy'
p510
F0.7054
F0.0057
F17.2411
F0.0363
F0.4309
F0.0038
F179.0
tp511
a(S'bvert_11MeV_15tilt_115rot_det9.npy'
p512
F0.2379
F0.0027
F15.7993
F0.0379
F0.1366
F0.0015
F177.0
tp513
a(S'bvert_11MeV_15tilt_125rot_det10.npy'
p514
F0.2611
F0.0032
F13.8355
F0.037
F0.1525
F0.0018
F200.0
tp515
a(S'bvert_11MeV_15tilt_125rot_det11.npy'
p516
F0.8097
F0.0071
F17.9503
F0.0346
F0.5006
F0.0049
F190.0
tp517
a(S'bvert_11MeV_15tilt_125rot_det12.npy'
p518
F1.7186
F0.0093
F17.0057
F0.0442
F1.1173
F0.0066
F177.0
tp519
a(S'bvert_11MeV_15tilt_125rot_det13.npy'
p520
F2.8809
F0.0112
F20.2057
F0.0555
F1.9332
F0.0089
F156.0
tp521
a(S'bvert_11MeV_15tilt_125rot_det14.npy'
p522
F4.1305
F0.0138
F24.866
F0.1015
F2.8292
F0.0115
F151.0
tp523
a(S'bvert_11MeV_15tilt_125rot_det15.npy'
p524
F5.2479
F0.0154
F39.3327
F0.2907
F3.6097
F0.0155
F79.0
tp525
a(S'bvert_11MeV_15tilt_125rot_det4.npy'
p526
F4.9484
F0.0159
F37.8081
F0.2823
F3.4393
F0.0137
F88.0
tp527
a(S'bvert_11MeV_15tilt_125rot_det5.npy'
p528
F3.8311
F0.0142
F22.5582
F0.0988
F2.6333
F0.0116
F146.0
tp529
a(S'bvert_11MeV_15tilt_125rot_det6.npy'
p530
F2.6209
F0.0115
F17.4688
F0.0524
F1.7609
F0.0086
F175.0
tp531
a(S'bvert_11MeV_15tilt_125rot_det7.npy'
p532
F1.5345
F0.0087
F15.7528
F0.0373
F0.9907
F0.0063
F200.0
tp533
a(S'bvert_11MeV_15tilt_125rot_det8.npy'
p534
F0.7037
F0.0061
F17.1686
F0.0347
F0.4286
F0.004
F165.0
tp535
a(S'bvert_11MeV_15tilt_125rot_det9.npy'
p536
F0.2383
F0.0029
F15.7517
F0.0371
F0.1384
F0.0016
F154.0
tp537
a(S'bvert_11MeV_15tilt_135rot_det10.npy'
p538
F0.2617
F0.0033
F13.8874
F0.0385
F0.1519
F0.002
F176.0
tp539
a(S'bvert_11MeV_15tilt_135rot_det11.npy'
p540
F0.7803
F0.0061
F17.971
F0.0347
F0.4802
F0.0041
F154.0
tp541
a(S'bvert_11MeV_15tilt_135rot_det12.npy'
p542
F1.6641
F0.0089
F16.9394
F0.039
F1.0834
F0.0064
F161.0
tp543
a(S'bvert_11MeV_15tilt_135rot_det13.npy'
p544
F2.7985
F0.0115
F20.1686
F0.057
F1.8898
F0.0089
F174.0
tp545
a(S'bvert_11MeV_15tilt_135rot_det14.npy'
p546
F4.0507
F0.0138
F24.893
F0.1096
F2.7912
F0.0111
F128.0
tp547
a(S'bvert_11MeV_15tilt_135rot_det15.npy'
p548
F5.175
F0.016
F39.9487
F0.2741
F3.5942
F0.0129
F92.0
tp549
a(S'bvert_11MeV_15tilt_135rot_det4.npy'
p550
F5.1151
F0.016
F37.4849
F0.2862
F3.5153
F0.014
F89.0
tp551
a(S'bvert_11MeV_15tilt_135rot_det5.npy'
p552
F3.9624
F0.0153
F22.7108
F0.1101
F2.7098
F0.0119
F122.0
tp553
a(S'bvert_11MeV_15tilt_135rot_det6.npy'
p554
F2.6996
F0.0115
F17.4459
F0.0609
F1.8161
F0.0089
F146.0
tp555
a(S'bvert_11MeV_15tilt_135rot_det7.npy'
p556
F1.5685
F0.0082
F15.682
F0.0377
F1.0143
F0.0061
F173.0
tp557
a(S'bvert_11MeV_15tilt_135rot_det8.npy'
p558
F0.7314
F0.0063
F17.152
F0.0346
F0.4473
F0.0041
F166.0
tp559
a(S'bvert_11MeV_15tilt_135rot_det9.npy'
p560
F0.2362
F0.0031
F15.6812
F0.0359
F0.1373
F0.0019
F162.0
tp561
a(S'bvert_11MeV_15tilt_145rot_det10.npy'
p562
F0.2514
F0.0033
F13.901
F0.039
F0.1454
F0.0019
F154.0
tp563
a(S'bvert_11MeV_15tilt_145rot_det11.npy'
p564
F0.7617
F0.0063
F17.9969
F0.0367
F0.4673
F0.0043
F144.0
tp565
a(S'bvert_11MeV_15tilt_145rot_det12.npy'
p566
F1.6136
F0.0088
F17.0731
F0.0424
F1.0507
F0.0064
F173.0
tp567
a(S'bvert_11MeV_15tilt_145rot_det13.npy'
p568
F2.7284
F0.0125
F20.1763
F0.0584
F1.8501
F0.0094
F163.0
tp569
a(S'bvert_11MeV_15tilt_145rot_det14.npy'
p570
F3.9607
F0.0129
F24.915
F0.1077
F2.7392
F0.0107
F137.0
tp571
a(S'bvert_11MeV_15tilt_145rot_det15.npy'
p572
F5.0636
F0.0142
F39.9063
F0.2818
F3.5453
F0.0144
F80.0
tp573
a(S'bvert_11MeV_15tilt_145rot_det4.npy'
p574
F5.213
F0.0162
F37.3136
F0.3109
F3.559
F0.0137
F70.0
tp575
a(S'bvert_11MeV_15tilt_145rot_det5.npy'
p576
F4.0601
F0.0157
F22.3785
F0.1131
F2.7512
F0.0116
F128.0
tp577
a(S'bvert_11MeV_15tilt_145rot_det6.npy'
p578
F2.8254
F0.0126
F17.471
F0.0601
F1.8888
F0.0092
F146.0
tp579
a(S'bvert_11MeV_15tilt_145rot_det7.npy'
p580
F1.6439
F0.0102
F15.7127
F0.0412
F1.0637
F0.0071
F159.0
tp581
a(S'bvert_11MeV_15tilt_145rot_det8.npy'
p582
F0.7619
F0.006
F17.0835
F0.0327
F0.4681
F0.004
F190.0
tp583
a(S'bvert_11MeV_15tilt_145rot_det9.npy'
p584
F0.2429
F0.0034
F15.6288
F0.0418
F0.1413
F0.002
F160.0
tp585
a(S'bvert_11MeV_15tilt_15rot_det10.npy'
p586
F0.2573
F0.0031
F13.7734
F0.0408
F0.1509
F0.0018
F172.0
tp587
a(S'bvert_11MeV_15tilt_15rot_det11.npy'
p588
F0.7276
F0.005
F17.8156
F0.0298
F0.4434
F0.0033
F179.0
tp589
a(S'bvert_11MeV_15tilt_15rot_det12.npy'
p590
F1.4906
F0.0079
F16.855
F0.0398
F0.9639
F0.0056
F189.0
tp591
a(S'bvert_11MeV_15tilt_15rot_det13.npy'
p592
F2.477
F0.0088
F20.1812
F0.0567
F1.6703
F0.007
F171.0
tp593
a(S'bvert_11MeV_15tilt_15rot_det14.npy'
p594
F3.4987
F0.0114
F24.7258
F0.1053
F2.4149
F0.0101
F131.0
tp595
a(S'bvert_11MeV_15tilt_15rot_det15.npy'
p596
F4.4274
F0.0112
F39.1196
F0.2568
F3.1124
F0.0109
F89.0
tp597
a(S'bvert_11MeV_15tilt_15rot_det4.npy'
p598
F4.923
F0.0145
F38.0646
F0.247
F3.4601
F0.0131
F75.0
tp599
a(S'bvert_11MeV_15tilt_15rot_det5.npy'
p600
F4.0659
F0.0114
F23.0581
F0.1053
F2.8179
F0.0095
F120.0
tp601
a(S'bvert_11MeV_15tilt_15rot_det6.npy'
p602
F2.9955
F0.0116
F17.6409
F0.061
F1.9982
F0.0097
F136.0
tp603
a(S'bvert_11MeV_15tilt_15rot_det7.npy'
p604
F1.8682
F0.011
F15.8224
F0.0484
F1.1901
F0.0079
F164.0
tp605
a(S'bvert_11MeV_15tilt_15rot_det8.npy'
p606
F0.924
F0.0072
F17.078
F0.0395
F0.5568
F0.0044
F155.0
tp607
a(S'bvert_11MeV_15tilt_15rot_det9.npy'
p608
F0.3194
F0.0037
F15.5907
F0.0378
F0.1838
F0.0022
F155.0
tp609
a(S'bvert_11MeV_15tilt_25rot_det10.npy'
p610
F0.2624
F0.0035
F13.7472
F0.0437
F0.1524
F0.002
F146.0
tp611
a(S'bvert_11MeV_15tilt_25rot_det11.npy'
p612
F0.7677
F0.0056
F17.8447
F0.0329
F0.4704
F0.0038
F170.0
tp613
a(S'bvert_11MeV_15tilt_25rot_det12.npy'
p614
F1.548
F0.0086
F16.8256
F0.0395
F1.002
F0.0063
F163.0
tp615
a(S'bvert_11MeV_15tilt_25rot_det13.npy'
p616
F2.4843
F0.0106
F20.1229
F0.0596
F1.6722
F0.0082
F177.0
tp617
a(S'bvert_11MeV_15tilt_25rot_det14.npy'
p618
F3.4683
F0.0129
F24.5312
F0.1257
F2.3893
F0.0109
F100.0
tp619
a(S'bvert_11MeV_15tilt_25rot_det15.npy'
p620
F4.3935
F0.0137
F39.7661
F0.3112
F3.0842
F0.0128
F76.0
tp621
a(S'bvert_11MeV_15tilt_25rot_det4.npy'
p622
F4.7905
F0.0145
F38.6358
F0.2792
F3.3817
F0.0129
F76.0
tp623
a(S'bvert_11MeV_15tilt_25rot_det5.npy'
p624
F3.9783
F0.0123
F23.0614
F0.1031
F2.7678
F0.0106
F131.0
tp625
a(S'bvert_11MeV_15tilt_25rot_det6.npy'
p626
F2.9118
F0.0124
F17.6933
F0.06
F1.9674
F0.0098
F154.0
tp627
a(S'bvert_11MeV_15tilt_25rot_det7.npy'
p628
F1.825
F0.0092
F15.8414
F0.0405
F1.1753
F0.0068
F176.0
tp629
a(S'bvert_11MeV_15tilt_25rot_det8.npy'
p630
F0.9182
F0.0078
F17.138
F0.0415
F0.5553
F0.0052
F148.0
tp631
a(S'bvert_11MeV_15tilt_25rot_det9.npy'
p632
F0.3163
F0.0039
F15.6347
F0.0374
F0.1828
F0.0023
F172.0
tp633
a(S'bvert_11MeV_15tilt_315rot_det10.npy'
p634
F0.2552
F0.0033
F13.8106
F0.0436
F0.149
F0.0019
F157.0
tp635
a(S'bvert_11MeV_15tilt_315rot_det11.npy'
p636
F0.7803
F0.0065
F17.87
F0.0375
F0.4803
F0.0044
F151.0
tp637
a(S'bvert_11MeV_15tilt_315rot_det12.npy'
p638
F1.6911
F0.0093
F16.979
F0.0444
F1.105
F0.0068
F156.0
tp639
a(S'bvert_11MeV_15tilt_315rot_det13.npy'
p640
F2.8461
F0.0126
F20.1282
F0.0604
F1.9243
F0.01
F133.0
tp641
a(S'bvert_11MeV_15tilt_315rot_det14.npy'
p642
F4.0275
F0.0153
F24.6813
F0.1213
F2.771
F0.0121
F99.0
tp643
a(S'bvert_11MeV_15tilt_315rot_det15.npy'
p644
F5.1323
F0.0187
F39.6607
F0.284
F3.5539
F0.0165
F69.0
tp645
a(S'bvert_11MeV_15tilt_315rot_det4.npy'
p646
F5.1301
F0.017
F38.3539
F0.3334
F3.5371
F0.0152
F68.0
tp647
a(S'bvert_11MeV_15tilt_315rot_det5.npy'
p648
F4.0304
F0.0147
F22.9966
F0.1198
F2.7469
F0.0121
F94.0
tp649
a(S'bvert_11MeV_15tilt_315rot_det6.npy'
p650
F2.7973
F0.0131
F17.7337
F0.0617
F1.8755
F0.0098
F126.0
tp651
a(S'bvert_11MeV_15tilt_315rot_det7.npy'
p652
F1.6481
F0.0098
F15.8369
F0.0426
F1.0669
F0.0072
F151.0
tp653
a(S'bvert_11MeV_15tilt_315rot_det8.npy'
p654
F0.7704
F0.0063
F17.2442
F0.0401
F0.4707
F0.0042
F153.0
tp655
a(S'bvert_11MeV_15tilt_315rot_det9.npy'
p656
F0.2481
F0.0034
F15.6628
F0.0415
F0.1429
F0.002
F142.0
tp657
a(S'bvert_11MeV_15tilt_325rot_det10.npy'
p658
F0.2402
F0.0028
F13.8175
F0.0367
F0.1388
F0.0016
F188.0
tp659
a(S'bvert_11MeV_15tilt_325rot_det11.npy'
p660
F0.7446
F0.0065
F17.867
F0.0379
F0.4591
F0.0042
F155.0
tp661
a(S'bvert_11MeV_15tilt_325rot_det12.npy'
p662
F1.6111
F0.0107
F16.9103
F0.0498
F1.0496
F0.0077
F143.0
tp663
a(S'bvert_11MeV_15tilt_325rot_det13.npy'
p664
F2.755
F0.0127
F20.1184
F0.0622
F1.8696
F0.0101
F150.0
tp665
a(S'bvert_11MeV_15tilt_325rot_det14.npy'
p666
F3.9606
F0.0147
F24.8264
F0.1208
F2.7536
F0.0119
F111.0
tp667
a(S'bvert_11MeV_15tilt_325rot_det15.npy'
p668
F5.0312
F0.019
F39.9762
F0.3019
F3.5059
F0.0154
F76.0
tp669
a(S'bvert_11MeV_15tilt_325rot_det4.npy'
p670
F5.2403
F0.0176
F38.8162
F0.2767
F3.6136
F0.015
F77.0
tp671
a(S'bvert_11MeV_15tilt_325rot_det5.npy'
p672
F4.1534
F0.0153
F23.0781
F0.114
F2.824
F0.0117
F107.0
tp673
a(S'bvert_11MeV_15tilt_325rot_det6.npy'
p674
F2.9042
F0.0116
F17.6167
F0.0618
F1.9462
F0.0092
F157.0
tp675
a(S'bvert_11MeV_15tilt_325rot_det7.npy'
p676
F1.7076
F0.01
F15.7907
F0.0439
F1.1043
F0.0072
F148.0
tp677
a(S'bvert_11MeV_15tilt_325rot_det8.npy'
p678
F0.8081
F0.006
F17.1342
F0.0376
F0.4935
F0.0042
F162.0
tp679
a(S'bvert_11MeV_15tilt_325rot_det9.npy'
p680
F0.2633
F0.0038
F15.6226
F0.0402
F0.1533
F0.0022
F160.0
tp681
a(S'bvert_11MeV_15tilt_335rot_det10.npy'
p682
F0.2393
F0.003
F13.7808
F0.042
F0.1388
F0.0018
F172.0
tp683
a(S'bvert_11MeV_15tilt_335rot_det11.npy'
p684
F0.7351
F0.0063
F17.9014
F0.0386
F0.4498
F0.004
F151.0
tp685
a(S'bvert_11MeV_15tilt_335rot_det12.npy'
p686
F1.5535
F0.0089
F16.8687
F0.0442
F1.0129
F0.0063
F154.0
tp687
a(S'bvert_11MeV_15tilt_335rot_det13.npy'
p688
F2.641
F0.0119
F20.1317
F0.066
F1.7876
F0.0092
F156.0
tp689
a(S'bvert_11MeV_15tilt_335rot_det14.npy'
p690
F3.8557
F0.0123
F24.685
F0.1028
F2.6749
F0.01
F117.0
tp691
a(S'bvert_11MeV_15tilt_335rot_det15.npy'
p692
F4.9048
F0.0218
F39.5044
F0.3061
F3.4536
F0.0193
F79.0
tp693
a(S'bvert_11MeV_15tilt_335rot_det4.npy'
p694
F5.2734
F0.0139
F37.7544
F0.2749
F3.623
F0.0122
F84.0
tp695
a(S'bvert_11MeV_15tilt_335rot_det5.npy'
p696
F4.2531
F0.0129
F23.0278
F0.1052
F2.862
F0.0113
F126.0
tp697
a(S'bvert_11MeV_15tilt_335rot_det6.npy'
p698
F2.9675
F0.0141
F17.6114
F0.0651
F1.9619
F0.0112
F132.0
tp699
a(S'bvert_11MeV_15tilt_335rot_det7.npy'
p700
F1.7668
F0.0104
F15.854
F0.0416
F1.1424
F0.0075
F158.0
tp701
a(S'bvert_11MeV_15tilt_335rot_det8.npy'
p702
F0.8242
F0.007
F17.0898
F0.0377
F0.5044
F0.0048
F138.0
tp703
a(S'bvert_11MeV_15tilt_335rot_det9.npy'
p704
F0.2715
F0.0033
F15.6917
F0.0365
F0.1581
F0.002
F157.0
tp705
a(S'bvert_11MeV_15tilt_345rot_det10.npy'
p706
F0.2411
F0.003
F13.7935
F0.0387
F0.1384
F0.0017
F188.0
tp707
a(S'bvert_11MeV_15tilt_345rot_det11.npy'
p708
F0.7036
F0.006
F17.8819
F0.0341
F0.4306
F0.0041
F170.0
tp709
a(S'bvert_11MeV_15tilt_345rot_det12.npy'
p710
F1.5019
F0.0092
F16.8426
F0.0418
F0.976
F0.0066
F158.0
tp711
a(S'bvert_11MeV_15tilt_345rot_det13.npy'
p712
F2.5426
F0.011
F20.0256
F0.0589
F1.7168
F0.0084
F147.0
tp713
a(S'bvert_11MeV_15tilt_345rot_det14.npy'
p714
F3.7241
F0.0136
F24.6726
F0.116
F2.5797
F0.0117
F111.0
tp715
a(S'bvert_11MeV_15tilt_345rot_det15.npy'
p716
F4.7921
F0.0183
F38.9562
F0.3269
F3.3807
F0.0162
F55.0
tp717
a(S'bvert_11MeV_15tilt_345rot_det4.npy'
p718
F5.2649
F0.0152
F38.0675
F0.2922
F3.608
F0.013
F78.0
tp719
a(S'bvert_11MeV_15tilt_345rot_det5.npy'
p720
F4.265
F0.0145
F23.0981
F0.1066
F2.8696
F0.0117
F116.0
tp721
a(S'bvert_11MeV_15tilt_345rot_det6.npy'
p722
F3.0318
F0.0135
F17.5835
F0.0613
F1.9962
F0.0102
F152.0
tp723
a(S'bvert_11MeV_15tilt_345rot_det7.npy'
p724
F1.8238
F0.0099
F15.7968
F0.0414
F1.1622
F0.0071
F169.0
tp725
a(S'bvert_11MeV_15tilt_345rot_det8.npy'
p726
F0.8687
F0.0085
F17.15
F0.0426
F0.5318
F0.0056
F141.0
tp727
a(S'bvert_11MeV_15tilt_345rot_det9.npy'
p728
F0.2835
F0.0039
F15.6493
F0.0372
F0.1654
F0.0023
F166.0
tp729
a(S'bvert_11MeV_15tilt_355rot_det10.npy'
p730
F0.2351
F0.0029
F13.7572
F0.0413
F0.1363
F0.0017
F171.0
tp731
a(S'bvert_11MeV_15tilt_355rot_det11.npy'
p732
F0.6962
F0.0062
F17.7864
F0.0364
F0.4257
F0.0042
F148.0
tp733
a(S'bvert_11MeV_15tilt_355rot_det12.npy'
p734
F1.5041
F0.0089
F16.9231
F0.0434
F0.9752
F0.0064
F166.0
tp735
a(S'bvert_11MeV_15tilt_355rot_det13.npy'
p736
F2.4833
F0.0109
F20.0135
F0.0599
F1.6752
F0.0084
F168.0
tp737
a(S'bvert_11MeV_15tilt_355rot_det14.npy'
p738
F3.5922
F0.0139
F24.4947
F0.1109
F2.4838
F0.0117
F110.0
tp739
a(S'bvert_11MeV_15tilt_355rot_det15.npy'
p740
F4.6743
F0.0154
F39.3811
F0.3006
F3.2819
F0.014
F81.0
tp741
a(S'bvert_11MeV_15tilt_355rot_det4.npy'
p742
F5.1901
F0.0148
F38.2621
F0.2931
F3.6148
F0.0158
F75.0
tp743
a(S'bvert_11MeV_15tilt_355rot_det5.npy'
p744
F4.2495
F0.0123
F23.0083
F0.0943
F2.8716
F0.0108
F142.0
tp745
a(S'bvert_11MeV_15tilt_355rot_det6.npy'
p746
F3.0499
F0.0124
F17.4275
F0.0732
F1.9973
F0.0101
F128.0
tp747
a(S'bvert_11MeV_15tilt_355rot_det7.npy'
p748
F1.8534
F0.0111
F15.7379
F0.042
F1.1767
F0.0081
F154.0
tp749
a(S'bvert_11MeV_15tilt_355rot_det8.npy'
p750
F0.8988
F0.0075
F17.1156
F0.034
F0.5437
F0.0049
F164.0
tp751
a(S'bvert_11MeV_15tilt_355rot_det9.npy'
p752
F0.2939
F0.0037
F15.628
F0.0369
F0.1714
F0.0022
F178.0
tp753
a(S'bvert_11MeV_15tilt_35rot_det10.npy'
p754
F0.2754
F0.0034
F13.6028
F0.0378
F0.1612
F0.002
F173.0
tp755
a(S'bvert_11MeV_15tilt_35rot_det11.npy'
p756
F0.804
F0.0065
F17.8285
F0.0384
F0.4936
F0.0044
F141.0
tp757
a(S'bvert_11MeV_15tilt_35rot_det12.npy'
p758
F1.5974
F0.0084
F16.8828
F0.0414
F1.0336
F0.0061
F188.0
tp759
a(S'bvert_11MeV_15tilt_35rot_det13.npy'
p760
F2.5462
F0.0107
F20.0863
F0.0607
F1.7185
F0.0084
F168.0
tp761
a(S'bvert_11MeV_15tilt_35rot_det14.npy'
p762
F3.5393
F0.0107
F24.7728
F0.1122
F2.4409
F0.0094
F138.0
tp763
a(S'bvert_11MeV_15tilt_35rot_det15.npy'
p764
F4.3705
F0.0137
F38.8032
F0.2926
F3.0648
F0.0119
F73.0
tp765
a(S'bvert_11MeV_15tilt_35rot_det4.npy'
p766
F4.6799
F0.0142
F38.1808
F0.2749
F3.2884
F0.0127
F81.0
tp767
a(S'bvert_11MeV_15tilt_35rot_det5.npy'
p768
F3.8508
F0.0108
F23.0686
F0.0966
F2.6677
F0.0098
F117.0
tp769
a(S'bvert_11MeV_15tilt_35rot_det6.npy'
p770
F2.8095
F0.0108
F17.608
F0.0651
F1.8989
F0.0087
F140.0
tp771
a(S'bvert_11MeV_15tilt_35rot_det7.npy'
p772
F1.7802
F0.0094
F15.8022
F0.0444
F1.1565
F0.0069
F147.0
tp773
a(S'bvert_11MeV_15tilt_35rot_det8.npy'
p774
F0.8958
F0.0071
F17.1626
F0.0348
F0.5509
F0.0047
F172.0
tp775
a(S'bvert_11MeV_15tilt_35rot_det9.npy'
p776
F0.3156
F0.0038
F15.6234
F0.0411
F0.1838
F0.0023
F172.0
tp777
a(S'bvert_11MeV_15tilt_45rot_det10.npy'
p778
F0.2832
F0.0035
F13.683
F0.0363
F0.1658
F0.002
F163.0
tp779
a(S'bvert_11MeV_15tilt_45rot_det11.npy'
p780
F0.8323
F0.0063
F17.7916
F0.0332
F0.508
F0.0041
F180.0
tp781
a(S'bvert_11MeV_15tilt_45rot_det12.npy'
p782
F1.6744
F0.0102
F16.9244
F0.0396
F1.081
F0.0075
F158.0
tp783
a(S'bvert_11MeV_15tilt_45rot_det13.npy'
p784
F2.6464
F0.0091
F20.0263
F0.0553
F1.7775
F0.0078
F162.0
tp785
a(S'bvert_11MeV_15tilt_45rot_det14.npy'
p786
F3.6189
F0.0111
F24.7501
F0.1036
F2.5101
F0.0097
F122.0
tp787
a(S'bvert_11MeV_15tilt_45rot_det15.npy'
p788
F4.4418
F0.014
F39.2529
F0.279
F3.1039
F0.0127
F84.0
tp789
a(S'bvert_11MeV_15tilt_45rot_det4.npy'
p790
F4.5343
F0.0149
F38.4853
F0.3226
F3.2069
F0.0121
F72.0
tp791
a(S'bvert_11MeV_15tilt_45rot_det5.npy'
p792
F3.7189
F0.0128
F23.0056
F0.109
F2.5867
F0.0106
F109.0
tp793
a(S'bvert_11MeV_15tilt_45rot_det6.npy'
p794
F2.7218
F0.0121
F17.5825
F0.0604
F1.8507
F0.0093
F138.0
tp795
a(S'bvert_11MeV_15tilt_45rot_det7.npy'
p796
F1.7008
F0.0092
F15.7563
F0.0369
F1.1083
F0.0064
F183.0
tp797
a(S'bvert_11MeV_15tilt_45rot_det8.npy'
p798
F0.858
F0.007
F17.1026
F0.0381
F0.5277
F0.0048
F152.0
tp799
a(S'bvert_11MeV_15tilt_45rot_det9.npy'
p800
F0.3032
F0.0038
F15.6515
F0.0412
F0.1767
F0.0022
F163.0
tp801
a(S'bvert_11MeV_15tilt_55rot_det10.npy'
p802
F0.2964
F0.0034
F13.6409
F0.0393
F0.172
F0.002
F189.0
tp803
a(S'bvert_11MeV_15tilt_55rot_det11.npy'
p804
F0.8496
F0.0071
F17.7797
F0.044
F0.5152
F0.0046
F137.0
tp805
a(S'bvert_11MeV_15tilt_55rot_det12.npy'
p806
F1.7397
F0.0094
F16.8512
F0.0387
F1.1206
F0.0068
F171.0
tp807
a(S'bvert_11MeV_15tilt_55rot_det13.npy'
p808
F2.7325
F0.0127
F20.068
F0.0656
F1.838
F0.0101
F154.0
tp809
a(S'bvert_11MeV_15tilt_55rot_det14.npy'
p810
F3.7347
F0.0128
F24.761
F0.1025
F2.5776
F0.0102
F129.0
tp811
a(S'bvert_11MeV_15tilt_55rot_det15.npy'
p812
F4.5286
F0.0154
F38.5847
F0.3578
F3.1708
F0.0145
F64.0
tp813
a(S'bvert_11MeV_15tilt_55rot_det4.npy'
p814
F4.4887
F0.0124
F38.7771
F0.3582
F3.1601
F0.012
F61.0
tp815
a(S'bvert_11MeV_15tilt_55rot_det5.npy'
p816
F3.6419
F0.0123
F22.7791
F0.1284
F2.5247
F0.0116
F104.0
tp817
a(S'bvert_11MeV_15tilt_55rot_det6.npy'
p818
F2.6221
F0.0106
F17.495
F0.0607
F1.7832
F0.0087
F151.0
tp819
a(S'bvert_11MeV_15tilt_55rot_det7.npy'
p820
F1.6497
F0.0095
F15.8439
F0.0429
F1.0757
F0.007
F145.0
tp821
a(S'bvert_11MeV_15tilt_55rot_det8.npy'
p822
F0.8339
F0.0067
F17.1879
F0.0338
F0.5144
F0.0045
F179.0
tp823
a(S'bvert_11MeV_15tilt_55rot_det9.npy'
p824
F0.2976
F0.0036
F15.6249
F0.0415
F0.1743
F0.0021
F151.0
tp825
a(S'bvert_11MeV_15tilt_5rot_det10.npy'
p826
F0.2417
F0.0028
F13.6974
F0.0385
F0.1409
F0.0016
F188.0
tp827
a(S'bvert_11MeV_15tilt_5rot_det11.npy'
p828
F0.7206
F0.0054
F17.8502
F0.0302
F0.4399
F0.0036
F183.0
tp829
a(S'bvert_11MeV_15tilt_5rot_det12.npy'
p830
F1.4749
F0.0091
F16.8471
F0.0446
F0.9519
F0.0064
F164.0
tp831
a(S'bvert_11MeV_15tilt_5rot_det13.npy'
p832
F2.4455
F0.0108
F20.0572
F0.0585
F1.6454
F0.0089
F157.0
tp833
a(S'bvert_11MeV_15tilt_5rot_det14.npy'
p834
F3.5364
F0.0136
F24.7332
F0.1039
F2.449
F0.0115
F131.0
tp835
a(S'bvert_11MeV_15tilt_5rot_det15.npy'
p836
F4.5595
F0.0173
F39.5001
F0.3281
F3.2137
F0.016
F56.0
tp837
a(S'bvert_11MeV_15tilt_5rot_det4.npy'
p838
F5.0566
F0.0156
F38.5822
F0.2978
F3.5393
F0.0142
F77.0
tp839
a(S'bvert_11MeV_15tilt_5rot_det5.npy'
p840
F4.139
F0.0127
F23.054
F0.0972
F2.8352
F0.0108
F132.0
tp841
a(S'bvert_11MeV_15tilt_5rot_det6.npy'
p842
F3.0697
F0.0119
F17.6903
F0.0644
F2.0277
F0.0095
F137.0
tp843
a(S'bvert_11MeV_15tilt_5rot_det7.npy'
p844
F1.8998
F0.0105
F15.8599
F0.0466
F1.2063
F0.0077
F160.0
tp845
a(S'bvert_11MeV_15tilt_5rot_det8.npy'
p846
F0.9297
F0.0076
F17.1005
F0.0346
F0.5629
F0.0051
F181.0
tp847
a(S'bvert_11MeV_15tilt_5rot_det9.npy'
p848
F0.3022
F0.004
F15.5625
F0.0393
F0.1751
F0.0023
F158.0
tp849
a(S'bvert_11MeV_15tilt_65rot_det10.npy'
p850
F0.2947
F0.0034
F13.6239
F0.0388
F0.1707
F0.002
F179.0
tp851
a(S'bvert_11MeV_15tilt_65rot_det11.npy'
p852
F0.9001
F0.007
F17.8116
F0.0373
F0.5447
F0.0048
F151.0
tp853
a(S'bvert_11MeV_15tilt_65rot_det12.npy'
p854
F1.7971
F0.0085
F16.7782
F0.0429
F1.1458
F0.0067
F164.0
tp855
a(S'bvert_11MeV_15tilt_65rot_det13.npy'
p856
F2.8352
F0.0107
F20.0307
F0.0505
F1.892
F0.0084
F154.0
tp857
a(S'bvert_11MeV_15tilt_65rot_det14.npy'
p858
F3.8249
F0.014
F24.5732
F0.1165
F2.6271
F0.0113
F121.0
tp859
a(S'bvert_11MeV_15tilt_65rot_det15.npy'
p860
F4.6922
F0.0124
F38.9014
F0.2529
F3.2794
F0.0126
F88.0
tp861
a(S'bvert_11MeV_15tilt_65rot_det4.npy'
p862
F4.4186
F0.0148
F37.8097
F0.3077
F3.0929
F0.0109
F73.0
tp863
a(S'bvert_11MeV_15tilt_65rot_det5.npy'
p864
F3.5279
F0.0117
F22.9471
F0.1071
F2.44
F0.0096
F142.0
tp865
a(S'bvert_11MeV_15tilt_65rot_det6.npy'
p866
F2.5332
F0.0104
F17.4212
F0.0576
F1.7067
F0.0078
F169.0
tp867
a(S'bvert_11MeV_15tilt_65rot_det7.npy'
p868
F1.5859
F0.0091
F15.8861
F0.0457
F1.0381
F0.0068
F147.0
tp869
a(S'bvert_11MeV_15tilt_65rot_det8.npy'
p870
F0.8007
F0.006
F17.2158
F0.0333
F0.4933
F0.0042
F149.0
tp871
a(S'bvert_11MeV_15tilt_65rot_det9.npy'
p872
F0.2803
F0.0032
F15.7275
F0.0353
F0.1643
F0.002
F178.0
tp873
a(S'bvert_11MeV_15tilt_75rot_det10.npy'
p874
F0.3027
F0.0039
F13.6224
F0.04
F0.1762
F0.0023
F163.0
tp875
a(S'bvert_11MeV_15tilt_75rot_det11.npy'
p876
F0.9148
F0.007
F17.8589
F0.0357
F0.552
F0.0047
F154.0
tp877
a(S'bvert_11MeV_15tilt_75rot_det12.npy'
p878
F1.866
F0.0112
F16.824
F0.0447
F1.1856
F0.0077
F144.0
tp879
a(S'bvert_11MeV_15tilt_75rot_det13.npy'
p880
F2.9123
F0.0109
F20.0104
F0.0571
F1.9309
F0.0089
F160.0
tp881
a(S'bvert_11MeV_15tilt_75rot_det14.npy'
p882
F3.9793
F0.0121
F24.7087
F0.1286
F2.7201
F0.0102
F121.0
tp883
a(S'bvert_11MeV_15tilt_75rot_det15.npy'
p884
F4.8419
F0.0126
F39.5602
F0.2675
F3.3779
F0.0123
F77.0
tp885
a(S'bvert_11MeV_15tilt_75rot_det4.npy'
p886
F4.4328
F0.0131
F38.7957
F0.2748
F3.1057
F0.0112
F69.0
tp887
a(S'bvert_11MeV_15tilt_75rot_det5.npy'
p888
F3.4876
F0.0122
F22.8935
F0.1083
F2.4144
F0.0105
F117.0
tp889
a(S'bvert_11MeV_15tilt_75rot_det6.npy'
p890
F2.496
F0.0107
F17.6033
F0.0597
F1.6893
F0.0081
F170.0
tp891
a(S'bvert_11MeV_15tilt_75rot_det7.npy'
p892
F1.5307
F0.0094
F15.7725
F0.0424
F0.9935
F0.0068
F169.0
tp893
a(S'bvert_11MeV_15tilt_75rot_det8.npy'
p894
F0.7615
F0.0065
F17.1786
F0.0358
F0.4695
F0.0046
F153.0
tp895
a(S'bvert_11MeV_15tilt_75rot_det9.npy'
p896
F0.2664
F0.0033
F15.6616
F0.0399
F0.1563
F0.0019
F162.0
tp897
a(S'bvert_11MeV_15tilt_85rot_det10.npy'
p898
F0.2924
F0.0037
F13.6949
F0.0367
F0.1708
F0.0021
F188.0
tp899
a(S'bvert_11MeV_15tilt_85rot_det11.npy'
p900
F0.8947
F0.0078
F17.7965
F0.0362
F0.5404
F0.0052
F159.0
tp901
a(S'bvert_11MeV_15tilt_85rot_det12.npy'
p902
F1.8588
F0.0105
F16.8783
F0.0414
F1.1824
F0.0076
F141.0
tp903
a(S'bvert_11MeV_15tilt_85rot_det13.npy'
p904
F3.0288
F0.011
F20.153
F0.0645
F1.9988
F0.0091
F148.0
tp905
a(S'bvert_11MeV_15tilt_85rot_det14.npy'
p906
F4.0936
F0.013
F24.4478
F0.0977
F2.7737
F0.0102
F130.0
tp907
a(S'bvert_11MeV_15tilt_85rot_det15.npy'
p908
F4.9791
F0.0143
F40.0622
F0.3044
F3.4554
F0.0141
F72.0
tp909
a(S'bvert_11MeV_15tilt_85rot_det4.npy'
p910
F4.4524
F0.0141
F37.2809
F0.3028
F3.1156
F0.0113
F76.0
tp911
a(S'bvert_11MeV_15tilt_85rot_det5.npy'
p912
F3.504
F0.0136
F23.1153
F0.1076
F2.4146
F0.0121
F116.0
tp913
a(S'bvert_11MeV_15tilt_85rot_det6.npy'
p914
F2.4531
F0.0106
F17.6322
F0.0619
F1.6481
F0.0081
F159.0
tp915
a(S'bvert_11MeV_15tilt_85rot_det7.npy'
p916
F1.4893
F0.0086
F15.8078
F0.0406
F0.966
F0.0061
F158.0
tp917
a(S'bvert_11MeV_15tilt_85rot_det8.npy'
p918
F0.7299
F0.0068
F17.1612
F0.0375
F0.4503
F0.0048
F129.0
tp919
a(S'bvert_11MeV_15tilt_85rot_det9.npy'
p920
F0.2566
F0.003
F15.716
F0.0395
F0.1501
F0.0017
F164.0
tp921
a(S'bvert_11MeV_15tilt_95rot_det10.npy'
p922
F0.2944
F0.0042
F13.8043
F0.0363
F0.1719
F0.0024
F153.0
tp923
a(S'bvert_11MeV_15tilt_95rot_det11.npy'
p924
F0.8831
F0.0071
F17.874
F0.0374
F0.5401
F0.0046
F154.0
tp925
a(S'bvert_11MeV_15tilt_95rot_det12.npy'
p926
F1.8447
F0.0111
F16.835
F0.0422
F1.1738
F0.0076
F164.0
tp927
a(S'bvert_11MeV_15tilt_95rot_det13.npy'
p928
F3.0174
F0.0121
F19.9724
F0.064
F1.9737
F0.0092
F160.0
tp929
a(S'bvert_11MeV_15tilt_95rot_det14.npy'
p930
F4.1826
F0.0125
F24.4029
F0.1021
F2.8188
F0.0103
F140.0
tp931
a(S'bvert_11MeV_15tilt_95rot_det15.npy'
p932
F5.0986
F0.0136
F39.1684
F0.2846
F3.5281
F0.013
F81.0
tp933
a(S'bvert_11MeV_15tilt_95rot_det4.npy'
p934
F4.5589
F0.015
F37.9042
F0.257
F3.1938
F0.0137
F88.0
tp935
a(S'bvert_11MeV_15tilt_95rot_det5.npy'
p936
F3.5527
F0.0128
F22.9487
F0.1052
F2.4502
F0.0104
F122.0
tp937
a(S'bvert_11MeV_15tilt_95rot_det6.npy'
p938
F2.4639
F0.0107
F17.6062
F0.0613
F1.657
F0.0086
F136.0
tp939
a(S'bvert_11MeV_15tilt_95rot_det7.npy'
p940
F1.4586
F0.009
F15.7699
F0.0479
F0.9427
F0.0066
F147.0
tp941
a(S'bvert_11MeV_15tilt_95rot_det8.npy'
p942
F0.7134
F0.006
F17.2227
F0.0364
F0.4365
F0.004
F162.0
tp943
a(S'bvert_11MeV_15tilt_95rot_det9.npy'
p944
F0.2458
F0.003
F15.6995
F0.0394
F0.1433
F0.0018
F147.0
tp945
a(S'bvert_11MeV_30tilt_105rot_det10.npy'
p946
F0.2749
F0.0037
F13.6949
F0.0404
F0.1597
F0.002
F146.0
tp947
a(S'bvert_11MeV_30tilt_105rot_det11.npy'
p948
F0.8591
F0.0072
F17.7823
F0.0348
F0.5273
F0.0047
F165.0
tp949
a(S'bvert_11MeV_30tilt_105rot_det12.npy'
p950
F1.7979
F0.011
F16.756
F0.0475
F1.1583
F0.0078
F170.0
tp951
a(S'bvert_11MeV_30tilt_105rot_det13.npy'
p952
F3.0156
F0.0124
F19.9755
F0.0621
F1.9883
F0.0097
F162.0
tp953
a(S'bvert_11MeV_30tilt_105rot_det14.npy'
p954
F4.2371
F0.0133
F24.5365
F0.1021
F2.8579
F0.0107
F144.0
tp955
a(S'bvert_11MeV_30tilt_105rot_det15.npy'
p956
F5.2598
F0.0198
F39.3744
F0.3232
F3.5853
F0.0147
F80.0
tp957
a(S'bvert_11MeV_30tilt_105rot_det4.npy'
p958
F4.7826
F0.0177
F38.1924
F0.2739
F3.339
F0.0143
F79.0
tp959
a(S'bvert_11MeV_30tilt_105rot_det5.npy'
p960
F3.7614
F0.0123
F22.9336
F0.1039
F2.6048
F0.0111
F117.0
tp961
a(S'bvert_11MeV_30tilt_105rot_det6.npy'
p962
F2.6078
F0.0097
F17.6977
F0.0562
F1.7542
F0.0077
F160.0
tp963
a(S'bvert_11MeV_30tilt_105rot_det7.npy'
p964
F1.5671
F0.008
F15.8917
F0.0408
F1.013
F0.0063
F175.0
tp965
a(S'bvert_11MeV_30tilt_105rot_det8.npy'
p966
F0.7581
F0.0065
F17.2365
F0.0363
F0.4656
F0.0044
F158.0
tp967
a(S'bvert_11MeV_30tilt_105rot_det9.npy'
p968
F0.2654
F0.0035
F15.7624
F0.0415
F0.1538
F0.0021
F146.0
tp969
a(S'bvert_11MeV_30tilt_115rot_det10.npy'
p970
F0.2671
F0.003
F13.7714
F0.0357
F0.156
F0.0018
F184.0
tp971
a(S'bvert_11MeV_30tilt_115rot_det11.npy'
p972
F0.8392
F0.0075
F17.8632
F0.0349
F0.517
F0.005
F161.0
tp973
a(S'bvert_11MeV_30tilt_115rot_det12.npy'
p974
F1.7562
F0.0105
F16.7822
F0.0475
F1.1355
F0.0076
F142.0
tp975
a(S'bvert_11MeV_30tilt_115rot_det13.npy'
p976
F2.9454
F0.0125
F20.0564
F0.0602
F1.9652
F0.0096
F169.0
tp977
a(S'bvert_11MeV_30tilt_115rot_det14.npy'
p978
F4.1536
F0.0137
F24.4111
F0.1136
F2.8114
F0.0107
F120.0
tp979
a(S'bvert_11MeV_30tilt_115rot_det15.npy'
p980
F5.2777
F0.0164
F39.3842
F0.3064
F3.6021
F0.0155
F73.0
tp981
a(S'bvert_11MeV_30tilt_115rot_det4.npy'
p982
F4.9017
F0.014
F37.7806
F0.2439
F3.4191
F0.0131
F76.0
tp983
a(S'bvert_11MeV_30tilt_115rot_det5.npy'
p984
F3.845
F0.0135
F23.047
F0.1151
F2.6436
F0.0116
F123.0
tp985
a(S'bvert_11MeV_30tilt_115rot_det6.npy'
p986
F2.6385
F0.0104
F17.6174
F0.0558
F1.7798
F0.0078
F172.0
tp987
a(S'bvert_11MeV_30tilt_115rot_det7.npy'
p988
F1.5747
F0.0093
F15.7747
F0.0452
F1.0175
F0.0064
F142.0
tp989
a(S'bvert_11MeV_30tilt_115rot_det8.npy'
p990
F0.7644
F0.0065
F17.2545
F0.0352
F0.469
F0.0042
F159.0
tp991
a(S'bvert_11MeV_30tilt_115rot_det9.npy'
p992
F0.26
F0.003
F15.7757
F0.0377
F0.1508
F0.0018
F179.0
tp993
a(S'bvert_11MeV_30tilt_125rot_det10.npy'
p994
F0.257
F0.0032
F13.7474
F0.0377
F0.1491
F0.0019
F164.0
tp995
a(S'bvert_11MeV_30tilt_125rot_det11.npy'
p996
F0.8001
F0.0071
F17.8438
F0.035
F0.4932
F0.0046
F157.0
tp997
a(S'bvert_11MeV_30tilt_125rot_det12.npy'
p998
F1.7122
F0.0101
F16.89
F0.0452
F1.1122
F0.0073
F170.0
tp999
a(S'bvert_11MeV_30tilt_125rot_det13.npy'
p1000
F2.8998
F0.0121
F19.9061
F0.0606
F1.9443
F0.0091
F161.0
tp1001
a(S'bvert_11MeV_30tilt_125rot_det14.npy'
p1002
F4.1225
F0.0128
F24.4956
F0.0962
F2.8153
F0.0112
F142.0
tp1003
a(S'bvert_11MeV_30tilt_125rot_det15.npy'
p1004
F5.2447
F0.0184
F39.294
F0.3236
F3.5916
F0.0172
F70.0
tp1005
a(S'bvert_11MeV_30tilt_125rot_det4.npy'
p1006
F5.0587
F0.0152
F37.9749
F0.2559
F3.5015
F0.0142
F85.0
tp1007
a(S'bvert_11MeV_30tilt_125rot_det5.npy'
p1008
F3.9238
F0.0136
F22.7126
F0.1112
F2.6976
F0.0123
F115.0
tp1009
a(S'bvert_11MeV_30tilt_125rot_det6.npy'
p1010
F2.7288
F0.0117
F17.6597
F0.0587
F1.8379
F0.009
F160.0
tp1011
a(S'bvert_11MeV_30tilt_125rot_det7.npy'
p1012
F1.6046
F0.0098
F15.8392
F0.0416
F1.0433
F0.007
F170.0
tp1013
a(S'bvert_11MeV_30tilt_125rot_det8.npy'
p1014
F0.7717
F0.0061
F17.2262
F0.0364
F0.4722
F0.004
F185.0
tp1015
a(S'bvert_11MeV_30tilt_125rot_det9.npy'
p1016
F0.2603
F0.0031
F15.7688
F0.0369
F0.1518
F0.0019
F173.0
tp1017
a(S'bvert_11MeV_30tilt_135rot_det10.npy'
p1018
F0.2553
F0.0035
F13.818
F0.0456
F0.1482
F0.0021
F138.0
tp1019
a(S'bvert_11MeV_30tilt_135rot_det11.npy'
p1020
F0.7831
F0.0068
F17.8258
F0.0362
F0.4804
F0.0045
F150.0
tp1021
a(S'bvert_11MeV_30tilt_135rot_det12.npy'
p1022
F1.693
F0.0105
F16.8993
F0.0432
F1.1024
F0.0075
F146.0
tp1023
a(S'bvert_11MeV_30tilt_135rot_det13.npy'
p1024
F2.7978
F0.0133
F19.9364
F0.067
F1.8837
F0.0098
F150.0
tp1025
a(S'bvert_11MeV_30tilt_135rot_det14.npy'
p1026
F4.0478
F0.0138
F24.4052
F0.102
F2.7789
F0.0111
F139.0
tp1027
a(S'bvert_11MeV_30tilt_135rot_det15.npy'
p1028
F5.1365
F0.0179
F38.9958
F0.3354
F3.5536
F0.0169
F66.0
tp1029
a(S'bvert_11MeV_30tilt_135rot_det4.npy'
p1030
F5.1509
F0.016
F37.7514
F0.3287
F3.5491
F0.0146
F63.0
tp1031
a(S'bvert_11MeV_30tilt_135rot_det5.npy'
p1032
F4.0412
F0.0135
F22.8018
F0.107
F2.7606
F0.0113
F117.0
tp1033
a(S'bvert_11MeV_30tilt_135rot_det6.npy'
p1034
F2.8081
F0.0128
F17.6334
F0.069
F1.8847
F0.0097
F141.0
tp1035
a(S'bvert_11MeV_30tilt_135rot_det7.npy'
p1036
F1.6487
F0.0105
F15.8136
F0.0404
F1.0599
F0.0074
F154.0
tp1037
a(S'bvert_11MeV_30tilt_135rot_det8.npy'
p1038
F0.7848
F0.0069
F17.2453
F0.0345
F0.4801
F0.0045
F156.0
tp1039
a(S'bvert_11MeV_30tilt_135rot_det9.npy'
p1040
F0.2664
F0.0033
F15.7386
F0.0375
F0.1548
F0.0019
F159.0
tp1041
a(S'bvert_11MeV_30tilt_145rot_det10.npy'
p1042
F0.2488
F0.0034
F13.7988
F0.0386
F0.1437
F0.002
F158.0
tp1043
a(S'bvert_11MeV_30tilt_145rot_det11.npy'
p1044
F0.753
F0.0076
F17.8035
F0.0382
F0.4616
F0.0052
F127.0
tp1045
a(S'bvert_11MeV_30tilt_145rot_det12.npy'
p1046
F1.6324
F0.0091
F16.9143
F0.0415
F1.0632
F0.0066
F176.0
tp1047
a(S'bvert_11MeV_30tilt_145rot_det13.npy'
p1048
F2.7434
F0.0127
F20.1974
F0.0619
F1.8603
F0.0093
F163.0
tp1049
a(S'bvert_11MeV_30tilt_145rot_det14.npy'
p1050
F3.9618
F0.0152
F24.7448
F0.1098
F2.7301
F0.0121
F121.0
tp1051
a(S'bvert_11MeV_30tilt_145rot_det15.npy'
p1052
F5.0664
F0.0197
F39.2049
F0.334
F3.5236
F0.0185
F66.0
tp1053
a(S'bvert_11MeV_30tilt_145rot_det4.npy'
p1054
F5.2311
F0.0185
F38.3171
F0.3084
F3.5793
F0.0149
F74.0
tp1055
a(S'bvert_11MeV_30tilt_145rot_det5.npy'
p1056
F4.1065
F0.0134
F22.6691
F0.1179
F2.7752
F0.0117
F111.0
tp1057
a(S'bvert_11MeV_30tilt_145rot_det6.npy'
p1058
F2.868
F0.0151
F17.5417
F0.0677
F1.9134
F0.0109
F143.0
tp1059
a(S'bvert_11MeV_30tilt_145rot_det7.npy'
p1060
F1.6821
F0.0103
F15.7832
F0.052
F1.0856
F0.0074
F144.0
tp1061
a(S'bvert_11MeV_30tilt_145rot_det8.npy'
p1062
F0.8068
F0.0068
F17.1986
F0.0357
F0.4947
F0.0048
F149.0
tp1063
a(S'bvert_11MeV_30tilt_145rot_det9.npy'
p1064
F0.2637
F0.0039
F15.6984
F0.0411
F0.1528
F0.0022
F144.0
tp1065
a(S'bvert_11MeV_30tilt_15rot_det10.npy'
p1066
F0.2717
F0.0033
F13.6853
F0.0399
F0.1575
F0.0019
F172.0
tp1067
a(S'bvert_11MeV_30tilt_15rot_det11.npy'
p1068
F0.7756
F0.0064
F17.8519
F0.0385
F0.4745
F0.0041
F153.0
tp1069
a(S'bvert_11MeV_30tilt_15rot_det12.npy'
p1070
F1.5856
F0.0094
F16.8623
F0.0425
F1.0276
F0.007
F164.0
tp1071
a(S'bvert_11MeV_30tilt_15rot_det13.npy'
p1072
F2.5916
F0.011
F20.1602
F0.0596
F1.7439
F0.0088
F165.0
tp1073
a(S'bvert_11MeV_30tilt_15rot_det14.npy'
p1074
F3.6824
F0.0143
F25.0063
F0.1164
F2.5451
F0.0116
F103.0
tp1075
a(S'bvert_11MeV_30tilt_15rot_det15.npy'
p1076
F4.611
F0.0153
F39.5548
F0.3544
F3.2512
F0.0152
F58.0
tp1077
a(S'bvert_11MeV_30tilt_15rot_det4.npy'
p1078
F4.9783
F0.0161
F37.8832
F0.2911
F3.4936
F0.0158
F62.0
tp1079
a(S'bvert_11MeV_30tilt_15rot_det5.npy'
p1080
F4.0648
F0.0154
F22.8964
F0.1144
F2.8001
F0.0122
F111.0
tp1081
a(S'bvert_11MeV_30tilt_15rot_det6.npy'
p1082
F2.9868
F0.0136
F17.5094
F0.0646
F1.9858
F0.0104
F150.0
tp1083
a(S'bvert_11MeV_30tilt_15rot_det7.npy'
p1084
F1.8442
F0.0109
F15.6578
F0.0529
F1.1769
F0.0079
F138.0
tp1085
a(S'bvert_11MeV_30tilt_15rot_det8.npy'
p1086
F0.9161
F0.0078
F17.051
F0.0395
F0.5536
F0.0051
F141.0
tp1087
a(S'bvert_11MeV_30tilt_15rot_det9.npy'
p1088
F0.306
F0.0039
F15.4537
F0.0368
F0.176
F0.0022
F156.0
tp1089
a(S'bvert_11MeV_30tilt_25rot_det10.npy'
p1090
F0.2857
F0.0039
F13.6911
F0.0459
F0.1661
F0.0022
F151.0
tp1091
a(S'bvert_11MeV_30tilt_25rot_det11.npy'
p1092
F0.8023
F0.007
F17.8404
F0.0367
F0.4912
F0.0045
F149.0
tp1093
a(S'bvert_11MeV_30tilt_25rot_det12.npy'
p1094
F1.626
F0.0091
F16.8838
F0.0442
F1.0558
F0.0062
F163.0
tp1095
a(S'bvert_11MeV_30tilt_25rot_det13.npy'
p1096
F2.6193
F0.011
F20.1562
F0.0597
F1.7667
F0.0086
F156.0
tp1097
a(S'bvert_11MeV_30tilt_25rot_det14.npy'
p1098
F3.6591
F0.0136
F24.9564
F0.1227
F2.5341
F0.0112
F117.0
tp1099
a(S'bvert_11MeV_30tilt_25rot_det15.npy'
p1100
F4.5565
F0.0151
F39.6798
F0.3442
F3.208
F0.013
F64.0
tp1101
a(S'bvert_11MeV_30tilt_25rot_det4.npy'
p1102
F4.8577
F0.0136
F38.1009
F0.303
F3.4273
F0.0151
F65.0
tp1103
a(S'bvert_11MeV_30tilt_25rot_det5.npy'
p1104
F3.9888
F0.0112
F22.8226
F0.1023
F2.7531
F0.0094
F141.0
tp1105
a(S'bvert_11MeV_30tilt_25rot_det6.npy'
p1106
F2.9224
F0.0108
F17.6476
F0.0629
F1.9599
F0.009
F134.0
tp1107
a(S'bvert_11MeV_30tilt_25rot_det7.npy'
p1108
F1.8289
F0.0111
F15.7665
F0.0435
F1.1751
F0.0083
F146.0
tp1109
a(S'bvert_11MeV_30tilt_25rot_det8.npy'
p1110
F0.9133
F0.0071
F17.0731
F0.0373
F0.5547
F0.0047
F168.0
tp1111
a(S'bvert_11MeV_30tilt_25rot_det9.npy'
p1112
F0.3106
F0.004
F15.5409
F0.0405
F0.1798
F0.0023
F141.0
tp1113
a(S'bvert_11MeV_30tilt_315rot_det10.npy'
p1114
F0.2774
F0.0036
F13.7819
F0.0467
F0.1612
F0.0022
F136.0
tp1115
a(S'bvert_11MeV_30tilt_315rot_det11.npy'
p1116
F0.8047
F0.0072
F17.873
F0.0364
F0.4958
F0.0049
F147.0
tp1117
a(S'bvert_11MeV_30tilt_315rot_det12.npy'
p1118
F1.7332
F0.0089
F16.9799
F0.0404
F1.1285
F0.0066
F181.0
tp1119
a(S'bvert_11MeV_30tilt_315rot_det13.npy'
p1120
F2.8581
F0.0128
F20.2625
F0.0587
F1.9314
F0.0098
F169.0
tp1121
a(S'bvert_11MeV_30tilt_315rot_det14.npy'
p1122
F4.1385
F0.0144
F25.1925
F0.1094
F2.8447
F0.0125
F128.0
tp1123
a(S'bvert_11MeV_30tilt_315rot_det15.npy'
p1124
F5.2361
F0.018
F41.0592
F0.3236
F3.6202
F0.0163
F67.0
tp1125
a(S'bvert_11MeV_30tilt_315rot_det4.npy'
p1126
F5.1834
F0.0181
F38.2285
F0.329
F3.5871
F0.0137
F67.0
tp1127
a(S'bvert_11MeV_30tilt_315rot_det5.npy'
p1128
F4.0874
F0.0147
F22.9755
F0.1113
F2.7962
F0.0121
F107.0
tp1129
a(S'bvert_11MeV_30tilt_315rot_det6.npy'
p1130
F2.7424
F0.0147
F17.4157
F0.0606
F1.8371
F0.0111
F158.0
tp1131
a(S'bvert_11MeV_30tilt_315rot_det7.npy'
p1132
F1.6464
F0.0094
F15.6943
F0.0377
F1.0627
F0.0068
F170.0
tp1133
a(S'bvert_11MeV_30tilt_315rot_det8.npy'
p1134
F0.7625
F0.0066
F17.0464
F0.0335
F0.4655
F0.0044
F152.0
tp1135
a(S'bvert_11MeV_30tilt_315rot_det9.npy'
p1136
F0.2433
F0.003
F15.6479
F0.0375
F0.141
F0.0018
F183.0
tp1137
a(S'bvert_11MeV_30tilt_325rot_det10.npy'
p1138
F0.2707
F0.0032
F13.7913
F0.0385
F0.1561
F0.0019
F172.0
tp1139
a(S'bvert_11MeV_30tilt_325rot_det11.npy'
p1140
F0.8028
F0.0069
F17.9592
F0.0371
F0.4964
F0.0046
F143.0
tp1141
a(S'bvert_11MeV_30tilt_325rot_det12.npy'
p1142
F1.7018
F0.0089
F17.0059
F0.0422
F1.1059
F0.0063
F173.0
tp1143
a(S'bvert_11MeV_30tilt_325rot_det13.npy'
p1144
F2.8233
F0.011
F20.2886
F0.0572
F1.9088
F0.0085
F164.0
tp1145
a(S'bvert_11MeV_30tilt_325rot_det14.npy'
p1146
F4.0614
F0.0138
F25.2368
F0.1083
F2.7983
F0.0118
F113.0
tp1147
a(S'bvert_11MeV_30tilt_325rot_det15.npy'
p1148
F5.146
F0.0169
F40.3563
F0.2958
F3.5983
F0.0149
F68.0
tp1149
a(S'bvert_11MeV_30tilt_325rot_det4.npy'
p1150
F5.2283
F0.0154
F37.3874
F0.2796
F3.5804
F0.0132
F81.0
tp1151
a(S'bvert_11MeV_30tilt_325rot_det5.npy'
p1152
F4.1647
F0.0138
F22.7435
F0.1103
F2.83
F0.0115
F112.0
tp1153
a(S'bvert_11MeV_30tilt_325rot_det6.npy'
p1154
F2.8621
F0.0132
F17.452
F0.0551
F1.9061
F0.0092
F166.0
tp1155
a(S'bvert_11MeV_30tilt_325rot_det7.npy'
p1156
F1.6743
F0.01
F15.6435
F0.0413
F1.0784
F0.0071
F171.0
tp1157
a(S'bvert_11MeV_30tilt_325rot_det8.npy'
p1158
F0.7929
F0.0067
F17.0019
F0.0374
F0.4864
F0.0042
F144.0
tp1159
a(S'bvert_11MeV_30tilt_325rot_det9.npy'
p1160
F0.2512
F0.003
F15.6413
F0.0357
F0.1464
F0.0018
F186.0
tp1161
a(S'bvert_11MeV_30tilt_335rot_det10.npy'
p1162
F0.2626
F0.0031
F13.8082
F0.0385
F0.1508
F0.0018
F178.0
tp1163
a(S'bvert_11MeV_30tilt_335rot_det11.npy'
p1164
F0.7932
F0.0059
F18.006
F0.035
F0.4879
F0.0039
F187.0
tp1165
a(S'bvert_11MeV_30tilt_335rot_det12.npy'
p1166
F1.6366
F0.0096
F16.9475
F0.0388
F1.0647
F0.007
F180.0
tp1167
a(S'bvert_11MeV_30tilt_335rot_det13.npy'
p1168
F2.7337
F0.0144
F20.1752
F0.067
F1.8467
F0.0112
F141.0
tp1169
a(S'bvert_11MeV_30tilt_335rot_det14.npy'
p1170
F3.9473
F0.0125
F25.2042
F0.0959
F2.7261
F0.0104
F140.0
tp1171
a(S'bvert_11MeV_30tilt_335rot_det15.npy'
p1172
F5.0197
F0.0184
F40.1315
F0.3039
F3.5185
F0.0164
F64.0
tp1173
a(S'bvert_11MeV_30tilt_335rot_det4.npy'
p1174
F5.2815
F0.017
F37.5359
F0.2941
F3.6102
F0.0136
F72.0
tp1175
a(S'bvert_11MeV_30tilt_335rot_det5.npy'
p1176
F4.2362
F0.0123
F22.7765
F0.1025
F2.8511
F0.0106
F140.0
tp1177
a(S'bvert_11MeV_30tilt_335rot_det6.npy'
p1178
F2.9313
F0.0135
F17.3551
F0.056
F1.9384
F0.0099
F175.0
tp1179
a(S'bvert_11MeV_30tilt_335rot_det7.npy'
p1180
F1.7548
F0.0099
F15.6703
F0.0395
F1.1258
F0.007
F192.0
tp1181
a(S'bvert_11MeV_30tilt_335rot_det8.npy'
p1182
F0.8241
F0.007
F17.0811
F0.0325
F0.504
F0.0047
F186.0
tp1183
a(S'bvert_11MeV_30tilt_335rot_det9.npy'
p1184
F0.2621
F0.0035
F15.5016
F0.036
F0.1523
F0.0021
F172.0
tp1185
a(S'bvert_11MeV_30tilt_345rot_det10.npy'
p1186
F0.2599
F0.0031
F13.7013
F0.0409
F0.1491
F0.0018
F162.0
tp1187
a(S'bvert_11MeV_30tilt_345rot_det11.npy'
p1188
F0.7652
F0.0066
F17.8932
F0.0364
F0.4688
F0.0044
F157.0
tp1189
a(S'bvert_11MeV_30tilt_345rot_det12.npy'
p1190
F1.6096
F0.0094
F17.0017
F0.0476
F1.0444
F0.0069
F175.0
tp1191
a(S'bvert_11MeV_30tilt_345rot_det13.npy'
p1192
F2.6704
F0.0119
F20.1997
F0.0559
F1.8107
F0.0094
F147.0
tp1193
a(S'bvert_11MeV_30tilt_345rot_det14.npy'
p1194
F3.8671
F0.0112
F25.3074
F0.0986
F2.686
F0.01
F140.0
tp1195
a(S'bvert_11MeV_30tilt_345rot_det15.npy'
p1196
F4.9294
F0.0156
F40.249
F0.3273
F3.4646
F0.0153
F59.0
tp1197
a(S'bvert_11MeV_30tilt_345rot_det4.npy'
p1198
F5.2626
F0.0148
F38.1713
F0.2732
F3.6108
F0.0153
F79.0
tp1199
a(S'bvert_11MeV_30tilt_345rot_det5.npy'
p1200
F4.2482
F0.0133
F22.5193
F0.1026
F2.8628
F0.0115
F129.0
tp1201
a(S'bvert_11MeV_30tilt_345rot_det6.npy'
p1202
F3.0353
F0.0124
F17.4714
F0.0523
F2.002
F0.0092
F152.0
tp1203
a(S'bvert_11MeV_30tilt_345rot_det7.npy'
p1204
F1.8118
F0.0107
F15.6918
F0.0392
F1.1531
F0.0077
F182.0
tp1205
a(S'bvert_11MeV_30tilt_345rot_det8.npy'
p1206
F0.8586
F0.0073
F17.1168
F0.0359
F0.5198
F0.0048
F154.0
tp1207
a(S'bvert_11MeV_30tilt_345rot_det9.npy'
p1208
F0.2736
F0.0035
F15.5573
F0.0401
F0.1592
F0.0021
F174.0
tp1209
a(S'bvert_11MeV_30tilt_355rot_det10.npy'
p1210
F0.2688
F0.0036
F13.7996
F0.0432
F0.1562
F0.0021
F162.0
tp1211
a(S'bvert_11MeV_30tilt_355rot_det11.npy'
p1212
F0.756
F0.0065
F17.8979
F0.0345
F0.464
F0.0044
F169.0
tp1213
a(S'bvert_11MeV_30tilt_355rot_det12.npy'
p1214
F1.5781
F0.0091
F16.9698
F0.045
F1.0233
F0.0065
F175.0
tp1215
a(S'bvert_11MeV_30tilt_355rot_det13.npy'
p1216
F2.6365
F0.0117
F20.2238
F0.0549
F1.7835
F0.0095
F161.0
tp1217
a(S'bvert_11MeV_30tilt_355rot_det14.npy'
p1218
F3.7477
F0.0117
F24.885
F0.1098
F2.5983
F0.0095
F139.0
tp1219
a(S'bvert_11MeV_30tilt_355rot_det15.npy'
p1220
F4.7966
F0.0158
F39.934
F0.2614
F3.3658
F0.0155
F72.0
tp1221
a(S'bvert_11MeV_30tilt_355rot_det4.npy'
p1222
F5.1698
F0.0155
F38.1451
F0.2555
F3.5768
F0.0137
F89.0
tp1223
a(S'bvert_11MeV_30tilt_355rot_det5.npy'
p1224
F4.2275
F0.013
F22.7509
F0.1209
F2.8557
F0.0114
F127.0
tp1225
a(S'bvert_11MeV_30tilt_355rot_det6.npy'
p1226
F3.0525
F0.0142
F17.4574
F0.0673
F2.0055
F0.0111
F141.0
tp1227
a(S'bvert_11MeV_30tilt_355rot_det7.npy'
p1228
F1.8535
F0.012
F15.6478
F0.0429
F1.1736
F0.0081
F161.0
tp1229
a(S'bvert_11MeV_30tilt_355rot_det8.npy'
p1230
F0.8901
F0.0076
F17.0301
F0.0356
F0.5391
F0.0048
F162.0
tp1231
a(S'bvert_11MeV_30tilt_355rot_det9.npy'
p1232
F0.289
F0.0035
F15.5007
F0.0373
F0.1683
F0.0021
F156.0
tp1233
a(S'bvert_11MeV_30tilt_35rot_det10.npy'
p1234
F0.2913
F0.0034
F13.612
F0.0409
F0.1689
F0.0021
F148.0
tp1235
a(S'bvert_11MeV_30tilt_35rot_det11.npy'
p1236
F0.835
F0.0064
F17.7966
F0.0356
F0.5119
F0.0043
F158.0
tp1237
a(S'bvert_11MeV_30tilt_35rot_det12.npy'
p1238
F1.648
F0.0105
F16.8569
F0.0438
F1.0654
F0.0078
F158.0
tp1239
a(S'bvert_11MeV_30tilt_35rot_det13.npy'
p1240
F2.6681
F0.0104
F20.0623
F0.0581
F1.7935
F0.0083
F158.0
tp1241
a(S'bvert_11MeV_30tilt_35rot_det14.npy'
p1242
F3.6702
F0.0133
F24.8501
F0.1274
F2.5308
F0.0116
F108.0
tp1243
a(S'bvert_11MeV_30tilt_35rot_det15.npy'
p1244
F4.5823
F0.0122
F38.9931
F0.2952
F3.2093
F0.0119
F63.0
tp1245
a(S'bvert_11MeV_30tilt_35rot_det4.npy'
p1246
F4.7873
F0.0129
F38.6268
F0.2825
F3.3823
F0.0132
F60.0
tp1247
a(S'bvert_11MeV_30tilt_35rot_det5.npy'
p1248
F3.9232
F0.0125
F22.8932
F0.1099
F2.7226
F0.0111
F111.0
tp1249
a(S'bvert_11MeV_30tilt_35rot_det6.npy'
p1250
F2.8458
F0.0111
F17.5357
F0.0585
F1.9185
F0.009
F144.0
tp1251
a(S'bvert_11MeV_30tilt_35rot_det7.npy'
p1252
F1.7943
F0.0097
F15.7684
F0.0416
F1.1597
F0.0073
F176.0
tp1253
a(S'bvert_11MeV_30tilt_35rot_det8.npy'
p1254
F0.9094
F0.0074
F17.1344
F0.0393
F0.5564
F0.0048
F144.0
tp1255
a(S'bvert_11MeV_30tilt_35rot_det9.npy'
p1256
F0.3198
F0.004
F15.5834
F0.0385
F0.1859
F0.0023
F144.0
tp1257
a(S'bvert_11MeV_30tilt_45rot_det10.npy'
p1258
F0.2898
F0.0037
F13.6423
F0.0425
F0.1674
F0.0021
F146.0
tp1259
a(S'bvert_11MeV_30tilt_45rot_det11.npy'
p1260
F0.8576
F0.0067
F17.7801
F0.0373
F0.523
F0.0045
F150.0
tp1261
a(S'bvert_11MeV_30tilt_45rot_det12.npy'
p1262
F1.7194
F0.009
F16.8844
F0.0428
F1.113
F0.0066
F162.0
tp1263
a(S'bvert_11MeV_30tilt_45rot_det13.npy'
p1264
F2.7306
F0.0103
F20.164
F0.0658
F1.8296
F0.008
F157.0
tp1265
a(S'bvert_11MeV_30tilt_45rot_det14.npy'
p1266
F3.7481
F0.012
F24.8413
F0.1103
F2.5953
F0.0101
F134.0
tp1267
a(S'bvert_11MeV_30tilt_45rot_det15.npy'
p1268
F4.5919
F0.0153
F39.1148
F0.3079
F3.2221
F0.0151
F62.0
tp1269
a(S'bvert_11MeV_30tilt_45rot_det4.npy'
p1270
F4.6529
F0.0137
F37.983
F0.2963
F3.2592
F0.013
F81.0
tp1271
a(S'bvert_11MeV_30tilt_45rot_det5.npy'
p1272
F3.8352
F0.0132
F23.0615
F0.103
F2.6611
F0.0107
F128.0
tp1273
a(S'bvert_11MeV_30tilt_45rot_det6.npy'
p1274
F2.7932
F0.0109
F17.529
F0.0673
F1.8911
F0.0083
F132.0
tp1275
a(S'bvert_11MeV_30tilt_45rot_det7.npy'
p1276
F1.7341
F0.0093
F15.7233
F0.0423
F1.1265
F0.0072
F165.0
tp1277
a(S'bvert_11MeV_30tilt_45rot_det8.npy'
p1278
F0.8902
F0.0072
F17.0977
F0.0378
F0.5484
F0.0047
F152.0
tp1279
a(S'bvert_11MeV_30tilt_45rot_det9.npy'
p1280
F0.3111
F0.0037
F15.6001
F0.0396
F0.1812
F0.0021
F166.0
tp1281
a(S'bvert_11MeV_30tilt_55rot_det10.npy'
p1282
F0.3091
F0.0036
F13.6136
F0.0422
F0.1785
F0.002
F161.0
tp1283
a(S'bvert_11MeV_30tilt_55rot_det11.npy'
p1284
F0.8715
F0.0083
F17.6727
F0.0435
F0.5285
F0.0056
F138.0
tp1285
a(S'bvert_11MeV_30tilt_55rot_det12.npy'
p1286
F1.7557
F0.0092
F16.7612
F0.0408
F1.1298
F0.0065
F182.0
tp1287
a(S'bvert_11MeV_30tilt_55rot_det13.npy'
p1288
F2.7816
F0.0105
F19.966
F0.0606
F1.8573
F0.0087
F147.0
tp1289
a(S'bvert_11MeV_30tilt_55rot_det14.npy'
p1290
F3.8537
F0.011
F24.8888
F0.1035
F2.6662
F0.0097
F140.0
tp1291
a(S'bvert_11MeV_30tilt_55rot_det15.npy'
p1292
F4.6814
F0.0146
F39.5964
F0.3208
F3.283
F0.0145
F64.0
tp1293
a(S'bvert_11MeV_30tilt_55rot_det4.npy'
p1294
F4.5833
F0.0149
F38.1741
F0.313
F3.2303
F0.0141
F72.0
tp1295
a(S'bvert_11MeV_30tilt_55rot_det5.npy'
p1296
F3.7371
F0.0123
F22.9035
F0.1201
F2.5924
F0.0104
F119.0
tp1297
a(S'bvert_11MeV_30tilt_55rot_det6.npy'
p1298
F2.7426
F0.0099
F17.7313
F0.063
F1.8543
F0.0075
F138.0
tp1299
a(S'bvert_11MeV_30tilt_55rot_det7.npy'
p1300
F1.6969
F0.0095
F15.8079
F0.0416
F1.1019
F0.0071
F150.0
tp1301
a(S'bvert_11MeV_30tilt_55rot_det8.npy'
p1302
F0.8621
F0.0062
F17.1424
F0.0366
F0.5301
F0.0042
F179.0
tp1303
a(S'bvert_11MeV_30tilt_55rot_det9.npy'
p1304
F0.2998
F0.0035
F15.6106
F0.0333
F0.1746
F0.002
F188.0
tp1305
a(S'bvert_11MeV_30tilt_5rot_det10.npy'
p1306
F0.2666
F0.0034
F13.8141
F0.0416
F0.1547
F0.0019
F181.0
tp1307
a(S'bvert_11MeV_30tilt_5rot_det11.npy'
p1308
F0.7747
F0.0065
F17.8272
F0.0383
F0.4738
F0.0042
F162.0
tp1309
a(S'bvert_11MeV_30tilt_5rot_det12.npy'
p1310
F1.5797
F0.0093
F16.9848
F0.0474
F1.0227
F0.0068
F153.0
tp1311
a(S'bvert_11MeV_30tilt_5rot_det13.npy'
p1312
F2.6117
F0.0115
F20.2699
F0.0623
F1.761
F0.0089
F163.0
tp1313
a(S'bvert_11MeV_30tilt_5rot_det14.npy'
p1314
F3.7124
F0.0117
F24.9836
F0.1261
F2.5668
F0.0096
F106.0
tp1315
a(S'bvert_11MeV_30tilt_5rot_det15.npy'
p1316
F4.7443
F0.015
F40.2909
F0.3062
F3.3414
F0.0148
F64.0
tp1317
a(S'bvert_11MeV_30tilt_5rot_det4.npy'
p1318
F5.0689
F0.0153
F38.0392
F0.2733
F3.5229
F0.0162
F63.0
tp1319
a(S'bvert_11MeV_30tilt_5rot_det5.npy'
p1320
F4.1762
F0.0136
F22.8607
F0.1157
F2.8413
F0.0118
F115.0
tp1321
a(S'bvert_11MeV_30tilt_5rot_det6.npy'
p1322
F3.0713
F0.0121
F17.5974
F0.0664
F2.0261
F0.0095
F146.0
tp1323
a(S'bvert_11MeV_30tilt_5rot_det7.npy'
p1324
F1.8774
F0.0106
F15.6314
F0.0449
F1.1854
F0.0075
F156.0
tp1325
a(S'bvert_11MeV_30tilt_5rot_det8.npy'
p1326
F0.9055
F0.0074
F17.0786
F0.038
F0.5478
F0.0049
F143.0
tp1327
a(S'bvert_11MeV_30tilt_5rot_det9.npy'
p1328
F0.2951
F0.004
F15.466
F0.0399
F0.1721
F0.0025
F133.0
tp1329
a(S'bvert_11MeV_30tilt_65rot_det10.npy'
p1330
F0.2987
F0.004
F13.6037
F0.0435
F0.1716
F0.0023
F145.0
tp1331
a(S'bvert_11MeV_30tilt_65rot_det11.npy'
p1332
F0.9081
F0.0083
F17.8211
F0.0383
F0.5469
F0.0054
F144.0
tp1333
a(S'bvert_11MeV_30tilt_65rot_det12.npy'
p1334
F1.8253
F0.0102
F16.8337
F0.0436
F1.1652
F0.0073
F155.0
tp1335
a(S'bvert_11MeV_30tilt_65rot_det13.npy'
p1336
F2.8796
F0.0116
F20.0683
F0.0627
F1.9196
F0.0087
F151.0
tp1337
a(S'bvert_11MeV_30tilt_65rot_det14.npy'
p1338
F3.9138
F0.0126
F24.8301
F0.1165
F2.6909
F0.0106
F124.0
tp1339
a(S'bvert_11MeV_30tilt_65rot_det15.npy'
p1340
F4.7746
F0.0152
F38.9383
F0.2927
F3.3327
F0.0132
F73.0
tp1341
a(S'bvert_11MeV_30tilt_65rot_det4.npy'
p1342
F4.5632
F0.0134
F38.2219
F0.3249
F3.2017
F0.0125
F67.0
tp1343
a(S'bvert_11MeV_30tilt_65rot_det5.npy'
p1344
F3.6966
F0.0117
F23.0201
F0.1018
F2.5606
F0.0102
F129.0
tp1345
a(S'bvert_11MeV_30tilt_65rot_det6.npy'
p1346
F2.6598
F0.0107
F17.7185
F0.0642
F1.8057
F0.0086
F139.0
tp1347
a(S'bvert_11MeV_30tilt_65rot_det7.npy'
p1348
F1.6611
F0.0092
F15.867
F0.0433
F1.0857
F0.0065
F144.0
tp1349
a(S'bvert_11MeV_30tilt_65rot_det8.npy'
p1350
F0.8171
F0.0071
F17.1247
F0.0371
F0.5025
F0.0048
F151.0
tp1351
a(S'bvert_11MeV_30tilt_65rot_det9.npy'
p1352
F0.2897
F0.0034
F15.568
F0.0385
F0.1694
F0.002
F163.0
tp1353
a(S'bvert_11MeV_30tilt_75rot_det10.npy'
p1354
F0.3006
F0.0039
F13.6119
F0.0396
F0.1732
F0.0023
F160.0
tp1355
a(S'bvert_11MeV_30tilt_75rot_det11.npy'
p1356
F0.8978
F0.007
F17.6786
F0.0356
F0.5392
F0.0046
F163.0
tp1357
a(S'bvert_11MeV_30tilt_75rot_det12.npy'
p1358
F1.8377
F0.0093
F16.7545
F0.0408
F1.1657
F0.0065
F191.0
tp1359
a(S'bvert_11MeV_30tilt_75rot_det13.npy'
p1360
F2.9565
F0.0124
F19.9861
F0.0663
F1.9497
F0.0099
F134.0
tp1361
a(S'bvert_11MeV_30tilt_75rot_det14.npy'
p1362
F4.0184
F0.0121
F24.6122
F0.1081
F2.7468
F0.0105
F137.0
tp1363
a(S'bvert_11MeV_30tilt_75rot_det15.npy'
p1364
F4.898
F0.0155
F39.0667
F0.3013
F3.4032
F0.0133
F72.0
tp1365
a(S'bvert_11MeV_30tilt_75rot_det4.npy'
p1366
F4.5956
F0.013
F38.5879
F0.2834
F3.2236
F0.0124
F77.0
tp1367
a(S'bvert_11MeV_30tilt_75rot_det5.npy'
p1368
F3.6514
F0.0135
F23.0346
F0.108
F2.525
F0.011
F117.0
tp1369
a(S'bvert_11MeV_30tilt_75rot_det6.npy'
p1370
F2.6206
F0.0118
F17.6806
F0.0661
F1.766
F0.0091
F141.0
tp1371
a(S'bvert_11MeV_30tilt_75rot_det7.npy'
p1372
F1.6296
F0.0093
F15.8511
F0.0438
F1.06
F0.0066
F164.0
tp1373
a(S'bvert_11MeV_30tilt_75rot_det8.npy'
p1374
F0.8169
F0.0066
F17.2005
F0.032
F0.5049
F0.0046
F159.0
tp1375
a(S'bvert_11MeV_30tilt_75rot_det9.npy'
p1376
F0.2875
F0.0036
F15.6165
F0.0371
F0.168
F0.0021
F183.0
tp1377
a(S'bvert_11MeV_30tilt_85rot_det10.npy'
p1378
F0.2892
F0.0039
F13.6012
F0.0395
F0.1686
F0.0022
F177.0
tp1379
a(S'bvert_11MeV_30tilt_85rot_det11.npy'
p1380
F0.8897
F0.0076
F17.7602
F0.0361
F0.5384
F0.0048
F131.0
tp1381
a(S'bvert_11MeV_30tilt_85rot_det12.npy'
p1382
F1.8597
F0.0108
F16.7824
F0.0451
F1.1743
F0.0079
F155.0
tp1383
a(S'bvert_11MeV_30tilt_85rot_det13.npy'
p1384
F3.0196
F0.0127
F19.8978
F0.0624
F1.9853
F0.0098
F156.0
tp1385
a(S'bvert_11MeV_30tilt_85rot_det14.npy'
p1386
F4.1212
F0.0138
F24.544
F0.1096
F2.7914
F0.0106
F117.0
tp1387
a(S'bvert_11MeV_30tilt_85rot_det15.npy'
p1388
F5.0422
F0.0156
F39.3945
F0.3099
F3.4844
F0.0163
F69.0
tp1389
a(S'bvert_11MeV_30tilt_85rot_det4.npy'
p1390
F4.5989
F0.0167
F38.385
F0.291
F3.2142
F0.0158
F67.0
tp1391
a(S'bvert_11MeV_30tilt_85rot_det5.npy'
p1392
F3.6553
F0.013
F23.1216
F0.1049
F2.5255
F0.011
F112.0
tp1393
a(S'bvert_11MeV_30tilt_85rot_det6.npy'
p1394
F2.6023
F0.0097
F17.7025
F0.0528
F1.7605
F0.0078
F178.0
tp1395
a(S'bvert_11MeV_30tilt_85rot_det7.npy'
p1396
F1.5894
F0.0087
F15.8224
F0.0434
F1.0312
F0.0065
F153.0
tp1397
a(S'bvert_11MeV_30tilt_85rot_det8.npy'
p1398
F0.784
F0.0062
F17.1545
F0.0358
F0.4827
F0.004
F171.0
tp1399
a(S'bvert_11MeV_30tilt_85rot_det9.npy'
p1400
F0.278
F0.0036
F15.7298
F0.0426
F0.161
F0.0021
F145.0
tp1401
a(S'bvert_11MeV_30tilt_95rot_det10.npy'
p1402
F0.2863
F0.0041
F13.7494
F0.0434
F0.168
F0.0023
F143.0
tp1403
a(S'bvert_11MeV_30tilt_95rot_det11.npy'
p1404
F0.8785
F0.0071
F17.7036
F0.033
F0.5346
F0.0047
F176.0
tp1405
a(S'bvert_11MeV_30tilt_95rot_det12.npy'
p1406
F1.8552
F0.0105
F16.852
F0.0438
F1.1814
F0.0074
F173.0
tp1407
a(S'bvert_11MeV_30tilt_95rot_det13.npy'
p1408
F3.0208
F0.0126
F19.9161
F0.0646
F1.9811
F0.0098
F153.0
tp1409
a(S'bvert_11MeV_30tilt_95rot_det14.npy'
p1410
F4.1992
F0.014
F24.5643
F0.1012
F2.8211
F0.0112
F135.0
tp1411
a(S'bvert_11MeV_30tilt_95rot_det15.npy'
p1412
F5.1617
F0.016
F39.43
F0.3045
F3.5532
F0.0161
F75.0
tp1413
a(S'bvert_11MeV_30tilt_95rot_det4.npy'
p1414
F4.7109
F0.0155
F38.5588
F0.3073
F3.284
F0.0142
F73.0
tp1415
a(S'bvert_11MeV_30tilt_95rot_det5.npy'
p1416
F3.6883
F0.0145
F23.1336
F0.1153
F2.5406
F0.0126
F116.0
tp1417
a(S'bvert_11MeV_30tilt_95rot_det6.npy'
p1418
F2.6004
F0.0112
F17.686
F0.0565
F1.7522
F0.0083
F156.0
tp1419
a(S'bvert_11MeV_30tilt_95rot_det7.npy'
p1420
F1.5704
F0.0085
F15.8773
F0.04
F1.0194
F0.0063
F170.0
tp1421
a(S'bvert_11MeV_30tilt_95rot_det8.npy'
p1422
F0.7684
F0.006
F17.2044
F0.0372
F0.473
F0.004
F172.0
tp1423
a(S'bvert_11MeV_30tilt_95rot_det9.npy'
p1424
F0.2818
F0.0035
F15.7104
F0.0414
F0.1629
F0.0021
F142.0
tp1425
a(S'bvert_11MeV_45tilt_105rot_det10.npy'
p1426
F0.2996
F0.0033
F13.7931
F0.0379
F0.1725
F0.0019
F179.0
tp1427
a(S'bvert_11MeV_45tilt_105rot_det11.npy'
p1428
F0.9113
F0.0073
F17.9596
F0.0341
F0.5548
F0.0047
F166.0
tp1429
a(S'bvert_11MeV_45tilt_105rot_det12.npy'
p1430
F1.8644
F0.0089
F17.0014
F0.0369
F1.1904
F0.0065
F188.0
tp1431
a(S'bvert_11MeV_45tilt_105rot_det13.npy'
p1432
F3.0823
F0.011
F20.2674
F0.0531
F2.0278
F0.0088
F179.0
tp1433
a(S'bvert_11MeV_45tilt_105rot_det14.npy'
p1434
F4.2833
F0.0117
F24.9233
F0.0992
F2.8701
F0.0098
F163.0
tp1435
a(S'bvert_11MeV_45tilt_105rot_det15.npy'
p1436
F5.2928
F0.0164
F39.5598
F0.2712
F3.6101
F0.0147
F89.0
tp1437
a(S'bvert_11MeV_45tilt_105rot_det4.npy'
p1438
F4.8956
F0.0161
F36.845
F0.3162
F3.4081
F0.0154
F61.0
tp1439
a(S'bvert_11MeV_45tilt_105rot_det5.npy'
p1440
F3.8507
F0.0121
F22.4914
F0.0893
F2.6489
F0.0104
F154.0
tp1441
a(S'bvert_11MeV_45tilt_105rot_det6.npy'
p1442
F2.6586
F0.0114
F17.311
F0.0586
F1.7834
F0.0089
F158.0
tp1443
a(S'bvert_11MeV_45tilt_105rot_det7.npy'
p1444
F1.5978
F0.0091
F15.679
F0.0351
F1.0305
F0.0066
F206.0
tp1445
a(S'bvert_11MeV_45tilt_105rot_det8.npy'
p1446
F0.7901
F0.0063
F17.1801
F0.0341
F0.4832
F0.0043
F175.0
tp1447
a(S'bvert_11MeV_45tilt_105rot_det9.npy'
p1448
F0.2645
F0.0031
F15.6488
F0.0361
F0.1521
F0.0018
F165.0
tp1449
a(S'bvert_11MeV_45tilt_115rot_det10.npy'
p1450
F0.3081
F0.0035
F13.8627
F0.0405
F0.1787
F0.002
F154.0
tp1451
a(S'bvert_11MeV_45tilt_115rot_det11.npy'
p1452
F0.8859
F0.0071
F17.9292
F0.0326
F0.5444
F0.0049
F168.0
tp1453
a(S'bvert_11MeV_45tilt_115rot_det12.npy'
p1454
F1.8337
F0.0101
F17.0126
F0.0437
F1.1815
F0.0072
F179.0
tp1455
a(S'bvert_11MeV_45tilt_115rot_det13.npy'
p1456
F3.0227
F0.0105
F20.2722
F0.0567
F1.9938
F0.0083
F176.0
tp1457
a(S'bvert_11MeV_45tilt_115rot_det14.npy'
p1458
F4.2413
F0.0132
F24.9493
F0.1078
F2.8608
F0.0109
F142.0
tp1459
a(S'bvert_11MeV_45tilt_115rot_det15.npy'
p1460
F5.3045
F0.0172
F39.788
F0.2671
F3.6171
F0.0144
F86.0
tp1461
a(S'bvert_11MeV_45tilt_115rot_det4.npy'
p1462
F4.9863
F0.0165
F37.3708
F0.2704
F3.4674
F0.0147
F90.0
tp1463
a(S'bvert_11MeV_45tilt_115rot_det5.npy'
p1464
F3.9124
F0.0125
F22.3559
F0.095
F2.6796
F0.0106
F140.0
tp1465
a(S'bvert_11MeV_45tilt_115rot_det6.npy'
p1466
F2.7007
F0.0117
F17.2782
F0.0532
F1.8078
F0.0089
F187.0
tp1467
a(S'bvert_11MeV_45tilt_115rot_det7.npy'
p1468
F1.6221
F0.0086
F15.7225
F0.0406
F1.0465
F0.0063
F193.0
tp1469
a(S'bvert_11MeV_45tilt_115rot_det8.npy'
p1470
F0.7748
F0.0059
F17.0956
F0.0356
F0.4711
F0.0038
F183.0
tp1471
a(S'bvert_11MeV_45tilt_115rot_det9.npy'
p1472
F0.2591
F0.0032
F15.6298
F0.0387
F0.1484
F0.0018
F169.0
tp1473
a(S'bvert_11MeV_45tilt_125rot_det10.npy'
p1474
F0.2915
F0.0032
F13.8698
F0.039
F0.1689
F0.0019
F182.0
tp1475
a(S'bvert_11MeV_45tilt_125rot_det11.npy'
p1476
F0.8857
F0.0067
F17.9968
F0.0361
F0.543
F0.0048
F167.0
tp1477
a(S'bvert_11MeV_45tilt_125rot_det12.npy'
p1478
F1.7876
F0.0102
F17.029
F0.0412
F1.1524
F0.0074
F175.0
tp1479
a(S'bvert_11MeV_45tilt_125rot_det13.npy'
p1480
F2.9834
F0.0117
F20.2951
F0.055
F1.9874
F0.0088
F187.0
tp1481
a(S'bvert_11MeV_45tilt_125rot_det14.npy'
p1482
F4.22
F0.0124
F25.0831
F0.0961
F2.8599
F0.0097
F162.0
tp1483
a(S'bvert_11MeV_45tilt_125rot_det15.npy'
p1484
F5.3231
F0.0169
F40.1268
F0.2654
F3.6355
F0.0153
F76.0
tp1485
a(S'bvert_11MeV_45tilt_125rot_det4.npy'
p1486
F5.0995
F0.0153
F37.7014
F0.2626
F3.5273
F0.0139
F86.0
tp1487
a(S'bvert_11MeV_45tilt_125rot_det5.npy'
p1488
F3.9928
F0.0131
F22.4592
F0.1003
F2.7351
F0.0114
F142.0
tp1489
a(S'bvert_11MeV_45tilt_125rot_det6.npy'
p1490
F2.7577
F0.0142
F17.2848
F0.0634
F1.8406
F0.0107
F138.0
tp1491
a(S'bvert_11MeV_45tilt_125rot_det7.npy'
p1492
F1.628
F0.0098
F15.6232
F0.0388
F1.0481
F0.0074
F188.0
tp1493
a(S'bvert_11MeV_45tilt_125rot_det8.npy'
p1494
F0.7744
F0.007
F17.0754
F0.0347
F0.4717
F0.0048
F165.0
tp1495
a(S'bvert_11MeV_45tilt_125rot_det9.npy'
p1496
F0.2546
F0.0033
F15.6272
F0.0333
F0.1472
F0.0018
F186.0
tp1497
a(S'bvert_11MeV_45tilt_135rot_det10.npy'
p1498
F0.2966
F0.0033
F13.8263
F0.0376
F0.1718
F0.0019
F190.0
tp1499
a(S'bvert_11MeV_45tilt_135rot_det11.npy'
p1500
F0.8675
F0.0065
F18.0422
F0.0369
F0.5314
F0.0044
F182.0
tp1501
a(S'bvert_11MeV_45tilt_135rot_det12.npy'
p1502
F1.7772
F0.0101
F17.0879
F0.0408
F1.1535
F0.0074
F155.0
tp1503
a(S'bvert_11MeV_45tilt_135rot_det13.npy'
p1504
F2.9287
F0.0126
F20.2282
F0.0621
F1.9608
F0.0098
F143.0
tp1505
a(S'bvert_11MeV_45tilt_135rot_det14.npy'
p1506
F4.1488
F0.0126
F25.0429
F0.1103
F2.8425
F0.0101
F133.0
tp1507
a(S'bvert_11MeV_45tilt_135rot_det15.npy'
p1508
F5.272
F0.0137
F40.377
F0.2722
F3.6348
F0.0142
F80.0
tp1509
a(S'bvert_11MeV_45tilt_135rot_det4.npy'
p1510
F5.186
F0.0165
F37.1865
F0.2401
F3.5532
F0.0158
F92.0
tp1511
a(S'bvert_11MeV_45tilt_135rot_det5.npy'
p1512
F4.0644
F0.0158
F22.3711
F0.1021
F2.7702
F0.0129
F138.0
tp1513
a(S'bvert_11MeV_45tilt_135rot_det6.npy'
p1514
F2.7982
F0.013
F17.2741
F0.056
F1.87
F0.0097
F182.0
tp1515
a(S'bvert_11MeV_45tilt_135rot_det7.npy'
p1516
F1.6666
F0.009
F15.6528
F0.0406
F1.0705
F0.0063
F192.0
tp1517
a(S'bvert_11MeV_45tilt_135rot_det8.npy'
p1518
F0.7757
F0.0063
F17.0345
F0.0329
F0.471
F0.0042
F179.0
tp1519
a(S'bvert_11MeV_45tilt_135rot_det9.npy'
p1520
F0.2558
F0.0029
F15.6257
F0.0348
F0.147
F0.0016
F196.0
tp1521
a(S'bvert_11MeV_45tilt_145rot_det10.npy'
p1522
F0.2902
F0.0031
F13.9116
F0.041
F0.1678
F0.0018
F190.0
tp1523
a(S'bvert_11MeV_45tilt_145rot_det11.npy'
p1524
F0.8563
F0.0067
F17.997
F0.0373
F0.5242
F0.0044
F172.0
tp1525
a(S'bvert_11MeV_45tilt_145rot_det12.npy'
p1526
F1.7624
F0.0102
F17.0792
F0.0399
F1.1489
F0.0073
F171.0
tp1527
a(S'bvert_11MeV_45tilt_145rot_det13.npy'
p1528
F2.9128
F0.0115
F20.3886
F0.0563
F1.963
F0.009
F188.0
tp1529
a(S'bvert_11MeV_45tilt_145rot_det14.npy'
p1530
F4.1129
F0.0125
F25.2143
F0.1032
F2.824
F0.0103
F151.0
tp1531
a(S'bvert_11MeV_45tilt_145rot_det15.npy'
p1532
F5.1774
F0.0145
F40.0562
F0.2746
F3.5874
F0.014
F98.0
tp1533
a(S'bvert_11MeV_45tilt_145rot_det4.npy'
p1534
F5.2755
F0.0172
F37.7701
F0.2464
F3.602
F0.015
F73.0
tp1535
a(S'bvert_11MeV_45tilt_145rot_det5.npy'
p1536
F4.1342
F0.0131
F22.4468
F0.0965
F2.7915
F0.0101
F161.0
tp1537
a(S'bvert_11MeV_45tilt_145rot_det6.npy'
p1538
F2.8758
F0.0118
F17.3182
F0.0569
F1.9018
F0.0085
F174.0
tp1539
a(S'bvert_11MeV_45tilt_145rot_det7.npy'
p1540
F1.6945
F0.0099
F15.5857
F0.0393
F1.0877
F0.0072
F178.0
tp1541
a(S'bvert_11MeV_45tilt_145rot_det8.npy'
p1542
F0.8027
F0.0065
F17.0817
F0.0348
F0.4879
F0.0042
F181.0
tp1543
a(S'bvert_11MeV_45tilt_145rot_det9.npy'
p1544
F0.2609
F0.0032
F15.5788
F0.034
F0.1503
F0.002
F190.0
tp1545
a(S'bvert_11MeV_45tilt_15rot_det10.npy'
p1546
F0.2653
F0.0034
F13.7761
F0.041
F0.1528
F0.002
F179.0
tp1547
a(S'bvert_11MeV_45tilt_15rot_det11.npy'
p1548
F0.7919
F0.0061
F17.8089
F0.037
F0.4794
F0.004
F154.0
tp1549
a(S'bvert_11MeV_45tilt_15rot_det12.npy'
p1550
F1.627
F0.009
F16.7862
F0.0411
F1.045
F0.0065
F181.0
tp1551
a(S'bvert_11MeV_45tilt_15rot_det13.npy'
p1552
F2.7032
F0.0112
F20.029
F0.0567
F1.8154
F0.0085
F162.0
tp1553
a(S'bvert_11MeV_45tilt_15rot_det14.npy'
p1554
F3.8262
F0.0136
F24.5573
F0.1093
F2.6287
F0.0119
F117.0
tp1555
a(S'bvert_11MeV_45tilt_15rot_det15.npy'
p1556
F4.8205
F0.0149
F38.745
F0.2766
F3.3645
F0.0131
F71.0
tp1557
a(S'bvert_11MeV_45tilt_15rot_det4.npy'
p1558
F5.0923
F0.0188
F38.2429
F0.3152
F3.5504
F0.0186
F59.0
tp1559
a(S'bvert_11MeV_45tilt_15rot_det5.npy'
p1560
F4.1808
F0.0112
F22.9912
F0.109
F2.8497
F0.0105
F131.0
tp1561
a(S'bvert_11MeV_45tilt_15rot_det6.npy'
p1562
F3.018
F0.0137
F17.7262
F0.0705
F2.0038
F0.011
F121.0
tp1563
a(S'bvert_11MeV_45tilt_15rot_det7.npy'
p1564
F1.8853
F0.0096
F15.8196
F0.0405
F1.1983
F0.007
F171.0
tp1565
a(S'bvert_11MeV_45tilt_15rot_det8.npy'
p1566
F0.9435
F0.0076
F17.2481
F0.0383
F0.5702
F0.0049
F157.0
tp1567
a(S'bvert_11MeV_45tilt_15rot_det9.npy'
p1568
F0.3169
F0.0037
F15.6022
F0.0369
F0.1829
F0.0022
F164.0
tp1569
a(S'bvert_11MeV_45tilt_25rot_det10.npy'
p1570
F0.2763
F0.0035
F13.6611
F0.0386
F0.1597
F0.0021
F170.0
tp1571
a(S'bvert_11MeV_45tilt_25rot_det11.npy'
p1572
F0.8127
F0.0074
F17.9229
F0.0374
F0.4959
F0.0049
F143.0
tp1573
a(S'bvert_11MeV_45tilt_25rot_det12.npy'
p1574
F1.666
F0.0089
F16.8503
F0.0434
F1.0703
F0.0065
F180.0
tp1575
a(S'bvert_11MeV_45tilt_25rot_det13.npy'
p1576
F2.71
F0.011
F20.0248
F0.0589
F1.8213
F0.0089
F164.0
tp1577
a(S'bvert_11MeV_45tilt_25rot_det14.npy'
p1578
F3.8524
F0.0128
F24.733
F0.1259
F2.6511
F0.0107
F111.0
tp1579
a(S'bvert_11MeV_45tilt_25rot_det15.npy'
p1580
F4.7755
F0.016
F38.6108
F0.265
F3.3493
F0.0151
F78.0
tp1581
a(S'bvert_11MeV_45tilt_25rot_det4.npy'
p1582
F5.0387
F0.0157
F38.4799
F0.2752
F3.5127
F0.0159
F64.0
tp1583
a(S'bvert_11MeV_45tilt_25rot_det5.npy'
p1584
F4.0781
F0.0162
F23.0009
F0.109
F2.803
F0.0138
F122.0
tp1585
a(S'bvert_11MeV_45tilt_25rot_det6.npy'
p1586
F2.961
F0.0116
F17.5042
F0.0609
F1.9694
F0.0095
F153.0
tp1587
a(S'bvert_11MeV_45tilt_25rot_det7.npy'
p1588
F1.8742
F0.0104
F15.8426
F0.0475
F1.1993
F0.0078
F114.0
tp1589
a(S'bvert_11MeV_45tilt_25rot_det8.npy'
p1590
F0.9314
F0.0085
F17.1136
F0.038
F0.5634
F0.0056
F132.0
tp1591
a(S'bvert_11MeV_45tilt_25rot_det9.npy'
p1592
F0.3146
F0.0042
F15.5979
F0.0405
F0.182
F0.0025
F151.0
tp1593
a(S'bvert_11MeV_45tilt_315rot_det10.npy'
p1594
F0.269
F0.0034
F13.6657
F0.0416
F0.1548
F0.002
F167.0
tp1595
a(S'bvert_11MeV_45tilt_315rot_det11.npy'
p1596
F0.8215
F0.0077
F17.7666
F0.0404
F0.5031
F0.005
F149.0
tp1597
a(S'bvert_11MeV_45tilt_315rot_det12.npy'
p1598
F1.7222
F0.0106
F16.7443
F0.0383
F1.1117
F0.0074
F163.0
tp1599
a(S'bvert_11MeV_45tilt_315rot_det13.npy'
p1600
F2.884
F0.0125
F19.9479
F0.0584
F1.9349
F0.0094
F156.0
tp1601
a(S'bvert_11MeV_45tilt_315rot_det14.npy'
p1602
F4.1243
F0.0151
F24.5598
F0.1158
F2.8112
F0.0118
F130.0
tp1603
a(S'bvert_11MeV_45tilt_315rot_det15.npy'
p1604
F5.2692
F0.0159
F39.3264
F0.3045
F3.6367
F0.0158
F77.0
tp1605
a(S'bvert_11MeV_45tilt_315rot_det4.npy'
p1606
F5.2547
F0.0194
F38.7366
F0.2818
F3.6135
F0.015
F74.0
tp1607
a(S'bvert_11MeV_45tilt_315rot_det5.npy'
p1608
F4.1262
F0.0162
F23.1283
F0.1022
F2.8024
F0.014
F117.0
tp1609
a(S'bvert_11MeV_45tilt_315rot_det6.npy'
p1610
F2.9394
F0.012
F17.856
F0.0597
F1.9615
F0.0095
F167.0
tp1611
a(S'bvert_11MeV_45tilt_315rot_det7.npy'
p1612
F1.7695
F0.0107
F15.8069
F0.0397
F1.1439
F0.0076
F166.0
tp1613
a(S'bvert_11MeV_45tilt_315rot_det8.npy'
p1614
F0.8596
F0.0066
F17.2156
F0.039
F0.5242
F0.0044
F151.0
tp1615
a(S'bvert_11MeV_45tilt_315rot_det9.npy'
p1616
F0.2983
F0.0038
F15.7432
F0.035
F0.1704
F0.0022
F162.0
tp1617
a(S'bvert_11MeV_45tilt_325rot_2_det10.npy'
p1618
F0.2573
F0.003
F13.637
F0.0342
F0.1471
F0.0017
F195.0
tp1619
a(S'bvert_11MeV_45tilt_325rot_2_det11.npy'
p1620
F0.8025
F0.0059
F17.8089
F0.0329
F0.4918
F0.0042
F172.0
tp1621
a(S'bvert_11MeV_45tilt_325rot_2_det12.npy'
p1622
F1.6697
F0.0095
F16.7203
F0.0404
F1.0811
F0.0068
F201.0
tp1623
a(S'bvert_11MeV_45tilt_325rot_2_det13.npy'
p1624
F2.8193
F0.0133
F19.9862
F0.0607
F1.897
F0.0106
F167.0
tp1625
a(S'bvert_11MeV_45tilt_325rot_2_det14.npy'
p1626
F4.0562
F0.0143
F24.583
F0.1125
F2.7865
F0.0111
F128.0
tp1627
a(S'bvert_11MeV_45tilt_325rot_2_det15.npy'
p1628
F5.121
F0.0204
F39.0005
F0.2937
F3.5506
F0.0173
F62.0
tp1629
a(S'bvert_11MeV_45tilt_325rot_2_det4.npy'
p1630
F5.3406
F0.0164
F38.7184
F0.2641
F3.6406
F0.0145
F72.0
tp1631
a(S'bvert_11MeV_45tilt_325rot_2_det5.npy'
p1632
F4.2424
F0.014
F23.4094
F0.109
F2.8694
F0.0111
F127.0
tp1633
a(S'bvert_11MeV_45tilt_325rot_2_det6.npy'
p1634
F2.9932
F0.0109
F17.8225
F0.0549
F1.9853
F0.0086
F186.0
tp1635
a(S'bvert_11MeV_45tilt_325rot_2_det7.npy'
p1636
F1.8101
F0.0091
F15.9206
F0.0416
F1.1638
F0.0065
F194.0
tp1637
a(S'bvert_11MeV_45tilt_325rot_2_det8.npy'
p1638
F0.865
F0.0061
F17.2301
F0.0308
F0.5281
F0.004
F204.0
tp1639
a(S'bvert_11MeV_45tilt_325rot_2_det9.npy'
p1640
F0.2941
F0.0031
F15.7483
F0.0352
F0.1705
F0.0018
F215.0
tp1641
a(S'bvert_11MeV_45tilt_325rot_det10.npy'
p1642
F0.2604
F0.0034
F13.6775
F0.0347
F0.1493
F0.0018
F168.0
tp1643
a(S'bvert_11MeV_45tilt_325rot_det11.npy'
p1644
F0.8095
F0.0066
F17.8879
F0.0415
F0.4933
F0.0044
F159.0
tp1645
a(S'bvert_11MeV_45tilt_325rot_det12.npy'
p1646
F1.703
F0.01
F16.7788
F0.0378
F1.1063
F0.0069
F168.0
tp1647
a(S'bvert_11MeV_45tilt_325rot_det13.npy'
p1648
F2.8379
F0.0125
F19.852
F0.0607
F1.9047
F0.0099
F163.0
tp1649
a(S'bvert_11MeV_45tilt_325rot_det14.npy'
p1650
F4.0887
F0.0127
F24.6641
F0.1021
F2.822
F0.0113
F132.0
tp1651
a(S'bvert_11MeV_45tilt_325rot_det15.npy'
p1652
F5.1502
F0.0197
F39.0615
F0.2692
F3.5735
F0.017
F72.0
tp1653
a(S'bvert_11MeV_45tilt_325rot_det4.npy'
p1654
F5.3355
F0.0153
F38.6092
F0.2783
F3.6379
F0.016
F73.0
tp1655
a(S'bvert_11MeV_45tilt_325rot_det5.npy'
p1656
F4.2654
F0.015
F23.2046
F0.101
F2.8841
F0.0124
F122.0
tp1657
a(S'bvert_11MeV_45tilt_325rot_det6.npy'
p1658
F2.9983
F0.0109
F17.7337
F0.0564
F1.9863
F0.0086
F162.0
tp1659
a(S'bvert_11MeV_45tilt_325rot_det7.npy'
p1660
F1.7863
F0.0099
F15.8333
F0.0452
F1.1447
F0.0072
F131.0
tp1661
a(S'bvert_11MeV_45tilt_325rot_det8.npy'
p1662
F0.8816
F0.006
F17.1741
F0.0363
F0.5382
F0.004
F140.0
tp1663
a(S'bvert_11MeV_45tilt_325rot_det9.npy'
p1664
F0.2959
F0.0036
F15.6437
F0.0387
F0.1708
F0.002
F176.0
tp1665
a(S'bvert_11MeV_45tilt_335rot_det10.npy'
p1666
F0.2599
F0.0031
F13.676
F0.0356
F0.1496
F0.0018
F177.0
tp1667
a(S'bvert_11MeV_45tilt_335rot_det11.npy'
p1668
F0.7849
F0.0064
F17.8292
F0.0364
F0.477
F0.0045
F166.0
tp1669
a(S'bvert_11MeV_45tilt_335rot_det12.npy'
p1670
F1.6648
F0.0095
F16.8626
F0.0415
F1.0748
F0.0069
F166.0
tp1671
a(S'bvert_11MeV_45tilt_335rot_det13.npy'
p1672
F2.8266
F0.0112
F20.0253
F0.0591
F1.9047
F0.0087
F162.0
tp1673
a(S'bvert_11MeV_45tilt_335rot_det14.npy'
p1674
F3.9797
F0.0144
F24.4744
F0.1174
F2.7433
F0.0114
F135.0
tp1675
a(S'bvert_11MeV_45tilt_335rot_det15.npy'
p1676
F5.0888
F0.0177
F39.1647
F0.3098
F3.5417
F0.0186
F64.0
tp1677
a(S'bvert_11MeV_45tilt_335rot_det4.npy'
p1678
F5.3529
F0.0172
F38.7264
F0.2927
F3.6338
F0.0148
F77.0
tp1679
a(S'bvert_11MeV_45tilt_335rot_det5.npy'
p1680
F4.2999
F0.013
F23.052
F0.1017
F2.8764
F0.0103
F125.0
tp1681
a(S'bvert_11MeV_45tilt_335rot_det6.npy'
p1682
F3.0527
F0.0122
F17.8082
F0.0595
F2.0134
F0.0095
F159.0
tp1683
a(S'bvert_11MeV_45tilt_335rot_det7.npy'
p1684
F1.8334
F0.0097
F15.8807
F0.0412
F1.1693
F0.0068
F165.0
tp1685
a(S'bvert_11MeV_45tilt_335rot_det8.npy'
p1686
F0.8797
F0.0074
F17.2182
F0.035
F0.5354
F0.0049
F154.0
tp1687
a(S'bvert_11MeV_45tilt_335rot_det9.npy'
p1688
F0.2996
F0.0037
F15.7141
F0.042
F0.1729
F0.0022
F158.0
tp1689
a(S'bvert_11MeV_45tilt_345rot_det10.npy'
p1690
F0.2606
F0.0033
F13.7283
F0.0352
F0.1492
F0.002
F173.0
tp1691
a(S'bvert_11MeV_45tilt_345rot_det11.npy'
p1692
F0.7817
F0.0062
F17.7493
F0.032
F0.475
F0.0042
F182.0
tp1693
a(S'bvert_11MeV_45tilt_345rot_det12.npy'
p1694
F1.6574
F0.0088
F16.8078
F0.0398
F1.074
F0.0065
F186.0
tp1695
a(S'bvert_11MeV_45tilt_345rot_det13.npy'
p1696
F2.7666
F0.0135
F19.9462
F0.0582
F1.8617
F0.0098
F147.0
tp1697
a(S'bvert_11MeV_45tilt_345rot_det14.npy'
p1698
F3.9411
F0.0129
F24.358
F0.1016
F2.7187
F0.0112
F132.0
tp1699
a(S'bvert_11MeV_45tilt_345rot_det15.npy'
p1700
F5.012
F0.0154
F39.3616
F0.3341
F3.5061
F0.0141
F64.0
tp1701
a(S'bvert_11MeV_45tilt_345rot_det4.npy'
p1702
F5.3651
F0.0176
F39.2337
F0.3394
F3.661
F0.0167
F70.0
tp1703
a(S'bvert_11MeV_45tilt_345rot_det5.npy'
p1704
F4.3072
F0.0129
F23.1038
F0.1112
F2.8939
F0.0111
F128.0
tp1705
a(S'bvert_11MeV_45tilt_345rot_det6.npy'
p1706
F3.0871
F0.0118
F17.7628
F0.0609
F2.023
F0.0088
F168.0
tp1707
a(S'bvert_11MeV_45tilt_345rot_det7.npy'
p1708
F1.8747
F0.0102
F15.8667
F0.0368
F1.1945
F0.0072
F180.0
tp1709
a(S'bvert_11MeV_45tilt_345rot_det8.npy'
p1710
F0.8984
F0.0079
F17.238
F0.0409
F0.5445
F0.0051
F139.0
tp1711
a(S'bvert_11MeV_45tilt_345rot_det9.npy'
p1712
F0.3013
F0.0037
F15.6513
F0.0383
F0.1743
F0.0021
F172.0
tp1713
a(S'bvert_11MeV_45tilt_355rot_det10.npy'
p1714
F0.2627
F0.0031
F13.7609
F0.0436
F0.1511
F0.0018
F160.0
tp1715
a(S'bvert_11MeV_45tilt_355rot_det11.npy'
p1716
F0.7684
F0.0064
F17.8192
F0.0331
F0.4671
F0.0043
F184.0
tp1717
a(S'bvert_11MeV_45tilt_355rot_det12.npy'
p1718
F1.6363
F0.0092
F16.8804
F0.0414
F1.0556
F0.0066
F196.0
tp1719
a(S'bvert_11MeV_45tilt_355rot_det13.npy'
p1720
F2.7177
F0.0112
F19.9715
F0.0573
F1.8264
F0.0087
F186.0
tp1721
a(S'bvert_11MeV_45tilt_355rot_det14.npy'
p1722
F3.8405
F0.014
F24.4326
F0.1028
F2.6475
F0.0111
F146.0
tp1723
a(S'bvert_11MeV_45tilt_355rot_det15.npy'
p1724
F4.9055
F0.0152
F38.9227
F0.2774
F3.4303
F0.0151
F79.0
tp1725
a(S'bvert_11MeV_45tilt_355rot_det4.npy'
p1726
F5.2209
F0.0161
F38.3321
F0.2763
F3.5957
F0.0137
F83.0
tp1727
a(S'bvert_11MeV_45tilt_355rot_det5.npy'
p1728
F4.2708
F0.0148
F23.0301
F0.1175
F2.8753
F0.0131
F109.0
tp1729
a(S'bvert_11MeV_45tilt_355rot_det6.npy'
p1730
F3.105
F0.0116
F17.6593
F0.0631
F2.0337
F0.0085
F148.0
tp1731
a(S'bvert_11MeV_45tilt_355rot_det7.npy'
p1732
F1.902
F0.0101
F15.972
F0.0382
F1.2023
F0.0072
F174.0
tp1733
a(S'bvert_11MeV_45tilt_355rot_det8.npy'
p1734
F0.9236
F0.0072
F17.1476
F0.0357
F0.5585
F0.0048
F160.0
tp1735
a(S'bvert_11MeV_45tilt_355rot_det9.npy'
p1736
F0.3109
F0.0038
F15.6408
F0.0337
F0.1782
F0.0023
F170.0
tp1737
a(S'bvert_11MeV_45tilt_35rot_det10.npy'
p1738
F0.2803
F0.0033
F13.7031
F0.0394
F0.1627
F0.002
F182.0
tp1739
a(S'bvert_11MeV_45tilt_35rot_det11.npy'
p1740
F0.8365
F0.0062
F17.8671
F0.0361
F0.5063
F0.0043
F186.0
tp1741
a(S'bvert_11MeV_45tilt_35rot_det12.npy'
p1742
F1.6964
F0.01
F16.902
F0.0458
F1.0897
F0.0074
F151.0
tp1743
a(S'bvert_11MeV_45tilt_35rot_det13.npy'
p1744
F2.7349
F0.0115
F20.0116
F0.0592
F1.8291
F0.0087
F168.0
tp1745
a(S'bvert_11MeV_45tilt_35rot_det14.npy'
p1746
F3.8139
F0.0155
F24.6388
F0.1174
F2.628
F0.0124
F136.0
tp1747
a(S'bvert_11MeV_45tilt_35rot_det15.npy'
p1748
F4.7632
F0.0138
F38.6108
F0.2445
F3.3319
F0.0131
F102.0
tp1749
a(S'bvert_11MeV_45tilt_35rot_det4.npy'
p1750
F4.92
F0.0163
F37.2084
F0.2752
F3.4384
F0.0159
F73.0
tp1751
a(S'bvert_11MeV_45tilt_35rot_det5.npy'
p1752
F3.9891
F0.0142
F22.831
F0.1036
F2.7456
F0.0111
F123.0
tp1753
a(S'bvert_11MeV_45tilt_35rot_det6.npy'
p1754
F2.8895
F0.0117
F17.4164
F0.0595
F1.9347
F0.0088
F146.0
tp1755
a(S'bvert_11MeV_45tilt_35rot_det7.npy'
p1756
F1.8039
F0.0094
F15.9053
F0.0432
F1.1602
F0.0068
F168.0
tp1757
a(S'bvert_11MeV_45tilt_35rot_det8.npy'
p1758
F0.911
F0.0074
F17.1785
F0.036
F0.5513
F0.0049
F162.0
tp1759
a(S'bvert_11MeV_45tilt_35rot_det9.npy'
p1760
F0.3169
F0.0036
F15.7285
F0.0356
F0.1829
F0.0021
F171.0
tp1761
a(S'bvert_11MeV_45tilt_45rot_det10.npy'
p1762
F0.2887
F0.0032
F13.7607
F0.0358
F0.1669
F0.0019
F210.0
tp1763
a(S'bvert_11MeV_45tilt_45rot_det11.npy'
p1764
F0.8496
F0.0077
F17.8302
F0.0384
F0.5134
F0.0052
F160.0
tp1765
a(S'bvert_11MeV_45tilt_45rot_det12.npy'
p1766
F1.7242
F0.0097
F16.8265
F0.0445
F1.1018
F0.0072
F147.0
tp1767
a(S'bvert_11MeV_45tilt_45rot_det13.npy'
p1768
F2.7832
F0.0113
F20.036
F0.0544
F1.8587
F0.0087
F170.0
tp1769
a(S'bvert_11MeV_45tilt_45rot_det14.npy'
p1770
F3.8397
F0.0126
F24.5492
F0.1064
F2.631
F0.0104
F136.0
tp1771
a(S'bvert_11MeV_45tilt_45rot_det15.npy'
p1772
F4.7956
F0.0152
F39.3584
F0.2839
F3.3387
F0.0135
F74.0
tp1773
a(S'bvert_11MeV_45tilt_45rot_det4.npy'
p1774
F4.8595
F0.0137
F37.6241
F0.2556
F3.393
F0.0124
F88.0
tp1775
a(S'bvert_11MeV_45tilt_45rot_det5.npy'
p1776
F3.9474
F0.0143
F22.8645
F0.1072
F2.7204
F0.012
F125.0
tp1777
a(S'bvert_11MeV_45tilt_45rot_det6.npy'
p1778
F2.8352
F0.0118
F17.6289
F0.061
F1.9028
F0.009
F140.0
tp1779
a(S'bvert_11MeV_45tilt_45rot_det7.npy'
p1780
F1.7572
F0.0091
F15.8097
F0.0423
F1.1304
F0.0064
F165.0
tp1781
a(S'bvert_11MeV_45tilt_45rot_det8.npy'
p1782
F0.8954
F0.0067
F17.1676
F0.0333
F0.545
F0.0046
F162.0
tp1783
a(S'bvert_11MeV_45tilt_45rot_det9.npy'
p1784
F0.2974
F0.0038
F15.5946
F0.0366
F0.1729
F0.0021
F181.0
tp1785
a(S'bvert_11MeV_45tilt_55rot_det10.npy'
p1786
F0.3006
F0.0036
F13.7581
F0.0401
F0.1741
F0.0021
F194.0
tp1787
a(S'bvert_11MeV_45tilt_55rot_det11.npy'
p1788
F0.8817
F0.0062
F17.8976
F0.0337
F0.5299
F0.0041
F169.0
tp1789
a(S'bvert_11MeV_45tilt_55rot_det12.npy'
p1790
F1.7685
F0.0103
F16.8937
F0.0408
F1.1292
F0.0075
F184.0
tp1791
a(S'bvert_11MeV_45tilt_55rot_det13.npy'
p1792
F2.8476
F0.0108
F20.0534
F0.0615
F1.8923
F0.0085
F136.0
tp1793
a(S'bvert_11MeV_45tilt_55rot_det14.npy'
p1794
F3.9141
F0.0129
F24.6226
F0.1097
F2.6891
F0.0105
F145.0
tp1795
a(S'bvert_11MeV_45tilt_55rot_det15.npy'
p1796
F4.8709
F0.0152
F39.4865
F0.3024
F3.4038
F0.0148
F69.0
tp1797
a(S'bvert_11MeV_45tilt_55rot_det4.npy'
p1798
F4.7841
F0.0155
F37.3051
F0.2585
F3.3447
F0.0135
F80.0
tp1799
a(S'bvert_11MeV_45tilt_55rot_det5.npy'
p1800
F3.8821
F0.0115
F22.7518
F0.1007
F2.6655
F0.0096
F123.0
tp1801
a(S'bvert_11MeV_45tilt_55rot_det6.npy'
p1802
F2.7629
F0.0124
F17.5069
F0.0542
F1.8519
F0.0093
F164.0
tp1803
a(S'bvert_11MeV_45tilt_55rot_det7.npy'
p1804
F1.7224
F0.0096
F15.8962
F0.0446
F1.1123
F0.007
F178.0
tp1805
a(S'bvert_11MeV_45tilt_55rot_det8.npy'
p1806
F0.8603
F0.0067
F17.1733
F0.0346
F0.5273
F0.0045
F163.0
tp1807
a(S'bvert_11MeV_45tilt_55rot_det9.npy'
p1808
F0.2949
F0.0035
F15.6189
F0.0373
F0.17
F0.002
F179.0
tp1809
a(S'bvert_11MeV_45tilt_5rot_det10.npy'
p1810
F0.2595
F0.0033
F13.6904
F0.0378
F0.1495
F0.0019
F166.0
tp1811
a(S'bvert_11MeV_45tilt_5rot_det11.npy'
p1812
F0.7811
F0.0057
F17.8848
F0.0337
F0.4745
F0.004
F176.0
tp1813
a(S'bvert_11MeV_45tilt_5rot_det12.npy'
p1814
F1.6144
F0.0095
F16.8786
F0.0412
F1.0393
F0.0067
F155.0
tp1815
a(S'bvert_11MeV_45tilt_5rot_det13.npy'
p1816
F2.6877
F0.0114
F19.8745
F0.0594
F1.8029
F0.008
F165.0
tp1817
a(S'bvert_11MeV_45tilt_5rot_det14.npy'
p1818
F3.8223
F0.0128
F24.6167
F0.0979
F2.6408
F0.0106
F147.0
tp1819
a(S'bvert_11MeV_45tilt_5rot_det15.npy'
p1820
F4.8488
F0.017
F38.9567
F0.2827
F3.3926
F0.0162
F81.0
tp1821
a(S'bvert_11MeV_45tilt_5rot_det4.npy'
p1822
F5.1748
F0.0133
F38.0969
F0.2872
F3.5904
F0.0114
F71.0
tp1823
a(S'bvert_11MeV_45tilt_5rot_det5.npy'
p1824
F4.2478
F0.0135
F22.95
F0.1087
F2.8691
F0.0125
F117.0
tp1825
a(S'bvert_11MeV_45tilt_5rot_det6.npy'
p1826
F3.0876
F0.013
F17.7864
F0.06
F2.0298
F0.01
F149.0
tp1827
a(S'bvert_11MeV_45tilt_5rot_det7.npy'
p1828
F1.8849
F0.0104
F15.8738
F0.0424
F1.1899
F0.0072
F180.0
tp1829
a(S'bvert_11MeV_45tilt_5rot_det8.npy'
p1830
F0.9309
F0.0074
F17.1274
F0.0336
F0.5589
F0.0046
F166.0
tp1831
a(S'bvert_11MeV_45tilt_5rot_det9.npy'
p1832
F0.3068
F0.0037
F15.7174
F0.0397
F0.1764
F0.0022
F167.0
tp1833
a(S'bvert_11MeV_45tilt_65rot_det10.npy'
p1834
F0.3045
F0.0042
F13.7471
F0.0414
F0.1753
F0.0024
F166.0
tp1835
a(S'bvert_11MeV_45tilt_65rot_det11.npy'
p1836
F0.8873
F0.007
F17.8686
F0.0375
F0.5351
F0.0045
F170.0
tp1837
a(S'bvert_11MeV_45tilt_65rot_det12.npy'
p1838
F1.8288
F0.009
F16.9197
F0.0391
F1.1624
F0.0064
F196.0
tp1839
a(S'bvert_11MeV_45tilt_65rot_det13.npy'
p1840
F2.9046
F0.012
F20.1142
F0.0641
F1.9237
F0.0092
F167.0
tp1841
a(S'bvert_11MeV_45tilt_65rot_det14.npy'
p1842
F3.9869
F0.0133
F24.5098
F0.1062
F2.7124
F0.0108
F128.0
tp1843
a(S'bvert_11MeV_45tilt_65rot_det15.npy'
p1844
F4.9085
F0.0148
F39.2002
F0.2736
F3.4228
F0.0133
F76.0
tp1845
a(S'bvert_11MeV_45tilt_65rot_det4.npy'
p1846
F4.7741
F0.0153
F37.7198
F0.2644
F3.3456
F0.0132
F71.0
tp1847
a(S'bvert_11MeV_45tilt_65rot_det5.npy'
p1848
F3.8246
F0.0137
F22.4378
F0.1084
F2.6325
F0.011
F129.0
tp1849
a(S'bvert_11MeV_45tilt_65rot_det6.npy'
p1850
F2.7263
F0.0107
F17.4278
F0.0498
F1.834
F0.0083
F178.0
tp1851
a(S'bvert_11MeV_45tilt_65rot_det7.npy'
p1852
F1.6729
F0.0097
F15.8351
F0.0409
F1.0812
F0.007
F176.0
tp1853
a(S'bvert_11MeV_45tilt_65rot_det8.npy'
p1854
F0.8567
F0.0069
F17.2397
F0.0372
F0.5268
F0.0044
F161.0
tp1855
a(S'bvert_11MeV_45tilt_65rot_det9.npy'
p1856
F0.2914
F0.0035
F15.6727
F0.0348
F0.1699
F0.0021
F183.0
tp1857
a(S'bvert_11MeV_45tilt_75rot_det10.npy'
p1858
F0.3052
F0.0037
F13.6941
F0.0364
F0.1756
F0.0022
F188.0
tp1859
a(S'bvert_11MeV_45tilt_75rot_det11.npy'
p1860
F0.9091
F0.007
F17.821
F0.0328
F0.5463
F0.0047
F176.0
tp1861
a(S'bvert_11MeV_45tilt_75rot_det12.npy'
p1862
F1.8651
F0.0092
F16.96
F0.0408
F1.1805
F0.0068
F201.0
tp1863
a(S'bvert_11MeV_45tilt_75rot_det13.npy'
p1864
F2.9599
F0.0114
F20.0145
F0.0515
F1.9501
F0.0088
F177.0
tp1865
a(S'bvert_11MeV_45tilt_75rot_det14.npy'
p1866
F4.0574
F0.014
F24.7032
F0.1003
F2.7542
F0.0107
F153.0
tp1867
a(S'bvert_11MeV_45tilt_75rot_det15.npy'
p1868
F5.0373
F0.0162
F39.2359
F0.3205
F3.4909
F0.0156
F70.0
tp1869
a(S'bvert_11MeV_45tilt_75rot_det4.npy'
p1870
F4.7811
F0.0127
F37.51
F0.2302
F3.347
F0.0125
F92.0
tp1871
a(S'bvert_11MeV_45tilt_75rot_det5.npy'
p1872
F3.8008
F0.012
F22.7495
F0.1014
F2.6218
F0.0112
F127.0
tp1873
a(S'bvert_11MeV_45tilt_75rot_det6.npy'
p1874
F2.6927
F0.0104
F17.4697
F0.0539
F1.8062
F0.0077
F188.0
tp1875
a(S'bvert_11MeV_45tilt_75rot_det7.npy'
p1876
F1.6347
F0.0106
F15.7859
F0.0426
F1.0556
F0.0073
F173.0
tp1877
a(S'bvert_11MeV_45tilt_75rot_det8.npy'
p1878
F0.8154
F0.0067
F17.2397
F0.0342
F0.4997
F0.0046
F174.0
tp1879
a(S'bvert_11MeV_45tilt_75rot_det9.npy'
p1880
F0.2755
F0.0031
F15.7291
F0.0397
F0.1597
F0.0018
F164.0
tp1881
a(S'bvert_11MeV_45tilt_85rot_det10.npy'
p1882
F0.3143
F0.0033
F13.8029
F0.0368
F0.1824
F0.002
F201.0
tp1883
a(S'bvert_11MeV_45tilt_85rot_det11.npy'
p1884
F0.9232
F0.007
F17.9382
F0.0326
F0.5548
F0.0044
F190.0
tp1885
a(S'bvert_11MeV_45tilt_85rot_det12.npy'
p1886
F1.8796
F0.0092
F16.9438
F0.0398
F1.1855
F0.0065
F188.0
tp1887
a(S'bvert_11MeV_45tilt_85rot_det13.npy'
p1888
F3.0386
F0.0116
F20.076
F0.0496
F1.9888
F0.0088
F189.0
tp1889
a(S'bvert_11MeV_45tilt_85rot_det14.npy'
p1890
F4.1565
F0.0129
F24.6655
F0.105
F2.7998
F0.011
F139.0
tp1891
a(S'bvert_11MeV_45tilt_85rot_det15.npy'
p1892
F5.1335
F0.0163
F39.2474
F0.2932
F3.5317
F0.0163
F66.0
tp1893
a(S'bvert_11MeV_45tilt_85rot_det4.npy'
p1894
F4.7836
F0.0148
F37.1089
F0.2742
F3.3377
F0.0144
F71.0
tp1895
a(S'bvert_11MeV_45tilt_85rot_det5.npy'
p1896
F3.7955
F0.0125
F22.5006
F0.1022
F2.6131
F0.0108
F140.0
tp1897
a(S'bvert_11MeV_45tilt_85rot_det6.npy'
p1898
F2.6905
F0.0101
F17.4579
F0.0544
F1.8139
F0.0077
F192.0
tp1899
a(S'bvert_11MeV_45tilt_85rot_det7.npy'
p1900
F1.6278
F0.0085
F15.7601
F0.0384
F1.0523
F0.0064
F168.0
tp1901
a(S'bvert_11MeV_45tilt_85rot_det8.npy'
p1902
F0.7941
F0.0068
F17.1979
F0.0356
F0.486
F0.0046
F179.0
tp1903
a(S'bvert_11MeV_45tilt_85rot_det9.npy'
p1904
F0.2664
F0.0028
F15.654
F0.0359
F0.1557
F0.0016
F190.0
tp1905
a(S'bvert_11MeV_45tilt_95rot_det10.npy'
p1906
F0.309
F0.0039
F13.8132
F0.0403
F0.1781
F0.0022
F170.0
tp1907
a(S'bvert_11MeV_45tilt_95rot_det11.npy'
p1908
F0.9065
F0.0067
F17.8476
F0.0321
F0.55
F0.0045
F178.0
tp1909
a(S'bvert_11MeV_45tilt_95rot_det12.npy'
p1910
F1.8968
F0.0102
F17.0056
F0.0411
F1.2026
F0.0071
F165.0
tp1911
a(S'bvert_11MeV_45tilt_95rot_det13.npy'
p1912
F3.0589
F0.0108
F20.1548
F0.0546
F2.0061
F0.0082
F166.0
tp1913
a(S'bvert_11MeV_45tilt_95rot_det14.npy'
p1914
F4.2418
F0.0133
F25.0089
F0.1033
F2.8443
F0.0112
F138.0
tp1915
a(S'bvert_11MeV_45tilt_95rot_det15.npy'
p1916
F5.1847
F0.0156
F39.4986
F0.2896
F3.5498
F0.0142
F87.0
tp1917
a(S'bvert_11MeV_45tilt_95rot_det4.npy'
p1918
F4.8254
F0.0175
F37.6245
F0.268
F3.3679
F0.0156
F90.0
tp1919
a(S'bvert_11MeV_45tilt_95rot_det5.npy'
p1920
F3.8092
F0.0127
F22.415
F0.0984
F2.6229
F0.0105
F138.0
tp1921
a(S'bvert_11MeV_45tilt_95rot_det6.npy'
p1922
F2.6473
F0.0135
F17.4117
F0.0637
F1.7766
F0.0109
F154.0
tp1923
a(S'bvert_11MeV_45tilt_95rot_det7.npy'
p1924
F1.6207
F0.009
F15.7565
F0.0418
F1.0491
F0.0065
F161.0
tp1925
a(S'bvert_11MeV_45tilt_95rot_det8.npy'
p1926
F0.7765
F0.0063
F17.1009
F0.03
F0.4737
F0.0042
F192.0
tp1927
a(S'bvert_11MeV_45tilt_95rot_det9.npy'
p1928
F0.2646
F0.0035
F15.6809
F0.0373
F0.1531
F0.002
F181.0
tp1929
a(S'bvert_11MeV_neg15tilt_105rot_det10.npy'
p1930
F0.2874
F0.0032
F13.7811
F0.0355
F0.1677
F0.0019
F195.0
tp1931
a(S'bvert_11MeV_neg15tilt_105rot_det11.npy'
p1932
F0.8664
F0.007
F17.98
F0.0313
F0.5318
F0.0046
F176.0
tp1933
a(S'bvert_11MeV_neg15tilt_105rot_det12.npy'
p1934
F1.8311
F0.0102
F16.9443
F0.0415
F1.1778
F0.007
F187.0
tp1935
a(S'bvert_11MeV_neg15tilt_105rot_det13.npy'
p1936
F3.0021
F0.0109
F19.9829
F0.0524
F1.9842
F0.0085
F185.0
tp1937
a(S'bvert_11MeV_neg15tilt_105rot_det14.npy'
p1938
F4.2119
F0.0145
F24.6814
F0.1074
F2.8417
F0.0122
F135.0
tp1939
a(S'bvert_11MeV_neg15tilt_105rot_det15.npy'
p1940
F5.2549
F0.0145
F39.6178
F0.321
F3.6136
F0.0139
F83.0
tp1941
a(S'bvert_11MeV_neg15tilt_105rot_det4.npy'
p1942
F4.6798
F0.0144
F37.7414
F0.242
F3.2776
F0.0117
F88.0
tp1943
a(S'bvert_11MeV_neg15tilt_105rot_det5.npy'
p1944
F3.6136
F0.0128
F22.871
F0.1005
F2.4905
F0.0107
F128.0
tp1945
a(S'bvert_11MeV_neg15tilt_105rot_det6.npy'
p1946
F2.4745
F0.0101
F17.5111
F0.0561
F1.6633
F0.0074
F164.0
tp1947
a(S'bvert_11MeV_neg15tilt_105rot_det7.npy'
p1948
F1.4671
F0.0083
F15.85
F0.0373
F0.9482
F0.0058
F183.0
tp1949
a(S'bvert_11MeV_neg15tilt_105rot_det8.npy'
p1950
F0.7071
F0.006
F17.2364
F0.0317
F0.4303
F0.0041
F181.0
tp1951
a(S'bvert_11MeV_neg15tilt_105rot_det9.npy'
p1952
F0.2405
F0.0027
F15.739
F0.0378
F0.1387
F0.0015
F198.0
tp1953
a(S'bvert_11MeV_neg15tilt_115rot_det10.npy'
p1954
F0.2675
F0.0036
F13.795
F0.04
F0.1554
F0.0021
F173.0
tp1955
a(S'bvert_11MeV_neg15tilt_115rot_det11.npy'
p1956
F0.8284
F0.0064
F17.876
F0.035
F0.5088
F0.0041
F169.0
tp1957
a(S'bvert_11MeV_neg15tilt_115rot_det12.npy'
p1958
F1.7706
F0.0102
F16.9125
F0.0421
F1.1492
F0.0073
F180.0
tp1959
a(S'bvert_11MeV_neg15tilt_115rot_det13.npy'
p1960
F2.936
F0.0128
F20.0075
F0.0694
F1.9637
F0.01
F143.0
tp1961
a(S'bvert_11MeV_neg15tilt_115rot_det14.npy'
p1962
F4.1928
F0.0127
F24.7644
F0.1045
F2.8422
F0.0108
F135.0
tp1963
a(S'bvert_11MeV_neg15tilt_115rot_det15.npy'
p1964
F5.2555
F0.0155
F39.1065
F0.3269
F3.5892
F0.0151
F83.0
tp1965
a(S'bvert_11MeV_neg15tilt_115rot_det4.npy'
p1966
F4.8148
F0.0153
F37.8468
F0.2917
F3.3522
F0.0143
F69.0
tp1967
a(S'bvert_11MeV_neg15tilt_115rot_det5.npy'
p1968
F3.7211
F0.0159
F22.7466
F0.1149
F2.5639
F0.0126
F125.0
tp1969
a(S'bvert_11MeV_neg15tilt_115rot_det6.npy'
p1970
F2.5528
F0.0096
F17.5423
F0.0555
F1.7221
F0.0076
F169.0
tp1971
a(S'bvert_11MeV_neg15tilt_115rot_det7.npy'
p1972
F1.4947
F0.0089
F15.8608
F0.0439
F0.9684
F0.0065
F164.0
tp1973
a(S'bvert_11MeV_neg15tilt_115rot_det8.npy'
p1974
F0.7061
F0.0063
F17.1998
F0.0359
F0.4311
F0.004
F159.0
tp1975
a(S'bvert_11MeV_neg15tilt_115rot_det9.npy'
p1976
F0.2403
F0.003
F15.7146
F0.0367
F0.139
F0.0017
F182.0
tp1977
a(S'bvert_11MeV_neg15tilt_125rot_det10.npy'
p1978
F0.2545
F0.0033
F13.8839
F0.0402
F0.1493
F0.002
F173.0
tp1979
a(S'bvert_11MeV_neg15tilt_125rot_det11.npy'
p1980
F0.8081
F0.007
F17.8615
F0.036
F0.5011
F0.0049
F159.0
tp1981
a(S'bvert_11MeV_neg15tilt_125rot_det12.npy'
p1982
F1.7315
F0.0099
F17.0328
F0.0421
F1.1284
F0.007
F177.0
tp1983
a(S'bvert_11MeV_neg15tilt_125rot_det13.npy'
p1984
F2.8725
F0.0126
F19.9983
F0.0588
F1.9281
F0.0097
F154.0
tp1985
a(S'bvert_11MeV_neg15tilt_125rot_det14.npy'
p1986
F4.1432
F0.0152
F24.9527
F0.1093
F2.837
F0.0115
F128.0
tp1987
a(S'bvert_11MeV_neg15tilt_125rot_det15.npy'
p1988
F5.2417
F0.0163
F39.3522
F0.2533
F3.6083
F0.0143
F81.0
tp1989
a(S'bvert_11MeV_neg15tilt_125rot_det4.npy'
p1990
F4.9572
F0.0164
F37.8663
F0.2592
F3.4576
F0.0146
F85.0
tp1991
a(S'bvert_11MeV_neg15tilt_125rot_det5.npy'
p1992
F3.8337
F0.0152
F22.6711
F0.1082
F2.6309
F0.0114
F112.0
tp1993
a(S'bvert_11MeV_neg15tilt_125rot_det6.npy'
p1994
F2.6373
F0.0125
F17.6483
F0.0624
F1.7715
F0.0092
F148.0
tp1995
a(S'bvert_11MeV_neg15tilt_125rot_det7.npy'
p1996
F1.5215
F0.0092
F15.8244
F0.0405
F0.9837
F0.0067
F183.0
tp1997
a(S'bvert_11MeV_neg15tilt_125rot_det8.npy'
p1998
F0.7188
F0.0063
F17.2301
F0.0351
F0.4415
F0.0041
F169.0
tp1999
a(S'bvert_11MeV_neg15tilt_125rot_det9.npy'
p2000
F0.2306
F0.0029
F15.7303
F0.0345
F0.1329
F0.0017
F168.0
tp2001
a(S'bvert_11MeV_neg15tilt_135rot_det10.npy'
p2002
F0.2621
F0.0034
F13.9132
F0.0375
F0.1527
F0.002
F159.0
tp2003
a(S'bvert_11MeV_neg15tilt_135rot_det11.npy'
p2004
F0.7697
F0.0064
F17.9254
F0.0366
F0.4724
F0.0044
F150.0
tp2005
a(S'bvert_11MeV_neg15tilt_135rot_det12.npy'
p2006
F1.6784
F0.0094
F16.9522
F0.04
F1.0945
F0.0068
F170.0
tp2007
a(S'bvert_11MeV_neg15tilt_135rot_det13.npy'
p2008
F2.8031
F0.0113
F20.1151
F0.0549
F1.8849
F0.0088
F163.0
tp2009
a(S'bvert_11MeV_neg15tilt_135rot_det14.npy'
p2010
F4.0297
F0.0149
F24.7777
F0.1135
F2.7747
F0.0124
F145.0
tp2011
a(S'bvert_11MeV_neg15tilt_135rot_det15.npy'
p2012
F5.1606
F0.0155
F39.621
F0.321
F3.574
F0.0155
F66.0
tp2013
a(S'bvert_11MeV_neg15tilt_135rot_det4.npy'
p2014
F5.1164
F0.0161
F37.9359
F0.2867
F3.5214
F0.0148
F98.0
tp2015
a(S'bvert_11MeV_neg15tilt_135rot_det5.npy'
p2016
F3.9754
F0.0139
F22.7227
F0.1051
F2.7216
F0.0106
F135.0
tp2017
a(S'bvert_11MeV_neg15tilt_135rot_det6.npy'
p2018
F2.7326
F0.0131
F17.6018
F0.0523
F1.8415
F0.0105
F163.0
tp2019
a(S'bvert_11MeV_neg15tilt_135rot_det7.npy'
p2020
F1.6042
F0.0089
F15.8328
F0.0429
F1.0397
F0.0065
F173.0
tp2021
a(S'bvert_11MeV_neg15tilt_135rot_det8.npy'
p2022
F0.7504
F0.0064
F17.2093
F0.0371
F0.4613
F0.0043
F163.0
tp2023
a(S'bvert_11MeV_neg15tilt_135rot_det9.npy'
p2024
F0.2297
F0.003
F15.5889
F0.0369
F0.1333
F0.0018
F164.0
tp2025
a(S'bvert_11MeV_neg15tilt_145rot_det10.npy'
p2026
F0.246
F0.0029
F13.8706
F0.0386
F0.1417
F0.0017
F179.0
tp2027
a(S'bvert_11MeV_neg15tilt_145rot_det11.npy'
p2028
F0.7566
F0.0065
F17.9095
F0.035
F0.4638
F0.0042
F164.0
tp2029
a(S'bvert_11MeV_neg15tilt_145rot_det12.npy'
p2030
F1.6009
F0.0088
F16.9227
F0.0367
F1.0459
F0.0063
F186.0
tp2031
a(S'bvert_11MeV_neg15tilt_145rot_det13.npy'
p2032
F2.7144
F0.0114
F20.1566
F0.0578
F1.837
F0.0085
F173.0
tp2033
a(S'bvert_11MeV_neg15tilt_145rot_det14.npy'
p2034
F3.9199
F0.0146
F24.8115
F0.1064
F2.721
F0.012
F133.0
tp2035
a(S'bvert_11MeV_neg15tilt_145rot_det15.npy'
p2036
F5.0444
F0.0204
F39.5013
F0.3307
F3.537
F0.0162
F65.0
tp2037
a(S'bvert_11MeV_neg15tilt_145rot_det4.npy'
p2038
F5.2384
F0.0131
F37.6517
F0.2433
F3.5816
F0.0123
F85.0
tp2039
a(S'bvert_11MeV_neg15tilt_145rot_det5.npy'
p2040
F4.1014
F0.0156
F22.704
F0.1069
F2.7889
F0.0123
F130.0
tp2041
a(S'bvert_11MeV_neg15tilt_145rot_det6.npy'
p2042
F2.8301
F0.012
F17.4685
F0.0527
F1.8899
F0.0094
F150.0
tp2043
a(S'bvert_11MeV_neg15tilt_145rot_det7.npy'
p2044
F1.6637
F0.0095
F15.7404
F0.0412
F1.0744
F0.0068
F166.0
tp2045
a(S'bvert_11MeV_neg15tilt_145rot_det8.npy'
p2046
F0.7668
F0.0062
F17.1852
F0.0318
F0.4716
F0.0041
F180.0
tp2047
a(S'bvert_11MeV_neg15tilt_145rot_det9.npy'
p2048
F0.2481
F0.0035
F15.6983
F0.0382
F0.1448
F0.002
F161.0
tp2049
a(S'bvert_11MeV_neg15tilt_15rot_det10.npy'
p2050
F0.2543
F0.0031
F13.7473
F0.0436
F0.1483
F0.0018
F174.0
tp2051
a(S'bvert_11MeV_neg15tilt_15rot_det11.npy'
p2052
F0.7401
F0.0059
F17.8636
F0.0385
F0.4522
F0.0039
F166.0
tp2053
a(S'bvert_11MeV_neg15tilt_15rot_det12.npy'
p2054
F1.4972
F0.0091
F16.9616
F0.0458
F0.969
F0.0066
F181.0
tp2055
a(S'bvert_11MeV_neg15tilt_15rot_det13.npy'
p2056
F2.4509
F0.0111
F20.0933
F0.0643
F1.6493
F0.0089
F158.0
tp2057
a(S'bvert_11MeV_neg15tilt_15rot_det14.npy'
p2058
F3.4946
F0.0115
F25.0403
F0.1035
F2.4142
F0.0101
F146.0
tp2059
a(S'bvert_11MeV_neg15tilt_15rot_det15.npy'
p2060
F4.4189
F0.0127
F39.1521
F0.2746
F3.1178
F0.0117
F86.0
tp2061
a(S'bvert_11MeV_neg15tilt_15rot_det4.npy'
p2062
F4.9368
F0.0133
F38.4017
F0.2749
F3.4705
F0.0135
F85.0
tp2063
a(S'bvert_11MeV_neg15tilt_15rot_det5.npy'
p2064
F4.0563
F0.013
F22.7992
F0.1022
F2.794
F0.0102
F138.0
tp2065
a(S'bvert_11MeV_neg15tilt_15rot_det6.npy'
p2066
F2.9552
F0.011
F17.5663
F0.0568
F1.9691
F0.0084
F172.0
tp2067
a(S'bvert_11MeV_neg15tilt_15rot_det7.npy'
p2068
F1.8502
F0.011
F15.7293
F0.0401
F1.1787
F0.0079
F167.0
tp2069
a(S'bvert_11MeV_neg15tilt_15rot_det8.npy'
p2070
F0.902
F0.0077
F17.0897
F0.0379
F0.5449
F0.005
F159.0
tp2071
a(S'bvert_11MeV_neg15tilt_15rot_det9.npy'
p2072
F0.3048
F0.0039
F15.5453
F0.0364
F0.1764
F0.0022
F170.0
tp2073
a(S'bvert_11MeV_neg15tilt_25rot_det10.npy'
p2074
F0.2665
F0.0034
F13.7246
F0.0429
F0.1566
F0.002
F157.0
tp2075
a(S'bvert_11MeV_neg15tilt_25rot_det11.npy'
p2076
F0.7646
F0.0059
F17.8743
F0.0384
F0.4693
F0.0039
F158.0
tp2077
a(S'bvert_11MeV_neg15tilt_25rot_det12.npy'
p2078
F1.545
F0.0085
F16.9164
F0.0463
F1.0022
F0.0062
F166.0
tp2079
a(S'bvert_11MeV_neg15tilt_25rot_det13.npy'
p2080
F2.4784
F0.011
F20.0438
F0.0609
F1.6689
F0.0088
F162.0
tp2081
a(S'bvert_11MeV_neg15tilt_25rot_det14.npy'
p2082
F3.48
F0.0108
F24.9003
F0.0954
F2.4044
F0.0089
F144.0
tp2083
a(S'bvert_11MeV_neg15tilt_25rot_det15.npy'
p2084
F4.3945
F0.0128
F39.9237
F0.2793
F3.0733
F0.0119
F93.0
tp2085
a(S'bvert_11MeV_neg15tilt_25rot_det4.npy'
p2086
F4.7974
F0.014
F38.0347
F0.2705
F3.3818
F0.0123
F86.0
tp2087
a(S'bvert_11MeV_neg15tilt_25rot_det5.npy'
p2088
F3.9566
F0.0116
F22.8274
F0.1167
F2.7433
F0.0102
F115.0
tp2089
a(S'bvert_11MeV_neg15tilt_25rot_det6.npy'
p2090
F2.8699
F0.0135
F17.5887
F0.0641
F1.9335
F0.0104
F145.0
tp2091
a(S'bvert_11MeV_neg15tilt_25rot_det7.npy'
p2092
F1.8269
F0.0091
F15.8001
F0.0423
F1.1746
F0.0066
F173.0
tp2093
a(S'bvert_11MeV_neg15tilt_25rot_det8.npy'
p2094
F0.9069
F0.008
F17.1604
F0.0397
F0.5516
F0.0053
F157.0
tp2095
a(S'bvert_11MeV_neg15tilt_25rot_det9.npy'
p2096
F0.3137
F0.0038
F15.5589
F0.0367
F0.1814
F0.0021
F167.0
tp2097
a(S'bvert_11MeV_neg15tilt_315rot_det10.npy'
p2098
F0.2555
F0.0031
F13.8096
F0.0366
F0.1482
F0.0019
F179.0
tp2099
a(S'bvert_11MeV_neg15tilt_315rot_det11.npy'
p2100
F0.7849
F0.006
F17.9983
F0.0313
F0.484
F0.0039
F165.0
tp2101
a(S'bvert_11MeV_neg15tilt_315rot_det12.npy'
p2102
F1.6584
F0.01
F16.8931
F0.0407
F1.0842
F0.0072
F184.0
tp2103
a(S'bvert_11MeV_neg15tilt_315rot_det13.npy'
p2104
F2.8157
F0.0118
F20.0892
F0.057
F1.8997
F0.009
F188.0
tp2105
a(S'bvert_11MeV_neg15tilt_315rot_det14.npy'
p2106
F4.0753
F0.0128
F24.8361
F0.0974
F2.8144
F0.0099
F164.0
tp2107
a(S'bvert_11MeV_neg15tilt_315rot_det15.npy'
p2108
F5.1589
F0.0168
F39.7397
F0.3346
F3.5697
F0.0144
F66.0
tp2109
a(S'bvert_11MeV_neg15tilt_315rot_det4.npy'
p2110
F5.1301
F0.0152
F37.8399
F0.2684
F3.537
F0.0131
F83.0
tp2111
a(S'bvert_11MeV_neg15tilt_315rot_det5.npy'
p2112
F4.0024
F0.0123
F22.8632
F0.1033
F2.7501
F0.0104
F133.0
tp2113
a(S'bvert_11MeV_neg15tilt_315rot_det6.npy'
p2114
F2.758
F0.0121
F17.5762
F0.0563
F1.85
F0.0087
F164.0
tp2115
a(S'bvert_11MeV_neg15tilt_315rot_det7.npy'
p2116
F1.611
F0.0084
F15.7832
F0.0401
F1.0444
F0.0061
F189.0
tp2117
a(S'bvert_11MeV_neg15tilt_315rot_det8.npy'
p2118
F0.7543
F0.006
F17.1618
F0.0343
F0.4622
F0.0041
F208.0
tp2119
a(S'bvert_11MeV_neg15tilt_315rot_det9.npy'
p2120
F0.247
F0.0029
F15.7032
F0.0368
F0.1432
F0.0017
F192.0
tp2121
a(S'bvert_11MeV_neg15tilt_325rot_det10.npy'
p2122
F0.2386
F0.0033
F13.7897
F0.0411
F0.1399
F0.002
F158.0
tp2123
a(S'bvert_11MeV_neg15tilt_325rot_det11.npy'
p2124
F0.7609
F0.0054
F17.9126
F0.0337
F0.4668
F0.0036
F180.0
tp2125
a(S'bvert_11MeV_neg15tilt_325rot_det12.npy'
p2126
F1.6004
F0.0094
F16.892
F0.0398
F1.0464
F0.0067
F181.0
tp2127
a(S'bvert_11MeV_neg15tilt_325rot_det13.npy'
p2128
F2.7447
F0.012
F20.0784
F0.0578
F1.8624
F0.0091
F163.0
tp2129
a(S'bvert_11MeV_neg15tilt_325rot_det14.npy'
p2130
F3.9515
F0.0131
F25.0154
F0.1105
F2.7422
F0.0102
F133.0
tp2131
a(S'bvert_11MeV_neg15tilt_325rot_det15.npy'
p2132
F5.0537
F0.0171
F39.3521
F0.2708
F3.5179
F0.0157
F66.0
tp2133
a(S'bvert_11MeV_neg15tilt_325rot_det4.npy'
p2134
F5.2723
F0.016
F38.0307
F0.2824
F3.5943
F0.0137
F77.0
tp2135
a(S'bvert_11MeV_neg15tilt_325rot_det5.npy'
p2136
F4.1557
F0.0147
F22.9878
F0.116
F2.8225
F0.0116
F131.0
tp2137
a(S'bvert_11MeV_neg15tilt_325rot_det6.npy'
p2138
F2.8626
F0.0128
F17.6272
F0.0591
F1.9163
F0.0093
F182.0
tp2139
a(S'bvert_11MeV_neg15tilt_325rot_det7.npy'
p2140
F1.6785
F0.009
F15.7544
F0.0373
F1.0896
F0.0066
F203.0
tp2141
a(S'bvert_11MeV_neg15tilt_325rot_det8.npy'
p2142
F0.7799
F0.0065
F17.165
F0.0352
F0.4779
F0.0044
F169.0
tp2143
a(S'bvert_11MeV_neg15tilt_325rot_det9.npy'
p2144
F0.2613
F0.003
F15.6642
F0.0372
F0.1536
F0.0018
F181.0
tp2145
a(S'bvert_11MeV_neg15tilt_335rot_det10.npy'
p2146
F0.2365
F0.0027
F13.8604
F0.0363
F0.1367
F0.0015
F188.0
tp2147
a(S'bvert_11MeV_neg15tilt_335rot_det11.npy'
p2148
F0.7235
F0.006
F17.9322
F0.0335
F0.443
F0.0041
F158.0
tp2149
a(S'bvert_11MeV_neg15tilt_335rot_det12.npy'
p2150
F1.5466
F0.0087
F16.84
F0.0372
F1.0081
F0.0064
F194.0
tp2151
a(S'bvert_11MeV_neg15tilt_335rot_det13.npy'
p2152
F2.6835
F0.0112
F20.1186
F0.0553
F1.8173
F0.0088
F176.0
tp2153
a(S'bvert_11MeV_neg15tilt_335rot_det14.npy'
p2154
F3.8555
F0.0122
F24.8829
F0.0993
F2.6737
F0.0098
F159.0
tp2155
a(S'bvert_11MeV_neg15tilt_335rot_det15.npy'
p2156
F4.9355
F0.0182
F39.5133
F0.3335
F3.446
F0.0152
F71.0
tp2157
a(S'bvert_11MeV_neg15tilt_335rot_det4.npy'
p2158
F5.273
F0.0146
F37.9878
F0.2801
F3.5917
F0.0126
F75.0
tp2159
a(S'bvert_11MeV_neg15tilt_335rot_det5.npy'
p2160
F4.2141
F0.0129
F22.8853
F0.0989
F2.8395
F0.011
F155.0
tp2161
a(S'bvert_11MeV_neg15tilt_335rot_det6.npy'
p2162
F2.9599
F0.0115
F17.5724
F0.0554
F1.9618
F0.0088
F208.0
tp2163
a(S'bvert_11MeV_neg15tilt_335rot_det7.npy'
p2164
F1.7467
F0.0093
F15.7185
F0.0409
F1.1243
F0.0064
F177.0
tp2165
a(S'bvert_11MeV_neg15tilt_335rot_det8.npy'
p2166
F0.8231
F0.0078
F17.1247
F0.0409
F0.5067
F0.0052
F145.0
tp2167
a(S'bvert_11MeV_neg15tilt_335rot_det9.npy'
p2168
F0.264
F0.0033
F15.6529
F0.0387
F0.1539
F0.002
F191.0
tp2169
a(S'bvert_11MeV_neg15tilt_345rot_det10.npy'
p2170
F0.2423
F0.0031
F13.8695
F0.0376
F0.1403
F0.0018
F157.0
tp2171
a(S'bvert_11MeV_neg15tilt_345rot_det11.npy'
p2172
F0.71
F0.0061
F17.9274
F0.0356
F0.4339
F0.0041
F148.0
tp2173
a(S'bvert_11MeV_neg15tilt_345rot_det12.npy'
p2174
F1.5268
F0.0081
F16.9777
F0.0373
F0.9898
F0.0058
F198.0
tp2175
a(S'bvert_11MeV_neg15tilt_345rot_det13.npy'
p2176
F2.5675
F0.0124
F20.2323
F0.0623
F1.7353
F0.0095
F171.0
tp2177
a(S'bvert_11MeV_neg15tilt_345rot_det14.npy'
p2178
F3.755
F0.0106
F25.0233
F0.101
F2.6101
F0.0094
F132.0
tp2179
a(S'bvert_11MeV_neg15tilt_345rot_det15.npy'
p2180
F4.8506
F0.0148
F40.2734
F0.2926
F3.4073
F0.0129
F79.0
tp2181
a(S'bvert_11MeV_neg15tilt_345rot_det4.npy'
p2182
F5.2502
F0.014
F37.8646
F0.2765
F3.6098
F0.0143
F89.0
tp2183
a(S'bvert_11MeV_neg15tilt_345rot_det5.npy'
p2184
F4.315
F0.0117
F23.084
F0.1042
F2.9194
F0.0106
F130.0
tp2185
a(S'bvert_11MeV_neg15tilt_345rot_det6.npy'
p2186
F3.0356
F0.0129
F17.5291
F0.0581
F1.9977
F0.0099
F154.0
tp2187
a(S'bvert_11MeV_neg15tilt_345rot_det7.npy'
p2188
F1.7993
F0.01
F15.6874
F0.0413
F1.1513
F0.0069
F193.0
tp2189
a(S'bvert_11MeV_neg15tilt_345rot_det8.npy'
p2190
F0.8467
F0.007
F17.1089
F0.0387
F0.5157
F0.0047
F154.0
tp2191
a(S'bvert_11MeV_neg15tilt_345rot_det9.npy'
p2192
F0.2733
F0.0033
F15.6427
F0.034
F0.1596
F0.002
F187.0
tp2193
a(S'bvert_11MeV_neg15tilt_355rot_det10.npy'
p2194
F0.2452
F0.003
F13.794
F0.0368
F0.1422
F0.0017
F200.0
tp2195
a(S'bvert_11MeV_neg15tilt_355rot_det11.npy'
p2196
F0.704
F0.0058
F17.9313
F0.0365
F0.4317
F0.0038
F180.0
tp2197
a(S'bvert_11MeV_neg15tilt_355rot_det12.npy'
p2198
F1.4874
F0.009
F16.9095
F0.0422
F0.9645
F0.0063
F164.0
tp2199
a(S'bvert_11MeV_neg15tilt_355rot_det13.npy'
p2200
F2.4912
F0.012
F20.19
F0.0581
F1.6822
F0.0091
F175.0
tp2201
a(S'bvert_11MeV_neg15tilt_355rot_det14.npy'
p2202
F3.6363
F0.0135
F24.8308
F0.1095
F2.5178
F0.0113
F116.0
tp2203
a(S'bvert_11MeV_neg15tilt_355rot_det15.npy'
p2204
F4.6885
F0.0149
F40.2566
F0.2967
F3.3053
F0.0146
F84.0
tp2205
a(S'bvert_11MeV_neg15tilt_355rot_det4.npy'
p2206
F5.1532
F0.0174
F38.0404
F0.2721
F3.5644
F0.0148
F80.0
tp2207
a(S'bvert_11MeV_neg15tilt_355rot_det5.npy'
p2208
F4.2364
F0.0113
F22.8129
F0.0975
F2.8731
F0.0096
F141.0
tp2209
a(S'bvert_11MeV_neg15tilt_355rot_det6.npy'
p2210
F3.0413
F0.0113
F17.5103
F0.0549
F2.004
F0.0091
F176.0
tp2211
a(S'bvert_11MeV_neg15tilt_355rot_det7.npy'
p2212
F1.8506
F0.0105
F15.7376
F0.0453
F1.1784
F0.0078
F170.0
tp2213
a(S'bvert_11MeV_neg15tilt_355rot_det8.npy'
p2214
F0.8864
F0.0072
F17.0376
F0.0352
F0.541
F0.0048
F164.0
tp2215
a(S'bvert_11MeV_neg15tilt_355rot_det9.npy'
p2216
F0.2948
F0.004
F15.6362
F0.0401
F0.1728
F0.0022
F160.0
tp2217
a(S'bvert_11MeV_neg15tilt_35rot_det10.npy'
p2218
F0.2723
F0.0034
F13.7544
F0.0357
F0.1585
F0.0019
F160.0
tp2219
a(S'bvert_11MeV_neg15tilt_35rot_det11.npy'
p2220
F0.803
F0.0066
F17.896
F0.0341
F0.4924
F0.0044
F160.0
tp2221
a(S'bvert_11MeV_neg15tilt_35rot_det12.npy'
p2222
F1.6115
F0.0095
F16.939
F0.0452
F1.0477
F0.007
F179.0
tp2223
a(S'bvert_11MeV_neg15tilt_35rot_det13.npy'
p2224
F2.5614
F0.0104
F20.2393
F0.0574
F1.7235
F0.0079
F187.0
tp2225
a(S'bvert_11MeV_neg15tilt_35rot_det14.npy'
p2226
F3.5187
F0.0108
F24.6132
F0.1055
F2.4344
F0.0096
F134.0
tp2227
a(S'bvert_11MeV_neg15tilt_35rot_det15.npy'
p2228
F4.4096
F0.0134
F39.9209
F0.3173
F3.1098
F0.0126
F74.0
tp2229
a(S'bvert_11MeV_neg15tilt_35rot_det4.npy'
p2230
F4.6653
F0.0155
F37.9304
F0.3296
F3.2901
F0.0142
F67.0
tp2231
a(S'bvert_11MeV_neg15tilt_35rot_det5.npy'
p2232
F3.8407
F0.0135
F22.8667
F0.1117
F2.6653
F0.0116
F116.0
tp2233
a(S'bvert_11MeV_neg15tilt_35rot_det6.npy'
p2234
F2.8248
F0.0117
F17.6137
F0.062
F1.9098
F0.0091
F150.0
tp2235
a(S'bvert_11MeV_neg15tilt_35rot_det7.npy'
p2236
F1.7787
F0.0092
F15.8067
F0.0437
F1.1512
F0.0067
F160.0
tp2237
a(S'bvert_11MeV_neg15tilt_35rot_det8.npy'
p2238
F0.9062
F0.0075
F17.1695
F0.0365
F0.558
F0.0049
F162.0
tp2239
a(S'bvert_11MeV_neg15tilt_35rot_det9.npy'
p2240
F0.3111
F0.0037
F15.5543
F0.0343
F0.1807
F0.0022
F202.0
tp2241
a(S'bvert_11MeV_neg15tilt_45rot_det10.npy'
p2242
F0.2912
F0.0039
F13.7
F0.0408
F0.168
F0.0022
F169.0
tp2243
a(S'bvert_11MeV_neg15tilt_45rot_det11.npy'
p2244
F0.8398
F0.0067
F17.7954
F0.0327
F0.5148
F0.0045
F188.0
tp2245
a(S'bvert_11MeV_neg15tilt_45rot_det12.npy'
p2246
F1.6692
F0.0095
F16.8978
F0.0435
F1.0811
F0.0069
F175.0
tp2247
a(S'bvert_11MeV_neg15tilt_45rot_det13.npy'
p2248
F2.638
F0.0106
F20.1334
F0.0516
F1.7768
F0.0079
F184.0
tp2249
a(S'bvert_11MeV_neg15tilt_45rot_det14.npy'
p2250
F3.6153
F0.0127
F24.7202
F0.1128
F2.4973
F0.0102
F122.0
tp2251
a(S'bvert_11MeV_neg15tilt_45rot_det15.npy'
p2252
F4.4371
F0.0128
F38.9571
F0.2673
F3.1083
F0.0119
F87.0
tp2253
a(S'bvert_11MeV_neg15tilt_45rot_det4.npy'
p2254
F4.5592
F0.0127
F38.435
F0.2902
F3.2094
F0.0127
F73.0
tp2255
a(S'bvert_11MeV_neg15tilt_45rot_det5.npy'
p2256
F3.7104
F0.0139
F22.8745
F0.1088
F2.5753
F0.0107
F101.0
tp2257
a(S'bvert_11MeV_neg15tilt_45rot_det6.npy'
p2258
F2.7382
F0.0108
F17.6537
F0.0678
F1.8584
F0.0088
F141.0
tp2259
a(S'bvert_11MeV_neg15tilt_45rot_det7.npy'
p2260
F1.6993
F0.0098
F15.8303
F0.0418
F1.1061
F0.007
F152.0
tp2261
a(S'bvert_11MeV_neg15tilt_45rot_det8.npy'
p2262
F0.8559
F0.007
F17.1083
F0.0368
F0.5264
F0.0046
F159.0
tp2263
a(S'bvert_11MeV_neg15tilt_45rot_det9.npy'
p2264
F0.3003
F0.0033
F15.5719
F0.0369
F0.1748
F0.0019
F191.0
tp2265
a(S'bvert_11MeV_neg15tilt_55rot_det10.npy'
p2266
F0.2975
F0.0035
F13.6549
F0.0375
F0.1719
F0.0021
F166.0
tp2267
a(S'bvert_11MeV_neg15tilt_55rot_det11.npy'
p2268
F0.8531
F0.007
F17.7384
F0.0317
F0.5165
F0.0048
F186.0
tp2269
a(S'bvert_11MeV_neg15tilt_55rot_det12.npy'
p2270
F1.7266
F0.0097
F16.9433
F0.0438
F1.1132
F0.0071
F174.0
tp2271
a(S'bvert_11MeV_neg15tilt_55rot_det13.npy'
p2272
F2.6988
F0.0103
F19.9438
F0.0558
F1.8095
F0.0078
F178.0
tp2273
a(S'bvert_11MeV_neg15tilt_55rot_det14.npy'
p2274
F3.7252
F0.012
F24.8646
F0.1009
F2.5746
F0.0103
F143.0
tp2275
a(S'bvert_11MeV_neg15tilt_55rot_det15.npy'
p2276
F4.5378
F0.0128
F39.6913
F0.3003
F3.17
F0.0129
F76.0
tp2277
a(S'bvert_11MeV_neg15tilt_55rot_det4.npy'
p2278
F4.4191
F0.0142
F37.7322
F0.3005
F3.1121
F0.0114
F82.0
tp2279
a(S'bvert_11MeV_neg15tilt_55rot_det5.npy'
p2280
F3.6243
F0.012
F22.9877
F0.0985
F2.5202
F0.0105
F130.0
tp2281
a(S'bvert_11MeV_neg15tilt_55rot_det6.npy'
p2282
F2.6133
F0.0106
F17.5063
F0.0593
F1.7667
F0.0081
F161.0
tp2283
a(S'bvert_11MeV_neg15tilt_55rot_det7.npy'
p2284
F1.652
F0.009
F15.78
F0.0443
F1.0762
F0.0067
F184.0
tp2285
a(S'bvert_11MeV_neg15tilt_55rot_det8.npy'
p2286
F0.8447
F0.0062
F17.1684
F0.0375
F0.5205
F0.0045
F145.0
tp2287
a(S'bvert_11MeV_neg15tilt_55rot_det9.npy'
p2288
F0.2927
F0.0036
F15.6449
F0.0346
F0.1719
F0.0021
F189.0
tp2289
a(S'bvert_11MeV_neg15tilt_5rot_det10.npy'
p2290
F0.2481
F0.0032
F13.7696
F0.0379
F0.144
F0.0019
F170.0
tp2291
a(S'bvert_11MeV_neg15tilt_5rot_det11.npy'
p2292
F0.712
F0.0061
F17.8714
F0.0393
F0.4348
F0.004
F150.0
tp2293
a(S'bvert_11MeV_neg15tilt_5rot_det12.npy'
p2294
F1.4755
F0.0081
F16.9274
F0.0378
F0.9547
F0.006
F183.0
tp2295
a(S'bvert_11MeV_neg15tilt_5rot_det13.npy'
p2296
F2.458
F0.011
F20.1695
F0.056
F1.6584
F0.0078
F173.0
tp2297
a(S'bvert_11MeV_neg15tilt_5rot_det14.npy'
p2298
F3.5292
F0.0106
F24.8216
F0.1065
F2.4368
F0.0084
F133.0
tp2299
a(S'bvert_11MeV_neg15tilt_5rot_det15.npy'
p2300
F4.5673
F0.0136
F39.6648
F0.2761
F3.2148
F0.0127
F84.0
tp2301
a(S'bvert_11MeV_neg15tilt_5rot_det4.npy'
p2302
F5.0456
F0.0147
F38.3995
F0.3079
F3.515
F0.0152
F73.0
tp2303
a(S'bvert_11MeV_neg15tilt_5rot_det5.npy'
p2304
F4.1419
F0.014
F22.8814
F0.1125
F2.8375
F0.0114
F127.0
tp2305
a(S'bvert_11MeV_neg15tilt_5rot_det6.npy'
p2306
F3.0311
F0.0119
F17.6185
F0.0638
F2.0028
F0.0089
F169.0
tp2307
a(S'bvert_11MeV_neg15tilt_5rot_det7.npy'
p2308
F1.8612
F0.0094
F15.6631
F0.0421
F1.1827
F0.0068
F185.0
tp2309
a(S'bvert_11MeV_neg15tilt_5rot_det8.npy'
p2310
F0.9105
F0.0071
F17.1095
F0.0335
F0.5493
F0.0044
F157.0
tp2311
a(S'bvert_11MeV_neg15tilt_5rot_det9.npy'
p2312
F0.2998
F0.0042
F15.5997
F0.0373
F0.175
F0.0024
F174.0
tp2313
a(S'bvert_11MeV_neg15tilt_65rot_det10.npy'
p2314
F0.2968
F0.004
F13.6952
F0.0437
F0.1711
F0.0022
F160.0
tp2315
a(S'bvert_11MeV_neg15tilt_65rot_det11.npy'
p2316
F0.8825
F0.0078
F17.7661
F0.0418
F0.5358
F0.005
F147.0
tp2317
a(S'bvert_11MeV_neg15tilt_65rot_det12.npy'
p2318
F1.7793
F0.0098
F16.8346
F0.0415
F1.1378
F0.0069
F191.0
tp2319
a(S'bvert_11MeV_neg15tilt_65rot_det13.npy'
p2320
F2.8078
F0.0116
F20.013
F0.0571
F1.8744
F0.0091
F148.0
tp2321
a(S'bvert_11MeV_neg15tilt_65rot_det14.npy'
p2322
F3.833
F0.0118
F24.6358
F0.113
F2.6377
F0.0097
F142.0
tp2323
a(S'bvert_11MeV_neg15tilt_65rot_det15.npy'
p2324
F4.6768
F0.0146
F39.2036
F0.301
F3.277
F0.0123
F71.0
tp2325
a(S'bvert_11MeV_neg15tilt_65rot_det4.npy'
p2326
F4.3827
F0.0129
F38.3378
F0.2935
F3.0781
F0.0122
F79.0
tp2327
a(S'bvert_11MeV_neg15tilt_65rot_det5.npy'
p2328
F3.4975
F0.0116
F22.7353
F0.1062
F2.4155
F0.0099
F116.0
tp2329
a(S'bvert_11MeV_neg15tilt_65rot_det6.npy'
p2330
F2.5536
F0.011
F17.6681
F0.0588
F1.7253
F0.0085
F141.0
tp2331
a(S'bvert_11MeV_neg15tilt_65rot_det7.npy'
p2332
F1.5869
F0.0097
F15.879
F0.0432
F1.0344
F0.0071
F150.0
tp2333
a(S'bvert_11MeV_neg15tilt_65rot_det8.npy'
p2334
F0.8089
F0.0065
F17.2176
F0.0365
F0.4979
F0.0044
F156.0
tp2335
a(S'bvert_11MeV_neg15tilt_65rot_det9.npy'
p2336
F0.2837
F0.0035
F15.6885
F0.0345
F0.1663
F0.0021
F170.0
tp2337
a(S'bvert_11MeV_neg15tilt_75rot_det10.npy'
p2338
F0.2986
F0.004
F13.6954
F0.0386
F0.1727
F0.0023
F170.0
tp2339
a(S'bvert_11MeV_neg15tilt_75rot_det11.npy'
p2340
F0.91
F0.0073
F17.7911
F0.0353
F0.5513
F0.0048
F169.0
tp2341
a(S'bvert_11MeV_neg15tilt_75rot_det12.npy'
p2342
F1.8667
F0.0102
F16.8949
F0.042
F1.1846
F0.0074
F187.0
tp2343
a(S'bvert_11MeV_neg15tilt_75rot_det13.npy'
p2344
F2.9321
F0.0107
F20.0048
F0.0544
F1.9409
F0.008
F170.0
tp2345
a(S'bvert_11MeV_neg15tilt_75rot_det14.npy'
p2346
F3.9826
F0.0116
F24.6673
F0.1012
F2.7224
F0.01
F136.0
tp2347
a(S'bvert_11MeV_neg15tilt_75rot_det15.npy'
p2348
F4.8374
F0.0123
F39.1134
F0.2683
F3.3836
F0.0116
F75.0
tp2349
a(S'bvert_11MeV_neg15tilt_75rot_det4.npy'
p2350
F4.371
F0.013
F37.8556
F0.264
F3.0713
F0.012
F82.0
tp2351
a(S'bvert_11MeV_neg15tilt_75rot_det5.npy'
p2352
F3.4676
F0.0096
F22.839
F0.0933
F2.3967
F0.0086
F132.0
tp2353
a(S'bvert_11MeV_neg15tilt_75rot_det6.npy'
p2354
F2.4879
F0.01
F17.5291
F0.0547
F1.6782
F0.0078
F176.0
tp2355
a(S'bvert_11MeV_neg15tilt_75rot_det7.npy'
p2356
F1.5533
F0.0094
F15.8817
F0.0475
F1.0093
F0.0069
F142.0
tp2357
a(S'bvert_11MeV_neg15tilt_75rot_det8.npy'
p2358
F0.77
F0.0063
F17.2039
F0.036
F0.4736
F0.0042
F168.0
tp2359
a(S'bvert_11MeV_neg15tilt_75rot_det9.npy'
p2360
F0.2727
F0.0037
F15.664
F0.04
F0.1598
F0.0021
F164.0
tp2361
a(S'bvert_11MeV_neg15tilt_85rot_det10.npy'
p2362
F0.294
F0.0039
F13.7162
F0.0389
F0.1715
F0.0022
F166.0
tp2363
a(S'bvert_11MeV_neg15tilt_85rot_det11.npy'
p2364
F0.894
F0.0072
F17.8214
F0.0415
F0.5414
F0.0046
F156.0
tp2365
a(S'bvert_11MeV_neg15tilt_85rot_det12.npy'
p2366
F1.8576
F0.0096
F16.8208
F0.041
F1.1797
F0.0069
F199.0
tp2367
a(S'bvert_11MeV_neg15tilt_85rot_det13.npy'
p2368
F2.9956
F0.0115
F20.0609
F0.0615
F1.9727
F0.0088
F163.0
tp2369
a(S'bvert_11MeV_neg15tilt_85rot_det14.npy'
p2370
F4.0993
F0.0134
F24.7475
F0.0998
F2.7798
F0.0106
F140.0
tp2371
a(S'bvert_11MeV_neg15tilt_85rot_det15.npy'
p2372
F4.9652
F0.0161
F39.6332
F0.2772
F3.4544
F0.0156
F77.0
tp2373
a(S'bvert_11MeV_neg15tilt_85rot_det4.npy'
p2374
F4.4436
F0.0145
F37.8207
F0.2595
F3.1194
F0.0137
F88.0
tp2375
a(S'bvert_11MeV_neg15tilt_85rot_det5.npy'
p2376
F3.5006
F0.0113
F22.9666
F0.0914
F2.4107
F0.0088
F134.0
tp2377
a(S'bvert_11MeV_neg15tilt_85rot_det6.npy'
p2378
F2.4408
F0.0107
F17.6624
F0.0608
F1.6441
F0.0085
F164.0
tp2379
a(S'bvert_11MeV_neg15tilt_85rot_det7.npy'
p2380
F1.4952
F0.0082
F15.8051
F0.0401
F0.97
F0.0057
F181.0
tp2381
a(S'bvert_11MeV_neg15tilt_85rot_det8.npy'
p2382
F0.7393
F0.0052
F17.2015
F0.0333
F0.4546
F0.0035
F185.0
tp2383
a(S'bvert_11MeV_neg15tilt_85rot_det9.npy'
p2384
F0.2611
F0.0033
F15.7277
F0.0363
F0.1511
F0.0019
F171.0
tp2385
a(S'bvert_11MeV_neg15tilt_95rot_det10.npy'
p2386
F0.2821
F0.0038
F13.6835
F0.0414
F0.1647
F0.0021
F172.0
tp2387
a(S'bvert_11MeV_neg15tilt_95rot_det11.npy'
p2388
F0.8873
F0.0079
F17.8628
F0.0413
F0.542
F0.0052
F145.0
tp2389
a(S'bvert_11MeV_neg15tilt_95rot_det12.npy'
p2390
F1.8658
F0.0097
F16.9724
F0.0427
F1.1926
F0.0068
F180.0
tp2391
a(S'bvert_11MeV_neg15tilt_95rot_det13.npy'
p2392
F3.0279
F0.0127
F20.065
F0.062
F1.9909
F0.0095
F177.0
tp2393
a(S'bvert_11MeV_neg15tilt_95rot_det14.npy'
p2394
F4.1915
F0.0137
F24.6673
F0.108
F2.8255
F0.0121
F133.0
tp2395
a(S'bvert_11MeV_neg15tilt_95rot_det15.npy'
p2396
F5.1306
F0.0131
F39.4663
F0.2737
F3.5343
F0.0122
F87.0
tp2397
a(S'bvert_11MeV_neg15tilt_95rot_det4.npy'
p2398
F4.5505
F0.0141
F38.3309
F0.2828
F3.1803
F0.0121
F97.0
tp2399
a(S'bvert_11MeV_neg15tilt_95rot_det5.npy'
p2400
F3.5146
F0.0116
F22.7895
F0.0982
F2.4343
F0.0093
F152.0
tp2401
a(S'bvert_11MeV_neg15tilt_95rot_det6.npy'
p2402
F2.4682
F0.0111
F17.6796
F0.0582
F1.6619
F0.0089
F156.0
tp2403
a(S'bvert_11MeV_neg15tilt_95rot_det7.npy'
p2404
F1.4678
F0.0077
F15.8201
F0.0357
F0.9475
F0.0056
F187.0
tp2405
a(S'bvert_11MeV_neg15tilt_95rot_det8.npy'
p2406
F0.719
F0.0058
F17.1875
F0.032
F0.4394
F0.0037
F162.0
tp2407
a(S'bvert_11MeV_neg15tilt_95rot_det9.npy'
p2408
F0.2533
F0.0029
F15.7859
F0.0371
F0.1471
F0.0018
F172.0
tp2409
a(S'bvert_11MeV_neg30tilt_105rot_det10.npy'
p2410
F0.2754
F0.0034
F13.7368
F0.0405
F0.161
F0.0021
F181.0
tp2411
a(S'bvert_11MeV_neg30tilt_105rot_det11.npy'
p2412
F0.8511
F0.0074
F17.7911
F0.0386
F0.5231
F0.0049
F137.0
tp2413
a(S'bvert_11MeV_neg30tilt_105rot_det12.npy'
p2414
F1.817
F0.012
F16.8212
F0.0442
F1.167
F0.0082
F163.0
tp2415
a(S'bvert_11MeV_neg30tilt_105rot_det13.npy'
p2416
F3.0204
F0.012
F19.9173
F0.0592
F1.9915
F0.0094
F156.0
tp2417
a(S'bvert_11MeV_neg30tilt_105rot_det14.npy'
p2418
F4.2239
F0.0138
F24.5622
F0.1071
F2.8416
F0.0108
F127.0
tp2419
a(S'bvert_11MeV_neg30tilt_105rot_det15.npy'
p2420
F5.2401
F0.0144
F39.0606
F0.2722
F3.5823
F0.0139
F77.0
tp2421
a(S'bvert_11MeV_neg30tilt_105rot_det4.npy'
p2422
F4.822
F0.0167
F38.7271
F0.2739
F3.3661
F0.0136
F92.0
tp2423
a(S'bvert_11MeV_neg30tilt_105rot_det5.npy'
p2424
F3.7774
F0.0126
F23.2418
F0.1081
F2.6082
F0.0111
F112.0
tp2425
a(S'bvert_11MeV_neg30tilt_105rot_det6.npy'
p2426
F2.6482
F0.0095
F17.7222
F0.057
F1.7896
F0.0077
F185.0
tp2427
a(S'bvert_11MeV_neg30tilt_105rot_det7.npy'
p2428
F1.5806
F0.0084
F15.9319
F0.0392
F1.0275
F0.0061
F172.0
tp2429
a(S'bvert_11MeV_neg30tilt_105rot_det8.npy'
p2430
F0.7819
F0.0057
F17.2234
F0.0306
F0.4796
F0.0038
F163.0
tp2431
a(S'bvert_11MeV_neg30tilt_105rot_det9.npy'
p2432
F0.2671
F0.003
F15.7594
F0.0379
F0.1544
F0.0018
F186.0
tp2433
a(S'bvert_11MeV_neg30tilt_115rot_det10.npy'
p2434
F0.2715
F0.0034
F13.7313
F0.0378
F0.1577
F0.002
F188.0
tp2435
a(S'bvert_11MeV_neg30tilt_115rot_det11.npy'
p2436
F0.8233
F0.0065
F17.798
F0.0323
F0.5059
F0.0042
F190.0
tp2437
a(S'bvert_11MeV_neg30tilt_115rot_det12.npy'
p2438
F1.7649
F0.0103
F16.7824
F0.0392
F1.1402
F0.0072
F168.0
tp2439
a(S'bvert_11MeV_neg30tilt_115rot_det13.npy'
p2440
F2.9909
F0.0126
F20.0258
F0.0597
F1.9861
F0.0095
F153.0
tp2441
a(S'bvert_11MeV_neg30tilt_115rot_det14.npy'
p2442
F4.2446
F0.0142
F24.7788
F0.1107
F2.871
F0.0128
F111.0
tp2443
a(S'bvert_11MeV_neg30tilt_115rot_det15.npy'
p2444
F5.2708
F0.0133
F38.8082
F0.2334
F3.6136
F0.0127
F103.0
tp2445
a(S'bvert_11MeV_neg30tilt_115rot_det4.npy'
p2446
F4.9234
F0.0125
F38.1688
F0.2516
F3.4353
F0.0122
F94.0
tp2447
a(S'bvert_11MeV_neg30tilt_115rot_det5.npy'
p2448
F3.8563
F0.012
F23.0237
F0.1134
F2.6548
F0.0105
F133.0
tp2449
a(S'bvert_11MeV_neg30tilt_115rot_det6.npy'
p2450
F2.6678
F0.0108
F17.6841
F0.0557
F1.8004
F0.0084
F175.0
tp2451
a(S'bvert_11MeV_neg30tilt_115rot_det7.npy'
p2452
F1.6155
F0.0097
F15.9538
F0.0497
F1.0467
F0.0072
F130.0
tp2453
a(S'bvert_11MeV_neg30tilt_115rot_det8.npy'
p2454
F0.7761
F0.0061
F17.2795
F0.0351
F0.4756
F0.0039
F181.0
tp2455
a(S'bvert_11MeV_neg30tilt_115rot_det9.npy'
p2456
F0.2652
F0.0031
F15.7611
F0.0362
F0.1536
F0.0019
F178.0
tp2457
a(S'bvert_11MeV_neg30tilt_125rot_det10.npy'
p2458
F0.2586
F0.0035
F13.7103
F0.0419
F0.1499
F0.002
F162.0
tp2459
a(S'bvert_11MeV_neg30tilt_125rot_det11.npy'
p2460
F0.7984
F0.0068
F17.8272
F0.0355
F0.4883
F0.0044
F163.0
tp2461
a(S'bvert_11MeV_neg30tilt_125rot_det12.npy'
p2462
F1.7114
F0.0095
F16.7907
F0.0419
F1.1092
F0.0069
F178.0
tp2463
a(S'bvert_11MeV_neg30tilt_125rot_det13.npy'
p2464
F2.8805
F0.0118
F19.974
F0.0592
F1.9265
F0.0087
F200.0
tp2465
a(S'bvert_11MeV_neg30tilt_125rot_det14.npy'
p2466
F4.144
F0.0149
F24.8085
F0.1035
F2.8282
F0.0124
F129.0
tp2467
a(S'bvert_11MeV_neg30tilt_125rot_det15.npy'
p2468
F5.2593
F0.0196
F39.6295
F0.3472
F3.6391
F0.0178
F59.0
tp2469
a(S'bvert_11MeV_neg30tilt_125rot_det4.npy'
p2470
F5.0439
F0.0173
F38.4819
F0.2913
F3.4846
F0.0162
F62.0
tp2471
a(S'bvert_11MeV_neg30tilt_125rot_det5.npy'
p2472
F3.8958
F0.013
F22.7032
F0.115
F2.6819
F0.0105
F108.0
tp2473
a(S'bvert_11MeV_neg30tilt_125rot_det6.npy'
p2474
F2.7483
F0.0124
F17.7416
F0.0622
F1.848
F0.0092
F160.0
tp2475
a(S'bvert_11MeV_neg30tilt_125rot_det7.npy'
p2476
F1.6436
F0.0093
F15.9197
F0.0431
F1.0643
F0.0067
F167.0
tp2477
a(S'bvert_11MeV_neg30tilt_125rot_det8.npy'
p2478
F0.7802
F0.0058
F17.2802
F0.0307
F0.4793
F0.0038
F191.0
tp2479
a(S'bvert_11MeV_neg30tilt_125rot_det9.npy'
p2480
F0.2641
F0.003
F15.7513
F0.033
F0.1527
F0.0017
F194.0
tp2481
a(S'bvert_11MeV_neg30tilt_135rot_det10.npy'
p2482
F0.256
F0.0031
F13.808
F0.0414
F0.148
F0.0018
F198.0
tp2483
a(S'bvert_11MeV_neg30tilt_135rot_det11.npy'
p2484
F0.7794
F0.006
F17.7888
F0.0339
F0.4768
F0.004
F169.0
tp2485
a(S'bvert_11MeV_neg30tilt_135rot_det12.npy'
p2486
F1.6785
F0.009
F16.864
F0.0426
F1.0963
F0.0065
F172.0
tp2487
a(S'bvert_11MeV_neg30tilt_135rot_det13.npy'
p2488
F2.8107
F0.0129
F19.9045
F0.0574
F1.8951
F0.0096
F160.0
tp2489
a(S'bvert_11MeV_neg30tilt_135rot_det14.npy'
p2490
F4.0219
F0.0147
F24.6271
F0.1135
F2.7669
F0.0118
F144.0
tp2491
a(S'bvert_11MeV_neg30tilt_135rot_det15.npy'
p2492
F5.1423
F0.0165
F39.2814
F0.2552
F3.562
F0.015
F82.0
tp2493
a(S'bvert_11MeV_neg30tilt_135rot_det4.npy'
p2494
F5.1448
F0.0153
F37.7987
F0.2942
F3.5477
F0.0151
F64.0
tp2495
a(S'bvert_11MeV_neg30tilt_135rot_det5.npy'
p2496
F4.0579
F0.0135
F23.0282
F0.1053
F2.789
F0.0119
F117.0
tp2497
a(S'bvert_11MeV_neg30tilt_135rot_det6.npy'
p2498
F2.7922
F0.0123
F17.7223
F0.0649
F1.8721
F0.0093
F153.0
tp2499
a(S'bvert_11MeV_neg30tilt_135rot_det7.npy'
p2500
F1.683
F0.0097
F15.8801
F0.0427
F1.0899
F0.007
F177.0
tp2501
a(S'bvert_11MeV_neg30tilt_135rot_det8.npy'
p2502
F0.7998
F0.0062
F17.2608
F0.0342
F0.4918
F0.0043
F181.0
tp2503
a(S'bvert_11MeV_neg30tilt_135rot_det9.npy'
p2504
F0.2649
F0.0033
F15.7846
F0.039
F0.1532
F0.0019
F168.0
tp2505
a(S'bvert_11MeV_neg30tilt_145rot_det10.npy'
p2506
F0.2438
F0.0031
F13.7731
F0.0372
F0.1416
F0.0018
F177.0
tp2507
a(S'bvert_11MeV_neg30tilt_145rot_det11.npy'
p2508
F0.7717
F0.007
F17.905
F0.0361
F0.4756
F0.0046
F148.0
tp2509
a(S'bvert_11MeV_neg30tilt_145rot_det12.npy'
p2510
F1.6408
F0.0098
F16.836
F0.0379
F1.0708
F0.0072
F188.0
tp2511
a(S'bvert_11MeV_neg30tilt_145rot_det13.npy'
p2512
F2.7566
F0.0112
F20.0174
F0.051
F1.8623
F0.0087
F184.0
tp2513
a(S'bvert_11MeV_neg30tilt_145rot_det14.npy'
p2514
F3.9646
F0.0146
F24.7851
F0.1131
F2.7446
F0.0112
F123.0
tp2515
a(S'bvert_11MeV_neg30tilt_145rot_det15.npy'
p2516
F5.0806
F0.0152
F39.2455
F0.2684
F3.5346
F0.0144
F80.0
tp2517
a(S'bvert_11MeV_neg30tilt_145rot_det4.npy'
p2518
F5.251
F0.0166
F38.0269
F0.2696
F3.5837
F0.0137
F76.0
tp2519
a(S'bvert_11MeV_neg30tilt_145rot_det5.npy'
p2520
F4.1486
F0.0147
F22.8827
F0.0989
F2.808
F0.0109
F131.0
tp2521
a(S'bvert_11MeV_neg30tilt_145rot_det6.npy'
p2522
F2.8759
F0.012
F17.6189
F0.0555
F1.9174
F0.0092
F181.0
tp2523
a(S'bvert_11MeV_neg30tilt_145rot_det7.npy'
p2524
F1.6978
F0.0101
F15.8427
F0.0463
F1.0977
F0.0071
F151.0
tp2525
a(S'bvert_11MeV_neg30tilt_145rot_det8.npy'
p2526
F0.8174
F0.0071
F17.2209
F0.0334
F0.5017
F0.0048
F146.0
tp2527
a(S'bvert_11MeV_neg30tilt_145rot_det9.npy'
p2528
F0.2696
F0.0038
F15.761
F0.0418
F0.1568
F0.0022
F167.0
tp2529
a(S'bvert_11MeV_neg30tilt_15rot_det10.npy'
p2530
F0.2752
F0.0035
F13.6749
F0.0411
F0.1604
F0.002
F160.0
tp2531
a(S'bvert_11MeV_neg30tilt_15rot_det11.npy'
p2532
F0.8003
F0.0056
F17.9057
F0.0385
F0.4923
F0.004
F147.0
tp2533
a(S'bvert_11MeV_neg30tilt_15rot_det12.npy'
p2534
F1.6324
F0.009
F17.0308
F0.0437
F1.0584
F0.0064
F163.0
tp2535
a(S'bvert_11MeV_neg30tilt_15rot_det13.npy'
p2536
F2.6151
F0.0103
F20.2174
F0.0561
F1.7716
F0.0086
F157.0
tp2537
a(S'bvert_11MeV_neg30tilt_15rot_det14.npy'
p2538
F3.6736
F0.013
F25.0183
F0.1155
F2.5307
F0.0106
F125.0
tp2539
a(S'bvert_11MeV_neg30tilt_15rot_det15.npy'
p2540
F4.6538
F0.0148
F40.1634
F0.3579
F3.2737
F0.0129
F63.0
tp2541
a(S'bvert_11MeV_neg30tilt_15rot_det4.npy'
p2542
F4.9608
F0.0173
F38.1892
F0.2877
F3.4964
F0.0146
F65.0
tp2543
a(S'bvert_11MeV_neg30tilt_15rot_det5.npy'
p2544
F4.0806
F0.013
F22.8133
F0.1203
F2.8013
F0.0118
F119.0
tp2545
a(S'bvert_11MeV_neg30tilt_15rot_det6.npy'
p2546
F2.9567
F0.0125
F17.4595
F0.0711
F1.97
F0.0097
F128.0
tp2547
a(S'bvert_11MeV_neg30tilt_15rot_det7.npy'
p2548
F1.8711
F0.0103
F15.6477
F0.047
F1.1904
F0.0076
F153.0
tp2549
a(S'bvert_11MeV_neg30tilt_15rot_det8.npy'
p2550
F0.9133
F0.0084
F16.9815
F0.0441
F0.5525
F0.0055
F122.0
tp2551
a(S'bvert_11MeV_neg30tilt_15rot_det9.npy'
p2552
F0.3044
F0.0041
F15.4533
F0.0387
F0.1768
F0.0024
F158.0
tp2553
a(S'bvert_11MeV_neg30tilt_25rot_det10.npy'
p2554
F0.289
F0.0036
F13.6471
F0.0373
F0.1676
F0.0021
F179.0
tp2555
a(S'bvert_11MeV_neg30tilt_25rot_det11.npy'
p2556
F0.8214
F0.0069
F17.8278
F0.0363
F0.5039
F0.0046
F159.0
tp2557
a(S'bvert_11MeV_neg30tilt_25rot_det12.npy'
p2558
F1.6368
F0.0089
F16.9188
F0.0415
F1.0624
F0.0064
F182.0
tp2559
a(S'bvert_11MeV_neg30tilt_25rot_det13.npy'
p2560
F2.6447
F0.0105
F20.2175
F0.0622
F1.7873
F0.0084
F144.0
tp2561
a(S'bvert_11MeV_neg30tilt_25rot_det14.npy'
p2562
F3.6739
F0.0132
F24.9817
F0.1189
F2.5457
F0.0104
F125.0
tp2563
a(S'bvert_11MeV_neg30tilt_25rot_det15.npy'
p2564
F4.6261
F0.0149
F40.4266
F0.3467
F3.2517
F0.0125
F67.0
tp2565
a(S'bvert_11MeV_neg30tilt_25rot_det4.npy'
p2566
F4.8837
F0.0133
F38.0874
F0.2811
F3.4227
F0.0131
F75.0
tp2567
a(S'bvert_11MeV_neg30tilt_25rot_det5.npy'
p2568
F3.9853
F0.0109
F22.9271
F0.1203
F2.7525
F0.0097
F115.0
tp2569
a(S'bvert_11MeV_neg30tilt_25rot_det6.npy'
p2570
F2.9355
F0.0115
F17.6152
F0.0608
F1.9659
F0.0088
F158.0
tp2571
a(S'bvert_11MeV_neg30tilt_25rot_det7.npy'
p2572
F1.8543
F0.0093
F15.7808
F0.0432
F1.1945
F0.0067
F175.0
tp2573
a(S'bvert_11MeV_neg30tilt_25rot_det8.npy'
p2574
F0.9041
F0.0067
F17.0162
F0.037
F0.546
F0.0044
F154.0
tp2575
a(S'bvert_11MeV_neg30tilt_25rot_det9.npy'
p2576
F0.3131
F0.0038
F15.4622
F0.0371
F0.1805
F0.0023
F162.0
tp2577
a(S'bvert_11MeV_neg30tilt_315rot_det10.npy'
p2578
F0.2835
F0.0036
F13.7906
F0.0427
F0.1637
F0.0021
F156.0
tp2579
a(S'bvert_11MeV_neg30tilt_315rot_det11.npy'
p2580
F0.824
F0.0063
F17.9627
F0.0336
F0.5067
F0.0043
F153.0
tp2581
a(S'bvert_11MeV_neg30tilt_315rot_det12.npy'
p2582
F1.7466
F0.0096
F17.0867
F0.0437
F1.1378
F0.007
F164.0
tp2583
a(S'bvert_11MeV_neg30tilt_315rot_det13.npy'
p2584
F2.8979
F0.0126
F20.3666
F0.0637
F1.9604
F0.0103
F130.0
tp2585
a(S'bvert_11MeV_neg30tilt_315rot_det14.npy'
p2586
F4.1053
F0.0133
F25.223
F0.1155
F2.8182
F0.0105
F126.0
tp2587
a(S'bvert_11MeV_neg30tilt_315rot_det15.npy'
p2588
F5.2153
F0.0163
F40.1535
F0.2979
F3.6024
F0.0149
F76.0
tp2589
a(S'bvert_11MeV_neg30tilt_315rot_det4.npy'
p2590
F5.155
F0.0144
F37.7077
F0.2793
F3.5486
F0.0141
F86.0
tp2591
a(S'bvert_11MeV_neg30tilt_315rot_det5.npy'
p2592
F4.0266
F0.012
F22.568
F0.1017
F2.7528
F0.0097
F153.0
tp2593
a(S'bvert_11MeV_neg30tilt_315rot_det6.npy'
p2594
F2.7589
F0.015
F17.3307
F0.0649
F1.8414
F0.0116
F128.0
tp2595
a(S'bvert_11MeV_neg30tilt_315rot_det7.npy'
p2596
F1.6467
F0.0108
F15.6655
F0.0468
F1.0666
F0.0077
F145.0
tp2597
a(S'bvert_11MeV_neg30tilt_315rot_det8.npy'
p2598
F0.7638
F0.0062
F17.0438
F0.0334
F0.4662
F0.004
F167.0
tp2599
a(S'bvert_11MeV_neg30tilt_315rot_det9.npy'
p2600
F0.2457
F0.003
F15.5679
F0.0388
F0.1408
F0.0018
F167.0
tp2601
a(S'bvert_11MeV_neg30tilt_325rot_det10.npy'
p2602
F0.2732
F0.0033
F13.8368
F0.039
F0.1582
F0.0019
F167.0
tp2603
a(S'bvert_11MeV_neg30tilt_325rot_det11.npy'
p2604
F0.8104
F0.0064
F17.9845
F0.0356
F0.4996
F0.0042
F160.0
tp2605
a(S'bvert_11MeV_neg30tilt_325rot_det12.npy'
p2606
F1.7094
F0.0102
F17.0582
F0.0445
F1.1153
F0.0073
F156.0
tp2607
a(S'bvert_11MeV_neg30tilt_325rot_det13.npy'
p2608
F2.824
F0.0136
F20.3777
F0.0661
F1.9116
F0.0103
F144.0
tp2609
a(S'bvert_11MeV_neg30tilt_325rot_det14.npy'
p2610
F4.015
F0.013
F25.1801
F0.1056
F2.7672
F0.0105
F143.0
tp2611
a(S'bvert_11MeV_neg30tilt_325rot_det15.npy'
p2612
F5.0984
F0.0172
F40.425
F0.3453
F3.5681
F0.0165
F68.0
tp2613
a(S'bvert_11MeV_neg30tilt_325rot_det4.npy'
p2614
F5.2113
F0.0158
F37.4952
F0.244
F3.5702
F0.0144
F92.0
tp2615
a(S'bvert_11MeV_neg30tilt_325rot_det5.npy'
p2616
F4.105
F0.0144
F22.4629
F0.0978
F2.7834
F0.0111
F148.0
tp2617
a(S'bvert_11MeV_neg30tilt_325rot_det6.npy'
p2618
F2.8692
F0.0128
F17.4182
F0.0624
F1.9147
F0.0094
F143.0
tp2619
a(S'bvert_11MeV_neg30tilt_325rot_det7.npy'
p2620
F1.6765
F0.0106
F15.5884
F0.0401
F1.0828
F0.0074
F168.0
tp2621
a(S'bvert_11MeV_neg30tilt_325rot_det8.npy'
p2622
F0.8009
F0.007
F17.0684
F0.0361
F0.4897
F0.0047
F171.0
tp2623
a(S'bvert_11MeV_neg30tilt_325rot_det9.npy'
p2624
F0.2488
F0.0031
F15.5818
F0.0374
F0.1445
F0.0019
F183.0
tp2625
a(S'bvert_11MeV_neg30tilt_335rot_det10.npy'
p2626
F0.2701
F0.0036
F13.8085
F0.0411
F0.1555
F0.0022
F144.0
tp2627
a(S'bvert_11MeV_neg30tilt_335rot_det11.npy'
p2628
F0.7893
F0.0073
F18.0137
F0.0413
F0.4828
F0.0049
F133.0
tp2629
a(S'bvert_11MeV_neg30tilt_335rot_det12.npy'
p2630
F1.6559
F0.009
F17.0571
F0.0426
F1.0751
F0.0067
F167.0
tp2631
a(S'bvert_11MeV_neg30tilt_335rot_det13.npy'
p2632
F2.7486
F0.0125
F20.3814
F0.0657
F1.8641
F0.0092
F145.0
tp2633
a(S'bvert_11MeV_neg30tilt_335rot_det14.npy'
p2634
F3.9465
F0.0144
F25.1911
F0.1288
F2.7334
F0.0119
F102.0
tp2635
a(S'bvert_11MeV_neg30tilt_335rot_det15.npy'
p2636
F5.0186
F0.0168
F40.4846
F0.3223
F3.5204
F0.0136
F68.0
tp2637
a(S'bvert_11MeV_neg30tilt_335rot_det4.npy'
p2638
F5.2763
F0.016
F37.6959
F0.2493
F3.6234
F0.0136
F91.0
tp2639
a(S'bvert_11MeV_neg30tilt_335rot_det5.npy'
p2640
F4.2516
F0.0118
F22.7539
F0.1028
F2.8641
F0.0092
F145.0
tp2641
a(S'bvert_11MeV_neg30tilt_335rot_det6.npy'
p2642
F2.9252
F0.0148
F17.3052
F0.063
F1.9347
F0.0111
F146.0
tp2643
a(S'bvert_11MeV_neg30tilt_335rot_det7.npy'
p2644
F1.7437
F0.0098
F15.6375
F0.0391
F1.1192
F0.0071
F170.0
tp2645
a(S'bvert_11MeV_neg30tilt_335rot_det8.npy'
p2646
F0.8158
F0.0067
F17.0388
F0.0366
F0.4983
F0.0043
F190.0
tp2647
a(S'bvert_11MeV_neg30tilt_335rot_det9.npy'
p2648
F0.2636
F0.0035
F15.5433
F0.0338
F0.1539
F0.0021
F171.0
tp2649
a(S'bvert_11MeV_neg30tilt_345rot_det10.npy'
p2650
F0.2681
F0.0032
F13.7783
F0.0385
F0.155
F0.0019
F168.0
tp2651
a(S'bvert_11MeV_neg30tilt_345rot_det11.npy'
p2652
F0.7663
F0.0064
F17.8381
F0.0369
F0.4702
F0.0044
F147.0
tp2653
a(S'bvert_11MeV_neg30tilt_345rot_det12.npy'
p2654
F1.636
F0.0088
F17.0249
F0.0376
F1.0642
F0.0063
F170.0
tp2655
a(S'bvert_11MeV_neg30tilt_345rot_det13.npy'
p2656
F2.7027
F0.0114
F20.2746
F0.0629
F1.8294
F0.0092
F150.0
tp2657
a(S'bvert_11MeV_neg30tilt_345rot_det14.npy'
p2658
F3.8673
F0.0142
F25.2606
F0.1095
F2.6844
F0.0117
F131.0
tp2659
a(S'bvert_11MeV_neg30tilt_345rot_det15.npy'
p2660
F4.9067
F0.0193
F40.1381
F0.3138
F3.4382
F0.0149
F64.0
tp2661
a(S'bvert_11MeV_neg30tilt_345rot_det4.npy'
p2662
F5.2663
F0.0184
F38.2783
F0.3638
F3.6099
F0.0157
F63.0
tp2663
a(S'bvert_11MeV_neg30tilt_345rot_det5.npy'
p2664
F4.2508
F0.0153
F22.608
F0.1092
F2.8614
F0.0114
F127.0
tp2665
a(S'bvert_11MeV_neg30tilt_345rot_det6.npy'
p2666
F3.0512
F0.0106
F17.5323
F0.0617
F1.994
F0.0083
F178.0
tp2667
a(S'bvert_11MeV_neg30tilt_345rot_det7.npy'
p2668
F1.8029
F0.0108
F15.6449
F0.0422
F1.1506
F0.0079
F161.0
tp2669
a(S'bvert_11MeV_neg30tilt_345rot_det8.npy'
p2670
F0.8556
F0.0071
F17.0205
F0.0352
F0.5224
F0.0047
F177.0
tp2671
a(S'bvert_11MeV_neg30tilt_345rot_det9.npy'
p2672
F0.2681
F0.0036
F15.5325
F0.0362
F0.1559
F0.0021
F180.0
tp2673
a(S'bvert_11MeV_neg30tilt_355rot_det10.npy'
p2674
F0.2715
F0.0033
F13.838
F0.0387
F0.1573
F0.0019
F154.0
tp2675
a(S'bvert_11MeV_neg30tilt_355rot_det11.npy'
p2676
F0.7822
F0.0065
F17.9755
F0.0355
F0.4804
F0.0044
F142.0
tp2677
a(S'bvert_11MeV_neg30tilt_355rot_det12.npy'
p2678
F1.618
F0.0085
F17.0022
F0.0413
F1.0527
F0.0061
F184.0
tp2679
a(S'bvert_11MeV_neg30tilt_355rot_det13.npy'
p2680
F2.6479
F0.0118
F20.2885
F0.0662
F1.7916
F0.0095
F129.0
tp2681
a(S'bvert_11MeV_neg30tilt_355rot_det14.npy'
p2682
F3.806
F0.0122
F25.124
F0.1002
F2.6333
F0.0101
F140.0
tp2683
a(S'bvert_11MeV_neg30tilt_355rot_det15.npy'
p2684
F4.8338
F0.0156
F40.5518
F0.3471
F3.3984
F0.0142
F62.0
tp2685
a(S'bvert_11MeV_neg30tilt_355rot_det4.npy'
p2686
F5.2292
F0.0139
F38.3916
F0.3056
F3.6228
F0.014
F81.0
tp2687
a(S'bvert_11MeV_neg30tilt_355rot_det5.npy'
p2688
F4.2371
F0.0121
F22.7366
F0.0966
F2.8613
F0.01
F137.0
tp2689
a(S'bvert_11MeV_neg30tilt_355rot_det6.npy'
p2690
F3.0468
F0.0123
F17.4219
F0.0579
F2.003
F0.0092
F167.0
tp2691
a(S'bvert_11MeV_neg30tilt_355rot_det7.npy'
p2692
F1.8196
F0.0094
F15.624
F0.0414
F1.1501
F0.0064
F178.0
tp2693
a(S'bvert_11MeV_neg30tilt_355rot_det8.npy'
p2694
F0.8825
F0.0079
F17.0343
F0.0365
F0.5318
F0.0052
F159.0
tp2695
a(S'bvert_11MeV_neg30tilt_355rot_det9.npy'
p2696
F0.2782
F0.0037
F15.5456
F0.0414
F0.1622
F0.0022
F173.0
tp2697
a(S'bvert_11MeV_neg30tilt_35rot_det10.npy'
p2698
F0.2896
F0.0037
F13.6629
F0.0402
F0.1691
F0.0022
F166.0
tp2699
a(S'bvert_11MeV_neg30tilt_35rot_det11.npy'
p2700
F0.8348
F0.0061
F17.7872
F0.0368
F0.5107
F0.004
F164.0
tp2701
a(S'bvert_11MeV_neg30tilt_35rot_det12.npy'
p2702
F1.6872
F0.0094
F16.8625
F0.043
F1.0931
F0.0069
F160.0
tp2703
a(S'bvert_11MeV_neg30tilt_35rot_det13.npy'
p2704
F2.7084
F0.0105
F20.2853
F0.0664
F1.8239
F0.0085
F129.0
tp2705
a(S'bvert_11MeV_neg30tilt_35rot_det14.npy'
p2706
F3.7002
F0.0147
F24.984
F0.1181
F2.5585
F0.0128
F112.0
tp2707
a(S'bvert_11MeV_neg30tilt_35rot_det15.npy'
p2708
F4.608
F0.0175
F39.9614
F0.3475
F3.2408
F0.016
F61.0
tp2709
a(S'bvert_11MeV_neg30tilt_35rot_det4.npy'
p2710
F4.7856
F0.0151
F38.0975
F0.3369
F3.4021
F0.0174
F50.0
tp2711
a(S'bvert_11MeV_neg30tilt_35rot_det5.npy'
p2712
F3.9151
F0.0128
F23.0378
F0.1211
F2.7142
F0.0109
F128.0
tp2713
a(S'bvert_11MeV_neg30tilt_35rot_det6.npy'
p2714
F2.8579
F0.0108
F17.5894
F0.0623
F1.9244
F0.0086
F151.0
tp2715
a(S'bvert_11MeV_neg30tilt_35rot_det7.npy'
p2716
F1.8061
F0.0103
F15.6953
F0.0421
F1.1669
F0.0079
F155.0
tp2717
a(S'bvert_11MeV_neg30tilt_35rot_det8.npy'
p2718
F0.9031
F0.0076
F17.097
F0.0383
F0.5531
F0.0049
F157.0
tp2719
a(S'bvert_11MeV_neg30tilt_35rot_det9.npy'
p2720
F0.3115
F0.0038
F15.5728
F0.0375
F0.1791
F0.0022
F178.0
tp2721
a(S'bvert_11MeV_neg30tilt_45rot_det10.npy'
p2722
F0.3012
F0.0039
F13.619
F0.0375
F0.175
F0.0024
F153.0
tp2723
a(S'bvert_11MeV_neg30tilt_45rot_det11.npy'
p2724
F0.8644
F0.0066
F17.7804
F0.0395
F0.5265
F0.0045
F158.0
tp2725
a(S'bvert_11MeV_neg30tilt_45rot_det12.npy'
p2726
F1.7315
F0.0087
F16.8907
F0.043
F1.1174
F0.0062
F181.0
tp2727
a(S'bvert_11MeV_neg30tilt_45rot_det13.npy'
p2728
F2.7497
F0.0108
F20.0508
F0.0596
F1.8524
F0.0085
F149.0
tp2729
a(S'bvert_11MeV_neg30tilt_45rot_det14.npy'
p2730
F3.7614
F0.0128
F24.8215
F0.1209
F2.5899
F0.0108
F134.0
tp2731
a(S'bvert_11MeV_neg30tilt_45rot_det15.npy'
p2732
F4.6517
F0.0141
F40.1843
F0.2951
F3.2561
F0.0126
F74.0
tp2733
a(S'bvert_11MeV_neg30tilt_45rot_det4.npy'
p2734
F4.7325
F0.0148
F39.0051
F0.3279
F3.3357
F0.0161
F64.0
tp2735
a(S'bvert_11MeV_neg30tilt_45rot_det5.npy'
p2736
F3.8344
F0.0121
F22.842
F0.1128
F2.6649
F0.0102
F122.0
tp2737
a(S'bvert_11MeV_neg30tilt_45rot_det6.npy'
p2738
F2.7977
F0.0112
F17.638
F0.0586
F1.8961
F0.0091
F156.0
tp2739
a(S'bvert_11MeV_neg30tilt_45rot_det7.npy'
p2740
F1.7427
F0.0085
F15.7852
F0.0431
F1.1269
F0.0061
F159.0
tp2741
a(S'bvert_11MeV_neg30tilt_45rot_det8.npy'
p2742
F0.8802
F0.007
F17.0653
F0.035
F0.5452
F0.0046
F161.0
tp2743
a(S'bvert_11MeV_neg30tilt_45rot_det9.npy'
p2744
F0.3088
F0.0035
F15.556
F0.0366
F0.1798
F0.0021
F188.0
tp2745
a(S'bvert_11MeV_neg30tilt_55rot_det10.npy'
p2746
F0.3027
F0.0035
F13.5934
F0.0389
F0.1752
F0.0021
F182.0
tp2747
a(S'bvert_11MeV_neg30tilt_55rot_det11.npy'
p2748
F0.88
F0.0067
F17.773
F0.0371
F0.5318
F0.0044
F161.0
tp2749
a(S'bvert_11MeV_neg30tilt_55rot_det12.npy'
p2750
F1.7854
F0.0097
F16.8348
F0.0427
F1.1471
F0.0069
F164.0
tp2751
a(S'bvert_11MeV_neg30tilt_55rot_det13.npy'
p2752
F2.8221
F0.0103
F19.9455
F0.0609
F1.8927
F0.0083
F154.0
tp2753
a(S'bvert_11MeV_neg30tilt_55rot_det14.npy'
p2754
F3.8606
F0.01
F24.9424
F0.1054
F2.6688
F0.0088
F142.0
tp2755
a(S'bvert_11MeV_neg30tilt_55rot_det15.npy'
p2756
F4.7283
F0.0144
F39.8045
F0.2768
F3.3329
F0.0138
F71.0
tp2757
a(S'bvert_11MeV_neg30tilt_55rot_det4.npy'
p2758
F4.6518
F0.0123
F38.7452
F0.2694
F3.2835
F0.0113
F89.0
tp2759
a(S'bvert_11MeV_neg30tilt_55rot_det5.npy'
p2760
F3.7587
F0.0127
F23.0471
F0.1152
F2.6068
F0.0113
F116.0
tp2761
a(S'bvert_11MeV_neg30tilt_55rot_det6.npy'
p2762
F2.7588
F0.0109
F17.667
F0.0573
F1.8709
F0.0081
F149.0
tp2763
a(S'bvert_11MeV_neg30tilt_55rot_det7.npy'
p2764
F1.6971
F0.0092
F15.7805
F0.0377
F1.1036
F0.0067
F166.0
tp2765
a(S'bvert_11MeV_neg30tilt_55rot_det8.npy'
p2766
F0.8666
F0.0068
F17.149
F0.0349
F0.5368
F0.0048
F169.0
tp2767
a(S'bvert_11MeV_neg30tilt_55rot_det9.npy'
p2768
F0.3012
F0.0037
F15.6438
F0.0348
F0.1751
F0.0021
F166.0
tp2769
a(S'bvert_11MeV_neg30tilt_5rot_det10.npy'
p2770
F0.2719
F0.0033
F13.7835
F0.038
F0.1572
F0.0019
F186.0
tp2771
a(S'bvert_11MeV_neg30tilt_5rot_det11.npy'
p2772
F0.7919
F0.0061
F17.9278
F0.0378
F0.4851
F0.0042
F161.0
tp2773
a(S'bvert_11MeV_neg30tilt_5rot_det12.npy'
p2774
F1.6057
F0.0083
F16.9997
F0.0432
F1.0424
F0.0061
F175.0
tp2775
a(S'bvert_11MeV_neg30tilt_5rot_det13.npy'
p2776
F2.6528
F0.0112
F20.3575
F0.063
F1.7955
F0.0082
F151.0
tp2777
a(S'bvert_11MeV_neg30tilt_5rot_det14.npy'
p2778
F3.7022
F0.012
F25.0364
F0.1146
F2.5685
F0.0103
F133.0
tp2779
a(S'bvert_11MeV_neg30tilt_5rot_det15.npy'
p2780
F4.7612
F0.0158
F40.6701
F0.3073
F3.3499
F0.0146
F68.0
tp2781
a(S'bvert_11MeV_neg30tilt_5rot_det4.npy'
p2782
F5.0678
F0.0163
F38.2513
F0.3173
F3.5134
F0.0139
F68.0
tp2783
a(S'bvert_11MeV_neg30tilt_5rot_det5.npy'
p2784
F4.1734
F0.0123
F22.902
F0.1021
F2.8527
F0.0103
F139.0
tp2785
a(S'bvert_11MeV_neg30tilt_5rot_det6.npy'
p2786
F2.9975
F0.0133
F17.2604
F0.0641
F1.9745
F0.0104
F137.0
tp2787
a(S'bvert_11MeV_neg30tilt_5rot_det7.npy'
p2788
F1.8687
F0.0097
F15.6854
F0.043
F1.1834
F0.007
F157.0
tp2789
a(S'bvert_11MeV_neg30tilt_5rot_det8.npy'
p2790
F0.9086
F0.0074
F17.0049
F0.0345
F0.5469
F0.0048
F180.0
tp2791
a(S'bvert_11MeV_neg30tilt_5rot_det9.npy'
p2792
F0.29
F0.0038
F15.4473
F0.0392
F0.1699
F0.0022
F151.0
tp2793
a(S'bvert_11MeV_neg30tilt_65rot_det10.npy'
p2794
F0.3016
F0.0038
F13.5819
F0.0385
F0.174
F0.0022
F174.0
tp2795
a(S'bvert_11MeV_neg30tilt_65rot_det11.npy'
p2796
F0.8913
F0.0077
F17.7946
F0.0362
F0.5385
F0.005
F155.0
tp2797
a(S'bvert_11MeV_neg30tilt_65rot_det12.npy'
p2798
F1.8451
F0.0096
F16.7599
F0.0379
F1.1781
F0.0068
F164.0
tp2799
a(S'bvert_11MeV_neg30tilt_65rot_det13.npy'
p2800
F2.8899
F0.0115
F20.0282
F0.0641
F1.9274
F0.0085
F154.0
tp2801
a(S'bvert_11MeV_neg30tilt_65rot_det14.npy'
p2802
F3.9189
F0.0129
F24.5885
F0.1132
F2.6899
F0.0112
F130.0
tp2803
a(S'bvert_11MeV_neg30tilt_65rot_det15.npy'
p2804
F4.7945
F0.0184
F39.9283
F0.3729
F3.3645
F0.0184
F57.0
tp2805
a(S'bvert_11MeV_neg30tilt_65rot_det4.npy'
p2806
F4.6016
F0.0121
F38.3961
F0.27
F3.219
F0.0116
F79.0
tp2807
a(S'bvert_11MeV_neg30tilt_65rot_det5.npy'
p2808
F3.7231
F0.0109
F23.2637
F0.0974
F2.5817
F0.01
F129.0
tp2809
a(S'bvert_11MeV_neg30tilt_65rot_det6.npy'
p2810
F2.6923
F0.0109
F17.7134
F0.0599
F1.8211
F0.0081
F144.0
tp2811
a(S'bvert_11MeV_neg30tilt_65rot_det7.npy'
p2812
F1.6556
F0.0085
F15.8033
F0.0401
F1.0816
F0.0064
F170.0
tp2813
a(S'bvert_11MeV_neg30tilt_65rot_det8.npy'
p2814
F0.8291
F0.0064
F17.1175
F0.0353
F0.5121
F0.0043
F184.0
tp2815
a(S'bvert_11MeV_neg30tilt_65rot_det9.npy'
p2816
F0.2951
F0.0032
F15.6378
F0.0388
F0.1718
F0.0019
F164.0
tp2817
a(S'bvert_11MeV_neg30tilt_75rot_det10.npy'
p2818
F0.3043
F0.0036
F13.5897
F0.0378
F0.1764
F0.0022
F182.0
tp2819
a(S'bvert_11MeV_neg30tilt_75rot_det11.npy'
p2820
F0.894
F0.0072
F17.69
F0.0348
F0.5391
F0.0046
F178.0
tp2821
a(S'bvert_11MeV_neg30tilt_75rot_det12.npy'
p2822
F1.8521
F0.0101
F16.7565
F0.0411
F1.1771
F0.0072
F173.0
tp2823
a(S'bvert_11MeV_neg30tilt_75rot_det13.npy'
p2824
F2.9911
F0.0111
F20.0933
F0.0578
F1.9833
F0.0091
F158.0
tp2825
a(S'bvert_11MeV_neg30tilt_75rot_det14.npy'
p2826
F4.0218
F0.0128
F24.7195
F0.1048
F2.7561
F0.0103
F130.0
tp2827
a(S'bvert_11MeV_neg30tilt_75rot_det15.npy'
p2828
F4.9412
F0.0152
F40.004
F0.3249
F3.4378
F0.0154
F70.0
tp2829
a(S'bvert_11MeV_neg30tilt_75rot_det4.npy'
p2830
F4.5998
F0.0148
F38.5594
F0.2933
F3.2304
F0.0123
F75.0
tp2831
a(S'bvert_11MeV_neg30tilt_75rot_det5.npy'
p2832
F3.6683
F0.0116
F22.9593
F0.1169
F2.5459
F0.0097
F121.0
tp2833
a(S'bvert_11MeV_neg30tilt_75rot_det6.npy'
p2834
F2.6304
F0.0103
F17.682
F0.059
F1.7747
F0.0082
F142.0
tp2835
a(S'bvert_11MeV_neg30tilt_75rot_det7.npy'
p2836
F1.6454
F0.0091
F15.9299
F0.0408
F1.0711
F0.0066
F159.0
tp2837
a(S'bvert_11MeV_neg30tilt_75rot_det8.npy'
p2838
F0.8155
F0.0058
F17.158
F0.0361
F0.5022
F0.0041
F166.0
tp2839
a(S'bvert_11MeV_neg30tilt_75rot_det9.npy'
p2840
F0.2861
F0.0034
F15.6775
F0.0338
F0.1678
F0.002
F193.0
tp2841
a(S'bvert_11MeV_neg30tilt_85rot_det10.npy'
p2842
F0.2879
F0.0037
F13.601
F0.0398
F0.1679
F0.0022
F177.0
tp2843
a(S'bvert_11MeV_neg30tilt_85rot_det11.npy'
p2844
F0.9038
F0.0076
F17.7207
F0.036
F0.5482
F0.0048
F165.0
tp2845
a(S'bvert_11MeV_neg30tilt_85rot_det12.npy'
p2846
F1.8883
F0.0099
F16.8577
F0.0422
F1.1982
F0.0073
F182.0
tp2847
a(S'bvert_11MeV_neg30tilt_85rot_det13.npy'
p2848
F2.9981
F0.0101
F19.8412
F0.0511
F1.9665
F0.0077
F207.0
tp2849
a(S'bvert_11MeV_neg30tilt_85rot_det14.npy'
p2850
F4.1447
F0.0121
F24.7893
F0.1041
F2.8133
F0.0093
F143.0
tp2851
a(S'bvert_11MeV_neg30tilt_85rot_det15.npy'
p2852
F5.0631
F0.0125
F39.717
F0.2925
F3.505
F0.0129
F78.0
tp2853
a(S'bvert_11MeV_neg30tilt_85rot_det4.npy'
p2854
F4.6509
F0.0146
F38.4271
F0.2801
F3.2484
F0.0134
F69.0
tp2855
a(S'bvert_11MeV_neg30tilt_85rot_det5.npy'
p2856
F3.6895
F0.013
F23.1833
F0.1108
F2.5492
F0.0107
F136.0
tp2857
a(S'bvert_11MeV_neg30tilt_85rot_det6.npy'
p2858
F2.5894
F0.0115
F17.6802
F0.06
F1.7457
F0.0086
F166.0
tp2859
a(S'bvert_11MeV_neg30tilt_85rot_det7.npy'
p2860
F1.5899
F0.0083
F15.8507
F0.0378
F1.0372
F0.0062
F187.0
tp2861
a(S'bvert_11MeV_neg30tilt_85rot_det8.npy'
p2862
F0.7867
F0.0065
F17.1909
F0.0387
F0.4839
F0.0044
F159.0
tp2863
a(S'bvert_11MeV_neg30tilt_85rot_det9.npy'
p2864
F0.2834
F0.0031
F15.7185
F0.0342
F0.1653
F0.0019
F191.0
tp2865
a(S'bvert_11MeV_neg30tilt_95rot_det10.npy'
p2866
F0.28
F0.0033
F13.6607
F0.0374
F0.1641
F0.002
F199.0
tp2867
a(S'bvert_11MeV_neg30tilt_95rot_det11.npy'
p2868
F0.8604
F0.007
F17.7585
F0.0331
F0.5255
F0.0047
F189.0
tp2869
a(S'bvert_11MeV_neg30tilt_95rot_det12.npy'
p2870
F1.8504
F0.0093
F16.7711
F0.0404
F1.1778
F0.0066
F195.0
tp2871
a(S'bvert_11MeV_neg30tilt_95rot_det13.npy'
p2872
F2.9784
F0.0123
F19.8886
F0.064
F1.9523
F0.0091
F179.0
tp2873
a(S'bvert_11MeV_neg30tilt_95rot_det14.npy'
p2874
F4.2122
F0.0115
F24.533
F0.0959
F2.8406
F0.0094
F171.0
tp2875
a(S'bvert_11MeV_neg30tilt_95rot_det15.npy'
p2876
F5.1674
F0.0145
F39.0445
F0.2887
F3.5697
F0.0148
F81.0
tp2877
a(S'bvert_11MeV_neg30tilt_95rot_det4.npy'
p2878
F4.7077
F0.0146
F38.6669
F0.2387
F3.2986
F0.0124
F77.0
tp2879
a(S'bvert_11MeV_neg30tilt_95rot_det5.npy'
p2880
F3.6929
F0.0125
F22.8812
F0.1127
F2.5527
F0.0106
F126.0
tp2881
a(S'bvert_11MeV_neg30tilt_95rot_det6.npy'
p2882
F2.6215
F0.0103
F17.7692
F0.0545
F1.7678
F0.008
F177.0
tp2883
a(S'bvert_11MeV_neg30tilt_95rot_det7.npy'
p2884
F1.5897
F0.0083
F15.8305
F0.0426
F1.0327
F0.0061
F176.0
tp2885
a(S'bvert_11MeV_neg30tilt_95rot_det8.npy'
p2886
F0.7699
F0.0059
F17.2092
F0.0344
F0.4716
F0.004
F177.0
tp2887
a(S'bvert_11MeV_neg30tilt_95rot_det9.npy'
p2888
F0.2705
F0.0032
F15.7331
F0.0347
F0.1562
F0.0018
F171.0
tp2889
a(S'bvert_11MeV_neg45tilt_105rot_det10.npy'
p2890
F0.3116
F0.004
F13.868
F0.0403
F0.1812
F0.0023
F160.0
tp2891
a(S'bvert_11MeV_neg45tilt_105rot_det11.npy'
p2892
F0.9061
F0.0075
F17.9271
F0.0356
F0.5547
F0.0049
F162.0
tp2893
a(S'bvert_11MeV_neg45tilt_105rot_det12.npy'
p2894
F1.8605
F0.0093
F17.0299
F0.0402
F1.1839
F0.0066
F172.0
tp2895
a(S'bvert_11MeV_neg45tilt_105rot_det13.npy'
p2896
F3.057
F0.0116
F20.2041
F0.0592
F2.0161
F0.0089
F173.0
tp2897
a(S'bvert_11MeV_neg45tilt_105rot_det14.npy'
p2898
F4.2705
F0.0123
F24.9439
F0.1039
F2.8768
F0.01
F153.0
tp2899
a(S'bvert_11MeV_neg45tilt_105rot_det15.npy'
p2900
F5.3178
F0.0142
F39.7229
F0.3063
F3.6239
F0.0145
F82.0
tp2901
a(S'bvert_11MeV_neg45tilt_105rot_det4.npy'
p2902
F4.8954
F0.0158
F37.767
F0.3009
F3.4389
F0.0132
F79.0
tp2903
a(S'bvert_11MeV_neg45tilt_105rot_det5.npy'
p2904
F3.8429
F0.0141
F22.542
F0.0995
F2.6368
F0.0115
F139.0
tp2905
a(S'bvert_11MeV_neg45tilt_105rot_det6.npy'
p2906
F2.6806
F0.0112
F17.445
F0.0553
F1.8009
F0.0084
F180.0
tp2907
a(S'bvert_11MeV_neg45tilt_105rot_det7.npy'
p2908
F1.5672
F0.0098
F15.7038
F0.0421
F1.0097
F0.0071
F174.0
tp2909
a(S'bvert_11MeV_neg45tilt_105rot_det8.npy'
p2910
F0.7693
F0.0062
F17.0859
F0.0347
F0.4696
F0.0039
F170.0
tp2911
a(S'bvert_11MeV_neg45tilt_105rot_det9.npy'
p2912
F0.2581
F0.0031
F15.6682
F0.0388
F0.1481
F0.0018
F173.0
tp2913
a(S'bvert_11MeV_neg45tilt_115rot_det10.npy'
p2914
F0.3018
F0.0035
F13.8512
F0.036
F0.1753
F0.002
F195.0
tp2915
a(S'bvert_11MeV_neg45tilt_115rot_det11.npy'
p2916
F0.8848
F0.0068
F18.0119
F0.0365
F0.5431
F0.0045
F164.0
tp2917
a(S'bvert_11MeV_neg45tilt_115rot_det12.npy'
p2918
F1.8399
F0.01
F17.0327
F0.0455
F1.1874
F0.0069
F168.0
tp2919
a(S'bvert_11MeV_neg45tilt_115rot_det13.npy'
p2920
F3.0212
F0.0113
F20.2256
F0.053
F2.0056
F0.0087
F176.0
tp2921
a(S'bvert_11MeV_neg45tilt_115rot_det14.npy'
p2922
F4.2427
F0.0147
F25.257
F0.1174
F2.8642
F0.012
F137.0
tp2923
a(S'bvert_11MeV_neg45tilt_115rot_det15.npy'
p2924
F5.2969
F0.0145
F39.5083
F0.2968
F3.6097
F0.0137
F80.0
tp2925
a(S'bvert_11MeV_neg45tilt_115rot_det4.npy'
p2926
F5.0072
F0.018
F37.9075
F0.269
F3.4708
F0.0159
F81.0
tp2927
a(S'bvert_11MeV_neg45tilt_115rot_det5.npy'
p2928
F3.8909
F0.0127
F22.4925
F0.0957
F2.6696
F0.0104
F154.0
tp2929
a(S'bvert_11MeV_neg45tilt_115rot_det6.npy'
p2930
F2.6957
F0.011
F17.3406
F0.0552
F1.8047
F0.0083
F187.0
tp2931
a(S'bvert_11MeV_neg45tilt_115rot_det7.npy'
p2932
F1.6128
F0.0102
F15.7322
F0.0405
F1.0437
F0.0071
F145.0
tp2933
a(S'bvert_11MeV_neg45tilt_115rot_det8.npy'
p2934
F0.7692
F0.0063
F17.0902
F0.0364
F0.4713
F0.0042
F176.0
tp2935
a(S'bvert_11MeV_neg45tilt_115rot_det9.npy'
p2936
F0.252
F0.0032
F15.6392
F0.0388
F0.1451
F0.0018
F180.0
tp2937
a(S'bvert_11MeV_neg45tilt_125rot_det10.npy'
p2938
F0.296
F0.0034
F13.853
F0.0371
F0.1715
F0.0019
F181.0
tp2939
a(S'bvert_11MeV_neg45tilt_125rot_det11.npy'
p2940
F0.8626
F0.0065
F17.9749
F0.0339
F0.5311
F0.0043
F174.0
tp2941
a(S'bvert_11MeV_neg45tilt_125rot_det12.npy'
p2942
F1.8093
F0.0096
F17.1255
F0.0459
F1.1707
F0.0072
F161.0
tp2943
a(S'bvert_11MeV_neg45tilt_125rot_det13.npy'
p2944
F2.9621
F0.0122
F20.2846
F0.0609
F1.9733
F0.0094
F143.0
tp2945
a(S'bvert_11MeV_neg45tilt_125rot_det14.npy'
p2946
F4.2014
F0.0133
F25.1403
F0.1008
F2.8524
F0.0102
F151.0
tp2947
a(S'bvert_11MeV_neg45tilt_125rot_det15.npy'
p2948
F5.3157
F0.0158
F40.0503
F0.3265
F3.6438
F0.0147
F79.0
tp2949
a(S'bvert_11MeV_neg45tilt_125rot_det4.npy'
p2950
F5.0524
F0.018
F37.1916
F0.2931
F3.4691
F0.015
F72.0
tp2951
a(S'bvert_11MeV_neg45tilt_125rot_det5.npy'
p2952
F3.964
F0.0127
F22.4274
F0.089
F2.7132
F0.0106
F142.0
tp2953
a(S'bvert_11MeV_neg45tilt_125rot_det6.npy'
p2954
F2.7618
F0.0129
F17.325
F0.0571
F1.8487
F0.0098
F159.0
tp2955
a(S'bvert_11MeV_neg45tilt_125rot_det7.npy'
p2956
F1.6308
F0.0097
F15.692
F0.0425
F1.0498
F0.0069
F163.0
tp2957
a(S'bvert_11MeV_neg45tilt_125rot_det8.npy'
p2958
F0.7717
F0.0068
F17.0306
F0.0379
F0.4705
F0.0046
F161.0
tp2959
a(S'bvert_11MeV_neg45tilt_125rot_det9.npy'
p2960
F0.2605
F0.0029
F15.7528
F0.0342
F0.1498
F0.0017
F206.0
tp2961
a(S'bvert_11MeV_neg45tilt_135rot_det10.npy'
p2962
F0.2865
F0.0033
F13.791
F0.0336
F0.1663
F0.002
F167.0
tp2963
a(S'bvert_11MeV_neg45tilt_135rot_det11.npy'
p2964
F0.8537
F0.0067
F18.0004
F0.0361
F0.5225
F0.0046
F163.0
tp2965
a(S'bvert_11MeV_neg45tilt_135rot_det12.npy'
p2966
F1.7719
F0.0092
F17.08
F0.0394
F1.1504
F0.0064
F192.0
tp2967
a(S'bvert_11MeV_neg45tilt_135rot_det13.npy'
p2968
F2.9335
F0.0122
F20.2891
F0.0638
F1.9686
F0.009
F160.0
tp2969
a(S'bvert_11MeV_neg45tilt_135rot_det14.npy'
p2970
F4.1223
F0.0149
F24.9391
F0.1245
F2.825
F0.0115
F125.0
tp2971
a(S'bvert_11MeV_neg45tilt_135rot_det15.npy'
p2972
F5.2123
F0.0157
F39.9834
F0.3222
F3.5977
F0.0139
F81.0
tp2973
a(S'bvert_11MeV_neg45tilt_135rot_det4.npy'
p2974
F5.1793
F0.0156
F37.5642
F0.2933
F3.5413
F0.0151
F74.0
tp2975
a(S'bvert_11MeV_neg45tilt_135rot_det5.npy'
p2976
F4.097
F0.0124
F22.6173
F0.0905
F2.7854
F0.0096
F160.0
tp2977
a(S'bvert_11MeV_neg45tilt_135rot_det6.npy'
p2978
F2.8018
F0.0124
F17.3386
F0.0583
F1.8664
F0.0098
F170.0
tp2979
a(S'bvert_11MeV_neg45tilt_135rot_det7.npy'
p2980
F1.6746
F0.0104
F15.633
F0.0408
F1.0785
F0.0075
F182.0
tp2981
a(S'bvert_11MeV_neg45tilt_135rot_det8.npy'
p2982
F0.7989
F0.007
F17.1386
F0.0354
F0.4865
F0.0047
F168.0
tp2983
a(S'bvert_11MeV_neg45tilt_135rot_det9.npy'
p2984
F0.2591
F0.0032
F15.6485
F0.0377
F0.1489
F0.0018
F182.0
tp2985
a(S'bvert_11MeV_neg45tilt_145rot_det10.npy'
p2986
F0.2856
F0.0033
F13.8727
F0.0362
F0.1638
F0.002
F187.0
tp2987
a(S'bvert_11MeV_neg45tilt_145rot_det11.npy'
p2988
F0.8484
F0.0072
F18.0462
F0.0383
F0.5202
F0.0048
F157.0
tp2989
a(S'bvert_11MeV_neg45tilt_145rot_det12.npy'
p2990
F1.7402
F0.0099
F17.0987
F0.0425
F1.1311
F0.0072
F167.0
tp2991
a(S'bvert_11MeV_neg45tilt_145rot_det13.npy'
p2992
F2.8655
F0.0112
F20.3573
F0.0619
F1.9269
F0.0085
F159.0
tp2993
a(S'bvert_11MeV_neg45tilt_145rot_det14.npy'
p2994
F4.0258
F0.0153
F24.8318
F0.1151
F2.769
F0.0125
F108.0
tp2995
a(S'bvert_11MeV_neg45tilt_145rot_det15.npy'
p2996
F5.1194
F0.0167
F39.6959
F0.3268
F3.5558
F0.0152
F70.0
tp2997
a(S'bvert_11MeV_neg45tilt_145rot_det4.npy'
p2998
F5.1875
F0.0203
F37.683
F0.2683
F3.5436
F0.017
F94.0
tp2999
a(S'bvert_11MeV_neg45tilt_145rot_det5.npy'
p3000
F4.1478
F0.0134
F22.5047
F0.1018
F2.7985
F0.0111
F136.0
tp3001
a(S'bvert_11MeV_neg45tilt_145rot_det6.npy'
p3002
F2.8655
F0.012
F17.3346
F0.058
F1.8985
F0.0086
F169.0
tp3003
a(S'bvert_11MeV_neg45tilt_145rot_det7.npy'
p3004
F1.7097
F0.0098
F15.6046
F0.0399
F1.092
F0.0073
F170.0
tp3005
a(S'bvert_11MeV_neg45tilt_145rot_det8.npy'
p3006
F0.8044
F0.0066
F17.0392
F0.034
F0.4913
F0.0043
F164.0
tp3007
a(S'bvert_11MeV_neg45tilt_145rot_det9.npy'
p3008
F0.2625
F0.0033
F15.5765
F0.0378
F0.1508
F0.0019
F176.0
tp3009
a(S'bvert_11MeV_neg45tilt_15rot_det10.npy'
p3010
F0.267
F0.0029
F13.7694
F0.0384
F0.1541
F0.0017
F191.0
tp3011
a(S'bvert_11MeV_neg45tilt_15rot_det11.npy'
p3012
F0.8015
F0.0067
F17.8968
F0.0324
F0.487
F0.0045
F173.0
tp3013
a(S'bvert_11MeV_neg45tilt_15rot_det12.npy'
p3014
F1.6399
F0.0093
F16.9615
F0.0383
F1.0631
F0.0068
F207.0
tp3015
a(S'bvert_11MeV_neg45tilt_15rot_det13.npy'
p3016
F2.6604
F0.0104
F20.0266
F0.0544
F1.7884
F0.008
F193.0
tp3017
a(S'bvert_11MeV_neg45tilt_15rot_det14.npy'
p3018
F3.7756
F0.0129
F24.6207
F0.1037
F2.6102
F0.0104
F147.0
tp3019
a(S'bvert_11MeV_neg45tilt_15rot_det15.npy'
p3020
F4.8049
F0.0137
F39.2485
F0.2842
F3.3751
F0.0123
F82.0
tp3021
a(S'bvert_11MeV_neg45tilt_15rot_det4.npy'
p3022
F5.0596
F0.014
F38.1028
F0.2738
F3.5147
F0.0126
F74.0
tp3023
a(S'bvert_11MeV_neg45tilt_15rot_det5.npy'
p3024
F4.1009
F0.0121
F22.8686
F0.1002
F2.8066
F0.01
F148.0
tp3025
a(S'bvert_11MeV_neg45tilt_15rot_det6.npy'
p3026
F2.9949
F0.0119
F17.5771
F0.0583
F1.9948
F0.0099
F155.0
tp3027
a(S'bvert_11MeV_neg45tilt_15rot_det7.npy'
p3028
F1.8439
F0.0092
F15.7296
F0.0406
F1.1728
F0.0068
F170.0
tp3029
a(S'bvert_11MeV_neg45tilt_15rot_det8.npy'
p3030
F0.9214
F0.0085
F17.1804
F0.0363
F0.5573
F0.0054
F164.0
tp3031
a(S'bvert_11MeV_neg45tilt_15rot_det9.npy'
p3032
F0.311
F0.0042
F15.6444
F0.0435
F0.1796
F0.0024
F145.0
tp3033
a(S'bvert_11MeV_neg45tilt_25rot_det10.npy'
p3034
F0.2766
F0.0037
F13.7181
F0.0384
F0.1596
F0.0022
F186.0
tp3035
a(S'bvert_11MeV_neg45tilt_25rot_det11.npy'
p3036
F0.8107
F0.0066
F17.8658
F0.0356
F0.4959
F0.0045
F169.0
tp3037
a(S'bvert_11MeV_neg45tilt_25rot_det12.npy'
p3038
F1.672
F0.009
F16.9596
F0.0433
F1.0821
F0.0065
F195.0
tp3039
a(S'bvert_11MeV_neg45tilt_25rot_det13.npy'
p3040
F2.7059
F0.011
F20.1376
F0.0536
F1.8217
F0.0088
F152.0
tp3041
a(S'bvert_11MeV_neg45tilt_25rot_det14.npy'
p3042
F3.7709
F0.0122
F24.4975
F0.1005
F2.5961
F0.0101
F142.0
tp3043
a(S'bvert_11MeV_neg45tilt_25rot_det15.npy'
p3044
F4.7582
F0.0177
F39.7383
F0.2994
F3.3457
F0.0147
F75.0
tp3045
a(S'bvert_11MeV_neg45tilt_25rot_det4.npy'
p3046
F4.9691
F0.0148
F37.9227
F0.2465
F3.4795
F0.013
F95.0
tp3047
a(S'bvert_11MeV_neg45tilt_25rot_det5.npy'
p3048
F4.0408
F0.014
F22.8054
F0.1149
F2.7784
F0.0118
F135.0
tp3049
a(S'bvert_11MeV_neg45tilt_25rot_det6.npy'
p3050
F2.9468
F0.0112
F17.6606
F0.0583
F1.9716
F0.0089
F158.0
tp3051
a(S'bvert_11MeV_neg45tilt_25rot_det7.npy'
p3052
F1.8072
F0.0105
F15.7486
F0.047
F1.1576
F0.0076
F153.0
tp3053
a(S'bvert_11MeV_neg45tilt_25rot_det8.npy'
p3054
F0.911
F0.0064
F17.1641
F0.0354
F0.5503
F0.0043
F192.0
tp3055
a(S'bvert_11MeV_neg45tilt_25rot_det9.npy'
p3056
F0.3148
F0.0035
F15.616
F0.038
F0.1815
F0.002
F195.0
tp3057
a(S'bvert_11MeV_neg45tilt_315rot_det10.npy'
p3058
F0.2631
F0.0033
F13.7113
F0.0406
F0.153
F0.002
F192.0
tp3059
a(S'bvert_11MeV_neg45tilt_315rot_det11.npy'
p3060
F0.8193
F0.0064
F17.8279
F0.033
F0.5022
F0.0043
F170.0
tp3061
a(S'bvert_11MeV_neg45tilt_315rot_det12.npy'
p3062
F1.7278
F0.0095
F16.7824
F0.0378
F1.1183
F0.0071
F176.0
tp3063
a(S'bvert_11MeV_neg45tilt_315rot_det13.npy'
p3064
F2.8867
F0.0121
F20.0211
F0.0559
F1.9482
F0.0093
F167.0
tp3065
a(S'bvert_11MeV_neg45tilt_315rot_det14.npy'
p3066
F4.1438
F0.0137
F24.6098
F0.1092
F2.8324
F0.011
F122.0
tp3067
a(S'bvert_11MeV_neg45tilt_315rot_det15.npy'
p3068
F5.2348
F0.013
F39.3206
F0.2533
F3.6122
F0.0132
F94.0
tp3069
a(S'bvert_11MeV_neg45tilt_315rot_det4.npy'
p3070
F5.2437
F0.0135
F38.2281
F0.2444
F3.5926
F0.013
F84.0
tp3071
a(S'bvert_11MeV_neg45tilt_315rot_det5.npy'
p3072
F4.1275
F0.0122
F23.0507
F0.1027
F2.7957
F0.0109
F145.0
tp3073
a(S'bvert_11MeV_neg45tilt_315rot_det6.npy'
p3074
F2.9031
F0.0108
F17.6574
F0.0539
F1.9412
F0.0089
F154.0
tp3075
a(S'bvert_11MeV_neg45tilt_315rot_det7.npy'
p3076
F1.7306
F0.0097
F15.7876
F0.0425
F1.1097
F0.0073
F153.0
tp3077
a(S'bvert_11MeV_neg45tilt_315rot_det8.npy'
p3078
F0.851
F0.0069
F17.2276
F0.0369
F0.52
F0.0047
F177.0
tp3079
a(S'bvert_11MeV_neg45tilt_315rot_det9.npy'
p3080
F0.2878
F0.0033
F15.7543
F0.0365
F0.1659
F0.0018
F202.0
tp3081
a(S'bvert_11MeV_neg45tilt_325rot_det10.npy'
p3082
F0.262
F0.0031
F13.7496
F0.0369
F0.1514
F0.0018
F200.0
tp3083
a(S'bvert_11MeV_neg45tilt_325rot_det11.npy'
p3084
F0.7902
F0.0064
F17.7784
F0.0347
F0.4838
F0.0043
F176.0
tp3085
a(S'bvert_11MeV_neg45tilt_325rot_det12.npy'
p3086
F1.6656
F0.0092
F16.7966
F0.0425
F1.0798
F0.0068
F180.0
tp3087
a(S'bvert_11MeV_neg45tilt_325rot_det13.npy'
p3088
F2.8237
F0.0124
F19.9789
F0.0559
F1.902
F0.0094
F177.0
tp3089
a(S'bvert_11MeV_neg45tilt_325rot_det14.npy'
p3090
F4.0507
F0.0125
F24.5397
F0.104
F2.7823
F0.0102
F144.0
tp3091
a(S'bvert_11MeV_neg45tilt_325rot_det15.npy'
p3092
F5.1126
F0.0154
F38.8946
F0.244
F3.5483
F0.0135
F95.0
tp3093
a(S'bvert_11MeV_neg45tilt_325rot_det4.npy'
p3094
F5.3076
F0.0151
F38.0637
F0.2697
F3.5989
F0.0141
F85.0
tp3095
a(S'bvert_11MeV_neg45tilt_325rot_det5.npy'
p3096
F4.1981
F0.0142
F22.8709
F0.0933
F2.8436
F0.0119
F134.0
tp3097
a(S'bvert_11MeV_neg45tilt_325rot_det6.npy'
p3098
F2.9449
F0.0124
F17.749
F0.0609
F1.9555
F0.009
F182.0
tp3099
a(S'bvert_11MeV_neg45tilt_325rot_det7.npy'
p3100
F1.7927
F0.0093
F15.8131
F0.0424
F1.151
F0.0071
F173.0
tp3101
a(S'bvert_11MeV_neg45tilt_325rot_det8.npy'
p3102
F0.8581
F0.0066
F17.2119
F0.0353
F0.5239
F0.0044
F181.0
tp3103
a(S'bvert_11MeV_neg45tilt_325rot_det9.npy'
p3104
F0.2957
F0.0038
F15.7406
F0.0387
F0.1706
F0.0023
F170.0
tp3105
a(S'bvert_11MeV_neg45tilt_335rot_det10.npy'
p3106
F0.262
F0.0033
F13.7776
F0.0374
F0.1509
F0.0019
F191.0
tp3107
a(S'bvert_11MeV_neg45tilt_335rot_det11.npy'
p3108
F0.7818
F0.0066
F17.8402
F0.0345
F0.4777
F0.0042
F182.0
tp3109
a(S'bvert_11MeV_neg45tilt_335rot_det12.npy'
p3110
F1.6707
F0.009
F16.8064
F0.0378
F1.0811
F0.0062
F185.0
tp3111
a(S'bvert_11MeV_neg45tilt_335rot_det13.npy'
p3112
F2.7622
F0.0122
F19.9474
F0.0598
F1.8605
F0.0091
F179.0
tp3113
a(S'bvert_11MeV_neg45tilt_335rot_det14.npy'
p3114
F3.9801
F0.0134
F24.7075
F0.1076
F2.7374
F0.011
F141.0
tp3115
a(S'bvert_11MeV_neg45tilt_335rot_det15.npy'
p3116
F5.0347
F0.016
F38.6515
F0.3168
F3.5109
F0.0169
F61.0
tp3117
a(S'bvert_11MeV_neg45tilt_335rot_det4.npy'
p3118
F5.338
F0.0137
F37.9288
F0.2659
F3.6442
F0.0122
F89.0
tp3119
a(S'bvert_11MeV_neg45tilt_335rot_det5.npy'
p3120
F4.2581
F0.0117
F22.8534
F0.0908
F2.8688
F0.0096
F156.0
tp3121
a(S'bvert_11MeV_neg45tilt_335rot_det6.npy'
p3122
F3.0316
F0.0106
F17.6455
F0.0557
F1.9998
F0.0082
F164.0
tp3123
a(S'bvert_11MeV_neg45tilt_335rot_det7.npy'
p3124
F1.8009
F0.0102
F15.7508
F0.0401
F1.1525
F0.0074
F180.0
tp3125
a(S'bvert_11MeV_neg45tilt_335rot_det8.npy'
p3126
F0.8748
F0.0073
F17.2296
F0.0362
F0.5339
F0.0049
F158.0
tp3127
a(S'bvert_11MeV_neg45tilt_335rot_det9.npy'
p3128
F0.2978
F0.0035
F15.703
F0.034
F0.1723
F0.002
F214.0
tp3129
a(S'bvert_11MeV_neg45tilt_345rot_det10.npy'
p3130
F0.2608
F0.0034
F13.7787
F0.0321
F0.1494
F0.0019
F175.0
tp3131
a(S'bvert_11MeV_neg45tilt_345rot_det11.npy'
p3132
F0.7751
F0.0063
F17.8318
F0.0331
F0.4737
F0.0041
F185.0
tp3133
a(S'bvert_11MeV_neg45tilt_345rot_det12.npy'
p3134
F1.6445
F0.0093
F16.8669
F0.0366
F1.0649
F0.0067
F187.0
tp3135
a(S'bvert_11MeV_neg45tilt_345rot_det13.npy'
p3136
F2.7112
F0.014
F20.0579
F0.0626
F1.8326
F0.0106
F153.0
tp3137
a(S'bvert_11MeV_neg45tilt_345rot_det14.npy'
p3138
F3.8993
F0.0124
F24.5944
F0.0938
F2.6885
F0.0106
F136.0
tp3139
a(S'bvert_11MeV_neg45tilt_345rot_det15.npy'
p3140
F4.9725
F0.0146
F38.9698
F0.2578
F3.4767
F0.0134
F90.0
tp3141
a(S'bvert_11MeV_neg45tilt_345rot_det4.npy'
p3142
F5.2948
F0.0154
F38.1312
F0.2677
F3.6231
F0.0142
F80.0
tp3143
a(S'bvert_11MeV_neg45tilt_345rot_det5.npy'
p3144
F4.289
F0.0134
F22.8809
F0.115
F2.8898
F0.0111
F120.0
tp3145
a(S'bvert_11MeV_neg45tilt_345rot_det6.npy'
p3146
F3.0606
F0.0121
F17.597
F0.0616
F2.0101
F0.0093
F161.0
tp3147
a(S'bvert_11MeV_neg45tilt_345rot_det7.npy'
p3148
F1.8517
F0.0108
F15.7975
F0.0454
F1.1747
F0.0074
F153.0
tp3149
a(S'bvert_11MeV_neg45tilt_345rot_det8.npy'
p3150
F0.895
F0.0077
F17.1929
F0.0339
F0.5415
F0.005
F166.0
tp3151
a(S'bvert_11MeV_neg45tilt_345rot_det9.npy'
p3152
F0.3021
F0.0034
F15.6652
F0.0373
F0.1745
F0.0021
F170.0
tp3153
a(S'bvert_11MeV_neg45tilt_355rot_det10.npy'
p3154
F0.2653
F0.0033
F13.7782
F0.0417
F0.1536
F0.0019
F167.0
tp3155
a(S'bvert_11MeV_neg45tilt_355rot_det11.npy'
p3156
F0.7831
F0.0058
F17.9036
F0.0327
F0.4789
F0.0038
F187.0
tp3157
a(S'bvert_11MeV_neg45tilt_355rot_det12.npy'
p3158
F1.6213
F0.0091
F16.9493
F0.042
F1.0504
F0.0067
F202.0
tp3159
a(S'bvert_11MeV_neg45tilt_355rot_det13.npy'
p3160
F2.7114
F0.0106
F20.0887
F0.0514
F1.8249
F0.0085
F196.0
tp3161
a(S'bvert_11MeV_neg45tilt_355rot_det14.npy'
p3162
F3.8688
F0.0121
F24.6624
F0.0939
F2.672
F0.0097
F149.0
tp3163
a(S'bvert_11MeV_neg45tilt_355rot_det15.npy'
p3164
F4.8908
F0.0176
F39.2003
F0.2975
F3.4077
F0.0153
F75.0
tp3165
a(S'bvert_11MeV_neg45tilt_355rot_det4.npy'
p3166
F5.2328
F0.0152
F38.1879
F0.247
F3.6062
F0.0136
F79.0
tp3167
a(S'bvert_11MeV_neg45tilt_355rot_det5.npy'
p3168
F4.2474
F0.013
F22.9143
F0.0922
F2.8652
F0.0112
F147.0
tp3169
a(S'bvert_11MeV_neg45tilt_355rot_det6.npy'
p3170
F3.0793
F0.0118
F17.6249
F0.0579
F2.0121
F0.009
F156.0
tp3171
a(S'bvert_11MeV_neg45tilt_355rot_det7.npy'
p3172
F1.876
F0.0092
F15.8095
F0.0386
F1.186
F0.0065
F199.0
tp3173
a(S'bvert_11MeV_neg45tilt_355rot_det8.npy'
p3174
F0.9148
F0.0079
F17.1615
F0.0381
F0.5523
F0.0051
F156.0
tp3175
a(S'bvert_11MeV_neg45tilt_355rot_det9.npy'
p3176
F0.301
F0.0036
F15.6482
F0.0326
F0.174
F0.0021
F186.0
tp3177
a(S'bvert_11MeV_neg45tilt_35rot_det10.npy'
p3178
F0.292
F0.0038
F13.7689
F0.0428
F0.1689
F0.0022
F163.0
tp3179
a(S'bvert_11MeV_neg45tilt_35rot_det11.npy'
p3180
F0.8338
F0.0064
F17.8881
F0.0375
F0.5089
F0.0043
F165.0
tp3181
a(S'bvert_11MeV_neg45tilt_35rot_det12.npy'
p3182
F1.6902
F0.0099
F16.9171
F0.0423
F1.0911
F0.0071
F157.0
tp3183
a(S'bvert_11MeV_neg45tilt_35rot_det13.npy'
p3184
F2.7133
F0.0113
F20.0211
F0.0577
F1.8236
F0.0084
F158.0
tp3185
a(S'bvert_11MeV_neg45tilt_35rot_det14.npy'
p3186
F3.7951
F0.0119
F24.5317
F0.103
F2.6156
F0.0106
F153.0
tp3187
a(S'bvert_11MeV_neg45tilt_35rot_det15.npy'
p3188
F4.756
F0.014
F39.7532
F0.2895
F3.3326
F0.0127
F78.0
tp3189
a(S'bvert_11MeV_neg45tilt_35rot_det4.npy'
p3190
F4.867
F0.0132
F37.0093
F0.2608
F3.4244
F0.0134
F84.0
tp3191
a(S'bvert_11MeV_neg45tilt_35rot_det5.npy'
p3192
F3.9592
F0.0114
F22.9699
F0.0941
F2.7333
F0.0098
F135.0
tp3193
a(S'bvert_11MeV_neg45tilt_35rot_det6.npy'
p3194
F2.8612
F0.0115
F17.5427
F0.0577
F1.9168
F0.0088
F167.0
tp3195
a(S'bvert_11MeV_neg45tilt_35rot_det7.npy'
p3196
F1.7794
F0.0098
F15.7929
F0.04
F1.1442
F0.0068
F191.0
tp3197
a(S'bvert_11MeV_neg45tilt_35rot_det8.npy'
p3198
F0.9032
F0.0068
F17.1714
F0.0335
F0.5485
F0.0044
F180.0
tp3199
a(S'bvert_11MeV_neg45tilt_35rot_det9.npy'
p3200
F0.3038
F0.0038
F15.5865
F0.0413
F0.1753
F0.0022
F165.0
tp3201
a(S'bvert_11MeV_neg45tilt_45rot_det10.npy'
p3202
F0.2964
F0.0036
F13.6953
F0.0385
F0.1717
F0.0022
F173.0
tp3203
a(S'bvert_11MeV_neg45tilt_45rot_det11.npy'
p3204
F0.8608
F0.0077
F17.9417
F0.0336
F0.5213
F0.0048
F159.0
tp3205
a(S'bvert_11MeV_neg45tilt_45rot_det12.npy'
p3206
F1.736
F0.0096
F16.9241
F0.0374
F1.1146
F0.0067
F188.0
tp3207
a(S'bvert_11MeV_neg45tilt_45rot_det13.npy'
p3208
F2.7969
F0.0116
F20.1065
F0.0635
F1.8664
F0.009
F149.0
tp3209
a(S'bvert_11MeV_neg45tilt_45rot_det14.npy'
p3210
F3.8412
F0.0128
F24.6791
F0.1234
F2.6472
F0.0108
F133.0
tp3211
a(S'bvert_11MeV_neg45tilt_45rot_det15.npy'
p3212
F4.804
F0.0161
F39.5772
F0.3522
F3.37
F0.0149
F70.0
tp3213
a(S'bvert_11MeV_neg45tilt_45rot_det4.npy'
p3214
F4.8041
F0.0145
F37.675
F0.2625
F3.3755
F0.0128
F88.0
tp3215
a(S'bvert_11MeV_neg45tilt_45rot_det5.npy'
p3216
F3.894
F0.0118
F22.7971
F0.0979
F2.6956
F0.0098
F156.0
tp3217
a(S'bvert_11MeV_neg45tilt_45rot_det6.npy'
p3218
F2.7895
F0.0125
F17.4159
F0.0603
F1.8753
F0.0095
F155.0
tp3219
a(S'bvert_11MeV_neg45tilt_45rot_det7.npy'
p3220
F1.7413
F0.0094
F15.7513
F0.0356
F1.1278
F0.0067
F192.0
tp3221
a(S'bvert_11MeV_neg45tilt_45rot_det8.npy'
p3222
F0.8785
F0.0071
F17.1776
F0.0341
F0.5392
F0.0047
F183.0
tp3223
a(S'bvert_11MeV_neg45tilt_45rot_det9.npy'
p3224
F0.2975
F0.0038
F15.6164
F0.0375
F0.1722
F0.0022
F170.0
tp3225
a(S'bvert_11MeV_neg45tilt_55rot_det10.npy'
p3226
F0.3044
F0.0034
F13.7219
F0.0353
F0.1748
F0.002
F202.0
tp3227
a(S'bvert_11MeV_neg45tilt_55rot_det11.npy'
p3228
F0.8903
F0.0069
F17.8713
F0.0358
F0.5411
F0.0045
F157.0
tp3229
a(S'bvert_11MeV_neg45tilt_55rot_det12.npy'
p3230
F1.8063
F0.0094
F17.0518
F0.0438
F1.1557
F0.0063
F174.0
tp3231
a(S'bvert_11MeV_neg45tilt_55rot_det13.npy'
p3232
F2.8432
F0.0109
F20.0553
F0.057
F1.8984
F0.0082
F174.0
tp3233
a(S'bvert_11MeV_neg45tilt_55rot_det14.npy'
p3234
F3.9137
F0.0129
F24.8324
F0.1112
F2.6812
F0.0103
F128.0
tp3235
a(S'bvert_11MeV_neg45tilt_55rot_det15.npy'
p3236
F4.8413
F0.014
F39.5011
F0.275
F3.3782
F0.0135
F86.0
tp3237
a(S'bvert_11MeV_neg45tilt_55rot_det4.npy'
p3238
F4.7157
F0.0147
F36.9622
F0.2603
F3.3078
F0.0124
F102.0
tp3239
a(S'bvert_11MeV_neg45tilt_55rot_det5.npy'
p3240
F3.8383
F0.0119
F22.9616
F0.1034
F2.6408
F0.0104
F130.0
tp3241
a(S'bvert_11MeV_neg45tilt_55rot_det6.npy'
p3242
F2.7648
F0.0105
F17.5647
F0.0566
F1.86
F0.0084
F175.0
tp3243
a(S'bvert_11MeV_neg45tilt_55rot_det7.npy'
p3244
F1.7067
F0.0105
F15.7863
F0.0429
F1.1057
F0.0075
F155.0
tp3245
a(S'bvert_11MeV_neg45tilt_55rot_det8.npy'
p3246
F0.8402
F0.0071
F17.1829
F0.0391
F0.516
F0.0046
F152.0
tp3247
a(S'bvert_11MeV_neg45tilt_55rot_det9.npy'
p3248
F0.2842
F0.0037
F15.6949
F0.0408
F0.1659
F0.0021
F161.0
tp3249
a(S'bvert_11MeV_neg45tilt_5rot_det10.npy'
p3250
F0.2664
F0.0035
F13.7533
F0.0312
F0.1535
F0.0019
F177.0
tp3251
a(S'bvert_11MeV_neg45tilt_5rot_det11.npy'
p3252
F0.7887
F0.0064
F17.9481
F0.0351
F0.481
F0.0045
F154.0
tp3253
a(S'bvert_11MeV_neg45tilt_5rot_det12.npy'
p3254
F1.6269
F0.009
F16.9284
F0.0411
F1.0522
F0.0062
F189.0
tp3255
a(S'bvert_11MeV_neg45tilt_5rot_det13.npy'
p3256
F2.655
F0.0123
F19.9724
F0.0585
F1.7877
F0.0092
F155.0
tp3257
a(S'bvert_11MeV_neg45tilt_5rot_det14.npy'
p3258
F3.8054
F0.0123
F24.5062
F0.1001
F2.6263
F0.0096
F147.0
tp3259
a(S'bvert_11MeV_neg45tilt_5rot_det15.npy'
p3260
F4.8375
F0.0161
F39.2431
F0.3008
F3.3985
F0.0144
F73.0
tp3261
a(S'bvert_11MeV_neg45tilt_5rot_det4.npy'
p3262
F5.1309
F0.0149
F38.0436
F0.2747
F3.5481
F0.0146
F91.0
tp3263
a(S'bvert_11MeV_neg45tilt_5rot_det5.npy'
p3264
F4.1726
F0.0136
F22.8242
F0.1066
F2.8402
F0.0116
F114.0
tp3265
a(S'bvert_11MeV_neg45tilt_5rot_det6.npy'
p3266
F3.029
F0.0107
F17.5667
F0.0548
F1.9985
F0.0086
F178.0
tp3267
a(S'bvert_11MeV_neg45tilt_5rot_det7.npy'
p3268
F1.8897
F0.0103
F15.8627
F0.0416
F1.1964
F0.0071
F168.0
tp3269
a(S'bvert_11MeV_neg45tilt_5rot_det8.npy'
p3270
F0.9189
F0.0062
F17.1298
F0.0336
F0.5537
F0.0042
F177.0
tp3271
a(S'bvert_11MeV_neg45tilt_5rot_det9.npy'
p3272
F0.3082
F0.0037
F15.6822
F0.0338
F0.1781
F0.0022
F191.0
tp3273
a(S'bvert_11MeV_neg45tilt_65rot_det10.npy'
p3274
F0.3061
F0.0037
F13.7058
F0.0392
F0.1774
F0.0023
F168.0
tp3275
a(S'bvert_11MeV_neg45tilt_65rot_det11.npy'
p3276
F0.9046
F0.0075
F17.8948
F0.0367
F0.5448
F0.005
F164.0
tp3277
a(S'bvert_11MeV_neg45tilt_65rot_det12.npy'
p3278
F1.8503
F0.0095
F16.9879
F0.0402
F1.1758
F0.007
F171.0
tp3279
a(S'bvert_11MeV_neg45tilt_65rot_det13.npy'
p3280
F2.9155
F0.012
F20.1266
F0.0642
F1.936
F0.0099
F144.0
tp3281
a(S'bvert_11MeV_neg45tilt_65rot_det14.npy'
p3282
F3.9776
F0.0116
F24.7092
F0.1054
F2.7235
F0.0105
F152.0
tp3283
a(S'bvert_11MeV_neg45tilt_65rot_det15.npy'
p3284
F4.9342
F0.0141
F39.9837
F0.2694
F3.4439
F0.0124
F82.0
tp3285
a(S'bvert_11MeV_neg45tilt_65rot_det4.npy'
p3286
F4.7046
F0.017
F36.9912
F0.2843
F3.2958
F0.0149
F80.0
tp3287
a(S'bvert_11MeV_neg45tilt_65rot_det5.npy'
p3288
F3.7989
F0.0121
F22.6213
F0.0917
F2.6154
F0.0101
F162.0
tp3289
a(S'bvert_11MeV_neg45tilt_65rot_det6.npy'
p3290
F2.7236
F0.011
F17.5927
F0.0589
F1.8358
F0.0087
F167.0
tp3291
a(S'bvert_11MeV_neg45tilt_65rot_det7.npy'
p3292
F1.6645
F0.0089
F15.7795
F0.0384
F1.0814
F0.0067
F181.0
tp3293
a(S'bvert_11MeV_neg45tilt_65rot_det8.npy'
p3294
F0.8117
F0.0064
F17.1191
F0.0371
F0.499
F0.0042
F164.0
tp3295
a(S'bvert_11MeV_neg45tilt_65rot_det9.npy'
p3296
F0.2824
F0.0036
F15.6871
F0.0383
F0.1637
F0.0021
F160.0
tp3297
a(S'bvert_11MeV_neg45tilt_75rot_det10.npy'
p3298
F0.3045
F0.004
F13.762
F0.0442
F0.1759
F0.0023
F151.0
tp3299
a(S'bvert_11MeV_neg45tilt_75rot_det11.npy'
p3300
F0.9194
F0.0072
F17.8824
F0.0356
F0.553
F0.0047
F158.0
tp3301
a(S'bvert_11MeV_neg45tilt_75rot_det12.npy'
p3302
F1.87
F0.0098
F16.927
F0.0424
F1.1838
F0.007
F189.0
tp3303
a(S'bvert_11MeV_neg45tilt_75rot_det13.npy'
p3304
F3.0007
F0.0114
F20.2458
F0.0588
F1.9814
F0.0086
F156.0
tp3305
a(S'bvert_11MeV_neg45tilt_75rot_det14.npy'
p3306
F4.111
F0.0127
F24.9278
F0.1156
F2.7913
F0.01
F145.0
tp3307
a(S'bvert_11MeV_neg45tilt_75rot_det15.npy'
p3308
F4.9991
F0.015
F39.1282
F0.3086
F3.4718
F0.0153
F70.0
tp3309
a(S'bvert_11MeV_neg45tilt_75rot_det4.npy'
p3310
F4.731
F0.0145
F37.7377
F0.2347
F3.3068
F0.0137
F98.0
tp3311
a(S'bvert_11MeV_neg45tilt_75rot_det5.npy'
p3312
F3.7697
F0.0124
F22.7006
F0.102
F2.6054
F0.0101
F143.0
tp3313
a(S'bvert_11MeV_neg45tilt_75rot_det6.npy'
p3314
F2.6716
F0.011
F17.4493
F0.0606
F1.8018
F0.0086
F168.0
tp3315
a(S'bvert_11MeV_neg45tilt_75rot_det7.npy'
p3316
F1.6264
F0.0097
F15.7672
F0.0405
F1.0534
F0.0069
F195.0
tp3317
a(S'bvert_11MeV_neg45tilt_75rot_det8.npy'
p3318
F0.8072
F0.0067
F17.1594
F0.0392
F0.492
F0.0045
F151.0
tp3319
a(S'bvert_11MeV_neg45tilt_75rot_det9.npy'
p3320
F0.2735
F0.0032
F15.642
F0.0375
F0.1582
F0.0019
F180.0
tp3321
a(S'bvert_11MeV_neg45tilt_85rot_det10.npy'
p3322
F0.3124
F0.0037
F13.7251
F0.0366
F0.1811
F0.0021
F195.0
tp3323
a(S'bvert_11MeV_neg45tilt_85rot_det11.npy'
p3324
F0.936
F0.0071
F17.9437
F0.0324
F0.5655
F0.0047
F180.0
tp3325
a(S'bvert_11MeV_neg45tilt_85rot_det12.npy'
p3326
F1.9039
F0.0091
F16.99
F0.0405
F1.2064
F0.0066
F188.0
tp3327
a(S'bvert_11MeV_neg45tilt_85rot_det13.npy'
p3328
F3.0746
F0.0125
F20.3134
F0.0621
F2.025
F0.0095
F159.0
tp3329
a(S'bvert_11MeV_neg45tilt_85rot_det14.npy'
p3330
F4.1933
F0.0138
F24.9469
F0.1036
F2.8457
F0.0115
F128.0
tp3331
a(S'bvert_11MeV_neg45tilt_85rot_det15.npy'
p3332
F5.1261
F0.0147
F40.0668
F0.2965
F3.535
F0.014
F81.0
tp3333
a(S'bvert_11MeV_neg45tilt_85rot_det4.npy'
p3334
F4.762
F0.0131
F37.228
F0.253
F3.3333
F0.012
F88.0
tp3335
a(S'bvert_11MeV_neg45tilt_85rot_det5.npy'
p3336
F3.7386
F0.0128
F22.5236
F0.0977
F2.571
F0.0101
F150.0
tp3337
a(S'bvert_11MeV_neg45tilt_85rot_det6.npy'
p3338
F2.6337
F0.0106
F17.4499
F0.0552
F1.7725
F0.0081
F176.0
tp3339
a(S'bvert_11MeV_neg45tilt_85rot_det7.npy'
p3340
F1.5976
F0.0098
F15.6797
F0.0434
F1.0287
F0.0069
F177.0
tp3341
a(S'bvert_11MeV_neg45tilt_85rot_det8.npy'
p3342
F0.7843
F0.0067
F17.1575
F0.0381
F0.4787
F0.0045
F181.0
tp3343
a(S'bvert_11MeV_neg45tilt_85rot_det9.npy'
p3344
F0.2689
F0.0034
F15.6679
F0.037
F0.1563
F0.0019
F173.0
tp3345
a(S'bvert_11MeV_neg45tilt_95rot_det10.npy'
p3346
F0.3004
F0.0036
F13.8237
F0.0341
F0.1749
F0.0021
F197.0
tp3347
a(S'bvert_11MeV_neg45tilt_95rot_det11.npy'
p3348
F0.9068
F0.0073
F17.8816
F0.0361
F0.552
F0.0049
F164.0
tp3349
a(S'bvert_11MeV_neg45tilt_95rot_det12.npy'
p3350
F1.898
F0.0109
F17.0492
F0.0419
F1.2087
F0.0077
F189.0
tp3351
a(S'bvert_11MeV_neg45tilt_95rot_det13.npy'
p3352
F3.0625
F0.0124
F20.2356
F0.0601
F2.0102
F0.0096
F159.0
tp3353
a(S'bvert_11MeV_neg45tilt_95rot_det14.npy'
p3354
F4.2143
F0.0138
F24.8761
F0.1007
F2.837
F0.011
F141.0
tp3355
a(S'bvert_11MeV_neg45tilt_95rot_det15.npy'
p3356
F5.2052
F0.0168
F39.5341
F0.2911
F3.5906
F0.0157
F79.0
tp3357
a(S'bvert_11MeV_neg45tilt_95rot_det4.npy'
p3358
F4.8166
F0.0157
F37.5443
F0.263
F3.3653
F0.0137
F81.0
tp3359
a(S'bvert_11MeV_neg45tilt_95rot_det5.npy'
p3360
F3.8087
F0.0129
F22.6809
F0.097
F2.6248
F0.0107
F145.0
tp3361
a(S'bvert_11MeV_neg45tilt_95rot_det6.npy'
p3362
F2.6246
F0.0112
F17.3539
F0.0566
F1.764
F0.0087
F159.0
tp3363
a(S'bvert_11MeV_neg45tilt_95rot_det7.npy'
p3364
F1.5946
F0.0092
F15.6611
F0.037
F1.0278
F0.0064
F186.0
tp3365
a(S'bvert_11MeV_neg45tilt_95rot_det8.npy'
p3366
F0.7729
F0.006
F17.1273
F0.0351
F0.4715
F0.004
F176.0
tp3367
a(S'bvert_11MeV_neg45tilt_95rot_det9.npy'
p3368
F0.2621
F0.0032
F15.6275
F0.0334
F0.1506
F0.0018
F187.0
tp3369
a.