(lp0
(S'filename'
p1
S'ql_mean'
p2
S'ql_abs_uncert'
p3
S'tof_mean'
p4
S'tof_abs_uncert'
p5
S'qs_mean'
p6
S'qs_abs_uncert'
p7
S'counts'
p8
tp9
a(S'cpvert_4MeV_0tilt_115rot_det10.npy'
p10
F0.0997
F0.0012
F24.3454
F0.0961
F0.0617
F0.0007
F156.0
tp11
a(S'cpvert_4MeV_0tilt_115rot_det11.npy'
p12
F0.2538
F0.0029
F28.8828
F0.101
F0.1483
F0.0017
F139.0
tp13
a(S'cpvert_4MeV_0tilt_115rot_det12.npy'
p14
F0.5389
F0.0049
F28.7271
F0.1028
F0.3223
F0.0032
F154.0
tp15
a(S'cpvert_4MeV_0tilt_115rot_det13.npy'
p16
F0.8898
F0.0066
F33.5259
F0.1341
F0.5465
F0.0044
F155.0
tp17
a(S'cpvert_4MeV_0tilt_115rot_det14.npy'
p18
F1.2733
F0.0107
F43.5984
F0.2342
F0.7968
F0.0069
F110.0
tp19
a(S'cpvert_4MeV_0tilt_115rot_det15.npy'
p20
F1.6102
F0.0168
F67.3322
F0.4791
F1.0272
F0.0115
F75.0
tp21
a(S'cpvert_4MeV_0tilt_115rot_det4.npy'
p22
F1.5821
F0.0151
F64.8919
F0.5184
F1.018
F0.0106
F79.0
tp23
a(S'cpvert_4MeV_0tilt_115rot_det5.npy'
p24
F1.2531
F0.0102
F41.2376
F0.2086
F0.7939
F0.007
F122.0
tp25
a(S'cpvert_4MeV_0tilt_115rot_det6.npy'
p26
F0.8604
F0.0068
F31.4766
F0.1268
F0.5312
F0.0045
F165.0
tp27
a(S'cpvert_4MeV_0tilt_115rot_det7.npy'
p28
F0.5183
F0.0051
F27.7039
F0.1062
F0.3092
F0.0032
F140.0
tp29
a(S'cpvert_4MeV_0tilt_115rot_det8.npy'
p30
F0.2578
F0.0028
F28.0495
F0.0957
F0.1503
F0.0017
F148.0
tp31
a(S'cpvert_4MeV_0tilt_115rot_det9.npy'
p32
F0.0989
F0.0012
F25.709
F0.0819
F0.0608
F0.0006
F161.0
tp33
a(S'cpvert_4MeV_0tilt_135rot_det10.npy'
p34
F0.1003
F0.0012
F24.2903
F0.0972
F0.0617
F0.0007
F134.0
tp35
a(S'cpvert_4MeV_0tilt_135rot_det11.npy'
p36
F0.2543
F0.0026
F28.7484
F0.1009
F0.1491
F0.0016
F145.0
tp37
a(S'cpvert_4MeV_0tilt_135rot_det12.npy'
p38
F0.5174
F0.0048
F28.7491
F0.0997
F0.3094
F0.003
F157.0
tp39
a(S'cpvert_4MeV_0tilt_135rot_det13.npy'
p40
F0.8899
F0.0078
F33.8685
F0.1616
F0.5488
F0.0055
F128.0
tp41
a(S'cpvert_4MeV_0tilt_135rot_det14.npy'
p42
F1.247
F0.0124
F43.5954
F0.2497
F0.7875
F0.0083
F105.0
tp43
a(S'cpvert_4MeV_0tilt_135rot_det15.npy'
p44
F1.6451
F0.013
F66.3584
F0.5419
F1.0497
F0.0098
F61.0
tp45
a(S'cpvert_4MeV_0tilt_135rot_det4.npy'
p46
F1.5667
F0.0174
F66.0444
F0.6114
F0.9996
F0.0119
F72.0
tp47
a(S'cpvert_4MeV_0tilt_135rot_det5.npy'
p48
F1.2574
F0.0101
F41.2243
F0.2242
F0.7957
F0.0069
F114.0
tp49
a(S'cpvert_4MeV_0tilt_135rot_det6.npy'
p50
F0.8788
F0.0078
F31.2274
F0.1524
F0.5414
F0.0053
F117.0
tp51
a(S'cpvert_4MeV_0tilt_135rot_det7.npy'
p52
F0.5228
F0.0047
F27.865
F0.1062
F0.3129
F0.003
F157.0
tp53
a(S'cpvert_4MeV_0tilt_135rot_det8.npy'
p54
F0.257
F0.0027
F27.9438
F0.0975
F0.1493
F0.0016
F149.0
tp55
a(S'cpvert_4MeV_0tilt_135rot_det9.npy'
p56
F0.0978
F0.0014
F25.6707
F0.0966
F0.0606
F0.0008
F140.0
tp57
a(S'cpvert_4MeV_0tilt_15rot_det10.npy'
p58
F0.099
F0.0013
F24.3475
F0.0959
F0.0615
F0.0007
F146.0
tp59
a(S'cpvert_4MeV_0tilt_15rot_det11.npy'
p60
F0.2637
F0.0024
F28.7508
F0.0865
F0.1536
F0.0015
F182.0
tp61
a(S'cpvert_4MeV_0tilt_15rot_det12.npy'
p62
F0.5245
F0.0047
F28.9284
F0.1029
F0.3121
F0.0029
F172.0
tp63
a(S'cpvert_4MeV_0tilt_15rot_det13.npy'
p64
F0.8571
F0.0061
F33.7418
F0.1286
F0.5284
F0.0043
F179.0
tp65
a(S'cpvert_4MeV_0tilt_15rot_det14.npy'
p66
F1.2241
F0.009
F43.0625
F0.2117
F0.7811
F0.0066
F143.0
tp67
a(S'cpvert_4MeV_0tilt_15rot_det15.npy'
p68
F1.5421
F0.013
F66.5621
F0.4957
F0.9965
F0.009
F73.0
tp69
a(S'cpvert_4MeV_0tilt_15rot_det4.npy'
p70
F1.595
F0.0153
F65.3583
F0.5417
F1.0274
F0.0104
F74.0
tp71
a(S'cpvert_4MeV_0tilt_15rot_det5.npy'
p72
F1.2608
F0.009
F40.9782
F0.2086
F0.7967
F0.0065
F124.0
tp73
a(S'cpvert_4MeV_0tilt_15rot_det6.npy'
p74
F0.8858
F0.0073
F31.3016
F0.1428
F0.5426
F0.005
F152.0
tp75
a(S'cpvert_4MeV_0tilt_15rot_det7.npy'
p76
F0.5342
F0.0043
F27.5974
F0.0935
F0.3184
F0.0028
F194.0
tp77
a(S'cpvert_4MeV_0tilt_15rot_det8.npy'
p78
F0.2612
F0.0028
F28.0116
F0.0924
F0.1537
F0.0017
F148.0
tp79
a(S'cpvert_4MeV_0tilt_15rot_det9.npy'
p80
F0.0999
F0.0012
F25.7749
F0.0933
F0.0625
F0.0006
F159.0
tp81
a(S'cpvert_4MeV_0tilt_25rot_det10.npy'
p82
F0.1008
F0.0013
F24.3564
F0.0931
F0.0622
F0.0007
F151.0
tp83
a(S'cpvert_4MeV_0tilt_25rot_det11.npy'
p84
F0.2621
F0.0027
F28.7871
F0.0936
F0.1545
F0.0016
F168.0
tp85
a(S'cpvert_4MeV_0tilt_25rot_det12.npy'
p86
F0.5204
F0.0044
F28.7102
F0.1078
F0.3092
F0.0029
F179.0
tp87
a(S'cpvert_4MeV_0tilt_25rot_det13.npy'
p88
F0.8612
F0.0062
F33.7239
F0.1176
F0.531
F0.0041
F181.0
tp89
a(S'cpvert_4MeV_0tilt_25rot_det14.npy'
p90
F1.2178
F0.0105
F43.2626
F0.2188
F0.7733
F0.0076
F130.0
tp91
a(S'cpvert_4MeV_0tilt_25rot_det15.npy'
p92
F1.559
F0.0142
F67.0449
F0.4659
F1.013
F0.0102
F80.0
tp93
a(S'cpvert_4MeV_0tilt_25rot_det4.npy'
p94
F1.558
F0.0146
F65.3534
F0.4805
F1.0041
F0.0102
F80.0
tp95
a(S'cpvert_4MeV_0tilt_25rot_det5.npy'
p96
F1.2329
F0.0096
F41.1054
F0.2061
F0.7808
F0.0066
F139.0
tp97
a(S'cpvert_4MeV_0tilt_25rot_det6.npy'
p98
F0.8834
F0.0073
F31.5072
F0.1376
F0.5425
F0.0049
F166.0
tp99
a(S'cpvert_4MeV_0tilt_25rot_det7.npy'
p100
F0.5369
F0.0046
F27.6534
F0.0996
F0.3213
F0.0029
F167.0
tp101
a(S'cpvert_4MeV_0tilt_25rot_det8.npy'
p102
F0.2643
F0.0024
F27.8954
F0.0781
F0.1553
F0.0014
F186.0
tp103
a(S'cpvert_4MeV_0tilt_25rot_det9.npy'
p104
F0.1
F0.0013
F25.75
F0.098
F0.0628
F0.0007
F146.0
tp105
a(S'cpvert_4MeV_0tilt_315rot_det10.npy'
p106
F0.0978
F0.0012
F24.3866
F0.0883
F0.0607
F0.0007
F161.0
tp107
a(S'cpvert_4MeV_0tilt_315rot_det11.npy'
p108
F0.257
F0.0022
F28.8092
F0.0872
F0.1496
F0.0014
F198.0
tp109
a(S'cpvert_4MeV_0tilt_315rot_det12.npy'
p110
F0.5364
F0.0043
F28.8109
F0.104
F0.3203
F0.0029
F149.0
tp111
a(S'cpvert_4MeV_0tilt_315rot_det13.npy'
p112
F0.8667
F0.0073
F33.7589
F0.143
F0.5359
F0.0049
F158.0
tp113
a(S'cpvert_4MeV_0tilt_315rot_det14.npy'
p114
F1.2334
F0.0113
F43.4179
F0.2234
F0.7786
F0.0081
F117.0
tp115
a(S'cpvert_4MeV_0tilt_315rot_det15.npy'
p116
F1.5763
F0.0153
F67.8471
F0.5004
F1.0118
F0.0111
F81.0
tp117
a(S'cpvert_4MeV_0tilt_315rot_det4.npy'
p118
F1.6299
F0.0159
F65.528
F0.6276
F1.0392
F0.0113
F65.0
tp119
a(S'cpvert_4MeV_0tilt_315rot_det5.npy'
p120
F1.2323
F0.0129
F41.2747
F0.2476
F0.7738
F0.0088
F107.0
tp121
a(S'cpvert_4MeV_0tilt_315rot_det6.npy'
p122
F0.8775
F0.0076
F31.4073
F0.1332
F0.5366
F0.0051
F174.0
tp123
a(S'cpvert_4MeV_0tilt_315rot_det7.npy'
p124
F0.5282
F0.0047
F27.5351
F0.0949
F0.3139
F0.003
F193.0
tp125
a(S'cpvert_4MeV_0tilt_315rot_det8.npy'
p126
F0.2575
F0.0026
F28.0059
F0.0929
F0.1509
F0.0016
F159.0
tp127
a(S'cpvert_4MeV_0tilt_315rot_det9.npy'
p128
F0.0985
F0.0014
F25.8587
F0.0941
F0.0614
F0.0007
F158.0
tp129
a(S'cpvert_4MeV_0tilt_335rot_det10.npy'
p130
F0.0992
F0.0013
F24.4375
F0.0984
F0.0608
F0.0007
F140.0
tp131
a(S'cpvert_4MeV_0tilt_335rot_det11.npy'
p132
F0.2608
F0.0026
F28.8935
F0.0915
F0.1529
F0.0016
F153.0
tp133
a(S'cpvert_4MeV_0tilt_335rot_det12.npy'
p134
F0.529
F0.0047
F28.9087
F0.0927
F0.3151
F0.0031
F162.0
tp135
a(S'cpvert_4MeV_0tilt_335rot_det13.npy'
p136
F0.8726
F0.0065
F33.8213
F0.1331
F0.5378
F0.0043
F167.0
tp137
a(S'cpvert_4MeV_0tilt_335rot_det14.npy'
p138
F1.2544
F0.0117
F43.6038
F0.2676
F0.7944
F0.008
F88.0
tp139
a(S'cpvert_4MeV_0tilt_335rot_det15.npy'
p140
F1.5848
F0.0128
F66.8092
F0.5094
F1.0229
F0.0086
F78.0
tp141
a(S'cpvert_4MeV_0tilt_335rot_det4.npy'
p142
F1.6036
F0.0167
F64.5913
F0.4858
F1.0179
F0.0111
F75.0
tp143
a(S'cpvert_4MeV_0tilt_335rot_det5.npy'
p144
F1.283
F0.0096
F40.3187
F0.2113
F0.8035
F0.0069
F122.0
tp145
a(S'cpvert_4MeV_0tilt_335rot_det6.npy'
p146
F0.8834
F0.0073
F31.2321
F0.1252
F0.5436
F0.0048
F173.0
tp147
a(S'cpvert_4MeV_0tilt_335rot_det7.npy'
p148
F0.5273
F0.0042
F27.6237
F0.0931
F0.3135
F0.0027
F176.0
tp149
a(S'cpvert_4MeV_0tilt_335rot_det8.npy'
p150
F0.2596
F0.0025
F27.7651
F0.09
F0.1525
F0.0015
F171.0
tp151
a(S'cpvert_4MeV_0tilt_335rot_det9.npy'
p152
F0.0977
F0.0012
F25.7459
F0.0858
F0.0609
F0.0007
F165.0
tp153
a(S'cpvert_4MeV_0tilt_345rot_det10.npy'
p154
F0.0985
F0.0012
F24.2663
F0.0943
F0.0605
F0.0007
F140.0
tp155
a(S'cpvert_4MeV_0tilt_345rot_det11.npy'
p156
F0.261
F0.0026
F28.8516
F0.0944
F0.1534
F0.0016
F152.0
tp157
a(S'cpvert_4MeV_0tilt_345rot_det12.npy'
p158
F0.5242
F0.0045
F28.9342
F0.1012
F0.314
F0.0029
F190.0
tp159
a(S'cpvert_4MeV_0tilt_345rot_det13.npy'
p160
F0.8655
F0.007
F33.823
F0.1194
F0.5353
F0.0048
F168.0
tp161
a(S'cpvert_4MeV_0tilt_345rot_det14.npy'
p162
F1.2385
F0.0103
F43.5067
F0.2259
F0.7846
F0.0072
F126.0
tp163
a(S'cpvert_4MeV_0tilt_345rot_det15.npy'
p164
F1.5775
F0.0171
F67.3807
F0.5715
F1.0178
F0.0122
F64.0
tp165
a(S'cpvert_4MeV_0tilt_345rot_det4.npy'
p166
F1.5985
F0.0152
F65.5243
F0.4648
F1.0238
F0.0106
F101.0
tp167
a(S'cpvert_4MeV_0tilt_345rot_det5.npy'
p168
F1.2546
F0.0116
F40.7975
F0.2196
F0.7895
F0.0083
F107.0
tp169
a(S'cpvert_4MeV_0tilt_345rot_det6.npy'
p170
F0.883
F0.0074
F31.3199
F0.1367
F0.5397
F0.0048
F145.0
tp171
a(S'cpvert_4MeV_0tilt_345rot_det7.npy'
p172
F0.5362
F0.0048
F27.5757
F0.0917
F0.3199
F0.003
F184.0
tp173
a(S'cpvert_4MeV_0tilt_345rot_det8.npy'
p174
F0.2604
F0.0029
F27.8616
F0.1035
F0.153
F0.0017
F139.0
tp175
a(S'cpvert_4MeV_0tilt_345rot_det9.npy'
p176
F0.0974
F0.0011
F25.7072
F0.0887
F0.0607
F0.0006
F162.0
tp177
a(S'cpvert_4MeV_0tilt_355rot_det10.npy'
p178
F0.0998
F0.0012
F24.3747
F0.0985
F0.0617
F0.0007
F143.0
tp179
a(S'cpvert_4MeV_0tilt_355rot_det11.npy'
p180
F0.2543
F0.0027
F28.752
F0.0951
F0.1481
F0.0016
F147.0
tp181
a(S'cpvert_4MeV_0tilt_355rot_det12.npy'
p182
F0.5145
F0.0048
F28.907
F0.1036
F0.3082
F0.0032
F161.0
tp183
a(S'cpvert_4MeV_0tilt_355rot_det13.npy'
p184
F0.8811
F0.0073
F33.7612
F0.1555
F0.545
F0.0048
F123.0
tp185
a(S'cpvert_4MeV_0tilt_355rot_det14.npy'
p186
F1.2233
F0.0108
F43.641
F0.2337
F0.776
F0.0077
F119.0
tp187
a(S'cpvert_4MeV_0tilt_355rot_det15.npy'
p188
F1.5288
F0.0151
F67.1797
F0.548
F0.9909
F0.0107
F71.0
tp189
a(S'cpvert_4MeV_0tilt_355rot_det4.npy'
p190
F1.5799
F0.017
F66.4771
F0.5377
F1.0113
F0.0116
F69.0
tp191
a(S'cpvert_4MeV_0tilt_355rot_det5.npy'
p192
F1.2876
F0.0094
F40.9265
F0.2319
F0.8032
F0.0063
F112.0
tp193
a(S'cpvert_4MeV_0tilt_355rot_det6.npy'
p194
F0.8949
F0.007
F31.3369
F0.136
F0.5464
F0.0046
F151.0
tp195
a(S'cpvert_4MeV_0tilt_355rot_det7.npy'
p196
F0.5398
F0.005
F27.5026
F0.0959
F0.3232
F0.0032
F145.0
tp197
a(S'cpvert_4MeV_0tilt_355rot_det8.npy'
p198
F0.2654
F0.0029
F27.8834
F0.0924
F0.1564
F0.0018
F147.0
tp199
a(S'cpvert_4MeV_0tilt_355rot_det9.npy'
p200
F0.1002
F0.0013
F25.7123
F0.0928
F0.0627
F0.0007
F137.0
tp201
a(S'cpvert_4MeV_0tilt_35rot_det10.npy'
p202
F0.1003
F0.0012
F24.1655
F0.0927
F0.0631
F0.0007
F151.0
tp203
a(S'cpvert_4MeV_0tilt_35rot_det11.npy'
p204
F0.2592
F0.0031
F28.6972
F0.0964
F0.1524
F0.0019
F143.0
tp205
a(S'cpvert_4MeV_0tilt_35rot_det12.npy'
p206
F0.5291
F0.0047
F28.8225
F0.1048
F0.3163
F0.0031
F161.0
tp207
a(S'cpvert_4MeV_0tilt_35rot_det13.npy'
p208
F0.8796
F0.0066
F33.5498
F0.1478
F0.5444
F0.0043
F143.0
tp209
a(S'cpvert_4MeV_0tilt_35rot_det14.npy'
p210
F1.2119
F0.0115
F43.5086
F0.2459
F0.7724
F0.0082
F123.0
tp211
a(S'cpvert_4MeV_0tilt_35rot_det15.npy'
p212
F1.5625
F0.0137
F67.2092
F0.45
F1.01
F0.0096
F85.0
tp213
a(S'cpvert_4MeV_0tilt_35rot_det4.npy'
p214
F1.5618
F0.0144
F65.925
F0.5372
F1.0028
F0.0097
F76.0
tp215
a(S'cpvert_4MeV_0tilt_35rot_det5.npy'
p216
F1.2558
F0.0101
F41.1491
F0.1996
F0.796
F0.0072
F120.0
tp217
a(S'cpvert_4MeV_0tilt_35rot_det6.npy'
p218
F0.8741
F0.0069
F31.1203
F0.1343
F0.5348
F0.0048
F158.0
tp219
a(S'cpvert_4MeV_0tilt_35rot_det7.npy'
p220
F0.5305
F0.0054
F27.6664
F0.1046
F0.3161
F0.0034
F134.0
tp221
a(S'cpvert_4MeV_0tilt_35rot_det8.npy'
p222
F0.2616
F0.0029
F27.9739
F0.088
F0.154
F0.0018
F150.0
tp223
a(S'cpvert_4MeV_0tilt_35rot_det9.npy'
p224
F0.0993
F0.0014
F25.73
F0.1057
F0.0624
F0.0007
F137.0
tp225
a(S'cpvert_4MeV_0tilt_45rot_det10.npy'
p226
F0.1004
F0.0013
F24.3061
F0.0858
F0.0627
F0.0007
F167.0
tp227
a(S'cpvert_4MeV_0tilt_45rot_det11.npy'
p228
F0.2658
F0.0031
F28.5875
F0.0955
F0.1566
F0.0019
F143.0
tp229
a(S'cpvert_4MeV_0tilt_45rot_det12.npy'
p230
F0.5263
F0.0044
F28.7569
F0.0938
F0.3143
F0.0028
F187.0
tp231
a(S'cpvert_4MeV_0tilt_45rot_det13.npy'
p232
F0.8717
F0.0068
F33.6711
F0.1215
F0.5371
F0.0046
F178.0
tp233
a(S'cpvert_4MeV_0tilt_45rot_det14.npy'
p234
F1.2425
F0.0091
F43.0734
F0.2084
F0.788
F0.0064
F144.0
tp235
a(S'cpvert_4MeV_0tilt_45rot_det15.npy'
p236
F1.5387
F0.0158
F67.0705
F0.533
F0.9987
F0.0106
F78.0
tp237
a(S'cpvert_4MeV_0tilt_45rot_det4.npy'
p238
F1.544
F0.0139
F65.3256
F0.5327
F0.9987
F0.0102
F81.0
tp239
a(S'cpvert_4MeV_0tilt_45rot_det5.npy'
p240
F1.2487
F0.0094
F41.1432
F0.2027
F0.7937
F0.0065
F126.0
tp241
a(S'cpvert_4MeV_0tilt_45rot_det6.npy'
p242
F0.8771
F0.0067
F31.3557
F0.1231
F0.5427
F0.0047
F166.0
tp243
a(S'cpvert_4MeV_0tilt_45rot_det7.npy'
p244
F0.5251
F0.0047
F27.6321
F0.091
F0.3129
F0.003
F180.0
tp245
a(S'cpvert_4MeV_0tilt_45rot_det8.npy'
p246
F0.261
F0.0025
F27.9259
F0.0848
F0.1531
F0.0015
F171.0
tp247
a(S'cpvert_4MeV_0tilt_45rot_det9.npy'
p248
F0.0992
F0.0012
F25.6883
F0.0963
F0.0623
F0.0007
F152.0
tp249
a(S'cpvert_4MeV_0tilt_55rot_det10.npy'
p250
F0.0995
F0.0012
F24.2347
F0.0818
F0.0629
F0.0007
F163.0
tp251
a(S'cpvert_4MeV_0tilt_55rot_det11.npy'
p252
F0.263
F0.0031
F28.9306
F0.098
F0.1549
F0.0018
F157.0
tp253
a(S'cpvert_4MeV_0tilt_55rot_det12.npy'
p254
F0.5329
F0.0045
F28.6495
F0.0865
F0.3185
F0.0028
F191.0
tp255
a(S'cpvert_4MeV_0tilt_55rot_det13.npy'
p256
F0.8751
F0.0062
F33.5774
F0.1254
F0.5381
F0.0042
F169.0
tp257
a(S'cpvert_4MeV_0tilt_55rot_det14.npy'
p258
F1.2385
F0.0106
F43.2249
F0.1949
F0.7854
F0.0072
F137.0
tp259
a(S'cpvert_4MeV_0tilt_55rot_det15.npy'
p260
F1.5581
F0.0168
F67.7969
F0.5246
F1.0105
F0.0123
F78.0
tp261
a(S'cpvert_4MeV_0tilt_55rot_det4.npy'
p262
F1.5418
F0.014
F65.2423
F0.4505
F0.9986
F0.01
F87.0
tp263
a(S'cpvert_4MeV_0tilt_55rot_det5.npy'
p264
F1.2561
F0.0088
F41.0935
F0.206
F0.7993
F0.0062
F122.0
tp265
a(S'cpvert_4MeV_0tilt_55rot_det6.npy'
p266
F0.8683
F0.0065
F31.4065
F0.1228
F0.5362
F0.0043
F189.0
tp267
a(S'cpvert_4MeV_0tilt_55rot_det7.npy'
p268
F0.5102
F0.0047
F27.9269
F0.1088
F0.3037
F0.003
F164.0
tp269
a(S'cpvert_4MeV_0tilt_55rot_det8.npy'
p270
F0.2627
F0.0026
F27.9189
F0.0865
F0.154
F0.0016
F177.0
tp271
a(S'cpvert_4MeV_0tilt_55rot_det9.npy'
p272
F0.0983
F0.0011
F25.7805
F0.0858
F0.0619
F0.0006
F178.0
tp273
a(S'cpvert_4MeV_0tilt_5rot_det10.npy'
p274
F0.0973
F0.0015
F24.33
F0.1017
F0.0604
F0.0008
F124.0
tp275
a(S'cpvert_4MeV_0tilt_5rot_det11.npy'
p276
F0.2581
F0.003
F28.9753
F0.1014
F0.1503
F0.0017
F137.0
tp277
a(S'cpvert_4MeV_0tilt_5rot_det12.npy'
p278
F0.5247
F0.0045
F28.9772
F0.1027
F0.3128
F0.0028
F158.0
tp279
a(S'cpvert_4MeV_0tilt_5rot_det13.npy'
p280
F0.8521
F0.0076
F33.8847
F0.1388
F0.5296
F0.0053
F132.0
tp281
a(S'cpvert_4MeV_0tilt_5rot_det14.npy'
p282
F1.2391
F0.0118
F43.7929
F0.2511
F0.7868
F0.0085
F106.0
tp283
a(S'cpvert_4MeV_0tilt_5rot_det15.npy'
p284
F1.568
F0.0143
F67.8547
F0.5402
F1.0117
F0.0102
F69.0
tp285
a(S'cpvert_4MeV_0tilt_5rot_det4.npy'
p286
F1.5925
F0.018
F66.4384
F0.5922
F1.0226
F0.0127
F67.0
tp287
a(S'cpvert_4MeV_0tilt_5rot_det5.npy'
p288
F1.2749
F0.0104
F40.9427
F0.2006
F0.8029
F0.007
F117.0
tp289
a(S'cpvert_4MeV_0tilt_5rot_det6.npy'
p290
F0.9018
F0.0067
F31.3882
F0.1393
F0.5531
F0.0045
F142.0
tp291
a(S'cpvert_4MeV_0tilt_5rot_det7.npy'
p292
F0.5352
F0.0049
F27.5452
F0.1004
F0.3197
F0.0031
F157.0
tp293
a(S'cpvert_4MeV_0tilt_5rot_det8.npy'
p294
F0.2671
F0.003
F27.9412
F0.087
F0.1568
F0.0018
F158.0
tp295
a(S'cpvert_4MeV_0tilt_5rot_det9.npy'
p296
F0.0956
F0.0012
F25.8003
F0.092
F0.0603
F0.0006
F158.0
tp297
a(S'cpvert_4MeV_0tilt_75rot_det10.npy'
p298
F0.0965
F0.0011
F24.4375
F0.0938
F0.0614
F0.0006
F170.0
tp299
a(S'cpvert_4MeV_0tilt_75rot_det11.npy'
p300
F0.2649
F0.0029
F28.6503
F0.0904
F0.157
F0.0018
F163.0
tp301
a(S'cpvert_4MeV_0tilt_75rot_det12.npy'
p302
F0.5363
F0.0044
F28.7134
F0.0944
F0.3206
F0.0028
F220.0
tp303
a(S'cpvert_4MeV_0tilt_75rot_det13.npy'
p304
F0.8954
F0.0061
F33.6818
F0.1145
F0.5513
F0.0042
F192.0
tp305
a(S'cpvert_4MeV_0tilt_75rot_det14.npy'
p306
F1.2335
F0.0123
F43.0474
F0.2446
F0.7799
F0.0085
F127.0
tp307
a(S'cpvert_4MeV_0tilt_75rot_det15.npy'
p308
F1.5993
F0.0138
F66.7266
F0.4854
F1.0302
F0.0099
F84.0
tp309
a(S'cpvert_4MeV_0tilt_75rot_det4.npy'
p310
F1.5414
F0.0135
F65.3176
F0.4601
F0.9957
F0.01
F93.0
tp311
a(S'cpvert_4MeV_0tilt_75rot_det5.npy'
p312
F1.2269
F0.0091
F41.0195
F0.1962
F0.7823
F0.0065
F151.0
tp313
a(S'cpvert_4MeV_0tilt_75rot_det6.npy'
p314
F0.8774
F0.007
F31.2426
F0.1237
F0.5437
F0.0046
F165.0
tp315
a(S'cpvert_4MeV_0tilt_75rot_det7.npy'
p316
F0.5177
F0.0046
F27.8401
F0.0869
F0.3085
F0.003
F186.0
tp317
a(S'cpvert_4MeV_0tilt_75rot_det8.npy'
p318
F0.2613
F0.0026
F27.9153
F0.0909
F0.153
F0.0016
F168.0
tp319
a(S'cpvert_4MeV_0tilt_75rot_det9.npy'
p320
F0.0972
F0.0012
F25.9181
F0.1052
F0.0605
F0.0007
F157.0
tp321
a(S'cpvert_4MeV_0tilt_95rot_det10.npy'
p322
F0.0967
F0.0012
F24.3398
F0.0882
F0.0607
F0.0007
F155.0
tp323
a(S'cpvert_4MeV_0tilt_95rot_det11.npy'
p324
F0.261
F0.0024
F28.8018
F0.0967
F0.1536
F0.0015
F167.0
tp325
a(S'cpvert_4MeV_0tilt_95rot_det12.npy'
p326
F0.535
F0.0051
F28.7017
F0.1016
F0.3206
F0.0033
F156.0
tp327
a(S'cpvert_4MeV_0tilt_95rot_det13.npy'
p328
F0.8866
F0.0069
F33.4941
F0.1269
F0.5426
F0.0046
F138.0
tp329
a(S'cpvert_4MeV_0tilt_95rot_det14.npy'
p330
F1.2612
F0.012
F43.1643
F0.2338
F0.7906
F0.0084
F116.0
tp331
a(S'cpvert_4MeV_0tilt_95rot_det15.npy'
p332
F1.5915
F0.0163
F66.9102
F0.5326
F1.0129
F0.0113
F68.0
tp333
a(S'cpvert_4MeV_0tilt_95rot_det4.npy'
p334
F1.5514
F0.0146
F64.8131
F0.4893
F1.0033
F0.0101
F78.0
tp335
a(S'cpvert_4MeV_0tilt_95rot_det5.npy'
p336
F1.2517
F0.0099
F40.6855
F0.2033
F0.7953
F0.0073
F107.0
tp337
a(S'cpvert_4MeV_0tilt_95rot_det6.npy'
p338
F0.8795
F0.0066
F31.0648
F0.1408
F0.5479
F0.0046
F149.0
tp339
a(S'cpvert_4MeV_0tilt_95rot_det7.npy'
p340
F0.5168
F0.0043
F27.7736
F0.0954
F0.3103
F0.0029
F169.0
tp341
a(S'cpvert_4MeV_0tilt_95rot_det8.npy'
p342
F0.2604
F0.0028
F28.0633
F0.0934
F0.1518
F0.0017
F158.0
tp343
a(S'cpvert_4MeV_0tilt_95rot_det9.npy'
p344
F0.1001
F0.0012
F25.735
F0.0918
F0.0621
F0.0007
F160.0
tp345
a(S'cpvert_4MeV_15tilt_115rot_det10.npy'
p346
F0.0986
F0.0013
F24.4251
F0.1001
F0.061
F0.0007
F136.0
tp347
a(S'cpvert_4MeV_15tilt_115rot_det11.npy'
p348
F0.2667
F0.0027
F28.7472
F0.089
F0.1562
F0.0016
F131.0
tp349
a(S'cpvert_4MeV_15tilt_115rot_det12.npy'
p350
F0.5407
F0.0046
F28.8613
F0.0962
F0.3226
F0.003
F164.0
tp351
a(S'cpvert_4MeV_15tilt_115rot_det13.npy'
p352
F0.8948
F0.0076
F33.9947
F0.1327
F0.5519
F0.0053
F163.0
tp353
a(S'cpvert_4MeV_15tilt_115rot_det14.npy'
p354
F1.2971
F0.01
F43.6102
F0.221
F0.8162
F0.0067
F123.0
tp355
a(S'cpvert_4MeV_15tilt_115rot_det15.npy'
p356
F1.6275
F0.0186
F66.8885
F0.4884
F1.0351
F0.0124
F71.0
tp357
a(S'cpvert_4MeV_15tilt_115rot_det4.npy'
p358
F1.599
F0.0167
F64.7884
F0.5491
F1.03
F0.0121
F73.0
tp359
a(S'cpvert_4MeV_15tilt_115rot_det5.npy'
p360
F1.2544
F0.0095
F40.8014
F0.2139
F0.7945
F0.0061
F114.0
tp361
a(S'cpvert_4MeV_15tilt_115rot_det6.npy'
p362
F0.8569
F0.0071
F31.1279
F0.1403
F0.5286
F0.005
F153.0
tp363
a(S'cpvert_4MeV_15tilt_115rot_det7.npy'
p364
F0.5207
F0.0046
F27.514
F0.0952
F0.3112
F0.0029
F169.0
tp365
a(S'cpvert_4MeV_15tilt_115rot_det8.npy'
p366
F0.2565
F0.0026
F28.155
F0.0928
F0.1498
F0.0016
F159.0
tp367
a(S'cpvert_4MeV_15tilt_115rot_det9.npy'
p368
F0.099
F0.0011
F25.867
F0.0957
F0.0606
F0.0007
F126.0
tp369
a(S'cpvert_4MeV_15tilt_135rot_det10.npy'
p370
F0.0984
F0.0014
F24.513
F0.1144
F0.0615
F0.0008
F140.0
tp371
a(S'cpvert_4MeV_15tilt_135rot_det11.npy'
p372
F0.2582
F0.0026
F28.9323
F0.0899
F0.1515
F0.0016
F161.0
tp373
a(S'cpvert_4MeV_15tilt_135rot_det12.npy'
p374
F0.5347
F0.0051
F28.8143
F0.1199
F0.3194
F0.0034
F141.0
tp375
a(S'cpvert_4MeV_15tilt_135rot_det13.npy'
p376
F0.8909
F0.0071
F33.8623
F0.1393
F0.5497
F0.0049
F145.0
tp377
a(S'cpvert_4MeV_15tilt_135rot_det14.npy'
p378
F1.2651
F0.0106
F43.9283
F0.2215
F0.8029
F0.0072
F122.0
tp379
a(S'cpvert_4MeV_15tilt_135rot_det15.npy'
p380
F1.5936
F0.0163
F67.4568
F0.4808
F1.0194
F0.0114
F85.0
tp381
a(S'cpvert_4MeV_15tilt_135rot_det4.npy'
p382
F1.5707
F0.0171
F65.0218
F0.5176
F0.9967
F0.0118
F76.0
tp383
a(S'cpvert_4MeV_15tilt_135rot_det5.npy'
p384
F1.2537
F0.0122
F40.5708
F0.2174
F0.7888
F0.0084
F126.0
tp385
a(S'cpvert_4MeV_15tilt_135rot_det6.npy'
p386
F0.8562
F0.0083
F31.176
F0.1306
F0.5274
F0.0056
F147.0
tp387
a(S'cpvert_4MeV_15tilt_135rot_det7.npy'
p388
F0.5082
F0.0049
F27.5722
F0.1077
F0.3037
F0.0031
F134.0
tp389
a(S'cpvert_4MeV_15tilt_135rot_det8.npy'
p390
F0.2478
F0.0026
F27.9466
F0.0944
F0.1448
F0.0015
F141.0
tp391
a(S'cpvert_4MeV_15tilt_135rot_det9.npy'
p392
F0.0953
F0.0013
F25.8524
F0.0883
F0.0592
F0.0007
F172.0
tp393
a(S'cpvert_4MeV_15tilt_15rot_det10.npy'
p394
F0.0977
F0.0012
F24.2548
F0.085
F0.0611
F0.0007
F167.0
tp395
a(S'cpvert_4MeV_15tilt_15rot_det11.npy'
p396
F0.2572
F0.0026
F28.5927
F0.093
F0.1497
F0.0016
F142.0
tp397
a(S'cpvert_4MeV_15tilt_15rot_det12.npy'
p398
F0.526
F0.0049
F28.7162
F0.1058
F0.3159
F0.0033
F153.0
tp399
a(S'cpvert_4MeV_15tilt_15rot_det13.npy'
p400
F0.8586
F0.0067
F33.7999
F0.1186
F0.532
F0.0046
F181.0
tp401
a(S'cpvert_4MeV_15tilt_15rot_det14.npy'
p402
F1.212
F0.0098
F42.9384
F0.2325
F0.7694
F0.0068
F126.0
tp403
a(S'cpvert_4MeV_15tilt_15rot_det15.npy'
p404
F1.5509
F0.0143
F66.7168
F0.4887
F1.0058
F0.0104
F96.0
tp405
a(S'cpvert_4MeV_15tilt_15rot_det4.npy'
p406
F1.5978
F0.0146
F65.9149
F0.554
F1.0273
F0.0106
F70.0
tp407
a(S'cpvert_4MeV_15tilt_15rot_det5.npy'
p408
F1.2641
F0.0111
F41.4299
F0.2341
F0.8018
F0.0079
F102.0
tp409
a(S'cpvert_4MeV_15tilt_15rot_det6.npy'
p410
F0.9004
F0.0076
F31.2645
F0.1389
F0.5517
F0.0049
F149.0
tp411
a(S'cpvert_4MeV_15tilt_15rot_det7.npy'
p412
F0.5419
F0.0043
F27.6587
F0.0994
F0.323
F0.0028
F164.0
tp413
a(S'cpvert_4MeV_15tilt_15rot_det8.npy'
p414
F0.2663
F0.0029
F27.6509
F0.1085
F0.1566
F0.0018
F128.0
tp415
a(S'cpvert_4MeV_15tilt_15rot_det9.npy'
p416
F0.099
F0.0013
F25.7215
F0.0972
F0.0621
F0.0008
F141.0
tp417
a(S'cpvert_4MeV_15tilt_25rot_det10.npy'
p418
F0.098
F0.0014
F24.3743
F0.0912
F0.061
F0.0008
F137.0
tp419
a(S'cpvert_4MeV_15tilt_25rot_det11.npy'
p420
F0.2544
F0.0028
F28.9272
F0.1037
F0.1495
F0.0017
F166.0
tp421
a(S'cpvert_4MeV_15tilt_25rot_det12.npy'
p422
F0.5138
F0.0053
F28.9513
F0.1067
F0.3056
F0.0035
F130.0
tp423
a(S'cpvert_4MeV_15tilt_25rot_det13.npy'
p424
F0.8506
F0.0076
F33.6135
F0.1503
F0.5265
F0.0051
F139.0
tp425
a(S'cpvert_4MeV_15tilt_25rot_det14.npy'
p426
F1.2149
F0.0099
F43.2864
F0.2298
F0.7778
F0.0071
F132.0
tp427
a(S'cpvert_4MeV_15tilt_25rot_det15.npy'
p428
F1.5513
F0.0152
F66.5098
F0.5337
F1.0011
F0.011
F67.0
tp429
a(S'cpvert_4MeV_15tilt_25rot_det4.npy'
p430
F1.5386
F0.0165
F65.1477
F0.5183
F0.999
F0.0117
F67.0
tp431
a(S'cpvert_4MeV_15tilt_25rot_det5.npy'
p432
F1.2436
F0.0094
F41.139
F0.2048
F0.7879
F0.007
F126.0
tp433
a(S'cpvert_4MeV_15tilt_25rot_det6.npy'
p434
F0.9062
F0.0069
F31.2207
F0.1397
F0.5586
F0.0046
F136.0
tp435
a(S'cpvert_4MeV_15tilt_25rot_det7.npy'
p436
F0.5277
F0.0049
F27.7873
F0.1154
F0.3154
F0.0032
F140.0
tp437
a(S'cpvert_4MeV_15tilt_25rot_det8.npy'
p438
F0.2669
F0.003
F27.8846
F0.0861
F0.1576
F0.0018
F168.0
tp439
a(S'cpvert_4MeV_15tilt_25rot_det9.npy'
p440
F0.1003
F0.0012
F25.8041
F0.0864
F0.0628
F0.0007
F155.0
tp441
a(S'cpvert_4MeV_15tilt_315rot_det10.npy'
p442
F0.0992
F0.0012
F24.2586
F0.0881
F0.0611
F0.0007
F158.0
tp443
a(S'cpvert_4MeV_15tilt_315rot_det11.npy'
p444
F0.2579
F0.0027
F28.7716
F0.0996
F0.1503
F0.0016
F157.0
tp445
a(S'cpvert_4MeV_15tilt_315rot_det12.npy'
p446
F0.525
F0.005
F28.7081
F0.1152
F0.3143
F0.0032
F141.0
tp447
a(S'cpvert_4MeV_15tilt_315rot_det13.npy'
p448
F0.8586
F0.0069
F33.7481
F0.14
F0.5297
F0.0047
F151.0
tp449
a(S'cpvert_4MeV_15tilt_315rot_det14.npy'
p450
F1.252
F0.0108
F43.3013
F0.2175
F0.7911
F0.0078
F133.0
tp451
a(S'cpvert_4MeV_15tilt_315rot_det15.npy'
p452
F1.5888
F0.017
F66.9125
F0.5732
F1.0133
F0.0123
F66.0
tp453
a(S'cpvert_4MeV_15tilt_315rot_det4.npy'
p454
F1.6159
F0.0176
F66.4716
F0.5098
F1.0355
F0.0124
F70.0
tp455
a(S'cpvert_4MeV_15tilt_315rot_det5.npy'
p456
F1.2593
F0.0107
F40.8753
F0.2047
F0.794
F0.0074
F114.0
tp457
a(S'cpvert_4MeV_15tilt_315rot_det6.npy'
p458
F0.8776
F0.0069
F31.2857
F0.1323
F0.5422
F0.0049
F139.0
tp459
a(S'cpvert_4MeV_15tilt_315rot_det7.npy'
p460
F0.5232
F0.0046
F27.639
F0.0917
F0.3125
F0.0028
F158.0
tp461
a(S'cpvert_4MeV_15tilt_315rot_det8.npy'
p462
F0.2552
F0.0029
F27.9548
F0.0926
F0.149
F0.0018
F141.0
tp463
a(S'cpvert_4MeV_15tilt_315rot_det9.npy'
p464
F0.0972
F0.0012
F25.8877
F0.0911
F0.0608
F0.0007
F156.0
tp465
a(S'cpvert_4MeV_15tilt_335rot_det10.npy'
p466
F0.0963
F0.0011
F24.3647
F0.0985
F0.0597
F0.0006
F175.0
tp467
a(S'cpvert_4MeV_15tilt_335rot_det11.npy'
p468
F0.261
F0.0026
F28.9033
F0.104
F0.1513
F0.0016
F147.0
tp469
a(S'cpvert_4MeV_15tilt_335rot_det12.npy'
p470
F0.5256
F0.0046
F28.6177
F0.0938
F0.3146
F0.003
F179.0
tp471
a(S'cpvert_4MeV_15tilt_335rot_det13.npy'
p472
F0.8666
F0.0079
F33.7501
F0.1369
F0.5364
F0.0052
F143.0
tp473
a(S'cpvert_4MeV_15tilt_335rot_det14.npy'
p474
F1.2329
F0.01
F43.3202
F0.2059
F0.782
F0.0071
F125.0
tp475
a(S'cpvert_4MeV_15tilt_335rot_det15.npy'
p476
F1.5793
F0.0136
F66.5953
F0.4634
F1.0163
F0.0091
F86.0
tp477
a(S'cpvert_4MeV_15tilt_335rot_det4.npy'
p478
F1.6172
F0.0157
F64.9486
F0.4942
F1.0261
F0.0104
F83.0
tp479
a(S'cpvert_4MeV_15tilt_335rot_det5.npy'
p480
F1.2798
F0.01
F40.8568
F0.2346
F0.8031
F0.0068
F117.0
tp481
a(S'cpvert_4MeV_15tilt_335rot_det6.npy'
p482
F0.8907
F0.0072
F31.2808
F0.1297
F0.548
F0.0048
F155.0
tp483
a(S'cpvert_4MeV_15tilt_335rot_det7.npy'
p484
F0.5258
F0.0049
F27.8003
F0.104
F0.3145
F0.0032
F159.0
tp485
a(S'cpvert_4MeV_15tilt_335rot_det8.npy'
p486
F0.262
F0.0028
F27.9247
F0.0914
F0.1536
F0.0016
F148.0
tp487
a(S'cpvert_4MeV_15tilt_335rot_det9.npy'
p488
F0.0981
F0.0013
F25.8371
F0.0834
F0.0611
F0.0007
F151.0
tp489
a(S'cpvert_4MeV_15tilt_345rot_det10.npy'
p490
F0.097
F0.001
F24.2396
F0.082
F0.0602
F0.0006
F178.0
tp491
a(S'cpvert_4MeV_15tilt_345rot_det11.npy'
p492
F0.2568
F0.0025
F28.7102
F0.0866
F0.1508
F0.0015
F178.0
tp493
a(S'cpvert_4MeV_15tilt_345rot_det12.npy'
p494
F0.5165
F0.0045
F28.6853
F0.1021
F0.3093
F0.0029
F168.0
tp495
a(S'cpvert_4MeV_15tilt_345rot_det13.npy'
p496
F0.8612
F0.0074
F33.5666
F0.1299
F0.5297
F0.005
F152.0
tp497
a(S'cpvert_4MeV_15tilt_345rot_det14.npy'
p498
F1.2207
F0.0102
F42.9717
F0.2201
F0.779
F0.0069
F130.0
tp499
a(S'cpvert_4MeV_15tilt_345rot_det15.npy'
p500
F1.5916
F0.0141
F67.0649
F0.5343
F1.0327
F0.0101
F82.0
tp501
a(S'cpvert_4MeV_15tilt_345rot_det4.npy'
p502
F1.6103
F0.0149
F64.9755
F0.3929
F1.0303
F0.0104
F88.0
tp503
a(S'cpvert_4MeV_15tilt_345rot_det5.npy'
p504
F1.2791
F0.0109
F40.6448
F0.2052
F0.805
F0.0073
F127.0
tp505
a(S'cpvert_4MeV_15tilt_345rot_det6.npy'
p506
F0.9178
F0.0064
F31.3804
F0.143
F0.561
F0.0043
F159.0
tp507
a(S'cpvert_4MeV_15tilt_345rot_det7.npy'
p508
F0.5354
F0.0045
F27.6692
F0.106
F0.3189
F0.0027
F174.0
tp509
a(S'cpvert_4MeV_15tilt_345rot_det8.npy'
p510
F0.2642
F0.0028
F27.9686
F0.0959
F0.1557
F0.0017
F150.0
tp511
a(S'cpvert_4MeV_15tilt_345rot_det9.npy'
p512
F0.1009
F0.0013
F25.8524
F0.0967
F0.0627
F0.0007
F140.0
tp513
a(S'cpvert_4MeV_15tilt_355rot_det10.npy'
p514
F0.0959
F0.0013
F24.3967
F0.1023
F0.0597
F0.0007
F151.0
tp515
a(S'cpvert_4MeV_15tilt_355rot_det11.npy'
p516
F0.2493
F0.0025
F28.7671
F0.0923
F0.1465
F0.0015
F174.0
tp517
a(S'cpvert_4MeV_15tilt_355rot_det12.npy'
p518
F0.5071
F0.0043
F28.974
F0.1
F0.302
F0.0028
F158.0
tp519
a(S'cpvert_4MeV_15tilt_355rot_det13.npy'
p520
F0.8538
F0.0064
F33.6495
F0.1294
F0.5272
F0.0043
F165.0
tp521
a(S'cpvert_4MeV_15tilt_355rot_det14.npy'
p522
F1.2236
F0.0102
F43.2076
F0.2113
F0.7825
F0.007
F119.0
tp523
a(S'cpvert_4MeV_15tilt_355rot_det15.npy'
p524
F1.5667
F0.014
F66.3415
F0.5003
F1.0128
F0.0101
F89.0
tp525
a(S'cpvert_4MeV_15tilt_355rot_det4.npy'
p526
F1.6221
F0.0168
F65.3262
F0.5127
F1.0349
F0.0121
F68.0
tp527
a(S'cpvert_4MeV_15tilt_355rot_det5.npy'
p528
F1.2865
F0.0114
F41.121
F0.2252
F0.8051
F0.008
F112.0
tp529
a(S'cpvert_4MeV_15tilt_355rot_det6.npy'
p530
F0.9065
F0.0068
F31.2835
F0.1329
F0.5543
F0.0046
F158.0
tp531
a(S'cpvert_4MeV_15tilt_355rot_det7.npy'
p532
F0.5398
F0.0051
F27.5379
F0.0948
F0.3201
F0.0034
F151.0
tp533
a(S'cpvert_4MeV_15tilt_355rot_det8.npy'
p534
F0.27
F0.0028
F27.9678
F0.081
F0.1596
F0.0018
F158.0
tp535
a(S'cpvert_4MeV_15tilt_355rot_det9.npy'
p536
F0.0994
F0.0014
F25.791
F0.0923
F0.0626
F0.0007
F151.0
tp537
a(S'cpvert_4MeV_15tilt_35rot_det10.npy'
p538
F0.0977
F0.0012
F24.3732
F0.0951
F0.0614
F0.0007
F148.0
tp539
a(S'cpvert_4MeV_15tilt_35rot_det11.npy'
p540
F0.2564
F0.0029
F28.7305
F0.1077
F0.15
F0.0017
F128.0
tp541
a(S'cpvert_4MeV_15tilt_35rot_det12.npy'
p542
F0.5224
F0.0042
F28.8207
F0.1082
F0.3129
F0.0027
F159.0
tp543
a(S'cpvert_4MeV_15tilt_35rot_det13.npy'
p544
F0.8481
F0.0076
F33.8141
F0.1296
F0.525
F0.0051
F151.0
tp545
a(S'cpvert_4MeV_15tilt_35rot_det14.npy'
p546
F1.2196
F0.0103
F43.3256
F0.2344
F0.7758
F0.0072
F116.0
tp547
a(S'cpvert_4MeV_15tilt_35rot_det15.npy'
p548
F1.5504
F0.015
F66.7396
F0.4953
F1.0034
F0.0108
F68.0
tp549
a(S'cpvert_4MeV_15tilt_35rot_det4.npy'
p550
F1.559
F0.0144
F65.4894
F0.6196
F1.0082
F0.0095
F55.0
tp551
a(S'cpvert_4MeV_15tilt_35rot_det5.npy'
p552
F1.2521
F0.0106
F41.0502
F0.2106
F0.7989
F0.0077
F122.0
tp553
a(S'cpvert_4MeV_15tilt_35rot_det6.npy'
p554
F0.8731
F0.0076
F31.1285
F0.1464
F0.5387
F0.0051
F138.0
tp555
a(S'cpvert_4MeV_15tilt_35rot_det7.npy'
p556
F0.53
F0.0051
F27.7261
F0.1066
F0.3174
F0.0033
F146.0
tp557
a(S'cpvert_4MeV_15tilt_35rot_det8.npy'
p558
F0.2652
F0.0031
F27.9633
F0.0961
F0.1566
F0.0019
F134.0
tp559
a(S'cpvert_4MeV_15tilt_35rot_det9.npy'
p560
F0.0983
F0.0012
F25.778
F0.1042
F0.0624
F0.0007
F140.0
tp561
a(S'cpvert_4MeV_15tilt_45rot_det10.npy'
p562
F0.1001
F0.0012
F24.2526
F0.0971
F0.0624
F0.0007
F143.0
tp563
a(S'cpvert_4MeV_15tilt_45rot_det11.npy'
p564
F0.2587
F0.0027
F28.7833
F0.0976
F0.1519
F0.0016
F138.0
tp565
a(S'cpvert_4MeV_15tilt_45rot_det12.npy'
p566
F0.5158
F0.0051
F28.9398
F0.108
F0.308
F0.0032
F146.0
tp567
a(S'cpvert_4MeV_15tilt_45rot_det13.npy'
p568
F0.8798
F0.0075
F33.6339
F0.1462
F0.5407
F0.0051
F136.0
tp569
a(S'cpvert_4MeV_15tilt_45rot_det14.npy'
p570
F1.1933
F0.0108
F43.5262
F0.242
F0.7538
F0.0077
F109.0
tp571
a(S'cpvert_4MeV_15tilt_45rot_det15.npy'
p572
F1.5372
F0.0166
F65.3049
F0.5628
F1.0002
F0.0118
F64.0
tp573
a(S'cpvert_4MeV_15tilt_45rot_det4.npy'
p574
F1.55
F0.0164
F65.7486
F0.5064
F1.0071
F0.0113
F69.0
tp575
a(S'cpvert_4MeV_15tilt_45rot_det5.npy'
p576
F1.2309
F0.0116
F40.7598
F0.202
F0.785
F0.0081
F111.0
tp577
a(S'cpvert_4MeV_15tilt_45rot_det6.npy'
p578
F0.8685
F0.0078
F31.2224
F0.149
F0.5376
F0.0052
F142.0
tp579
a(S'cpvert_4MeV_15tilt_45rot_det7.npy'
p580
F0.5242
F0.0049
F27.8967
F0.0981
F0.3137
F0.0031
F162.0
tp581
a(S'cpvert_4MeV_15tilt_45rot_det8.npy'
p582
F0.264
F0.0031
F27.8603
F0.1049
F0.1557
F0.0019
F127.0
tp583
a(S'cpvert_4MeV_15tilt_45rot_det9.npy'
p584
F0.1007
F0.0013
F25.9576
F0.1033
F0.0627
F0.0007
F128.0
tp585
a(S'cpvert_4MeV_15tilt_55rot_det10.npy'
p586
F0.1023
F0.0013
F24.2143
F0.0955
F0.0646
F0.0008
F151.0
tp587
a(S'cpvert_4MeV_15tilt_55rot_det11.npy'
p588
F0.2595
F0.0027
F28.7807
F0.0898
F0.1533
F0.0016
F162.0
tp589
a(S'cpvert_4MeV_15tilt_55rot_det12.npy'
p590
F0.5317
F0.0046
F28.6946
F0.1013
F0.3171
F0.003
F177.0
tp591
a(S'cpvert_4MeV_15tilt_55rot_det13.npy'
p592
F0.872
F0.0071
F33.8751
F0.1361
F0.5385
F0.0051
F151.0
tp593
a(S'cpvert_4MeV_15tilt_55rot_det14.npy'
p594
F1.2034
F0.0106
F42.9311
F0.2403
F0.7619
F0.0074
F119.0
tp595
a(S'cpvert_4MeV_15tilt_55rot_det15.npy'
p596
F1.5647
F0.0166
F66.2537
F0.4648
F1.0133
F0.0118
F71.0
tp597
a(S'cpvert_4MeV_15tilt_55rot_det4.npy'
p598
F1.5371
F0.0152
F65.5092
F0.4627
F0.9945
F0.0106
F82.0
tp599
a(S'cpvert_4MeV_15tilt_55rot_det5.npy'
p600
F1.223
F0.0088
F40.7993
F0.1864
F0.7811
F0.0063
F152.0
tp601
a(S'cpvert_4MeV_15tilt_55rot_det6.npy'
p602
F0.8768
F0.0068
F31.2645
F0.1437
F0.5438
F0.0047
F173.0
tp603
a(S'cpvert_4MeV_15tilt_55rot_det7.npy'
p604
F0.5164
F0.0046
F27.7741
F0.0996
F0.3106
F0.003
F169.0
tp605
a(S'cpvert_4MeV_15tilt_55rot_det8.npy'
p606
F0.2577
F0.0026
F28.0696
F0.0917
F0.1506
F0.0015
F167.0
tp607
a(S'cpvert_4MeV_15tilt_55rot_det9.npy'
p608
F0.0993
F0.0013
F25.7056
F0.0913
F0.0621
F0.0007
F157.0
tp609
a(S'cpvert_4MeV_15tilt_5rot_det10.npy'
p610
F0.0953
F0.0011
F24.317
F0.095
F0.0594
F0.0006
F159.0
tp611
a(S'cpvert_4MeV_15tilt_5rot_det11.npy'
p612
F0.2571
F0.0027
F28.7343
F0.0927
F0.1498
F0.0016
F147.0
tp613
a(S'cpvert_4MeV_15tilt_5rot_det12.npy'
p614
F0.5165
F0.0045
F28.801
F0.1015
F0.3085
F0.0029
F180.0
tp615
a(S'cpvert_4MeV_15tilt_5rot_det13.npy'
p616
F0.8567
F0.0065
F33.4922
F0.1325
F0.5314
F0.0044
F173.0
tp617
a(S'cpvert_4MeV_15tilt_5rot_det14.npy'
p618
F1.2179
F0.0103
F43.675
F0.215
F0.7795
F0.0074
F127.0
tp619
a(S'cpvert_4MeV_15tilt_5rot_det15.npy'
p620
F1.5407
F0.0163
F67.3574
F0.5492
F0.9983
F0.011
F71.0
tp621
a(S'cpvert_4MeV_15tilt_5rot_det4.npy'
p622
F1.5922
F0.0153
F65.8868
F0.4646
F1.0271
F0.0104
F89.0
tp623
a(S'cpvert_4MeV_15tilt_5rot_det5.npy'
p624
F1.2743
F0.0121
F40.7714
F0.22
F0.7984
F0.0084
F109.0
tp625
a(S'cpvert_4MeV_15tilt_5rot_det6.npy'
p626
F0.9098
F0.0079
F31.2984
F0.136
F0.5563
F0.0052
F150.0
tp627
a(S'cpvert_4MeV_15tilt_5rot_det7.npy'
p628
F0.5416
F0.0051
F27.5331
F0.0942
F0.3216
F0.0032
F163.0
tp629
a(S'cpvert_4MeV_15tilt_5rot_det8.npy'
p630
F0.2646
F0.0031
F28.0262
F0.0989
F0.1555
F0.0017
F148.0
tp631
a(S'cpvert_4MeV_15tilt_5rot_det9.npy'
p632
F0.098
F0.0013
F25.8177
F0.0975
F0.0621
F0.0007
F143.0
tp633
a(S'cpvert_4MeV_15tilt_75rot_det10.npy'
p634
F0.0993
F0.0014
F24.3341
F0.1016
F0.0628
F0.0008
F133.0
tp635
a(S'cpvert_4MeV_15tilt_75rot_det11.npy'
p636
F0.2674
F0.0034
F28.8406
F0.1059
F0.1571
F0.0021
F137.0
tp637
a(S'cpvert_4MeV_15tilt_75rot_det12.npy'
p638
F0.5455
F0.0046
F28.7946
F0.0915
F0.3252
F0.003
F175.0
tp639
a(S'cpvert_4MeV_15tilt_75rot_det13.npy'
p640
F0.8953
F0.0073
F33.894
F0.1157
F0.5508
F0.0051
F188.0
tp641
a(S'cpvert_4MeV_15tilt_75rot_det14.npy'
p642
F1.2229
F0.0112
F43.4158
F0.2242
F0.7678
F0.0079
F121.0
tp643
a(S'cpvert_4MeV_15tilt_75rot_det15.npy'
p644
F1.5681
F0.0178
F66.5777
F0.5409
F1.0069
F0.0119
F64.0
tp645
a(S'cpvert_4MeV_15tilt_75rot_det4.npy'
p646
F1.5363
F0.0154
F63.9386
F0.5226
F0.9931
F0.0118
F62.0
tp647
a(S'cpvert_4MeV_15tilt_75rot_det5.npy'
p648
F1.1963
F0.0104
F41.104
F0.1988
F0.7589
F0.0074
F126.0
tp649
a(S'cpvert_4MeV_15tilt_75rot_det6.npy'
p650
F0.8499
F0.0076
F31.1913
F0.1419
F0.5263
F0.0049
F147.0
tp651
a(S'cpvert_4MeV_15tilt_75rot_det7.npy'
p652
F0.5106
F0.0048
F27.5421
F0.0963
F0.3051
F0.0031
F163.0
tp653
a(S'cpvert_4MeV_15tilt_75rot_det8.npy'
p654
F0.2566
F0.0028
F27.9383
F0.1062
F0.15
F0.0018
F130.0
tp655
a(S'cpvert_4MeV_15tilt_75rot_det9.npy'
p656
F0.0993
F0.0012
F25.7178
F0.0959
F0.0612
F0.0007
F144.0
tp657
a(S'cpvert_4MeV_15tilt_95rot_det10.npy'
p658
F0.0989
F0.0013
F24.4866
F0.1126
F0.0619
F0.0008
F129.0
tp659
a(S'cpvert_4MeV_15tilt_95rot_det11.npy'
p660
F0.268
F0.0026
F28.8458
F0.1012
F0.1582
F0.0016
F171.0
tp661
a(S'cpvert_4MeV_15tilt_95rot_det12.npy'
p662
F0.5355
F0.0049
F28.7055
F0.1002
F0.3197
F0.0031
F173.0
tp663
a(S'cpvert_4MeV_15tilt_95rot_det13.npy'
p664
F0.9004
F0.0066
F33.5769
F0.1264
F0.5518
F0.0046
F157.0
tp665
a(S'cpvert_4MeV_15tilt_95rot_det14.npy'
p666
F1.2671
F0.0119
F43.424
F0.253
F0.7961
F0.0084
F105.0
tp667
a(S'cpvert_4MeV_15tilt_95rot_det15.npy'
p668
F1.6171
F0.0161
F66.1916
F0.5113
F1.0351
F0.0115
F73.0
tp669
a(S'cpvert_4MeV_15tilt_95rot_det4.npy'
p670
F1.555
F0.0148
F64.7737
F0.5599
F1.0086
F0.0109
F81.0
tp671
a(S'cpvert_4MeV_15tilt_95rot_det5.npy'
p672
F1.2212
F0.0104
F40.561
F0.2048
F0.7779
F0.0073
F135.0
tp673
a(S'cpvert_4MeV_15tilt_95rot_det6.npy'
p674
F0.8533
F0.0067
F31.1425
F0.1529
F0.5282
F0.0048
F127.0
tp675
a(S'cpvert_4MeV_15tilt_95rot_det7.npy'
p676
F0.5032
F0.0044
F27.6971
F0.12
F0.2997
F0.0028
F150.0
tp677
a(S'cpvert_4MeV_15tilt_95rot_det8.npy'
p678
F0.2525
F0.0026
F27.885
F0.0897
F0.1479
F0.0016
F156.0
tp679
a(S'cpvert_4MeV_15tilt_95rot_det9.npy'
p680
F0.0962
F0.0012
F25.9647
F0.0888
F0.0596
F0.0006
F169.0
tp681
a(S'cpvert_4MeV_30tilt_115rot_det10.npy'
p682
F0.0972
F0.0011
F24.6317
F0.091
F0.061
F0.0006
F167.0
tp683
a(S'cpvert_4MeV_30tilt_115rot_det11.npy'
p684
F0.2664
F0.0034
F28.8805
F0.0864
F0.1573
F0.002
F116.0
tp685
a(S'cpvert_4MeV_30tilt_115rot_det12.npy'
p686
F0.5413
F0.0052
F28.9873
F0.1017
F0.3263
F0.0034
F138.0
tp687
a(S'cpvert_4MeV_30tilt_115rot_det13.npy'
p688
F0.8868
F0.0067
F34.0684
F0.1377
F0.5456
F0.0044
F149.0
tp689
a(S'cpvert_4MeV_30tilt_115rot_det14.npy'
p690
F1.2563
F0.0113
F43.8154
F0.2643
F0.7837
F0.0077
F93.0
tp691
a(S'cpvert_4MeV_30tilt_115rot_det15.npy'
p692
F1.6092
F0.0192
F67.33
F0.5786
F1.0202
F0.0124
F55.0
tp693
a(S'cpvert_4MeV_30tilt_115rot_det4.npy'
p694
F1.5318
F0.0151
F64.3231
F0.603
F0.9872
F0.0107
F67.0
tp695
a(S'cpvert_4MeV_30tilt_115rot_det5.npy'
p696
F1.1617
F0.0106
F40.9884
F0.2112
F0.7366
F0.0076
F120.0
tp697
a(S'cpvert_4MeV_30tilt_115rot_det6.npy'
p698
F0.8248
F0.0068
F31.2515
F0.1289
F0.5112
F0.0046
F159.0
tp699
a(S'cpvert_4MeV_30tilt_115rot_det7.npy'
p700
F0.4905
F0.0041
F27.8199
F0.1
F0.2918
F0.0026
F173.0
tp701
a(S'cpvert_4MeV_30tilt_115rot_det8.npy'
p702
F0.2408
F0.0025
F27.8534
F0.089
F0.1408
F0.0016
F153.0
tp703
a(S'cpvert_4MeV_30tilt_115rot_det9.npy'
p704
F0.0931
F0.0013
F25.8605
F0.0869
F0.0579
F0.0007
F154.0
tp705
a(S'cpvert_4MeV_30tilt_135rot_det10.npy'
p706
F0.0984
F0.0012
F24.455
F0.0911
F0.0605
F0.0007
F161.0
tp707
a(S'cpvert_4MeV_30tilt_135rot_det11.npy'
p708
F0.2551
F0.0027
F28.9166
F0.0927
F0.1509
F0.0016
F135.0
tp709
a(S'cpvert_4MeV_30tilt_135rot_det12.npy'
p710
F0.5242
F0.0041
F29.1166
F0.0974
F0.3151
F0.0026
F163.0
tp711
a(S'cpvert_4MeV_30tilt_135rot_det13.npy'
p712
F0.877
F0.0068
F33.6837
F0.1315
F0.5444
F0.0048
F139.0
tp713
a(S'cpvert_4MeV_30tilt_135rot_det14.npy'
p714
F1.2479
F0.01
F43.4408
F0.2109
F0.7931
F0.0071
F125.0
tp715
a(S'cpvert_4MeV_30tilt_135rot_det15.npy'
p716
F1.627
F0.0164
F67.8016
F0.5403
F1.0369
F0.0118
F73.0
tp717
a(S'cpvert_4MeV_30tilt_135rot_det4.npy'
p718
F1.5618
F0.0167
F64.9708
F0.6001
F1.0012
F0.0118
F63.0
tp719
a(S'cpvert_4MeV_30tilt_135rot_det5.npy'
p720
F1.2425
F0.0105
F40.4766
F0.2067
F0.7816
F0.007
F105.0
tp721
a(S'cpvert_4MeV_30tilt_135rot_det6.npy'
p722
F0.8635
F0.0065
F30.8738
F0.1365
F0.5324
F0.0044
F153.0
tp723
a(S'cpvert_4MeV_30tilt_135rot_det7.npy'
p724
F0.5058
F0.004
F27.4163
F0.0977
F0.3031
F0.0026
F154.0
tp725
a(S'cpvert_4MeV_30tilt_135rot_det8.npy'
p726
F0.2448
F0.0028
F27.9058
F0.0981
F0.1432
F0.0017
F141.0
tp727
a(S'cpvert_4MeV_30tilt_135rot_det9.npy'
p728
F0.0933
F0.0012
F25.7008
F0.0876
F0.058
F0.0007
F161.0
tp729
a(S'cpvert_4MeV_30tilt_15rot_det10.npy'
p730
F0.0937
F0.0012
F24.2165
F0.0929
F0.0586
F0.0007
F142.0
tp731
a(S'cpvert_4MeV_30tilt_15rot_det11.npy'
p732
F0.2432
F0.0026
F28.8114
F0.1027
F0.1431
F0.0016
F135.0
tp733
a(S'cpvert_4MeV_30tilt_15rot_det12.npy'
p734
F0.4934
F0.0042
F28.7075
F0.0995
F0.2943
F0.0027
F175.0
tp735
a(S'cpvert_4MeV_30tilt_15rot_det13.npy'
p736
F0.83
F0.0068
F33.5037
F0.1376
F0.5129
F0.0048
F137.0
tp737
a(S'cpvert_4MeV_30tilt_15rot_det14.npy'
p738
F1.1589
F0.0096
F43.8914
F0.2156
F0.7383
F0.0067
F133.0
tp739
a(S'cpvert_4MeV_30tilt_15rot_det15.npy'
p740
F1.5101
F0.0167
F66.5797
F0.5627
F0.9786
F0.012
F68.0
tp741
a(S'cpvert_4MeV_30tilt_15rot_det4.npy'
p742
F1.5747
F0.0136
F65.7551
F0.5104
F1.0217
F0.0097
F90.0
tp743
a(S'cpvert_4MeV_30tilt_15rot_det5.npy'
p744
F1.2635
F0.0088
F40.9251
F0.2118
F0.8012
F0.0063
F105.0
tp745
a(S'cpvert_4MeV_30tilt_15rot_det6.npy'
p746
F0.871
F0.0073
F31.5246
F0.1357
F0.5367
F0.0049
F161.0
tp747
a(S'cpvert_4MeV_30tilt_15rot_det7.npy'
p748
F0.5435
F0.0043
F27.7016
F0.0999
F0.324
F0.0027
F162.0
tp749
a(S'cpvert_4MeV_30tilt_15rot_det8.npy'
p750
F0.2625
F0.0032
F28.2249
F0.0955
F0.1536
F0.0019
F129.0
tp751
a(S'cpvert_4MeV_30tilt_15rot_det9.npy'
p752
F0.0984
F0.0015
F25.937
F0.1116
F0.0619
F0.0008
F129.0
tp753
a(S'cpvert_4MeV_30tilt_25rot_det10.npy'
p754
F0.0919
F0.0011
F24.2307
F0.1055
F0.0579
F0.0006
F151.0
tp755
a(S'cpvert_4MeV_30tilt_25rot_det11.npy'
p756
F0.2473
F0.0025
F28.7519
F0.0875
F0.1463
F0.0015
F143.0
tp757
a(S'cpvert_4MeV_30tilt_25rot_det12.npy'
p758
F0.5062
F0.0045
F28.8423
F0.1045
F0.3033
F0.0029
F148.0
tp759
a(S'cpvert_4MeV_30tilt_25rot_det13.npy'
p760
F0.8348
F0.0071
F33.8104
F0.1402
F0.5165
F0.0049
F150.0
tp761
a(S'cpvert_4MeV_30tilt_25rot_det14.npy'
p762
F1.1552
F0.0095
F43.0182
F0.2081
F0.7355
F0.0071
F121.0
tp763
a(S'cpvert_4MeV_30tilt_25rot_det15.npy'
p764
F1.4981
F0.014
F67.0932
F0.5141
F0.9728
F0.0103
F64.0
tp765
a(S'cpvert_4MeV_30tilt_25rot_det4.npy'
p766
F1.5551
F0.015
F65.323
F0.4814
F1.0095
F0.0111
F83.0
tp767
a(S'cpvert_4MeV_30tilt_25rot_det5.npy'
p768
F1.2297
F0.0106
F41.168
F0.2196
F0.7824
F0.0078
F119.0
tp769
a(S'cpvert_4MeV_30tilt_25rot_det6.npy'
p770
F0.8888
F0.0062
F30.9729
F0.1537
F0.5477
F0.0044
F129.0
tp771
a(S'cpvert_4MeV_30tilt_25rot_det7.npy'
p772
F0.5268
F0.005
F27.933
F0.1031
F0.3161
F0.0032
F149.0
tp773
a(S'cpvert_4MeV_30tilt_25rot_det8.npy'
p774
F0.2691
F0.0031
F27.9888
F0.0937
F0.1592
F0.0018
F145.0
tp775
a(S'cpvert_4MeV_30tilt_25rot_det9.npy'
p776
F0.1007
F0.0012
F25.6064
F0.0895
F0.0637
F0.0007
F152.0
tp777
a(S'cpvert_4MeV_30tilt_315rot_det10.npy'
p778
F0.0942
F0.0012
F24.3088
F0.0869
F0.0587
F0.0007
F159.0
tp779
a(S'cpvert_4MeV_30tilt_315rot_det11.npy'
p780
F0.2524
F0.0027
F28.783
F0.0917
F0.1477
F0.0017
F163.0
tp781
a(S'cpvert_4MeV_30tilt_315rot_det12.npy'
p782
F0.5087
F0.0044
F28.7493
F0.1033
F0.3042
F0.0028
F174.0
tp783
a(S'cpvert_4MeV_30tilt_315rot_det13.npy'
p784
F0.8682
F0.0072
F33.64
F0.1406
F0.5382
F0.0048
F138.0
tp785
a(S'cpvert_4MeV_30tilt_315rot_det14.npy'
p786
F1.2401
F0.0118
F42.8905
F0.2487
F0.7858
F0.0083
F125.0
tp787
a(S'cpvert_4MeV_30tilt_315rot_det15.npy'
p788
F1.6102
F0.0164
F66.6899
F0.4714
F1.0301
F0.0113
F80.0
tp789
a(S'cpvert_4MeV_30tilt_315rot_det4.npy'
p790
F1.579
F0.0174
F65.3227
F0.5775
F1.0087
F0.0123
F75.0
tp791
a(S'cpvert_4MeV_30tilt_315rot_det5.npy'
p792
F1.2373
F0.0112
F41.2566
F0.2285
F0.7798
F0.0078
F104.0
tp793
a(S'cpvert_4MeV_30tilt_315rot_det6.npy'
p794
F0.8644
F0.0072
F31.6834
F0.1411
F0.5346
F0.005
F141.0
tp795
a(S'cpvert_4MeV_30tilt_315rot_det7.npy'
p796
F0.5055
F0.0047
F27.7963
F0.1072
F0.3038
F0.0032
F160.0
tp797
a(S'cpvert_4MeV_30tilt_315rot_det8.npy'
p798
F0.251
F0.0027
F27.8643
F0.0934
F0.1471
F0.0017
F142.0
tp799
a(S'cpvert_4MeV_30tilt_315rot_det9.npy'
p800
F0.0961
F0.0013
F25.9729
F0.097
F0.0591
F0.0007
F140.0
tp801
a(S'cpvert_4MeV_30tilt_335rot_det10.npy'
p802
F0.0933
F0.0011
F24.3574
F0.0985
F0.0581
F0.0006
F146.0
tp803
a(S'cpvert_4MeV_30tilt_335rot_det11.npy'
p804
F0.2421
F0.0025
F28.7778
F0.0854
F0.1414
F0.0014
F162.0
tp805
a(S'cpvert_4MeV_30tilt_335rot_det12.npy'
p806
F0.5062
F0.0046
F28.7994
F0.1084
F0.3046
F0.003
F177.0
tp807
a(S'cpvert_4MeV_30tilt_335rot_det13.npy'
p808
F0.8423
F0.007
F33.533
F0.1433
F0.523
F0.0048
F152.0
tp809
a(S'cpvert_4MeV_30tilt_335rot_det14.npy'
p810
F1.2334
F0.0104
F43.2798
F0.2246
F0.7854
F0.0072
F125.0
tp811
a(S'cpvert_4MeV_30tilt_335rot_det15.npy'
p812
F1.5562
F0.0151
F66.4537
F0.4721
F1.0087
F0.0107
F80.0
tp813
a(S'cpvert_4MeV_30tilt_335rot_det4.npy'
p814
F1.6421
F0.0132
F64.9051
F0.5284
F1.0419
F0.0097
F59.0
tp815
a(S'cpvert_4MeV_30tilt_335rot_det5.npy'
p816
F1.2848
F0.0123
F41.4597
F0.2032
F0.8056
F0.0082
F120.0
tp817
a(S'cpvert_4MeV_30tilt_335rot_det6.npy'
p818
F0.8791
F0.0081
F31.6673
F0.1733
F0.5386
F0.0053
F119.0
tp819
a(S'cpvert_4MeV_30tilt_335rot_det7.npy'
p820
F0.5185
F0.0048
F27.8408
F0.1069
F0.3101
F0.0031
F160.0
tp821
a(S'cpvert_4MeV_30tilt_335rot_det8.npy'
p822
F0.2537
F0.0028
F28.1673
F0.1023
F0.1486
F0.0017
F150.0
tp823
a(S'cpvert_4MeV_30tilt_335rot_det9.npy'
p824
F0.0986
F0.0012
F26.0037
F0.0844
F0.0608
F0.0006
F151.0
tp825
a(S'cpvert_4MeV_30tilt_345rot_det10.npy'
p826
F0.0921
F0.0012
F24.3812
F0.1004
F0.057
F0.0007
F151.0
tp827
a(S'cpvert_4MeV_30tilt_345rot_det11.npy'
p828
F0.242
F0.0025
F28.7892
F0.0937
F0.1411
F0.0015
F165.0
tp829
a(S'cpvert_4MeV_30tilt_345rot_det12.npy'
p830
F0.5051
F0.0043
F28.7386
F0.0987
F0.3039
F0.0027
F176.0
tp831
a(S'cpvert_4MeV_30tilt_345rot_det13.npy'
p832
F0.8344
F0.007
F33.8163
F0.1424
F0.5194
F0.0048
F158.0
tp833
a(S'cpvert_4MeV_30tilt_345rot_det14.npy'
p834
F1.1999
F0.0097
F43.2063
F0.2285
F0.7649
F0.0069
F118.0
tp835
a(S'cpvert_4MeV_30tilt_345rot_det15.npy'
p836
F1.5564
F0.0133
F65.6981
F0.4391
F1.0099
F0.0102
F86.0
tp837
a(S'cpvert_4MeV_30tilt_345rot_det4.npy'
p838
F1.6402
F0.0154
F65.7727
F0.5751
F1.0469
F0.0106
F76.0
tp839
a(S'cpvert_4MeV_30tilt_345rot_det5.npy'
p840
F1.2679
F0.0103
F40.9022
F0.2353
F0.7945
F0.0069
F115.0
tp841
a(S'cpvert_4MeV_30tilt_345rot_det6.npy'
p842
F0.8844
F0.0072
F31.469
F0.1478
F0.5396
F0.0047
F128.0
tp843
a(S'cpvert_4MeV_30tilt_345rot_det7.npy'
p844
F0.5312
F0.005
F27.7012
F0.0933
F0.3183
F0.0032
F181.0
tp845
a(S'cpvert_4MeV_30tilt_345rot_det8.npy'
p846
F0.2617
F0.0029
F28.0122
F0.096
F0.1539
F0.0016
F147.0
tp847
a(S'cpvert_4MeV_30tilt_345rot_det9.npy'
p848
F0.0962
F0.0013
F25.9355
F0.099
F0.0604
F0.0007
F132.0
tp849
a(S'cpvert_4MeV_30tilt_355rot_det10.npy'
p850
F0.0924
F0.0011
F24.2288
F0.1006
F0.0583
F0.0007
F134.0
tp851
a(S'cpvert_4MeV_30tilt_355rot_det11.npy'
p852
F0.2493
F0.0024
F28.7546
F0.0851
F0.145
F0.0015
F170.0
tp853
a(S'cpvert_4MeV_30tilt_355rot_det12.npy'
p854
F0.4993
F0.0052
F28.7764
F0.1081
F0.2981
F0.0034
F150.0
tp855
a(S'cpvert_4MeV_30tilt_355rot_det13.npy'
p856
F0.8375
F0.0066
F33.5213
F0.1337
F0.5208
F0.0045
F153.0
tp857
a(S'cpvert_4MeV_30tilt_355rot_det14.npy'
p858
F1.1768
F0.0094
F43.2891
F0.2215
F0.7506
F0.0065
F141.0
tp859
a(S'cpvert_4MeV_30tilt_355rot_det15.npy'
p860
F1.5664
F0.013
F66.7209
F0.4285
F1.0207
F0.0096
F85.0
tp861
a(S'cpvert_4MeV_30tilt_355rot_det4.npy'
p862
F1.6328
F0.0134
F65.322
F0.5337
F1.0491
F0.0096
F78.0
tp863
a(S'cpvert_4MeV_30tilt_355rot_det5.npy'
p864
F1.2732
F0.0118
F40.9556
F0.2024
F0.7966
F0.0079
F103.0
tp865
a(S'cpvert_4MeV_30tilt_355rot_det6.npy'
p866
F0.8975
F0.0081
F31.3306
F0.1422
F0.5497
F0.0054
F153.0
tp867
a(S'cpvert_4MeV_30tilt_355rot_det7.npy'
p868
F0.534
F0.0054
F27.7429
F0.1023
F0.318
F0.0035
F154.0
tp869
a(S'cpvert_4MeV_30tilt_355rot_det8.npy'
p870
F0.2627
F0.0031
F27.9702
F0.1058
F0.1548
F0.0018
F131.0
tp871
a(S'cpvert_4MeV_30tilt_355rot_det9.npy'
p872
F0.0986
F0.0013
F25.8201
F0.0928
F0.0615
F0.0007
F157.0
tp873
a(S'cpvert_4MeV_30tilt_35rot_det10.npy'
p874
F0.0945
F0.0013
F24.3837
F0.1079
F0.0598
F0.0007
F144.0
tp875
a(S'cpvert_4MeV_30tilt_35rot_det11.npy'
p876
F0.2508
F0.0028
F28.7739
F0.0928
F0.1479
F0.0017
F140.0
tp877
a(S'cpvert_4MeV_30tilt_35rot_det12.npy'
p878
F0.5091
F0.0051
F28.833
F0.0907
F0.3055
F0.0034
F143.0
tp879
a(S'cpvert_4MeV_30tilt_35rot_det13.npy'
p880
F0.8319
F0.0061
F33.7256
F0.1429
F0.5148
F0.0041
F148.0
tp881
a(S'cpvert_4MeV_30tilt_35rot_det14.npy'
p882
F1.1869
F0.0092
F43.4017
F0.2333
F0.7547
F0.0068
F120.0
tp883
a(S'cpvert_4MeV_30tilt_35rot_det15.npy'
p884
F1.4959
F0.0136
F65.9774
F0.4961
F0.9709
F0.0102
F77.0
tp885
a(S'cpvert_4MeV_30tilt_35rot_det4.npy'
p886
F1.5236
F0.0163
F64.7256
F0.6155
F0.991
F0.012
F71.0
tp887
a(S'cpvert_4MeV_30tilt_35rot_det5.npy'
p888
F1.2148
F0.0096
F41.0898
F0.212
F0.7728
F0.0067
F126.0
tp889
a(S'cpvert_4MeV_30tilt_35rot_det6.npy'
p890
F0.8661
F0.0068
F31.2911
F0.1364
F0.537
F0.0047
F128.0
tp891
a(S'cpvert_4MeV_30tilt_35rot_det7.npy'
p892
F0.5296
F0.0049
F27.6319
F0.105
F0.3156
F0.0034
F148.0
tp893
a(S'cpvert_4MeV_30tilt_35rot_det8.npy'
p894
F0.2669
F0.0031
F27.8772
F0.0891
F0.1586
F0.0019
F140.0
tp895
a(S'cpvert_4MeV_30tilt_35rot_det9.npy'
p896
F0.1023
F0.0015
F25.886
F0.1115
F0.0642
F0.0009
F123.0
tp897
a(S'cpvert_4MeV_30tilt_45rot_det10.npy'
p898
F0.0946
F0.0013
F24.4508
F0.1026
F0.0597
F0.0007
F136.0
tp899
a(S'cpvert_4MeV_30tilt_45rot_det11.npy'
p900
F0.2631
F0.003
F28.7609
F0.1018
F0.1549
F0.0018
F134.0
tp901
a(S'cpvert_4MeV_30tilt_45rot_det12.npy'
p902
F0.5215
F0.0046
F28.7554
F0.1125
F0.3121
F0.003
F167.0
tp903
a(S'cpvert_4MeV_30tilt_45rot_det13.npy'
p904
F0.8372
F0.0069
F33.6863
F0.1282
F0.5161
F0.0046
F164.0
tp905
a(S'cpvert_4MeV_30tilt_45rot_det14.npy'
p906
F1.1802
F0.0109
F43.2928
F0.2426
F0.7474
F0.0079
F98.0
tp907
a(S'cpvert_4MeV_30tilt_45rot_det15.npy'
p908
F1.5018
F0.0146
F67.1373
F0.533
F0.9744
F0.0107
F69.0
tp909
a(S'cpvert_4MeV_30tilt_45rot_det4.npy'
p910
F1.4974
F0.0143
F65.1903
F0.5169
F0.9726
F0.0106
F74.0
tp911
a(S'cpvert_4MeV_30tilt_45rot_det5.npy'
p912
F1.2266
F0.0081
F40.6957
F0.2142
F0.7841
F0.0057
F108.0
tp913
a(S'cpvert_4MeV_30tilt_45rot_det6.npy'
p914
F0.8652
F0.0071
F31.1822
F0.1469
F0.5374
F0.0049
F117.0
tp915
a(S'cpvert_4MeV_30tilt_45rot_det7.npy'
p916
F0.5196
F0.0056
F27.4961
F0.1201
F0.312
F0.0036
F110.0
tp917
a(S'cpvert_4MeV_30tilt_45rot_det8.npy'
p918
F0.2584
F0.0027
F27.9653
F0.1007
F0.1523
F0.0016
F148.0
tp919
a(S'cpvert_4MeV_30tilt_45rot_det9.npy'
p920
F0.099
F0.0013
F25.8346
F0.0982
F0.0619
F0.0007
F119.0
tp921
a(S'cpvert_4MeV_30tilt_55rot_det10.npy'
p922
F0.0963
F0.0011
F24.2789
F0.0933
F0.061
F0.0006
F171.0
tp923
a(S'cpvert_4MeV_30tilt_55rot_det11.npy'
p924
F0.2563
F0.0025
F28.78
F0.0933
F0.1512
F0.0015
F173.0
tp925
a(S'cpvert_4MeV_30tilt_55rot_det12.npy'
p926
F0.5253
F0.0044
F28.5849
F0.0883
F0.3136
F0.0028
F188.0
tp927
a(S'cpvert_4MeV_30tilt_55rot_det13.npy'
p928
F0.8454
F0.0068
F33.8771
F0.1325
F0.5207
F0.0046
F175.0
tp929
a(S'cpvert_4MeV_30tilt_55rot_det14.npy'
p930
F1.1958
F0.0083
F43.1375
F0.234
F0.7624
F0.0059
F135.0
tp931
a(S'cpvert_4MeV_30tilt_55rot_det15.npy'
p932
F1.5328
F0.0126
F65.8008
F0.4494
F0.9939
F0.0085
F80.0
tp933
a(S'cpvert_4MeV_30tilt_55rot_det4.npy'
p934
F1.5043
F0.0119
F64.6722
F0.4638
F0.9825
F0.0092
F103.0
tp935
a(S'cpvert_4MeV_30tilt_55rot_det5.npy'
p936
F1.1924
F0.0088
F40.8923
F0.1974
F0.7603
F0.0059
F147.0
tp937
a(S'cpvert_4MeV_30tilt_55rot_det6.npy'
p938
F0.8363
F0.0061
F31.2981
F0.1237
F0.519
F0.0042
F180.0
tp939
a(S'cpvert_4MeV_30tilt_55rot_det7.npy'
p940
F0.5015
F0.0044
F27.9553
F0.0881
F0.3012
F0.0028
F190.0
tp941
a(S'cpvert_4MeV_30tilt_55rot_det8.npy'
p942
F0.2544
F0.0024
F27.9658
F0.0785
F0.15
F0.0015
F195.0
tp943
a(S'cpvert_4MeV_30tilt_55rot_det9.npy'
p944
F0.0974
F0.0012
F25.6757
F0.0842
F0.0614
F0.0007
F176.0
tp945
a(S'cpvert_4MeV_30tilt_5rot_det10.npy'
p946
F0.0939
F0.0012
F24.4726
F0.0962
F0.0585
F0.0006
F150.0
tp947
a(S'cpvert_4MeV_30tilt_5rot_det11.npy'
p948
F0.2431
F0.0026
F28.6674
F0.1005
F0.1428
F0.0017
F152.0
tp949
a(S'cpvert_4MeV_30tilt_5rot_det12.npy'
p950
F0.4899
F0.004
F28.7475
F0.0973
F0.2931
F0.0028
F165.0
tp951
a(S'cpvert_4MeV_30tilt_5rot_det13.npy'
p952
F0.8203
F0.0068
F33.6191
F0.1338
F0.508
F0.0045
F160.0
tp953
a(S'cpvert_4MeV_30tilt_5rot_det14.npy'
p954
F1.1832
F0.0097
F43.2984
F0.2368
F0.752
F0.0067
F118.0
tp955
a(S'cpvert_4MeV_30tilt_5rot_det15.npy'
p956
F1.5197
F0.015
F66.7977
F0.5039
F0.9858
F0.0106
F65.0
tp957
a(S'cpvert_4MeV_30tilt_5rot_det4.npy'
p958
F1.6011
F0.0178
F65.3711
F0.495
F1.0294
F0.0119
F67.0
tp959
a(S'cpvert_4MeV_30tilt_5rot_det5.npy'
p960
F1.289
F0.0105
F40.67
F0.2196
F0.8136
F0.0073
F106.0
tp961
a(S'cpvert_4MeV_30tilt_5rot_det6.npy'
p962
F0.8956
F0.0072
F31.3762
F0.1394
F0.5481
F0.0049
F148.0
tp963
a(S'cpvert_4MeV_30tilt_5rot_det7.npy'
p964
F0.5332
F0.0053
F27.6989
F0.1115
F0.3176
F0.0035
F150.0
tp965
a(S'cpvert_4MeV_30tilt_5rot_det8.npy'
p966
F0.2628
F0.0032
F28.1229
F0.1151
F0.1558
F0.0019
F127.0
tp967
a(S'cpvert_4MeV_30tilt_5rot_det9.npy'
p968
F0.0976
F0.0013
F25.9582
F0.0988
F0.0616
F0.0007
F147.0
tp969
a(S'cpvert_4MeV_30tilt_75rot_det10.npy'
p970
F0.1005
F0.0012
F24.2426
F0.089
F0.0631
F0.0007
F180.0
tp971
a(S'cpvert_4MeV_30tilt_75rot_det11.npy'
p972
F0.268
F0.0027
F28.7571
F0.0963
F0.1582
F0.0016
F160.0
tp973
a(S'cpvert_4MeV_30tilt_75rot_det12.npy'
p974
F0.543
F0.0043
F28.8168
F0.102
F0.3246
F0.0026
F169.0
tp975
a(S'cpvert_4MeV_30tilt_75rot_det13.npy'
p976
F0.8793
F0.0078
F33.9265
F0.15
F0.5373
F0.0051
F130.0
tp977
a(S'cpvert_4MeV_30tilt_75rot_det14.npy'
p978
F1.2306
F0.0113
F43.575
F0.2329
F0.7794
F0.0077
F121.0
tp979
a(S'cpvert_4MeV_30tilt_75rot_det15.npy'
p980
F1.5729
F0.0145
F66.8311
F0.4571
F1.0127
F0.0103
F86.0
tp981
a(S'cpvert_4MeV_30tilt_75rot_det4.npy'
p982
F1.5074
F0.0123
F64.5793
F0.4864
F0.9754
F0.0087
F95.0
tp983
a(S'cpvert_4MeV_30tilt_75rot_det5.npy'
p984
F1.1891
F0.0106
F40.9012
F0.2169
F0.7605
F0.0076
F114.0
tp985
a(S'cpvert_4MeV_30tilt_75rot_det6.npy'
p986
F0.8259
F0.0073
F31.4968
F0.1392
F0.5116
F0.0049
F146.0
tp987
a(S'cpvert_4MeV_30tilt_75rot_det7.npy'
p988
F0.4949
F0.0046
F27.7761
F0.0951
F0.2967
F0.0029
F162.0
tp989
a(S'cpvert_4MeV_30tilt_75rot_det8.npy'
p990
F0.2453
F0.0026
F28.0063
F0.104
F0.1446
F0.0016
F138.0
tp991
a(S'cpvert_4MeV_30tilt_75rot_det9.npy'
p992
F0.0963
F0.0011
F25.8094
F0.0955
F0.0603
F0.0006
F150.0
tp993
a(S'cpvert_4MeV_30tilt_95rot_det10.npy'
p994
F0.0989
F0.0013
F24.3252
F0.0979
F0.0624
F0.0007
F131.0
tp995
a(S'cpvert_4MeV_30tilt_95rot_det11.npy'
p996
F0.2612
F0.0026
F28.8215
F0.1042
F0.1542
F0.0016
F153.0
tp997
a(S'cpvert_4MeV_30tilt_95rot_det12.npy'
p998
F0.5531
F0.0053
F28.9168
F0.1077
F0.3298
F0.0033
F150.0
tp999
a(S'cpvert_4MeV_30tilt_95rot_det13.npy'
p1000
F0.9021
F0.0069
F33.9723
F0.1401
F0.5542
F0.0046
F153.0
tp1001
a(S'cpvert_4MeV_30tilt_95rot_det14.npy'
p1002
F1.2795
F0.0106
F43.4743
F0.2375
F0.8015
F0.0071
F110.0
tp1003
a(S'cpvert_4MeV_30tilt_95rot_det15.npy'
p1004
F1.6066
F0.0175
F68.4747
F0.5594
F1.0238
F0.0121
F64.0
tp1005
a(S'cpvert_4MeV_30tilt_95rot_det4.npy'
p1006
F1.5362
F0.0144
F64.3331
F0.6021
F1.0001
F0.0105
F66.0
tp1007
a(S'cpvert_4MeV_30tilt_95rot_det5.npy'
p1008
F1.1812
F0.0099
F40.6815
F0.2267
F0.7556
F0.0072
F110.0
tp1009
a(S'cpvert_4MeV_30tilt_95rot_det6.npy'
p1010
F0.8223
F0.0061
F31.0329
F0.131
F0.5075
F0.004
F163.0
tp1011
a(S'cpvert_4MeV_30tilt_95rot_det7.npy'
p1012
F0.4958
F0.0042
F27.5512
F0.1058
F0.2963
F0.0027
F153.0
tp1013
a(S'cpvert_4MeV_30tilt_95rot_det8.npy'
p1014
F0.2467
F0.0027
F27.9844
F0.0941
F0.1444
F0.0016
F144.0
tp1015
a(S'cpvert_4MeV_30tilt_95rot_det9.npy'
p1016
F0.0951
F0.0012
F25.9545
F0.0749
F0.0595
F0.0007
F161.0
tp1017
a(S'cpvert_4MeV_neg15tilt_115rot_det10.npy'
p1018
F0.0965
F0.0014
F24.4683
F0.1057
F0.0602
F0.0008
F144.0
tp1019
a(S'cpvert_4MeV_neg15tilt_115rot_det11.npy'
p1020
F0.2565
F0.0028
F28.8752
F0.0948
F0.1515
F0.0016
F166.0
tp1021
a(S'cpvert_4MeV_neg15tilt_115rot_det12.npy'
p1022
F0.5259
F0.0045
F28.8467
F0.0904
F0.3135
F0.0029
F175.0
tp1023
a(S'cpvert_4MeV_neg15tilt_115rot_det13.npy'
p1024
F0.8839
F0.0069
F33.6003
F0.1125
F0.5424
F0.0046
F176.0
tp1025
a(S'cpvert_4MeV_neg15tilt_115rot_det14.npy'
p1026
F1.2456
F0.0098
F43.2427
F0.2277
F0.778
F0.0065
F111.0
tp1027
a(S'cpvert_4MeV_neg15tilt_115rot_det15.npy'
p1028
F1.6241
F0.0142
F66.8682
F0.5166
F1.032
F0.01
F75.0
tp1029
a(S'cpvert_4MeV_neg15tilt_115rot_det4.npy'
p1030
F1.5668
F0.0164
F65.2965
F0.5995
F1.0079
F0.0115
F73.0
tp1031
a(S'cpvert_4MeV_neg15tilt_115rot_det5.npy'
p1032
F1.2324
F0.0101
F40.8024
F0.2088
F0.7814
F0.007
F125.0
tp1033
a(S'cpvert_4MeV_neg15tilt_115rot_det6.npy'
p1034
F0.8772
F0.0068
F31.1251
F0.1458
F0.5428
F0.0047
F156.0
tp1035
a(S'cpvert_4MeV_neg15tilt_115rot_det7.npy'
p1036
F0.514
F0.0052
F27.6108
F0.1124
F0.3068
F0.0033
F126.0
tp1037
a(S'cpvert_4MeV_neg15tilt_115rot_det8.npy'
p1038
F0.2535
F0.0029
F27.8735
F0.0985
F0.1472
F0.0018
F145.0
tp1039
a(S'cpvert_4MeV_neg15tilt_115rot_det9.npy'
p1040
F0.0982
F0.0011
F25.8581
F0.1038
F0.06
F0.0006
F158.0
tp1041
a(S'cpvert_4MeV_neg15tilt_135rot_det10.npy'
p1042
F0.0967
F0.0012
F24.3733
F0.1065
F0.0602
F0.0006
F132.0
tp1043
a(S'cpvert_4MeV_neg15tilt_135rot_det11.npy'
p1044
F0.2597
F0.0026
F28.8651
F0.1057
F0.1521
F0.0016
F154.0
tp1045
a(S'cpvert_4MeV_neg15tilt_135rot_det12.npy'
p1046
F0.5238
F0.0048
F28.8263
F0.1138
F0.3141
F0.0031
F157.0
tp1047
a(S'cpvert_4MeV_neg15tilt_135rot_det13.npy'
p1048
F0.8745
F0.0077
F33.7538
F0.1321
F0.5392
F0.0051
F146.0
tp1049
a(S'cpvert_4MeV_neg15tilt_135rot_det14.npy'
p1050
F1.2594
F0.0104
F42.9449
F0.2246
F0.7955
F0.0073
F118.0
tp1051
a(S'cpvert_4MeV_neg15tilt_135rot_det15.npy'
p1052
F1.5957
F0.0159
F66.7184
F0.5418
F1.0185
F0.0107
F76.0
tp1053
a(S'cpvert_4MeV_neg15tilt_135rot_det4.npy'
p1054
F1.5933
F0.0154
F64.3469
F0.5086
F1.0199
F0.0115
F77.0
tp1055
a(S'cpvert_4MeV_neg15tilt_135rot_det5.npy'
p1056
F1.2688
F0.0107
F40.9367
F0.2241
F0.8037
F0.0076
F106.0
tp1057
a(S'cpvert_4MeV_neg15tilt_135rot_det6.npy'
p1058
F0.8703
F0.0075
F31.0238
F0.1352
F0.5361
F0.0051
F142.0
tp1059
a(S'cpvert_4MeV_neg15tilt_135rot_det7.npy'
p1060
F0.523
F0.0047
F27.4165
F0.0907
F0.3135
F0.0031
F156.0
tp1061
a(S'cpvert_4MeV_neg15tilt_135rot_det8.npy'
p1062
F0.2533
F0.0033
F28.0641
F0.1187
F0.1487
F0.0021
F126.0
tp1063
a(S'cpvert_4MeV_neg15tilt_135rot_det9.npy'
p1064
F0.0971
F0.0014
F25.7969
F0.092
F0.0598
F0.0007
F139.0
tp1065
a(S'cpvert_4MeV_neg15tilt_15rot_det10.npy'
p1066
F0.0956
F0.0011
F24.1905
F0.0865
F0.0597
F0.0006
F156.0
tp1067
a(S'cpvert_4MeV_neg15tilt_15rot_det11.npy'
p1068
F0.2594
F0.0027
F28.6095
F0.0958
F0.1506
F0.0016
F171.0
tp1069
a(S'cpvert_4MeV_neg15tilt_15rot_det12.npy'
p1070
F0.5161
F0.0045
F28.8235
F0.1084
F0.3089
F0.0029
F172.0
tp1071
a(S'cpvert_4MeV_neg15tilt_15rot_det13.npy'
p1072
F0.8544
F0.0067
F33.6535
F0.1337
F0.5282
F0.0044
F156.0
tp1073
a(S'cpvert_4MeV_neg15tilt_15rot_det14.npy'
p1074
F1.208
F0.0092
F43.0723
F0.2159
F0.7669
F0.0064
F137.0
tp1075
a(S'cpvert_4MeV_neg15tilt_15rot_det15.npy'
p1076
F1.5276
F0.016
F67.2574
F0.4864
F0.9909
F0.0117
F72.0
tp1077
a(S'cpvert_4MeV_neg15tilt_15rot_det4.npy'
p1078
F1.5585
F0.0141
F65.5562
F0.4972
F0.9989
F0.01
F82.0
tp1079
a(S'cpvert_4MeV_neg15tilt_15rot_det5.npy'
p1080
F1.2623
F0.0119
F40.9879
F0.2162
F0.7936
F0.0081
F101.0
tp1081
a(S'cpvert_4MeV_neg15tilt_15rot_det6.npy'
p1082
F0.9054
F0.0074
F31.1466
F0.1558
F0.5565
F0.0051
F121.0
tp1083
a(S'cpvert_4MeV_neg15tilt_15rot_det7.npy'
p1084
F0.547
F0.0049
F27.8629
F0.1047
F0.3265
F0.0031
F151.0
tp1085
a(S'cpvert_4MeV_neg15tilt_15rot_det8.npy'
p1086
F0.2732
F0.0028
F27.9192
F0.1039
F0.1608
F0.0017
F146.0
tp1087
a(S'cpvert_4MeV_neg15tilt_15rot_det9.npy'
p1088
F0.098
F0.0012
F25.7396
F0.0998
F0.0619
F0.0007
F123.0
tp1089
a(S'cpvert_4MeV_neg15tilt_25rot_det10.npy'
p1090
F0.095
F0.0012
F24.369
F0.1063
F0.0595
F0.0007
F132.0
tp1091
a(S'cpvert_4MeV_neg15tilt_25rot_det11.npy'
p1092
F0.2579
F0.0031
F28.7051
F0.1131
F0.1513
F0.0019
F112.0
tp1093
a(S'cpvert_4MeV_neg15tilt_25rot_det12.npy'
p1094
F0.5219
F0.0049
F28.8423
F0.1073
F0.3122
F0.0031
F155.0
tp1095
a(S'cpvert_4MeV_neg15tilt_25rot_det13.npy'
p1096
F0.86
F0.007
F33.4907
F0.1452
F0.5326
F0.005
F135.0
tp1097
a(S'cpvert_4MeV_neg15tilt_25rot_det14.npy'
p1098
F1.2239
F0.0098
F42.7873
F0.227
F0.7808
F0.0069
F127.0
tp1099
a(S'cpvert_4MeV_neg15tilt_25rot_det15.npy'
p1100
F1.5459
F0.0142
F65.8193
F0.5188
F0.9999
F0.0103
F75.0
tp1101
a(S'cpvert_4MeV_neg15tilt_25rot_det4.npy'
p1102
F1.5517
F0.0164
F65.4864
F0.587
F1.0046
F0.0118
F68.0
tp1103
a(S'cpvert_4MeV_neg15tilt_25rot_det5.npy'
p1104
F1.2607
F0.0109
F40.9679
F0.2556
F0.8001
F0.0078
F86.0
tp1105
a(S'cpvert_4MeV_neg15tilt_25rot_det6.npy'
p1106
F0.8684
F0.0076
F31.6791
F0.1364
F0.533
F0.0053
F136.0
tp1107
a(S'cpvert_4MeV_neg15tilt_25rot_det7.npy'
p1108
F0.5293
F0.0051
F27.752
F0.1122
F0.3163
F0.0032
F142.0
tp1109
a(S'cpvert_4MeV_neg15tilt_25rot_det8.npy'
p1110
F0.2658
F0.0031
F27.9875
F0.1051
F0.1556
F0.0019
F123.0
tp1111
a(S'cpvert_4MeV_neg15tilt_25rot_det9.npy'
p1112
F0.1018
F0.0016
F25.9884
F0.1094
F0.0645
F0.0009
F114.0
tp1113
a(S'cpvert_4MeV_neg15tilt_315rot_det10.npy'
p1114
F0.0985
F0.0011
F24.2922
F0.1016
F0.0611
F0.0007
F168.0
tp1115
a(S'cpvert_4MeV_neg15tilt_315rot_det11.npy'
p1116
F0.2573
F0.0025
F28.7314
F0.09
F0.1501
F0.0015
F171.0
tp1117
a(S'cpvert_4MeV_neg15tilt_315rot_det12.npy'
p1118
F0.5314
F0.0046
F28.6445
F0.0932
F0.3173
F0.003
F181.0
tp1119
a(S'cpvert_4MeV_neg15tilt_315rot_det13.npy'
p1120
F0.8752
F0.0074
F33.6129
F0.1258
F0.5409
F0.005
F159.0
tp1121
a(S'cpvert_4MeV_neg15tilt_315rot_det14.npy'
p1122
F1.2574
F0.0111
F43.3213
F0.2131
F0.7929
F0.0077
F124.0
tp1123
a(S'cpvert_4MeV_neg15tilt_315rot_det15.npy'
p1124
F1.6533
F0.0165
F67.7575
F0.4778
F1.0521
F0.0109
F60.0
tp1125
a(S'cpvert_4MeV_neg15tilt_315rot_det4.npy'
p1126
F1.5766
F0.018
F64.8732
F0.5724
F1.0049
F0.0124
F59.0
tp1127
a(S'cpvert_4MeV_neg15tilt_315rot_det5.npy'
p1128
F1.2664
F0.0099
F41.0745
F0.2251
F0.8024
F0.0071
F111.0
tp1129
a(S'cpvert_4MeV_neg15tilt_315rot_det6.npy'
p1130
F0.8921
F0.0074
F31.3747
F0.1371
F0.5519
F0.005
F126.0
tp1131
a(S'cpvert_4MeV_neg15tilt_315rot_det7.npy'
p1132
F0.5338
F0.0045
F27.8612
F0.0998
F0.3204
F0.003
F183.0
tp1133
a(S'cpvert_4MeV_neg15tilt_315rot_det8.npy'
p1134
F0.2614
F0.0026
F27.9481
F0.0907
F0.153
F0.0016
F171.0
tp1135
a(S'cpvert_4MeV_neg15tilt_315rot_det9.npy'
p1136
F0.0998
F0.0012
F25.7845
F0.0879
F0.0616
F0.0006
F167.0
tp1137
a(S'cpvert_4MeV_neg15tilt_335rot_det10.npy'
p1138
F0.098
F0.0012
F24.2906
F0.0908
F0.0602
F0.0006
F161.0
tp1139
a(S'cpvert_4MeV_neg15tilt_335rot_det11.npy'
p1140
F0.2545
F0.0027
F28.6821
F0.1013
F0.1486
F0.0016
F154.0
tp1141
a(S'cpvert_4MeV_neg15tilt_335rot_det12.npy'
p1142
F0.5198
F0.0049
F28.6401
F0.1014
F0.3098
F0.003
F162.0
tp1143
a(S'cpvert_4MeV_neg15tilt_335rot_det13.npy'
p1144
F0.8621
F0.007
F33.7953
F0.1412
F0.5315
F0.0047
F153.0
tp1145
a(S'cpvert_4MeV_neg15tilt_335rot_det14.npy'
p1146
F1.2353
F0.0097
F42.9652
F0.2043
F0.7855
F0.007
F143.0
tp1147
a(S'cpvert_4MeV_neg15tilt_335rot_det15.npy'
p1148
F1.576
F0.0137
F65.5921
F0.4927
F1.018
F0.0099
F87.0
tp1149
a(S'cpvert_4MeV_neg15tilt_335rot_det4.npy'
p1150
F1.6263
F0.0138
F66.2654
F0.5275
F1.0311
F0.0095
F78.0
tp1151
a(S'cpvert_4MeV_neg15tilt_335rot_det5.npy'
p1152
F1.2897
F0.011
F41.0293
F0.2285
F0.8089
F0.0074
F107.0
tp1153
a(S'cpvert_4MeV_neg15tilt_335rot_det6.npy'
p1154
F0.9112
F0.0066
F31.337
F0.1226
F0.5602
F0.0045
F166.0
tp1155
a(S'cpvert_4MeV_neg15tilt_335rot_det7.npy'
p1156
F0.5404
F0.0048
F27.7458
F0.1035
F0.3244
F0.0031
F160.0
tp1157
a(S'cpvert_4MeV_neg15tilt_335rot_det8.npy'
p1158
F0.2633
F0.0027
F27.9511
F0.0944
F0.1548
F0.0016
F157.0
tp1159
a(S'cpvert_4MeV_neg15tilt_335rot_det9.npy'
p1160
F0.1027
F0.0014
F25.7626
F0.1015
F0.0638
F0.0008
F125.0
tp1161
a(S'cpvert_4MeV_neg15tilt_345rot_det10.npy'
p1162
F0.0954
F0.0013
F24.3595
F0.0969
F0.0588
F0.0007
F140.0
tp1163
a(S'cpvert_4MeV_neg15tilt_345rot_det11.npy'
p1164
F0.2533
F0.0025
F28.823
F0.0928
F0.1478
F0.0015
F168.0
tp1165
a(S'cpvert_4MeV_neg15tilt_345rot_det12.npy'
p1166
F0.525
F0.004
F28.5945
F0.1026
F0.314
F0.0026
F168.0
tp1167
a(S'cpvert_4MeV_neg15tilt_345rot_det13.npy'
p1168
F0.8564
F0.0062
F33.5863
F0.1347
F0.5288
F0.0043
F149.0
tp1169
a(S'cpvert_4MeV_neg15tilt_345rot_det14.npy'
p1170
F1.2385
F0.0092
F43.1661
F0.213
F0.7849
F0.0066
F122.0
tp1171
a(S'cpvert_4MeV_neg15tilt_345rot_det15.npy'
p1172
F1.5832
F0.0174
F66.2392
F0.4553
F1.0229
F0.0121
F71.0
tp1173
a(S'cpvert_4MeV_neg15tilt_345rot_det4.npy'
p1174
F1.6154
F0.0161
F64.805
F0.4936
F1.0339
F0.0114
F88.0
tp1175
a(S'cpvert_4MeV_neg15tilt_345rot_det5.npy'
p1176
F1.2849
F0.01
F40.8791
F0.2052
F0.8066
F0.0069
F112.0
tp1177
a(S'cpvert_4MeV_neg15tilt_345rot_det6.npy'
p1178
F0.9213
F0.0064
F31.4403
F0.1183
F0.5658
F0.0041
F167.0
tp1179
a(S'cpvert_4MeV_neg15tilt_345rot_det7.npy'
p1180
F0.5455
F0.0045
F27.7897
F0.0931
F0.3267
F0.0029
F178.0
tp1181
a(S'cpvert_4MeV_neg15tilt_345rot_det8.npy'
p1182
F0.2743
F0.0027
F27.9302
F0.0861
F0.1622
F0.0017
F160.0
tp1183
a(S'cpvert_4MeV_neg15tilt_345rot_det9.npy'
p1184
F0.101
F0.0012
F25.9086
F0.0891
F0.0633
F0.0006
F152.0
tp1185
a(S'cpvert_4MeV_neg15tilt_355rot_det10.npy'
p1186
F0.0977
F0.0013
F24.3708
F0.1
F0.0604
F0.0007
F140.0
tp1187
a(S'cpvert_4MeV_neg15tilt_355rot_det11.npy'
p1188
F0.2525
F0.0027
F28.7908
F0.0927
F0.1484
F0.0016
F162.0
tp1189
a(S'cpvert_4MeV_neg15tilt_355rot_det12.npy'
p1190
F0.513
F0.005
F28.71
F0.0976
F0.3053
F0.0032
F138.0
tp1191
a(S'cpvert_4MeV_neg15tilt_355rot_det13.npy'
p1192
F0.8449
F0.0075
F33.7145
F0.1432
F0.5239
F0.0052
F136.0
tp1193
a(S'cpvert_4MeV_neg15tilt_355rot_det14.npy'
p1194
F1.2257
F0.0108
F43.401
F0.2497
F0.7811
F0.0075
F122.0
tp1195
a(S'cpvert_4MeV_neg15tilt_355rot_det15.npy'
p1196
F1.5522
F0.0142
F67.0876
F0.5336
F1.0015
F0.0099
F79.0
tp1197
a(S'cpvert_4MeV_neg15tilt_355rot_det4.npy'
p1198
F1.6067
F0.0164
F65.9672
F0.5579
F1.0292
F0.012
F75.0
tp1199
a(S'cpvert_4MeV_neg15tilt_355rot_det5.npy'
p1200
F1.2726
F0.0123
F41.1701
F0.2193
F0.8004
F0.0083
F113.0
tp1201
a(S'cpvert_4MeV_neg15tilt_355rot_det6.npy'
p1202
F0.9014
F0.007
F31.4568
F0.1405
F0.5536
F0.0047
F153.0
tp1203
a(S'cpvert_4MeV_neg15tilt_355rot_det7.npy'
p1204
F0.5458
F0.0048
F27.78
F0.0991
F0.3266
F0.0032
F174.0
tp1205
a(S'cpvert_4MeV_neg15tilt_355rot_det8.npy'
p1206
F0.2651
F0.0026
F27.9849
F0.0901
F0.1571
F0.0016
F164.0
tp1207
a(S'cpvert_4MeV_neg15tilt_355rot_det9.npy'
p1208
F0.1002
F0.0012
F25.674
F0.0952
F0.0626
F0.0007
F133.0
tp1209
a(S'cpvert_4MeV_neg15tilt_35rot_det10.npy'
p1210
F0.0955
F0.0012
F24.0534
F0.0908
F0.0603
F0.0007
F151.0
tp1211
a(S'cpvert_4MeV_neg15tilt_35rot_det11.npy'
p1212
F0.2561
F0.0026
F28.701
F0.1071
F0.151
F0.0016
F136.0
tp1213
a(S'cpvert_4MeV_neg15tilt_35rot_det12.npy'
p1214
F0.5257
F0.0042
F28.4904
F0.0948
F0.3156
F0.0027
F190.0
tp1215
a(S'cpvert_4MeV_neg15tilt_35rot_det13.npy'
p1216
F0.8568
F0.007
F33.4861
F0.127
F0.5288
F0.0049
F150.0
tp1217
a(S'cpvert_4MeV_neg15tilt_35rot_det14.npy'
p1218
F1.2019
F0.0094
F43.2144
F0.2003
F0.7612
F0.0066
F139.0
tp1219
a(S'cpvert_4MeV_neg15tilt_35rot_det15.npy'
p1220
F1.5171
F0.0166
F65.969
F0.5465
F0.9834
F0.0115
F68.0
tp1221
a(S'cpvert_4MeV_neg15tilt_35rot_det4.npy'
p1222
F1.5378
F0.0157
F65.5915
F0.5373
F0.994
F0.0115
F78.0
tp1223
a(S'cpvert_4MeV_neg15tilt_35rot_det5.npy'
p1224
F1.2368
F0.0116
F40.9117
F0.2177
F0.7839
F0.008
F103.0
tp1225
a(S'cpvert_4MeV_neg15tilt_35rot_det6.npy'
p1226
F0.867
F0.0074
F31.6047
F0.1451
F0.5365
F0.0052
F143.0
tp1227
a(S'cpvert_4MeV_neg15tilt_35rot_det7.npy'
p1228
F0.5344
F0.0049
F27.6322
F0.0964
F0.3207
F0.0033
F152.0
tp1229
a(S'cpvert_4MeV_neg15tilt_35rot_det8.npy'
p1230
F0.2642
F0.0026
F27.799
F0.0876
F0.1562
F0.0016
F165.0
tp1231
a(S'cpvert_4MeV_neg15tilt_35rot_det9.npy'
p1232
F0.1004
F0.0014
F25.8667
F0.09
F0.0631
F0.0007
F138.0
tp1233
a(S'cpvert_4MeV_neg15tilt_45rot_det10.npy'
p1234
F0.0989
F0.0014
F24.2655
F0.1044
F0.0624
F0.0007
F132.0
tp1235
a(S'cpvert_4MeV_neg15tilt_45rot_det11.npy'
p1236
F0.2582
F0.003
F28.7574
F0.0958
F0.1525
F0.0018
F162.0
tp1237
a(S'cpvert_4MeV_neg15tilt_45rot_det12.npy'
p1238
F0.5299
F0.0043
F28.6355
F0.1031
F0.3171
F0.0027
F162.0
tp1239
a(S'cpvert_4MeV_neg15tilt_45rot_det13.npy'
p1240
F0.8552
F0.0069
F33.6135
F0.1271
F0.5276
F0.0046
F166.0
tp1241
a(S'cpvert_4MeV_neg15tilt_45rot_det14.npy'
p1242
F1.2224
F0.0097
F43.1969
F0.1995
F0.7772
F0.007
F132.0
tp1243
a(S'cpvert_4MeV_neg15tilt_45rot_det15.npy'
p1244
F1.552
F0.0143
F65.811
F0.5085
F1.0041
F0.0099
F75.0
tp1245
a(S'cpvert_4MeV_neg15tilt_45rot_det4.npy'
p1246
F1.5591
F0.0137
F64.8772
F0.5016
F1.0057
F0.0092
F74.0
tp1247
a(S'cpvert_4MeV_neg15tilt_45rot_det5.npy'
p1248
F1.2233
F0.0109
F41.291
F0.2126
F0.7774
F0.008
F109.0
tp1249
a(S'cpvert_4MeV_neg15tilt_45rot_det6.npy'
p1250
F0.8639
F0.0062
F31.4647
F0.1239
F0.5334
F0.0044
F148.0
tp1251
a(S'cpvert_4MeV_neg15tilt_45rot_det7.npy'
p1252
F0.5346
F0.0046
F27.8342
F0.0921
F0.3209
F0.0029
F169.0
tp1253
a(S'cpvert_4MeV_neg15tilt_45rot_det8.npy'
p1254
F0.2611
F0.0026
F27.9318
F0.0906
F0.1543
F0.0015
F165.0
tp1255
a(S'cpvert_4MeV_neg15tilt_45rot_det9.npy'
p1256
F0.0995
F0.0013
F25.7608
F0.0857
F0.0626
F0.0007
F172.0
tp1257
a(S'cpvert_4MeV_neg15tilt_55rot_det10.npy'
p1258
F0.0982
F0.0011
F24.277
F0.0895
F0.0622
F0.0007
F158.0
tp1259
a(S'cpvert_4MeV_neg15tilt_55rot_det11.npy'
p1260
F0.2609
F0.0026
F28.6368
F0.0928
F0.1539
F0.0016
F159.0
tp1261
a(S'cpvert_4MeV_neg15tilt_55rot_det12.npy'
p1262
F0.5353
F0.0048
F28.5586
F0.1039
F0.3194
F0.0032
F149.0
tp1263
a(S'cpvert_4MeV_neg15tilt_55rot_det13.npy'
p1264
F0.8714
F0.0067
F33.6911
F0.1174
F0.5375
F0.0044
F148.0
tp1265
a(S'cpvert_4MeV_neg15tilt_55rot_det14.npy'
p1266
F1.2235
F0.0106
F43.091
F0.2018
F0.7744
F0.0072
F135.0
tp1267
a(S'cpvert_4MeV_neg15tilt_55rot_det15.npy'
p1268
F1.5663
F0.0156
F65.1475
F0.4671
F1.0169
F0.0116
F72.0
tp1269
a(S'cpvert_4MeV_neg15tilt_55rot_det4.npy'
p1270
F1.5358
F0.0136
F65.4349
F0.5497
F0.9969
F0.0099
F80.0
tp1271
a(S'cpvert_4MeV_neg15tilt_55rot_det5.npy'
p1272
F1.2232
F0.0105
F41.1833
F0.2047
F0.7797
F0.0077
F100.0
tp1273
a(S'cpvert_4MeV_neg15tilt_55rot_det6.npy'
p1274
F0.8502
F0.0084
F31.4566
F0.1293
F0.5282
F0.0057
F133.0
tp1275
a(S'cpvert_4MeV_neg15tilt_55rot_det7.npy'
p1276
F0.5248
F0.0048
F27.7556
F0.1024
F0.3146
F0.0031
F142.0
tp1277
a(S'cpvert_4MeV_neg15tilt_55rot_det8.npy'
p1278
F0.2648
F0.0029
F28.0514
F0.0882
F0.1557
F0.0018
F146.0
tp1279
a(S'cpvert_4MeV_neg15tilt_55rot_det9.npy'
p1280
F0.0986
F0.0014
F25.8468
F0.0905
F0.0621
F0.0007
F152.0
tp1281
a(S'cpvert_4MeV_neg15tilt_5rot_det10.npy'
p1282
F0.0973
F0.0012
F24.2092
F0.0998
F0.0605
F0.0007
F153.0
tp1283
a(S'cpvert_4MeV_neg15tilt_5rot_det11.npy'
p1284
F0.258
F0.0025
F28.6665
F0.089
F0.1511
F0.0016
F178.0
tp1285
a(S'cpvert_4MeV_neg15tilt_5rot_det12.npy'
p1286
F0.5205
F0.004
F28.5365
F0.102
F0.3119
F0.0026
F188.0
tp1287
a(S'cpvert_4MeV_neg15tilt_5rot_det13.npy'
p1288
F0.8561
F0.0076
F33.5443
F0.1488
F0.5307
F0.0052
F138.0
tp1289
a(S'cpvert_4MeV_neg15tilt_5rot_det14.npy'
p1290
F1.2162
F0.0102
F43.3253
F0.2033
F0.7744
F0.0071
F138.0
tp1291
a(S'cpvert_4MeV_neg15tilt_5rot_det15.npy'
p1292
F1.5328
F0.0139
F65.9607
F0.4901
F1.001
F0.0102
F80.0
tp1293
a(S'cpvert_4MeV_neg15tilt_5rot_det4.npy'
p1294
F1.5788
F0.0162
F66.2383
F0.5501
F1.0227
F0.011
F70.0
tp1295
a(S'cpvert_4MeV_neg15tilt_5rot_det5.npy'
p1296
F1.2599
F0.0108
F41.1174
F0.2035
F0.7893
F0.0078
F105.0
tp1297
a(S'cpvert_4MeV_neg15tilt_5rot_det6.npy'
p1298
F0.8938
F0.0074
F31.5317
F0.1292
F0.5484
F0.005
F160.0
tp1299
a(S'cpvert_4MeV_neg15tilt_5rot_det7.npy'
p1300
F0.549
F0.0051
F27.6737
F0.1121
F0.3276
F0.0033
F155.0
tp1301
a(S'cpvert_4MeV_neg15tilt_5rot_det8.npy'
p1302
F0.2721
F0.0028
F27.8305
F0.0892
F0.1602
F0.0018
F144.0
tp1303
a(S'cpvert_4MeV_neg15tilt_5rot_det9.npy'
p1304
F0.1019
F0.0012
F25.8272
F0.0815
F0.0641
F0.0007
F161.0
tp1305
a(S'cpvert_4MeV_neg15tilt_75rot_det10.npy'
p1306
F0.0963
F0.0013
F24.3281
F0.1052
F0.0612
F0.0007
F139.0
tp1307
a(S'cpvert_4MeV_neg15tilt_75rot_det11.npy'
p1308
F0.2624
F0.0028
F28.6424
F0.0936
F0.1539
F0.0017
F154.0
tp1309
a(S'cpvert_4MeV_neg15tilt_75rot_det12.npy'
p1310
F0.5287
F0.0047
F28.8047
F0.0965
F0.3161
F0.003
F155.0
tp1311
a(S'cpvert_4MeV_neg15tilt_75rot_det13.npy'
p1312
F0.885
F0.0074
F33.6059
F0.1282
F0.5421
F0.005
F153.0
tp1313
a(S'cpvert_4MeV_neg15tilt_75rot_det14.npy'
p1314
F1.2418
F0.0107
F42.7513
F0.2271
F0.7831
F0.0074
F129.0
tp1315
a(S'cpvert_4MeV_neg15tilt_75rot_det15.npy'
p1316
F1.5814
F0.016
F65.9902
F0.5316
F1.0181
F0.0114
F67.0
tp1317
a(S'cpvert_4MeV_neg15tilt_75rot_det4.npy'
p1318
F1.5321
F0.0138
F64.319
F0.5868
F0.9874
F0.01
F66.0
tp1319
a(S'cpvert_4MeV_neg15tilt_75rot_det5.npy'
p1320
F1.2128
F0.0102
F41.0341
F0.2042
F0.7719
F0.0075
F119.0
tp1321
a(S'cpvert_4MeV_neg15tilt_75rot_det6.npy'
p1322
F0.8659
F0.0063
F31.4023
F0.1451
F0.537
F0.0042
F140.0
tp1323
a(S'cpvert_4MeV_neg15tilt_75rot_det7.npy'
p1324
F0.5126
F0.0046
F27.7791
F0.1061
F0.307
F0.0029
F144.0
tp1325
a(S'cpvert_4MeV_neg15tilt_75rot_det8.npy'
p1326
F0.2606
F0.0027
F27.9334
F0.0906
F0.1519
F0.0017
F147.0
tp1327
a(S'cpvert_4MeV_neg15tilt_75rot_det9.npy'
p1328
F0.0971
F0.0013
F25.8527
F0.1006
F0.0605
F0.0007
F138.0
tp1329
a(S'cpvert_4MeV_neg15tilt_95rot_det10.npy'
p1330
F0.0984
F0.0012
F24.5182
F0.087
F0.0618
F0.0007
F157.0
tp1331
a(S'cpvert_4MeV_neg15tilt_95rot_det11.npy'
p1332
F0.2621
F0.0029
F28.7828
F0.0999
F0.1535
F0.0017
F145.0
tp1333
a(S'cpvert_4MeV_neg15tilt_95rot_det12.npy'
p1334
F0.5385
F0.0049
F28.7864
F0.0962
F0.3201
F0.0031
F172.0
tp1335
a(S'cpvert_4MeV_neg15tilt_95rot_det13.npy'
p1336
F0.8854
F0.0073
F33.6006
F0.1327
F0.5436
F0.005
F151.0
tp1337
a(S'cpvert_4MeV_neg15tilt_95rot_det14.npy'
p1338
F1.2724
F0.0092
F42.994
F0.2119
F0.7981
F0.0062
F145.0
tp1339
a(S'cpvert_4MeV_neg15tilt_95rot_det15.npy'
p1340
F1.598
F0.0156
F65.9783
F0.4913
F1.0261
F0.011
F75.0
tp1341
a(S'cpvert_4MeV_neg15tilt_95rot_det4.npy'
p1342
F1.5643
F0.0149
F64.2661
F0.4893
F1.0154
F0.0106
F77.0
tp1343
a(S'cpvert_4MeV_neg15tilt_95rot_det5.npy'
p1344
F1.2437
F0.0101
F40.737
F0.21
F0.7932
F0.0072
F111.0
tp1345
a(S'cpvert_4MeV_neg15tilt_95rot_det6.npy'
p1346
F0.8518
F0.0072
F31.3321
F0.137
F0.5266
F0.0051
F137.0
tp1347
a(S'cpvert_4MeV_neg15tilt_95rot_det7.npy'
p1348
F0.5125
F0.0044
F27.6642
F0.1012
F0.3069
F0.0029
F162.0
tp1349
a(S'cpvert_4MeV_neg15tilt_95rot_det8.npy'
p1350
F0.2531
F0.0025
F28.0054
F0.1021
F0.1474
F0.0015
F147.0
tp1351
a(S'cpvert_4MeV_neg15tilt_95rot_det9.npy'
p1352
F0.0965
F0.0012
F25.8346
F0.0849
F0.0598
F0.0006
F175.0
tp1353
a(S'cpvert_4MeV_neg30tilt_115rot_det10.npy'
p1354
F0.0936
F0.0011
F24.3436
F0.1065
F0.0586
F0.0007
F149.0
tp1355
a(S'cpvert_4MeV_neg30tilt_115rot_det11.npy'
p1356
F0.2481
F0.0027
F29.0082
F0.0999
F0.1464
F0.0016
F161.0
tp1357
a(S'cpvert_4MeV_neg30tilt_115rot_det12.npy'
p1358
F0.508
F0.0047
F28.9859
F0.1141
F0.3028
F0.0031
F137.0
tp1359
a(S'cpvert_4MeV_neg30tilt_115rot_det13.npy'
p1360
F0.8713
F0.0073
F33.729
F0.1524
F0.5351
F0.0051
F126.0
tp1361
a(S'cpvert_4MeV_neg30tilt_115rot_det14.npy'
p1362
F1.2618
F0.0108
F43.7503
F0.2566
F0.7914
F0.0074
F116.0
tp1363
a(S'cpvert_4MeV_neg30tilt_115rot_det15.npy'
p1364
F1.5965
F0.0175
F66.5386
F0.5835
F1.0156
F0.0117
F69.0
tp1365
a(S'cpvert_4MeV_neg30tilt_115rot_det4.npy'
p1366
F1.5348
F0.0158
F65.2362
F0.5339
F0.9907
F0.011
F82.0
tp1367
a(S'cpvert_4MeV_neg30tilt_115rot_det5.npy'
p1368
F1.1963
F0.0087
F40.7236
F0.2262
F0.7632
F0.006
F129.0
tp1369
a(S'cpvert_4MeV_neg30tilt_115rot_det6.npy'
p1370
F0.8311
F0.0071
F31.0713
F0.1329
F0.5164
F0.0049
F146.0
tp1371
a(S'cpvert_4MeV_neg30tilt_115rot_det7.npy'
p1372
F0.4985
F0.0045
F27.7915
F0.1064
F0.2992
F0.0029
F161.0
tp1373
a(S'cpvert_4MeV_neg30tilt_115rot_det8.npy'
p1374
F0.246
F0.0025
F27.9325
F0.0924
F0.1437
F0.0015
F154.0
tp1375
a(S'cpvert_4MeV_neg30tilt_115rot_det9.npy'
p1376
F0.0946
F0.0011
F25.8535
F0.0822
F0.0585
F0.0007
F158.0
tp1377
a(S'cpvert_4MeV_neg30tilt_135rot_det10.npy'
p1378
F0.095
F0.0012
F24.4989
F0.0925
F0.059
F0.0006
F153.0
tp1379
a(S'cpvert_4MeV_neg30tilt_135rot_det11.npy'
p1380
F0.2456
F0.0026
F29.0253
F0.1074
F0.144
F0.0016
F131.0
tp1381
a(S'cpvert_4MeV_neg30tilt_135rot_det12.npy'
p1382
F0.5126
F0.0044
F28.978
F0.1022
F0.3068
F0.0029
F160.0
tp1383
a(S'cpvert_4MeV_neg30tilt_135rot_det13.npy'
p1384
F0.8473
F0.0074
F34.0062
F0.1255
F0.5241
F0.0051
F158.0
tp1385
a(S'cpvert_4MeV_neg30tilt_135rot_det14.npy'
p1386
F1.2173
F0.0121
F43.6123
F0.268
F0.7705
F0.0083
F106.0
tp1387
a(S'cpvert_4MeV_neg30tilt_135rot_det15.npy'
p1388
F1.5707
F0.0148
F66.912
F0.4737
F1.0043
F0.0107
F82.0
tp1389
a(S'cpvert_4MeV_neg30tilt_135rot_det4.npy'
p1390
F1.5992
F0.0142
F63.7624
F0.4329
F1.0252
F0.0104
F94.0
tp1391
a(S'cpvert_4MeV_neg30tilt_135rot_det5.npy'
p1392
F1.251
F0.0113
F40.169
F0.2355
F0.7893
F0.0079
F95.0
tp1393
a(S'cpvert_4MeV_neg30tilt_135rot_det6.npy'
p1394
F0.8591
F0.0065
F30.9228
F0.1315
F0.5329
F0.0045
F153.0
tp1395
a(S'cpvert_4MeV_neg30tilt_135rot_det7.npy'
p1396
F0.501
F0.0048
F27.7259
F0.099
F0.3016
F0.003
F186.0
tp1397
a(S'cpvert_4MeV_neg30tilt_135rot_det8.npy'
p1398
F0.2407
F0.0027
F27.9912
F0.0926
F0.141
F0.0015
F153.0
tp1399
a(S'cpvert_4MeV_neg30tilt_135rot_det9.npy'
p1400
F0.0931
F0.0015
F25.8843
F0.0896
F0.0581
F0.0009
F120.0
tp1401
a(S'cpvert_4MeV_neg30tilt_15rot_det10.npy'
p1402
F0.0927
F0.0013
F24.3991
F0.1039
F0.0584
F0.0007
F137.0
tp1403
a(S'cpvert_4MeV_neg30tilt_15rot_det11.npy'
p1404
F0.2479
F0.0027
F28.8409
F0.0952
F0.1458
F0.0016
F166.0
tp1405
a(S'cpvert_4MeV_neg30tilt_15rot_det12.npy'
p1406
F0.51
F0.005
F28.8478
F0.1073
F0.306
F0.0033
F139.0
tp1407
a(S'cpvert_4MeV_neg30tilt_15rot_det13.npy'
p1408
F0.8146
F0.0068
F33.5928
F0.1428
F0.504
F0.0046
F152.0
tp1409
a(S'cpvert_4MeV_neg30tilt_15rot_det14.npy'
p1410
F1.1758
F0.0086
F42.7881
F0.1901
F0.7491
F0.0061
F155.0
tp1411
a(S'cpvert_4MeV_neg30tilt_15rot_det15.npy'
p1412
F1.4797
F0.0147
F66.5139
F0.4785
F0.962
F0.0101
F68.0
tp1413
a(S'cpvert_4MeV_neg30tilt_15rot_det4.npy'
p1414
F1.5362
F0.015
F65.1171
F0.5634
F0.9911
F0.0103
F73.0
tp1415
a(S'cpvert_4MeV_neg30tilt_15rot_det5.npy'
p1416
F1.2281
F0.0111
F41.2926
F0.2385
F0.7746
F0.0074
F96.0
tp1417
a(S'cpvert_4MeV_neg30tilt_15rot_det6.npy'
p1418
F0.891
F0.007
F31.5
F0.1489
F0.5478
F0.0049
F134.0
tp1419
a(S'cpvert_4MeV_neg30tilt_15rot_det7.npy'
p1420
F0.5407
F0.0052
F27.7952
F0.1122
F0.3229
F0.0034
F149.0
tp1421
a(S'cpvert_4MeV_neg30tilt_15rot_det8.npy'
p1422
F0.2713
F0.0028
F28.0779
F0.0994
F0.1605
F0.0017
F147.0
tp1423
a(S'cpvert_4MeV_neg30tilt_15rot_det9.npy'
p1424
F0.104
F0.0013
F25.698
F0.0922
F0.0651
F0.0007
F132.0
tp1425
a(S'cpvert_4MeV_neg30tilt_25rot_det10.npy'
p1426
F0.0936
F0.0012
F24.1934
F0.1052
F0.0593
F0.0007
F130.0
tp1427
a(S'cpvert_4MeV_neg30tilt_25rot_det11.npy'
p1428
F0.2436
F0.003
F29.0028
F0.1229
F0.1443
F0.0017
F120.0
tp1429
a(S'cpvert_4MeV_neg30tilt_25rot_det12.npy'
p1430
F0.4953
F0.0045
F28.7364
F0.1121
F0.2972
F0.0029
F157.0
tp1431
a(S'cpvert_4MeV_neg30tilt_25rot_det13.npy'
p1432
F0.8217
F0.0069
F33.4873
F0.1378
F0.5079
F0.0047
F141.0
tp1433
a(S'cpvert_4MeV_neg30tilt_25rot_det14.npy'
p1434
F1.1739
F0.0094
F42.9354
F0.2037
F0.7486
F0.0064
F125.0
tp1435
a(S'cpvert_4MeV_neg30tilt_25rot_det15.npy'
p1436
F1.4838
F0.0151
F66.8395
F0.574
F0.9702
F0.0115
F56.0
tp1437
a(S'cpvert_4MeV_neg30tilt_25rot_det4.npy'
p1438
F1.5305
F0.0145
F65.6419
F0.4667
F0.9889
F0.0103
F71.0
tp1439
a(S'cpvert_4MeV_neg30tilt_25rot_det5.npy'
p1440
F1.2295
F0.0105
F40.5003
F0.216
F0.7809
F0.0071
F106.0
tp1441
a(S'cpvert_4MeV_neg30tilt_25rot_det6.npy'
p1442
F0.8578
F0.007
F31.4945
F0.1487
F0.5279
F0.0048
F147.0
tp1443
a(S'cpvert_4MeV_neg30tilt_25rot_det7.npy'
p1444
F0.5342
F0.0043
F27.8667
F0.108
F0.3203
F0.0028
F128.0
tp1445
a(S'cpvert_4MeV_neg30tilt_25rot_det8.npy'
p1446
F0.2695
F0.0029
F27.9959
F0.0985
F0.1592
F0.0018
F141.0
tp1447
a(S'cpvert_4MeV_neg30tilt_25rot_det9.npy'
p1448
F0.0995
F0.0014
F25.7922
F0.1014
F0.0628
F0.0008
F118.0
tp1449
a(S'cpvert_4MeV_neg30tilt_315rot_det10.npy'
p1450
F0.0929
F0.0013
F24.3107
F0.1061
F0.0578
F0.0007
F128.0
tp1451
a(S'cpvert_4MeV_neg30tilt_315rot_det11.npy'
p1452
F0.2466
F0.0028
F29.0306
F0.1012
F0.1449
F0.0017
F140.0
tp1453
a(S'cpvert_4MeV_neg30tilt_315rot_det12.npy'
p1454
F0.5034
F0.0052
F28.7966
F0.1215
F0.3015
F0.0034
F145.0
tp1455
a(S'cpvert_4MeV_neg30tilt_315rot_det13.npy'
p1456
F0.8563
F0.0075
F33.7308
F0.1557
F0.5289
F0.0051
F116.0
tp1457
a(S'cpvert_4MeV_neg30tilt_315rot_det14.npy'
p1458
F1.2492
F0.0114
F42.9655
F0.2534
F0.784
F0.008
F98.0
tp1459
a(S'cpvert_4MeV_neg30tilt_315rot_det15.npy'
p1460
F1.5542
F0.0193
F66.8762
F0.5632
F0.9948
F0.0141
F56.0
tp1461
a(S'cpvert_4MeV_neg30tilt_315rot_det4.npy'
p1462
F1.5914
F0.0167
F66.8202
F0.5985
F1.0174
F0.0117
F63.0
tp1463
a(S'cpvert_4MeV_neg30tilt_315rot_det5.npy'
p1464
F1.2649
F0.0122
F41.4822
F0.25
F0.8047
F0.0084
F81.0
tp1465
a(S'cpvert_4MeV_neg30tilt_315rot_det6.npy'
p1466
F0.8591
F0.0076
F31.6111
F0.1674
F0.5326
F0.0051
F115.0
tp1467
a(S'cpvert_4MeV_neg30tilt_315rot_det7.npy'
p1468
F0.5218
F0.0049
F27.8627
F0.1045
F0.3135
F0.0034
F142.0
tp1469
a(S'cpvert_4MeV_neg30tilt_315rot_det8.npy'
p1470
F0.2524
F0.0031
F28.1253
F0.109
F0.1489
F0.0019
F130.0
tp1471
a(S'cpvert_4MeV_neg30tilt_315rot_det9.npy'
p1472
F0.0962
F0.0015
F25.8631
F0.1097
F0.0598
F0.0008
F114.0
tp1473
a(S'cpvert_4MeV_neg30tilt_335rot_det10.npy'
p1474
F0.0917
F0.0012
F24.4446
F0.1059
F0.0568
F0.0006
F138.0
tp1475
a(S'cpvert_4MeV_neg30tilt_335rot_det11.npy'
p1476
F0.2481
F0.0029
F28.9562
F0.0983
F0.1438
F0.0017
F146.0
tp1477
a(S'cpvert_4MeV_neg30tilt_335rot_det12.npy'
p1478
F0.4979
F0.0047
F28.725
F0.1049
F0.2979
F0.0031
F164.0
tp1479
a(S'cpvert_4MeV_neg30tilt_335rot_det13.npy'
p1480
F0.8305
F0.007
F33.2179
F0.1221
F0.5161
F0.0048
F130.0
tp1481
a(S'cpvert_4MeV_neg30tilt_335rot_det14.npy'
p1482
F1.1984
F0.01
F42.769
F0.2325
F0.7639
F0.007
F119.0
tp1483
a(S'cpvert_4MeV_neg30tilt_335rot_det15.npy'
p1484
F1.5362
F0.0145
F66.1634
F0.577
F0.9906
F0.0111
F64.0
tp1485
a(S'cpvert_4MeV_neg30tilt_335rot_det4.npy'
p1486
F1.6138
F0.0158
F65.8292
F0.5593
F1.0225
F0.0113
F72.0
tp1487
a(S'cpvert_4MeV_neg30tilt_335rot_det5.npy'
p1488
F1.2975
F0.0091
F41.0513
F0.2523
F0.8161
F0.0062
F102.0
tp1489
a(S'cpvert_4MeV_neg30tilt_335rot_det6.npy'
p1490
F0.8952
F0.0071
F31.521
F0.1317
F0.5508
F0.0046
F132.0
tp1491
a(S'cpvert_4MeV_neg30tilt_335rot_det7.npy'
p1492
F0.5381
F0.0058
F27.8474
F0.1066
F0.3246
F0.0037
F129.0
tp1493
a(S'cpvert_4MeV_neg30tilt_335rot_det8.npy'
p1494
F0.2618
F0.0027
F28.1947
F0.0991
F0.1546
F0.0017
F131.0
tp1495
a(S'cpvert_4MeV_neg30tilt_335rot_det9.npy'
p1496
F0.0986
F0.0014
F25.8208
F0.1167
F0.0614
F0.0008
F109.0
tp1497
a(S'cpvert_4MeV_neg30tilt_345rot_det10.npy'
p1498
F0.09
F0.0011
F24.4599
F0.1031
F0.0564
F0.0006
F155.0
tp1499
a(S'cpvert_4MeV_neg30tilt_345rot_det11.npy'
p1500
F0.2451
F0.0025
F28.9329
F0.099
F0.1438
F0.0015
F153.0
tp1501
a(S'cpvert_4MeV_neg30tilt_345rot_det12.npy'
p1502
F0.5003
F0.0042
F28.7503
F0.1014
F0.2996
F0.0028
F172.0
tp1503
a(S'cpvert_4MeV_neg30tilt_345rot_det13.npy'
p1504
F0.8388
F0.0064
F33.3159
F0.128
F0.519
F0.0044
F154.0
tp1505
a(S'cpvert_4MeV_neg30tilt_345rot_det14.npy'
p1506
F1.1833
F0.0107
F43.2279
F0.2492
F0.7525
F0.0076
F109.0
tp1507
a(S'cpvert_4MeV_neg30tilt_345rot_det15.npy'
p1508
F1.5214
F0.0152
F68.249
F0.5809
F0.9813
F0.0112
F63.0
tp1509
a(S'cpvert_4MeV_neg30tilt_345rot_det4.npy'
p1510
F1.5911
F0.0158
F66.5149
F0.4947
F1.0129
F0.0112
F87.0
tp1511
a(S'cpvert_4MeV_neg30tilt_345rot_det5.npy'
p1512
F1.2863
F0.0117
F41.2719
F0.2205
F0.809
F0.0084
F115.0
tp1513
a(S'cpvert_4MeV_neg30tilt_345rot_det6.npy'
p1514
F0.9117
F0.0068
F31.5639
F0.1278
F0.5602
F0.0046
F146.0
tp1515
a(S'cpvert_4MeV_neg30tilt_345rot_det7.npy'
p1516
F0.5439
F0.005
F27.9142
F0.1006
F0.3276
F0.0031
F158.0
tp1517
a(S'cpvert_4MeV_neg30tilt_345rot_det8.npy'
p1518
F0.2616
F0.0028
F27.93
F0.0928
F0.155
F0.0017
F182.0
tp1519
a(S'cpvert_4MeV_neg30tilt_345rot_det9.npy'
p1520
F0.1003
F0.0014
F25.8693
F0.099
F0.0629
F0.0008
F126.0
tp1521
a(S'cpvert_4MeV_neg30tilt_355rot_det10.npy'
p1522
F0.0934
F0.0013
F24.3268
F0.1003
F0.0582
F0.0007
F143.0
tp1523
a(S'cpvert_4MeV_neg30tilt_355rot_det11.npy'
p1524
F0.2439
F0.0024
F28.7487
F0.0941
F0.143
F0.0015
F152.0
tp1525
a(S'cpvert_4MeV_neg30tilt_355rot_det12.npy'
p1526
F0.4895
F0.0046
F28.6616
F0.1009
F0.2928
F0.003
F170.0
tp1527
a(S'cpvert_4MeV_neg30tilt_355rot_det13.npy'
p1528
F0.8253
F0.0065
F33.5706
F0.1431
F0.5111
F0.0044
F140.0
tp1529
a(S'cpvert_4MeV_neg30tilt_355rot_det14.npy'
p1530
F1.182
F0.0096
F42.9845
F0.2371
F0.7539
F0.0068
F123.0
tp1531
a(S'cpvert_4MeV_neg30tilt_355rot_det15.npy'
p1532
F1.5049
F0.0155
F67.3458
F0.5394
F0.9658
F0.0103
F63.0
tp1533
a(S'cpvert_4MeV_neg30tilt_355rot_det4.npy'
p1534
F1.5947
F0.0178
F65.261
F0.5581
F1.0196
F0.013
F64.0
tp1535
a(S'cpvert_4MeV_neg30tilt_355rot_det5.npy'
p1536
F1.3229
F0.0095
F41.3263
F0.2265
F0.8282
F0.0067
F100.0
tp1537
a(S'cpvert_4MeV_neg30tilt_355rot_det6.npy'
p1538
F0.8974
F0.0078
F31.4126
F0.153
F0.5506
F0.0055
F119.0
tp1539
a(S'cpvert_4MeV_neg30tilt_355rot_det7.npy'
p1540
F0.5384
F0.0056
F27.7343
F0.1151
F0.3227
F0.0035
F145.0
tp1541
a(S'cpvert_4MeV_neg30tilt_355rot_det8.npy'
p1542
F0.2682
F0.0031
F28.0234
F0.0999
F0.1576
F0.0019
F124.0
tp1543
a(S'cpvert_4MeV_neg30tilt_355rot_det9.npy'
p1544
F0.1045
F0.0013
F25.8454
F0.1049
F0.0651
F0.0008
F114.0
tp1545
a(S'cpvert_4MeV_neg30tilt_35rot_det10.npy'
p1546
F0.0951
F0.0013
F24.2572
F0.1026
F0.0601
F0.0007
F125.0
tp1547
a(S'cpvert_4MeV_neg30tilt_35rot_det11.npy'
p1548
F0.2514
F0.0027
F28.7832
F0.1011
F0.1482
F0.0016
F144.0
tp1549
a(S'cpvert_4MeV_neg30tilt_35rot_det12.npy'
p1550
F0.5047
F0.0052
F28.6367
F0.1106
F0.3026
F0.0034
F131.0
tp1551
a(S'cpvert_4MeV_neg30tilt_35rot_det13.npy'
p1552
F0.8486
F0.0072
F33.456
F0.1401
F0.5271
F0.0052
F132.0
tp1553
a(S'cpvert_4MeV_neg30tilt_35rot_det14.npy'
p1554
F1.1662
F0.0107
F43.0505
F0.2191
F0.7438
F0.0075
F111.0
tp1555
a(S'cpvert_4MeV_neg30tilt_35rot_det15.npy'
p1556
F1.4835
F0.0132
F65.9768
F0.5356
F0.9652
F0.0099
F75.0
tp1557
a(S'cpvert_4MeV_neg30tilt_35rot_det4.npy'
p1558
F1.5199
F0.0155
F65.5164
F0.7266
F0.9844
F0.0103
F55.0
tp1559
a(S'cpvert_4MeV_neg30tilt_35rot_det5.npy'
p1560
F1.1858
F0.0104
F41.2634
F0.2162
F0.7549
F0.0074
F116.0
tp1561
a(S'cpvert_4MeV_neg30tilt_35rot_det6.npy'
p1562
F0.8421
F0.0072
F31.5414
F0.144
F0.5197
F0.0049
F158.0
tp1563
a(S'cpvert_4MeV_neg30tilt_35rot_det7.npy'
p1564
F0.5172
F0.0048
F27.884
F0.1158
F0.309
F0.0031
F141.0
tp1565
a(S'cpvert_4MeV_neg30tilt_35rot_det8.npy'
p1566
F0.2577
F0.0028
F27.9496
F0.103
F0.1518
F0.0017
F137.0
tp1567
a(S'cpvert_4MeV_neg30tilt_35rot_det9.npy'
p1568
F0.0999
F0.0013
F25.7541
F0.095
F0.063
F0.0008
F137.0
tp1569
a(S'cpvert_4MeV_neg30tilt_45rot_det10.npy'
p1570
F0.0956
F0.0013
F24.0883
F0.1003
F0.0602
F0.0008
F109.0
tp1571
a(S'cpvert_4MeV_neg30tilt_45rot_det11.npy'
p1572
F0.2536
F0.0029
F28.8512
F0.1109
F0.1498
F0.0017
F128.0
tp1573
a(S'cpvert_4MeV_neg30tilt_45rot_det12.npy'
p1574
F0.5079
F0.0058
F28.9423
F0.1242
F0.3052
F0.0038
F111.0
tp1575
a(S'cpvert_4MeV_neg30tilt_45rot_det13.npy'
p1576
F0.8333
F0.0068
F33.6173
F0.1253
F0.5159
F0.0048
F128.0
tp1577
a(S'cpvert_4MeV_neg30tilt_45rot_det14.npy'
p1578
F1.1838
F0.0113
F43.1181
F0.2487
F0.7527
F0.008
F96.0
tp1579
a(S'cpvert_4MeV_neg30tilt_45rot_det15.npy'
p1580
F1.5141
F0.0183
F66.4075
F0.6528
F0.9822
F0.0125
F40.0
tp1581
a(S'cpvert_4MeV_neg30tilt_45rot_det4.npy'
p1582
F1.4915
F0.0155
F65.7586
F0.6601
F0.9628
F0.0115
F57.0
tp1583
a(S'cpvert_4MeV_neg30tilt_45rot_det5.npy'
p1584
F1.1738
F0.0102
F41.1754
F0.2332
F0.7481
F0.0072
F96.0
tp1585
a(S'cpvert_4MeV_neg30tilt_45rot_det6.npy'
p1586
F0.8464
F0.0072
F31.4225
F0.1519
F0.5222
F0.005
F124.0
tp1587
a(S'cpvert_4MeV_neg30tilt_45rot_det7.npy'
p1588
F0.5078
F0.0055
F28.1344
F0.1163
F0.3023
F0.0036
F126.0
tp1589
a(S'cpvert_4MeV_neg30tilt_45rot_det8.npy'
p1590
F0.2576
F0.0028
F28.075
F0.1052
F0.1512
F0.0017
F151.0
tp1591
a(S'cpvert_4MeV_neg30tilt_45rot_det9.npy'
p1592
F0.1009
F0.0014
F25.9228
F0.0976
F0.0628
F0.0008
F124.0
tp1593
a(S'cpvert_4MeV_neg30tilt_55rot_det10.npy'
p1594
F0.0957
F0.0012
F24.481
F0.1198
F0.0604
F0.0007
F118.0
tp1595
a(S'cpvert_4MeV_neg30tilt_55rot_det11.npy'
p1596
F0.2548
F0.003
F28.5997
F0.1018
F0.1506
F0.0019
F140.0
tp1597
a(S'cpvert_4MeV_neg30tilt_55rot_det12.npy'
p1598
F0.5254
F0.0048
F28.6365
F0.1162
F0.3162
F0.0031
F135.0
tp1599
a(S'cpvert_4MeV_neg30tilt_55rot_det13.npy'
p1600
F0.8513
F0.0079
F33.7604
F0.1426
F0.5259
F0.0052
F136.0
tp1601
a(S'cpvert_4MeV_neg30tilt_55rot_det14.npy'
p1602
F1.2113
F0.0109
F43.3615
F0.2505
F0.7724
F0.0078
F106.0
tp1603
a(S'cpvert_4MeV_neg30tilt_55rot_det15.npy'
p1604
F1.5263
F0.0141
F66.6619
F0.5514
F0.9893
F0.0103
F72.0
tp1605
a(S'cpvert_4MeV_neg30tilt_55rot_det4.npy'
p1606
F1.4982
F0.0139
F65.3582
F0.5793
F0.971
F0.0101
F63.0
tp1607
a(S'cpvert_4MeV_neg30tilt_55rot_det5.npy'
p1608
F1.1768
F0.0104
F41.0921
F0.2587
F0.7494
F0.0074
F91.0
tp1609
a(S'cpvert_4MeV_neg30tilt_55rot_det6.npy'
p1610
F0.8285
F0.0073
F31.6467
F0.1425
F0.513
F0.005
F125.0
tp1611
a(S'cpvert_4MeV_neg30tilt_55rot_det7.npy'
p1612
F0.5029
F0.0048
F28.1094
F0.1109
F0.2997
F0.0031
F144.0
tp1613
a(S'cpvert_4MeV_neg30tilt_55rot_det8.npy'
p1614
F0.2539
F0.0029
F28.1011
F0.1023
F0.1483
F0.0018
F129.0
tp1615
a(S'cpvert_4MeV_neg30tilt_55rot_det9.npy'
p1616
F0.0966
F0.0013
F25.7791
F0.1014
F0.0611
F0.0007
F134.0
tp1617
a(S'cpvert_4MeV_neg30tilt_5rot_det10.npy'
p1618
F0.0949
F0.0014
F24.5486
F0.1044
F0.0591
F0.0007
F112.0
tp1619
a(S'cpvert_4MeV_neg30tilt_5rot_det11.npy'
p1620
F0.2455
F0.0029
F28.8395
F0.1059
F0.1447
F0.0017
F134.0
tp1621
a(S'cpvert_4MeV_neg30tilt_5rot_det12.npy'
p1622
F0.4963
F0.0049
F28.5589
F0.1306
F0.2964
F0.0032
F137.0
tp1623
a(S'cpvert_4MeV_neg30tilt_5rot_det13.npy'
p1624
F0.8119
F0.007
F33.8582
F0.1551
F0.5014
F0.0047
F126.0
tp1625
a(S'cpvert_4MeV_neg30tilt_5rot_det14.npy'
p1626
F1.154
F0.0103
F43.092
F0.2279
F0.7356
F0.0074
F110.0
tp1627
a(S'cpvert_4MeV_neg30tilt_5rot_det15.npy'
p1628
F1.4833
F0.0176
F66.2789
F0.6132
F0.9592
F0.0122
F57.0
tp1629
a(S'cpvert_4MeV_neg30tilt_5rot_det4.npy'
p1630
F1.5451
F0.0154
F65.6053
F0.6261
F0.9912
F0.0111
F64.0
tp1631
a(S'cpvert_4MeV_neg30tilt_5rot_det5.npy'
p1632
F1.2513
F0.0113
F40.7936
F0.2357
F0.7872
F0.0077
F99.0
tp1633
a(S'cpvert_4MeV_neg30tilt_5rot_det6.npy'
p1634
F0.8975
F0.0074
F31.3981
F0.1392
F0.5485
F0.0049
F126.0
tp1635
a(S'cpvert_4MeV_neg30tilt_5rot_det7.npy'
p1636
F0.547
F0.0048
F27.7405
F0.1044
F0.3259
F0.003
F149.0
tp1637
a(S'cpvert_4MeV_neg30tilt_5rot_det8.npy'
p1638
F0.2606
F0.0032
F28.0009
F0.1063
F0.1538
F0.0019
F125.0
tp1639
a(S'cpvert_4MeV_neg30tilt_5rot_det9.npy'
p1640
F0.1007
F0.0014
F25.8726
F0.1096
F0.0629
F0.0008
F118.0
tp1641
a(S'cpvert_4MeV_neg30tilt_75rot_det10.npy'
p1642
F0.1001
F0.0013
F24.362
F0.1112
F0.0626
F0.0007
F134.0
tp1643
a(S'cpvert_4MeV_neg30tilt_75rot_det11.npy'
p1644
F0.2621
F0.0029
F28.7394
F0.1086
F0.1546
F0.0017
F143.0
tp1645
a(S'cpvert_4MeV_neg30tilt_75rot_det12.npy'
p1646
F0.5367
F0.0052
F28.7725
F0.1066
F0.3214
F0.0035
F133.0
tp1647
a(S'cpvert_4MeV_neg30tilt_75rot_det13.npy'
p1648
F0.8923
F0.0073
F33.6213
F0.1412
F0.5521
F0.0048
F134.0
tp1649
a(S'cpvert_4MeV_neg30tilt_75rot_det14.npy'
p1650
F1.2212
F0.0134
F43.4335
F0.2387
F0.7707
F0.0092
F107.0
tp1651
a(S'cpvert_4MeV_neg30tilt_75rot_det15.npy'
p1652
F1.5646
F0.0157
F66.5002
F0.4922
F1.014
F0.011
F78.0
tp1653
a(S'cpvert_4MeV_neg30tilt_75rot_det4.npy'
p1654
F1.4984
F0.0149
F64.0369
F0.5875
F0.9726
F0.0104
F70.0
tp1655
a(S'cpvert_4MeV_neg30tilt_75rot_det5.npy'
p1656
F1.1629
F0.0102
F41.4186
F0.244
F0.7403
F0.0072
F97.0
tp1657
a(S'cpvert_4MeV_neg30tilt_75rot_det6.npy'
p1658
F0.8118
F0.0075
F31.5812
F0.1493
F0.5015
F0.0051
F128.0
tp1659
a(S'cpvert_4MeV_neg30tilt_75rot_det7.npy'
p1660
F0.4905
F0.0044
F27.7715
F0.1035
F0.2938
F0.0028
F162.0
tp1661
a(S'cpvert_4MeV_neg30tilt_75rot_det8.npy'
p1662
F0.2452
F0.0027
F28.2467
F0.0919
F0.1431
F0.0016
F151.0
tp1663
a(S'cpvert_4MeV_neg30tilt_75rot_det9.npy'
p1664
F0.0944
F0.0012
F25.7766
F0.0917
F0.0593
F0.0007
F136.0
tp1665
a(S'cpvert_4MeV_neg30tilt_95rot_det10.npy'
p1666
F0.0949
F0.0012
F24.2499
F0.0961
F0.0598
F0.0007
F138.0
tp1667
a(S'cpvert_4MeV_neg30tilt_95rot_det11.npy'
p1668
F0.254
F0.0029
F29.1173
F0.102
F0.1504
F0.0018
F129.0
tp1669
a(S'cpvert_4MeV_neg30tilt_95rot_det12.npy'
p1670
F0.5271
F0.005
F28.9023
F0.1095
F0.3148
F0.0031
F156.0
tp1671
a(S'cpvert_4MeV_neg30tilt_95rot_det13.npy'
p1672
F0.8814
F0.0076
F33.8035
F0.1488
F0.5381
F0.0051
F145.0
tp1673
a(S'cpvert_4MeV_neg30tilt_95rot_det14.npy'
p1674
F1.2591
F0.0117
F43.0075
F0.2582
F0.7881
F0.0077
F100.0
tp1675
a(S'cpvert_4MeV_neg30tilt_95rot_det15.npy'
p1676
F1.5886
F0.0177
F65.6442
F0.5548
F1.0151
F0.013
F65.0
tp1677
a(S'cpvert_4MeV_neg30tilt_95rot_det4.npy'
p1678
F1.5344
F0.0135
F65.2689
F0.5004
F0.9975
F0.01
F82.0
tp1679
a(S'cpvert_4MeV_neg30tilt_95rot_det5.npy'
p1680
F1.1786
F0.0108
F41.032
F0.2216
F0.7497
F0.0075
F103.0
tp1681
a(S'cpvert_4MeV_neg30tilt_95rot_det6.npy'
p1682
F0.8249
F0.0062
F31.4285
F0.1459
F0.5095
F0.0044
F144.0
tp1683
a(S'cpvert_4MeV_neg30tilt_95rot_det7.npy'
p1684
F0.4838
F0.0052
F27.8206
F0.1069
F0.2892
F0.0033
F145.0
tp1685
a(S'cpvert_4MeV_neg30tilt_95rot_det8.npy'
p1686
F0.2469
F0.0031
F27.9739
F0.1114
F0.1452
F0.0018
F120.0
tp1687
a(S'cpvert_4MeV_neg30tilt_95rot_det9.npy'
p1688
F0.0942
F0.0013
F25.9214
F0.0924
F0.0583
F0.0007
F132.0
tp1689
a.