(lp0
(S'filename'
p1
S'ql_mean'
p2
S'ql_abs_uncert'
p3
S'tof_mean'
p4
S'tof_abs_uncert'
p5
S'qs_mean'
p6
S'qs_abs_uncert'
p7
S'counts'
p8
tp9
a(S'cpvert_11MeV_0tilt_105rot_det10.npy'
p10
F0.2911
F0.0033
F15.9072
F0.0396
F0.17
F0.0019
F179.0
tp11
a(S'cpvert_11MeV_0tilt_105rot_det11.npy'
p12
F0.9001
F0.0072
F20.0664
F0.0348
F0.5479
F0.005
F145.0
tp13
a(S'cpvert_11MeV_0tilt_105rot_det12.npy'
p14
F1.8276
F0.0089
F19.107
F0.0368
F1.1666
F0.0063
F209.0
tp15
a(S'cpvert_11MeV_0tilt_105rot_det13.npy'
p16
F2.9659
F0.0121
F22.3206
F0.0634
F1.9581
F0.0092
F175.0
tp17
a(S'cpvert_11MeV_0tilt_105rot_det14.npy'
p18
F4.1556
F0.0146
F27.0627
F0.0987
F2.7966
F0.0111
F153.0
tp19
a(S'cpvert_11MeV_0tilt_105rot_det15.npy'
p20
F5.1065
F0.0209
F41.6691
F0.3076
F3.4844
F0.0184
F76.0
tp21
a(S'cpvert_11MeV_0tilt_105rot_det4.npy'
p22
F5.0136
F0.0141
F40.4803
F0.2728
F3.4805
F0.0135
F91.0
tp23
a(S'cpvert_11MeV_0tilt_105rot_det5.npy'
p24
F4.032
F0.0118
F25.0451
F0.1096
F2.7718
F0.0098
F139.0
tp25
a(S'cpvert_11MeV_0tilt_105rot_det6.npy'
p26
F2.8405
F0.0124
F19.7628
F0.0602
F1.9137
F0.01
F146.0
tp27
a(S'cpvert_11MeV_0tilt_105rot_det7.npy'
p28
F1.7465
F0.0103
F17.9838
F0.0424
F1.1326
F0.0072
F173.0
tp29
a(S'cpvert_11MeV_0tilt_105rot_det8.npy'
p30
F0.8593
F0.0071
F19.3297
F0.0312
F0.529
F0.0047
F169.0
tp31
a(S'cpvert_11MeV_0tilt_105rot_det9.npy'
p32
F0.2909
F0.0036
F17.832
F0.0422
F0.1683
F0.0022
F171.0
tp33
a(S'cpvert_11MeV_0tilt_115rot_det10.npy'
p34
F0.2946
F0.0037
F15.8875
F0.0374
F0.1714
F0.0021
F171.0
tp35
a(S'cpvert_11MeV_0tilt_115rot_det11.npy'
p36
F0.879
F0.0071
F20.1189
F0.0352
F0.5381
F0.0047
F174.0
tp37
a(S'cpvert_11MeV_0tilt_115rot_det12.npy'
p38
F1.8211
F0.0105
F19.0981
F0.0439
F1.1683
F0.0076
F156.0
tp39
a(S'cpvert_11MeV_0tilt_115rot_det13.npy'
p40
F2.9571
F0.0115
F22.3809
F0.0625
F1.9585
F0.009
F152.0
tp41
a(S'cpvert_11MeV_0tilt_115rot_det14.npy'
p42
F4.157
F0.0134
F27.1352
F0.1086
F2.8064
F0.0108
F129.0
tp43
a(S'cpvert_11MeV_0tilt_115rot_det15.npy'
p44
F5.1564
F0.0145
F41.7519
F0.271
F3.5169
F0.0128
F88.0
tp45
a(S'cpvert_11MeV_0tilt_115rot_det4.npy'
p46
F5.0575
F0.0141
F40.2514
F0.2883
F3.508
F0.0126
F86.0
tp47
a(S'cpvert_11MeV_0tilt_115rot_det5.npy'
p48
F4.0261
F0.015
F24.8755
F0.1046
F2.7652
F0.0118
F117.0
tp49
a(S'cpvert_11MeV_0tilt_115rot_det6.npy'
p50
F2.838
F0.0125
F19.713
F0.0587
F1.9102
F0.0096
F144.0
tp51
a(S'cpvert_11MeV_0tilt_115rot_det7.npy'
p52
F1.7388
F0.0098
F17.9254
F0.0405
F1.1224
F0.007
F178.0
tp53
a(S'cpvert_11MeV_0tilt_115rot_det8.npy'
p54
F0.8371
F0.0081
F19.3009
F0.036
F0.5131
F0.0051
F132.0
tp55
a(S'cpvert_11MeV_0tilt_115rot_det9.npy'
p56
F0.2909
F0.0035
F17.8543
F0.0412
F0.1687
F0.002
F167.0
tp57
a(S'cpvert_11MeV_0tilt_125rot_det10.npy'
p58
F0.295
F0.0036
F15.9349
F0.0401
F0.1706
F0.0021
F161.0
tp59
a(S'cpvert_11MeV_0tilt_125rot_det11.npy'
p60
F0.871
F0.0061
F20.0664
F0.0299
F0.5355
F0.0042
F170.0
tp61
a(S'cpvert_11MeV_0tilt_125rot_det12.npy'
p62
F1.8197
F0.0092
F19.1613
F0.0429
F1.1711
F0.0067
F164.0
tp63
a(S'cpvert_11MeV_0tilt_125rot_det13.npy'
p64
F2.9367
F0.0119
F22.319
F0.0646
F1.9531
F0.0092
F155.0
tp65
a(S'cpvert_11MeV_0tilt_125rot_det14.npy'
p66
F4.1112
F0.0133
F27.057
F0.1024
F2.789
F0.0114
F146.0
tp67
a(S'cpvert_11MeV_0tilt_125rot_det15.npy'
p68
F5.1764
F0.0174
F41.932
F0.3085
F3.5453
F0.016
F82.0
tp69
a(S'cpvert_11MeV_0tilt_125rot_det4.npy'
p70
F5.0655
F0.0137
F39.9145
F0.2649
F3.5047
F0.0124
F92.0
tp71
a(S'cpvert_11MeV_0tilt_125rot_det5.npy'
p72
F4.0559
F0.0133
F25.1352
F0.1048
F2.7732
F0.0104
F146.0
tp73
a(S'cpvert_11MeV_0tilt_125rot_det6.npy'
p74
F2.874
F0.011
F19.7194
F0.0562
F1.9275
F0.0087
F152.0
tp75
a(S'cpvert_11MeV_0tilt_125rot_det7.npy'
p76
F1.726
F0.0103
F18.0048
F0.0428
F1.1113
F0.0072
F153.0
tp77
a(S'cpvert_11MeV_0tilt_125rot_det8.npy'
p78
F0.8482
F0.0066
F19.3197
F0.0373
F0.5179
F0.0045
F170.0
tp79
a(S'cpvert_11MeV_0tilt_125rot_det9.npy'
p80
F0.2909
F0.0035
F17.8289
F0.0371
F0.1689
F0.002
F170.0
tp81
a(S'cpvert_11MeV_0tilt_135rot_det10.npy'
p82
F0.2907
F0.0036
F15.8757
F0.0377
F0.169
F0.0021
F165.0
tp83
a(S'cpvert_11MeV_0tilt_135rot_det11.npy'
p84
F0.8682
F0.0066
F20.0358
F0.0319
F0.5296
F0.0044
F181.0
tp85
a(S'cpvert_11MeV_0tilt_135rot_det12.npy'
p86
F1.7735
F0.0095
F19.094
F0.0408
F1.1433
F0.0069
F153.0
tp87
a(S'cpvert_11MeV_0tilt_135rot_det13.npy'
p88
F2.9193
F0.0116
F22.41
F0.0608
F1.9473
F0.0091
F175.0
tp89
a(S'cpvert_11MeV_0tilt_135rot_det14.npy'
p90
F4.107
F0.0126
F27.1747
F0.0992
F2.8047
F0.0108
F142.0
tp91
a(S'cpvert_11MeV_0tilt_135rot_det15.npy'
p92
F5.116
F0.0134
F42.045
F0.2728
F3.5096
F0.0138
F83.0
tp93
a(S'cpvert_11MeV_0tilt_135rot_det4.npy'
p94
F5.1128
F0.0182
F40.4193
F0.3123
F3.5043
F0.019
F59.0
tp95
a(S'cpvert_11MeV_0tilt_135rot_det5.npy'
p96
F4.0948
F0.0123
F25.0627
F0.0983
F2.7773
F0.0095
F154.0
tp97
a(S'cpvert_11MeV_0tilt_135rot_det6.npy'
p98
F2.863
F0.0126
F19.7173
F0.0602
F1.9097
F0.0101
F161.0
tp99
a(S'cpvert_11MeV_0tilt_135rot_det7.npy'
p100
F1.7503
F0.0096
F17.9014
F0.0416
F1.1287
F0.0069
F182.0
tp101
a(S'cpvert_11MeV_0tilt_135rot_det8.npy'
p102
F0.8624
F0.0072
F19.3802
F0.0362
F0.5261
F0.0048
F163.0
tp103
a(S'cpvert_11MeV_0tilt_135rot_det9.npy'
p104
F0.2888
F0.0032
F17.7694
F0.0374
F0.1679
F0.0019
F178.0
tp105
a(S'cpvert_11MeV_0tilt_145rot_det10.npy'
p106
F0.2971
F0.0033
F15.9428
F0.0336
F0.1716
F0.0019
F207.0
tp107
a(S'cpvert_11MeV_0tilt_145rot_det11.npy'
p108
F0.8632
F0.0068
F20.1027
F0.037
F0.5305
F0.0048
F145.0
tp109
a(S'cpvert_11MeV_0tilt_145rot_det12.npy'
p110
F1.7513
F0.0102
F19.1275
F0.0431
F1.1305
F0.0074
F161.0
tp111
a(S'cpvert_11MeV_0tilt_145rot_det13.npy'
p112
F2.9133
F0.0108
F22.4586
F0.0533
F1.9536
F0.0083
F170.0
tp113
a(S'cpvert_11MeV_0tilt_145rot_det14.npy'
p114
F4.0581
F0.0151
F27.3181
F0.1255
F2.773
F0.0126
F114.0
tp115
a(S'cpvert_11MeV_0tilt_145rot_det15.npy'
p116
F5.0758
F0.0157
F41.8558
F0.2595
F3.519
F0.0159
F74.0
tp117
a(S'cpvert_11MeV_0tilt_145rot_det4.npy'
p118
F5.1323
F0.0162
F39.8268
F0.2673
F3.5197
F0.014
F89.0
tp119
a(S'cpvert_11MeV_0tilt_145rot_det5.npy'
p120
F4.1267
F0.0136
F25.1129
F0.1071
F2.7951
F0.011
F124.0
tp121
a(S'cpvert_11MeV_0tilt_145rot_det6.npy'
p122
F2.9251
F0.0117
F19.6487
F0.0669
F1.9392
F0.0086
F145.0
tp123
a(S'cpvert_11MeV_0tilt_145rot_det7.npy'
p124
F1.7655
F0.0096
F17.8458
F0.0391
F1.1352
F0.0074
F189.0
tp125
a(S'cpvert_11MeV_0tilt_145rot_det8.npy'
p126
F0.8539
F0.0066
F19.2792
F0.0311
F0.5222
F0.0044
F190.0
tp127
a(S'cpvert_11MeV_0tilt_145rot_det9.npy'
p128
F0.2891
F0.0033
F17.7894
F0.0404
F0.168
F0.002
F180.0
tp129
a(S'cpvert_11MeV_0tilt_15rot_det10.npy'
p130
F0.3016
F0.0033
F15.9452
F0.0334
F0.1759
F0.002
F189.0
tp131
a(S'cpvert_11MeV_0tilt_15rot_det11.npy'
p132
F0.8717
F0.0069
F20.0203
F0.0338
F0.5326
F0.0048
F152.0
tp133
a(S'cpvert_11MeV_0tilt_15rot_det12.npy'
p134
F1.7655
F0.0104
F19.0539
F0.0449
F1.1404
F0.0074
F160.0
tp135
a(S'cpvert_11MeV_0tilt_15rot_det13.npy'
p136
F2.9332
F0.013
F22.508
F0.0659
F1.9759
F0.0098
F141.0
tp137
a(S'cpvert_11MeV_0tilt_15rot_det14.npy'
p138
F4.0248
F0.014
F27.3355
F0.1094
F2.7846
F0.0117
F137.0
tp139
a(S'cpvert_11MeV_0tilt_15rot_det15.npy'
p140
F5.034
F0.017
F42.4885
F0.2935
F3.5196
F0.0161
F74.0
tp141
a(S'cpvert_11MeV_0tilt_15rot_det4.npy'
p142
F5.0894
F0.0177
F40.5929
F0.336
F3.5262
F0.0192
F74.0
tp143
a(S'cpvert_11MeV_0tilt_15rot_det5.npy'
p144
F4.1263
F0.0141
F25.1311
F0.108
F2.8134
F0.0126
F118.0
tp145
a(S'cpvert_11MeV_0tilt_15rot_det6.npy'
p146
F2.9521
F0.0128
F19.6915
F0.0654
F1.9534
F0.0094
F157.0
tp147
a(S'cpvert_11MeV_0tilt_15rot_det7.npy'
p148
F1.8264
F0.0106
F17.8553
F0.0469
F1.1669
F0.0075
F164.0
tp149
a(S'cpvert_11MeV_0tilt_15rot_det8.npy'
p150
F0.9089
F0.0075
F19.1932
F0.0348
F0.5511
F0.0049
F172.0
tp151
a(S'cpvert_11MeV_0tilt_15rot_det9.npy'
p152
F0.31
F0.0041
F17.733
F0.0366
F0.1804
F0.0023
F154.0
tp153
a(S'cpvert_11MeV_0tilt_25rot_det10.npy'
p154
F0.2968
F0.0035
F15.8378
F0.0459
F0.173
F0.0021
F168.0
tp155
a(S'cpvert_11MeV_0tilt_25rot_det11.npy'
p156
F0.8643
F0.0067
F20.0248
F0.035
F0.5279
F0.0044
F155.0
tp157
a(S'cpvert_11MeV_0tilt_25rot_det12.npy'
p158
F1.7815
F0.0098
F19.1278
F0.046
F1.146
F0.007
F146.0
tp159
a(S'cpvert_11MeV_0tilt_25rot_det13.npy'
p160
F2.8672
F0.0119
F22.1531
F0.0605
F1.9207
F0.009
F151.0
tp161
a(S'cpvert_11MeV_0tilt_25rot_det14.npy'
p162
F4.0115
F0.0145
F27.0686
F0.1136
F2.768
F0.0104
F136.0
tp163
a(S'cpvert_11MeV_0tilt_25rot_det15.npy'
p164
F5.0069
F0.0155
F41.8908
F0.2856
F3.5244
F0.0134
F71.0
tp165
a(S'cpvert_11MeV_0tilt_25rot_det4.npy'
p166
F5.0376
F0.0136
F40.1251
F0.2458
F3.494
F0.0118
F84.0
tp167
a(S'cpvert_11MeV_0tilt_25rot_det5.npy'
p168
F4.11
F0.0147
F25.1677
F0.116
F2.8151
F0.0118
F123.0
tp169
a(S'cpvert_11MeV_0tilt_25rot_det6.npy'
p170
F2.9522
F0.0121
F19.7135
F0.0625
F1.9543
F0.0092
F137.0
tp171
a(S'cpvert_11MeV_0tilt_25rot_det7.npy'
p172
F1.8096
F0.0093
F17.9071
F0.0452
F1.1487
F0.0067
F154.0
tp173
a(S'cpvert_11MeV_0tilt_25rot_det8.npy'
p174
F0.8907
F0.0069
F19.269
F0.0332
F0.5409
F0.0045
F159.0
tp175
a(S'cpvert_11MeV_0tilt_25rot_det9.npy'
p176
F0.3075
F0.0039
F17.6405
F0.0416
F0.1808
F0.0023
F177.0
tp177
a(S'cpvert_11MeV_0tilt_315rot_det10.npy'
p178
F0.3011
F0.0033
F15.8579
F0.0339
F0.1757
F0.0019
F198.0
tp179
a(S'cpvert_11MeV_0tilt_315rot_det11.npy'
p180
F0.8857
F0.0073
F20.0824
F0.0355
F0.5421
F0.0049
F167.0
tp181
a(S'cpvert_11MeV_0tilt_315rot_det12.npy'
p182
F1.8029
F0.0097
F19.061
F0.0436
F1.1587
F0.0071
F166.0
tp183
a(S'cpvert_11MeV_0tilt_315rot_det13.npy'
p184
F2.9526
F0.0135
F22.2546
F0.0547
F1.9688
F0.0105
F158.0
tp185
a(S'cpvert_11MeV_0tilt_315rot_det14.npy'
p186
F4.1285
F0.0135
F26.8823
F0.1211
F2.806
F0.0109
F121.0
tp187
a(S'cpvert_11MeV_0tilt_315rot_det15.npy'
p188
F5.1921
F0.0157
F42.0419
F0.2761
F3.5732
F0.0151
F84.0
tp189
a(S'cpvert_11MeV_0tilt_315rot_det4.npy'
p190
F5.186
F0.0186
F40.0289
F0.2436
F3.5512
F0.0157
F91.0
tp191
a(S'cpvert_11MeV_0tilt_315rot_det5.npy'
p192
F4.1461
F0.0128
F25.1592
F0.111
F2.8185
F0.0106
F145.0
tp193
a(S'cpvert_11MeV_0tilt_315rot_det6.npy'
p194
F2.9558
F0.0128
F19.7621
F0.057
F1.9716
F0.0097
F158.0
tp195
a(S'cpvert_11MeV_0tilt_315rot_det7.npy'
p196
F1.7801
F0.0106
F17.8869
F0.0459
F1.1414
F0.0072
F169.0
tp197
a(S'cpvert_11MeV_0tilt_315rot_det8.npy'
p198
F0.8633
F0.0066
F19.2312
F0.0305
F0.5272
F0.0046
F179.0
tp199
a(S'cpvert_11MeV_0tilt_315rot_det9.npy'
p200
F0.2976
F0.0041
F17.7471
F0.0401
F0.1724
F0.0024
F147.0
tp201
a(S'cpvert_11MeV_0tilt_325rot_det10.npy'
p202
F0.3004
F0.0037
F15.8577
F0.037
F0.1733
F0.0021
F168.0
tp203
a(S'cpvert_11MeV_0tilt_325rot_det11.npy'
p204
F0.8832
F0.0076
F20.0932
F0.033
F0.5383
F0.0049
F161.0
tp205
a(S'cpvert_11MeV_0tilt_325rot_det12.npy'
p206
F1.7929
F0.0092
F19.1457
F0.0412
F1.1548
F0.0067
F163.0
tp207
a(S'cpvert_11MeV_0tilt_325rot_det13.npy'
p208
F2.8999
F0.0118
F22.1958
F0.0552
F1.9412
F0.0092
F180.0
tp209
a(S'cpvert_11MeV_0tilt_325rot_det14.npy'
p210
F4.1066
F0.0122
F27.0393
F0.1053
F2.8177
F0.0099
F152.0
tp211
a(S'cpvert_11MeV_0tilt_325rot_det15.npy'
p212
F5.1738
F0.0146
F41.9644
F0.2807
F3.5597
F0.0126
F81.0
tp213
a(S'cpvert_11MeV_0tilt_325rot_det4.npy'
p214
F5.2314
F0.0191
F40.2083
F0.3333
F3.5761
F0.0158
F60.0
tp215
a(S'cpvert_11MeV_0tilt_325rot_det5.npy'
p216
F4.1447
F0.0125
F24.9359
F0.1006
F2.7965
F0.0107
F145.0
tp217
a(S'cpvert_11MeV_0tilt_325rot_det6.npy'
p218
F2.9521
F0.0127
F19.7241
F0.0617
F1.9526
F0.0096
F163.0
tp219
a(S'cpvert_11MeV_0tilt_325rot_det7.npy'
p220
F1.795
F0.0114
F17.9538
F0.0428
F1.1485
F0.008
F158.0
tp221
a(S'cpvert_11MeV_0tilt_325rot_det8.npy'
p222
F0.8844
F0.0066
F19.273
F0.032
F0.5385
F0.0044
F166.0
tp223
a(S'cpvert_11MeV_0tilt_325rot_det9.npy'
p224
F0.2959
F0.0036
F17.8051
F0.0369
F0.171
F0.0021
F168.0
tp225
a(S'cpvert_11MeV_0tilt_335rot_det10.npy'
p226
F0.2993
F0.0039
F15.9434
F0.0388
F0.1734
F0.0023
F163.0
tp227
a(S'cpvert_11MeV_0tilt_335rot_det11.npy'
p228
F0.8645
F0.0063
F20.0905
F0.0319
F0.5276
F0.0042
F189.0
tp229
a(S'cpvert_11MeV_0tilt_335rot_det12.npy'
p230
F1.8168
F0.0093
F19.1989
F0.0376
F1.1779
F0.0071
F161.0
tp231
a(S'cpvert_11MeV_0tilt_335rot_det13.npy'
p232
F2.9223
F0.0117
F22.3812
F0.0657
F1.9623
F0.0093
F162.0
tp233
a(S'cpvert_11MeV_0tilt_335rot_det14.npy'
p234
F4.1127
F0.0129
F27.088
F0.1043
F2.8217
F0.0113
F118.0
tp235
a(S'cpvert_11MeV_0tilt_335rot_det15.npy'
p236
F5.1156
F0.0154
F41.6955
F0.3121
F3.5586
F0.0148
F55.0
tp237
a(S'cpvert_11MeV_0tilt_335rot_det4.npy'
p238
F5.2164
F0.0147
F40.1046
F0.2713
F3.562
F0.0128
F92.0
tp239
a(S'cpvert_11MeV_0tilt_335rot_det5.npy'
p240
F4.1832
F0.0149
F24.8925
F0.1129
F2.8259
F0.0116
F131.0
tp241
a(S'cpvert_11MeV_0tilt_335rot_det6.npy'
p242
F2.9906
F0.0105
F19.6832
F0.0578
F1.9732
F0.0081
F176.0
tp243
a(S'cpvert_11MeV_0tilt_335rot_det7.npy'
p244
F1.807
F0.0106
F17.9094
F0.0437
F1.155
F0.0075
F156.0
tp245
a(S'cpvert_11MeV_0tilt_335rot_det8.npy'
p246
F0.8747
F0.0074
F19.306
F0.0355
F0.5334
F0.005
F170.0
tp247
a(S'cpvert_11MeV_0tilt_335rot_det9.npy'
p248
F0.2977
F0.0038
F17.7614
F0.0434
F0.173
F0.0022
F152.0
tp249
a(S'cpvert_11MeV_0tilt_345rot_det10.npy'
p250
F0.3035
F0.0036
F15.9795
F0.041
F0.1751
F0.0021
F161.0
tp251
a(S'cpvert_11MeV_0tilt_345rot_det11.npy'
p252
F0.8636
F0.0082
F20.1049
F0.0373
F0.5278
F0.0055
F122.0
tp253
a(S'cpvert_11MeV_0tilt_345rot_det12.npy'
p254
F1.7623
F0.0099
F19.084
F0.0419
F1.1379
F0.0073
F154.0
tp255
a(S'cpvert_11MeV_0tilt_345rot_det13.npy'
p256
F2.8902
F0.011
F22.405
F0.0629
F1.9423
F0.0083
F174.0
tp257
a(S'cpvert_11MeV_0tilt_345rot_det14.npy'
p258
F4.0457
F0.0147
F26.9721
F0.1045
F2.787
F0.0123
F132.0
tp259
a(S'cpvert_11MeV_0tilt_345rot_det15.npy'
p260
F5.0778
F0.0159
F41.5861
F0.3091
F3.5308
F0.0143
F76.0
tp261
a(S'cpvert_11MeV_0tilt_345rot_det4.npy'
p262
F5.1961
F0.0167
F40.3931
F0.2581
F3.5535
F0.0141
F88.0
tp263
a(S'cpvert_11MeV_0tilt_345rot_det5.npy'
p264
F4.1689
F0.0135
F25.0215
F0.0969
F2.8082
F0.0099
F156.0
tp265
a(S'cpvert_11MeV_0tilt_345rot_det6.npy'
p266
F2.9992
F0.0116
F19.8131
F0.0607
F1.9681
F0.0081
F177.0
tp267
a(S'cpvert_11MeV_0tilt_345rot_det7.npy'
p268
F1.8007
F0.0117
F17.8421
F0.0451
F1.1446
F0.008
F166.0
tp269
a(S'cpvert_11MeV_0tilt_345rot_det8.npy'
p270
F0.872
F0.0073
F19.2096
F0.034
F0.5294
F0.0048
F164.0
tp271
a(S'cpvert_11MeV_0tilt_345rot_det9.npy'
p272
F0.3022
F0.0037
F17.7609
F0.0425
F0.1744
F0.0023
F151.0
tp273
a(S'cpvert_11MeV_0tilt_355rot_det10.npy'
p274
F0.2922
F0.0034
F15.8424
F0.0398
F0.1693
F0.002
F181.0
tp275
a(S'cpvert_11MeV_0tilt_355rot_det11.npy'
p276
F0.8708
F0.0073
F20.0929
F0.0318
F0.5317
F0.005
F157.0
tp277
a(S'cpvert_11MeV_0tilt_355rot_det12.npy'
p278
F1.7801
F0.0101
F19.2125
F0.0431
F1.1531
F0.0073
F169.0
tp279
a(S'cpvert_11MeV_0tilt_355rot_det13.npy'
p280
F2.9197
F0.0115
F22.497
F0.0602
F1.9662
F0.0092
F187.0
tp281
a(S'cpvert_11MeV_0tilt_355rot_det14.npy'
p282
F4.02
F0.0134
F26.9044
F0.1072
F2.7644
F0.0114
F122.0
tp283
a(S'cpvert_11MeV_0tilt_355rot_det15.npy'
p284
F5.0626
F0.014
F41.8891
F0.2738
F3.5358
F0.0126
F90.0
tp285
a(S'cpvert_11MeV_0tilt_355rot_det4.npy'
p286
F5.1765
F0.0153
F40.2839
F0.251
F3.5479
F0.0132
F87.0
tp287
a(S'cpvert_11MeV_0tilt_355rot_det5.npy'
p288
F4.175
F0.0134
F25.0784
F0.1043
F2.8176
F0.0109
F135.0
tp289
a(S'cpvert_11MeV_0tilt_355rot_det6.npy'
p290
F2.9889
F0.0112
F19.7307
F0.057
F1.9621
F0.0092
F159.0
tp291
a(S'cpvert_11MeV_0tilt_355rot_det7.npy'
p292
F1.8364
F0.0104
F17.9587
F0.0438
F1.165
F0.0073
F173.0
tp293
a(S'cpvert_11MeV_0tilt_355rot_det8.npy'
p294
F0.8861
F0.0067
F19.2406
F0.0293
F0.5371
F0.0045
F175.0
tp295
a(S'cpvert_11MeV_0tilt_355rot_det9.npy'
p296
F0.2929
F0.0038
F17.7222
F0.045
F0.1707
F0.0022
F157.0
tp297
a(S'cpvert_11MeV_0tilt_35rot_det10.npy'
p298
F0.3022
F0.0034
F15.905
F0.0394
F0.1761
F0.002
F181.0
tp299
a(S'cpvert_11MeV_0tilt_35rot_det11.npy'
p300
F0.8634
F0.0068
F19.9648
F0.0352
F0.5241
F0.0046
F160.0
tp301
a(S'cpvert_11MeV_0tilt_35rot_det12.npy'
p302
F1.7966
F0.0088
F19.0989
F0.0375
F1.1591
F0.0067
F169.0
tp303
a(S'cpvert_11MeV_0tilt_35rot_det13.npy'
p304
F2.8839
F0.0109
F22.2394
F0.0614
F1.9355
F0.0086
F148.0
tp305
a(S'cpvert_11MeV_0tilt_35rot_det14.npy'
p306
F4.0605
F0.0131
F27.3549
F0.1105
F2.7981
F0.0108
F139.0
tp307
a(S'cpvert_11MeV_0tilt_35rot_det15.npy'
p308
F4.9829
F0.0198
F41.4619
F0.3443
F3.4785
F0.0172
F58.0
tp309
a(S'cpvert_11MeV_0tilt_35rot_det4.npy'
p310
F5.0481
F0.0136
F40.6126
F0.2732
F3.5179
F0.0125
F95.0
tp311
a(S'cpvert_11MeV_0tilt_35rot_det5.npy'
p312
F4.0442
F0.0129
F24.8503
F0.1055
F2.7758
F0.0106
F149.0
tp313
a(S'cpvert_11MeV_0tilt_35rot_det6.npy'
p314
F2.9393
F0.0124
F19.9116
F0.0623
F1.9617
F0.0097
F155.0
tp315
a(S'cpvert_11MeV_0tilt_35rot_det7.npy'
p316
F1.785
F0.0106
F17.9232
F0.0452
F1.1404
F0.0079
F157.0
tp317
a(S'cpvert_11MeV_0tilt_35rot_det8.npy'
p318
F0.8876
F0.0068
F19.2371
F0.0356
F0.5392
F0.0046
F173.0
tp319
a(S'cpvert_11MeV_0tilt_35rot_det9.npy'
p320
F0.2988
F0.0038
F17.7098
F0.0395
F0.1749
F0.0022
F159.0
tp321
a(S'cpvert_11MeV_0tilt_45rot_det10.npy'
p322
F0.3052
F0.0042
F15.9216
F0.0423
F0.1786
F0.0024
F151.0
tp323
a(S'cpvert_11MeV_0tilt_45rot_det11.npy'
p324
F0.8844
F0.0068
F20.1207
F0.0384
F0.539
F0.0046
F166.0
tp325
a(S'cpvert_11MeV_0tilt_45rot_det12.npy'
p326
F1.819
F0.0099
F19.1824
F0.0431
F1.1719
F0.0072
F170.0
tp327
a(S'cpvert_11MeV_0tilt_45rot_det13.npy'
p328
F2.9047
F0.0118
F22.3406
F0.0617
F1.9449
F0.01
F157.0
tp329
a(S'cpvert_11MeV_0tilt_45rot_det14.npy'
p330
F4.0122
F0.0142
F26.9928
F0.1174
F2.7621
F0.0123
F129.0
tp331
a(S'cpvert_11MeV_0tilt_45rot_det15.npy'
p332
F5.0317
F0.0136
F41.762
F0.2425
F3.5116
F0.0118
F92.0
tp333
a(S'cpvert_11MeV_0tilt_45rot_det4.npy'
p334
F4.9881
F0.0169
F40.6057
F0.2861
F3.4919
F0.015
F88.0
tp335
a(S'cpvert_11MeV_0tilt_45rot_det5.npy'
p336
F4.0146
F0.0149
F25.0113
F0.1066
F2.7586
F0.0115
F134.0
tp337
a(S'cpvert_11MeV_0tilt_45rot_det6.npy'
p338
F2.8691
F0.0132
F19.6631
F0.0659
F1.9227
F0.0106
F145.0
tp339
a(S'cpvert_11MeV_0tilt_45rot_det7.npy'
p340
F1.7772
F0.0098
F17.9591
F0.0411
F1.1424
F0.0072
F168.0
tp341
a(S'cpvert_11MeV_0tilt_45rot_det8.npy'
p342
F0.8779
F0.007
F19.2423
F0.0371
F0.5335
F0.0047
F152.0
tp343
a(S'cpvert_11MeV_0tilt_45rot_det9.npy'
p344
F0.3054
F0.0034
F17.7841
F0.0419
F0.1779
F0.002
F169.0
tp345
a(S'cpvert_11MeV_0tilt_55rot_det10.npy'
p346
F0.301
F0.0036
F15.8696
F0.0415
F0.1755
F0.0021
F172.0
tp347
a(S'cpvert_11MeV_0tilt_55rot_det11.npy'
p348
F0.8941
F0.0074
F20.013
F0.0351
F0.5441
F0.005
F161.0
tp349
a(S'cpvert_11MeV_0tilt_55rot_det12.npy'
p350
F1.7991
F0.0092
F19.0564
F0.0421
F1.1539
F0.0066
F176.0
tp351
a(S'cpvert_11MeV_0tilt_55rot_det13.npy'
p352
F2.9406
F0.0111
F22.3191
F0.0572
F1.9609
F0.009
F188.0
tp353
a(S'cpvert_11MeV_0tilt_55rot_det14.npy'
p354
F4.0762
F0.0131
F27.2267
F0.1098
F2.8025
F0.012
F123.0
tp355
a(S'cpvert_11MeV_0tilt_55rot_det15.npy'
p356
F5.0245
F0.0141
F41.7456
F0.2634
F3.5115
F0.0128
F87.0
tp357
a(S'cpvert_11MeV_0tilt_55rot_det4.npy'
p358
F4.9738
F0.016
F40.3318
F0.2993
F3.4833
F0.0144
F79.0
tp359
a(S'cpvert_11MeV_0tilt_55rot_det5.npy'
p360
F4.012
F0.0135
F25.1369
F0.1065
F2.7668
F0.0113
F136.0
tp361
a(S'cpvert_11MeV_0tilt_55rot_det6.npy'
p362
F2.8877
F0.0109
F19.7567
F0.053
F1.9414
F0.0084
F169.0
tp363
a(S'cpvert_11MeV_0tilt_55rot_det7.npy'
p364
F1.7606
F0.0101
F17.9831
F0.0465
F1.1278
F0.0074
F156.0
tp365
a(S'cpvert_11MeV_0tilt_55rot_det8.npy'
p366
F0.8859
F0.0069
F19.305
F0.0361
F0.5415
F0.0046
F158.0
tp367
a(S'cpvert_11MeV_0tilt_55rot_det9.npy'
p368
F0.2992
F0.0037
F17.8087
F0.0407
F0.1749
F0.0021
F174.0
tp369
a(S'cpvert_11MeV_0tilt_5rot_det10.npy'
p370
F0.2988
F0.0037
F15.882
F0.0364
F0.1735
F0.0022
F183.0
tp371
a(S'cpvert_11MeV_0tilt_5rot_det11.npy'
p372
F0.8652
F0.0068
F20.064
F0.0325
F0.5308
F0.0046
F173.0
tp373
a(S'cpvert_11MeV_0tilt_5rot_det12.npy'
p374
F1.7676
F0.01
F19.0638
F0.04
F1.1463
F0.0072
F153.0
tp375
a(S'cpvert_11MeV_0tilt_5rot_det13.npy'
p376
F2.903
F0.0114
F22.3413
F0.0596
F1.9616
F0.0092
F152.0
tp377
a(S'cpvert_11MeV_0tilt_5rot_det14.npy'
p378
F4.0378
F0.014
F27.1276
F0.1073
F2.7751
F0.012
F119.0
tp379
a(S'cpvert_11MeV_0tilt_5rot_det15.npy'
p380
F5.0689
F0.0161
F42.1083
F0.3234
F3.5513
F0.0162
F75.0
tp381
a(S'cpvert_11MeV_0tilt_5rot_det4.npy'
p382
F5.1463
F0.0158
F40.4069
F0.272
F3.5432
F0.0139
F89.0
tp383
a(S'cpvert_11MeV_0tilt_5rot_det5.npy'
p384
F4.1564
F0.0139
F25.0353
F0.1069
F2.8149
F0.0114
F128.0
tp385
a(S'cpvert_11MeV_0tilt_5rot_det6.npy'
p386
F2.9708
F0.0122
F19.6
F0.0607
F1.9508
F0.0092
F150.0
tp387
a(S'cpvert_11MeV_0tilt_5rot_det7.npy'
p388
F1.8304
F0.0098
F17.8816
F0.0433
F1.162
F0.007
F172.0
tp389
a(S'cpvert_11MeV_0tilt_5rot_det8.npy'
p390
F0.9011
F0.0076
F19.2028
F0.0361
F0.5469
F0.0048
F151.0
tp391
a(S'cpvert_11MeV_0tilt_5rot_det9.npy'
p392
F0.3037
F0.0042
F17.7072
F0.0437
F0.1773
F0.0025
F150.0
tp393
a(S'cpvert_11MeV_0tilt_65rot_det10.npy'
p394
F0.3036
F0.0041
F15.9174
F0.0421
F0.1777
F0.0024
F161.0
tp395
a(S'cpvert_11MeV_0tilt_65rot_det11.npy'
p396
F0.9144
F0.0071
F20.0912
F0.0366
F0.5534
F0.0048
F164.0
tp397
a(S'cpvert_11MeV_0tilt_65rot_det12.npy'
p398
F1.8189
F0.0092
F19.0693
F0.0383
F1.1558
F0.0066
F187.0
tp399
a(S'cpvert_11MeV_0tilt_65rot_det13.npy'
p400
F2.9486
F0.0108
F22.2216
F0.0577
F1.9561
F0.0081
F174.0
tp401
a(S'cpvert_11MeV_0tilt_65rot_det14.npy'
p402
F4.047
F0.0138
F27.0039
F0.0982
F2.7602
F0.011
F147.0
tp403
a(S'cpvert_11MeV_0tilt_65rot_det15.npy'
p404
F5.07
F0.0157
F41.8093
F0.3051
F3.526
F0.0152
F79.0
tp405
a(S'cpvert_11MeV_0tilt_65rot_det4.npy'
p406
F4.9568
F0.0132
F40.4267
F0.2526
F3.473
F0.0127
F99.0
tp407
a(S'cpvert_11MeV_0tilt_65rot_det5.npy'
p408
F3.9973
F0.0127
F25.055
F0.1162
F2.7599
F0.0111
F133.0
tp409
a(S'cpvert_11MeV_0tilt_65rot_det6.npy'
p410
F2.8533
F0.012
F19.7051
F0.0615
F1.9159
F0.0099
F151.0
tp411
a(S'cpvert_11MeV_0tilt_65rot_det7.npy'
p412
F1.7627
F0.011
F17.9722
F0.0418
F1.1349
F0.0077
F160.0
tp413
a(S'cpvert_11MeV_0tilt_65rot_det8.npy'
p414
F0.8629
F0.0061
F19.2628
F0.0316
F0.5262
F0.0042
F154.0
tp415
a(S'cpvert_11MeV_0tilt_65rot_det9.npy'
p416
F0.2915
F0.0035
F17.8279
F0.0393
F0.1681
F0.0021
F172.0
tp417
a(S'cpvert_11MeV_0tilt_75rot_det10.npy'
p418
F0.2979
F0.0032
F15.8711
F0.0417
F0.1734
F0.002
F182.0
tp419
a(S'cpvert_11MeV_0tilt_75rot_det11.npy'
p420
F0.8991
F0.0072
F20.009
F0.0348
F0.5448
F0.0048
F157.0
tp421
a(S'cpvert_11MeV_0tilt_75rot_det12.npy'
p422
F1.8497
F0.0096
F19.1346
F0.0425
F1.1741
F0.0065
F187.0
tp423
a(S'cpvert_11MeV_0tilt_75rot_det13.npy'
p424
F2.9737
F0.0105
F22.4033
F0.0603
F1.9672
F0.0083
F182.0
tp425
a(S'cpvert_11MeV_0tilt_75rot_det14.npy'
p426
F4.0976
F0.0132
F26.9853
F0.1089
F2.7845
F0.0111
F125.0
tp427
a(S'cpvert_11MeV_0tilt_75rot_det15.npy'
p428
F5.0512
F0.0162
F41.7
F0.2989
F3.5067
F0.0143
F76.0
tp429
a(S'cpvert_11MeV_0tilt_75rot_det4.npy'
p430
F5.0006
F0.0143
F40.6039
F0.2479
F3.4923
F0.0134
F83.0
tp431
a(S'cpvert_11MeV_0tilt_75rot_det5.npy'
p432
F3.9952
F0.0131
F25.2006
F0.1044
F2.759
F0.0114
F137.0
tp433
a(S'cpvert_11MeV_0tilt_75rot_det6.npy'
p434
F2.8399
F0.0111
F19.7433
F0.0607
F1.9108
F0.0083
F159.0
tp435
a(S'cpvert_11MeV_0tilt_75rot_det7.npy'
p436
F1.7519
F0.0094
F17.9471
F0.0406
F1.133
F0.0069
F182.0
tp437
a(S'cpvert_11MeV_0tilt_75rot_det8.npy'
p438
F0.8619
F0.0066
F19.2962
F0.033
F0.5278
F0.0045
F177.0
tp439
a(S'cpvert_11MeV_0tilt_75rot_det9.npy'
p440
F0.2893
F0.0039
F17.8217
F0.039
F0.1679
F0.0023
F157.0
tp441
a(S'cpvert_11MeV_0tilt_85rot_det10.npy'
p442
F0.2972
F0.0034
F15.8441
F0.0383
F0.1728
F0.002
F179.0
tp443
a(S'cpvert_11MeV_0tilt_85rot_det11.npy'
p444
F0.9
F0.007
F20.051
F0.0393
F0.5433
F0.0048
F153.0
tp445
a(S'cpvert_11MeV_0tilt_85rot_det12.npy'
p446
F1.8384
F0.0092
F19.0736
F0.039
F1.1722
F0.0066
F170.0
tp447
a(S'cpvert_11MeV_0tilt_85rot_det13.npy'
p448
F2.9893
F0.0125
F22.3381
F0.0631
F1.974
F0.0097
F155.0
tp449
a(S'cpvert_11MeV_0tilt_85rot_det14.npy'
p450
F4.1201
F0.0144
F27.0123
F0.1059
F2.7865
F0.0123
F133.0
tp451
a(S'cpvert_11MeV_0tilt_85rot_det15.npy'
p452
F5.0808
F0.0184
F41.7877
F0.3072
F3.4979
F0.017
F74.0
tp453
a(S'cpvert_11MeV_0tilt_85rot_det4.npy'
p454
F5.0018
F0.0147
F40.394
F0.2691
F3.4918
F0.0137
F88.0
tp455
a(S'cpvert_11MeV_0tilt_85rot_det5.npy'
p456
F3.9704
F0.0134
F24.8413
F0.1015
F2.729
F0.0108
F149.0
tp457
a(S'cpvert_11MeV_0tilt_85rot_det6.npy'
p458
F2.8385
F0.0116
F19.7267
F0.0571
F1.9148
F0.009
F154.0
tp459
a(S'cpvert_11MeV_0tilt_85rot_det7.npy'
p460
F1.748
F0.0098
F18.0122
F0.0444
F1.1355
F0.0069
F170.0
tp461
a(S'cpvert_11MeV_0tilt_85rot_det8.npy'
p462
F0.866
F0.0067
F19.279
F0.0329
F0.5318
F0.0048
F155.0
tp463
a(S'cpvert_11MeV_0tilt_85rot_det9.npy'
p464
F0.2914
F0.0034
F17.8412
F0.0353
F0.1675
F0.002
F183.0
tp465
a(S'cpvert_11MeV_0tilt_95rot_det10.npy'
p466
F0.2998
F0.0036
F15.8613
F0.0358
F0.1763
F0.0022
F185.0
tp467
a(S'cpvert_11MeV_0tilt_95rot_det11.npy'
p468
F0.895
F0.0071
F20.0609
F0.0321
F0.5448
F0.0047
F151.0
tp469
a(S'cpvert_11MeV_0tilt_95rot_det12.npy'
p470
F1.825
F0.0112
F19.055
F0.0404
F1.1611
F0.0077
F168.0
tp471
a(S'cpvert_11MeV_0tilt_95rot_det13.npy'
p472
F2.9737
F0.0119
F22.3022
F0.0537
F1.9583
F0.0087
F167.0
tp473
a(S'cpvert_11MeV_0tilt_95rot_det14.npy'
p474
F4.1675
F0.0122
F26.9612
F0.0995
F2.8107
F0.0102
F162.0
tp475
a(S'cpvert_11MeV_0tilt_95rot_det15.npy'
p476
F5.1288
F0.0167
F41.5162
F0.3311
F3.499
F0.0142
F82.0
tp477
a(S'cpvert_11MeV_0tilt_95rot_det4.npy'
p478
F5.0065
F0.0161
F40.3375
F0.3296
F3.4945
F0.0161
F68.0
tp479
a(S'cpvert_11MeV_0tilt_95rot_det5.npy'
p480
F4.0132
F0.0121
F25.1306
F0.0995
F2.7563
F0.009
F167.0
tp481
a(S'cpvert_11MeV_0tilt_95rot_det6.npy'
p482
F2.8265
F0.0109
F19.6451
F0.0605
F1.9036
F0.0088
F164.0
tp483
a(S'cpvert_11MeV_0tilt_95rot_det7.npy'
p484
F1.7315
F0.0108
F17.9226
F0.038
F1.1215
F0.0077
F171.0
tp485
a(S'cpvert_11MeV_0tilt_95rot_det8.npy'
p486
F0.8501
F0.0075
F19.353
F0.0356
F0.5185
F0.0049
F146.0
tp487
a(S'cpvert_11MeV_0tilt_95rot_det9.npy'
p488
F0.292
F0.0033
F17.7993
F0.0363
F0.1694
F0.002
F203.0
tp489
a(S'cpvert_11MeV_15tilt_105rot_det10.npy'
p490
F0.2943
F0.0035
F15.9465
F0.0376
F0.1733
F0.0021
F178.0
tp491
a(S'cpvert_11MeV_15tilt_105rot_det11.npy'
p492
F0.8643
F0.0067
F20.065
F0.0333
F0.5321
F0.0044
F165.0
tp493
a(S'cpvert_11MeV_15tilt_105rot_det12.npy'
p494
F1.8089
F0.0095
F19.09
F0.0418
F1.1565
F0.007
F175.0
tp495
a(S'cpvert_11MeV_15tilt_105rot_det13.npy'
p496
F2.9545
F0.0102
F22.356
F0.0556
F1.9557
F0.0078
F203.0
tp497
a(S'cpvert_11MeV_15tilt_105rot_det14.npy'
p498
F4.1047
F0.013
F26.9446
F0.104
F2.7726
F0.011
F135.0
tp499
a(S'cpvert_11MeV_15tilt_105rot_det15.npy'
p500
F5.1022
F0.016
F41.4354
F0.2905
F3.4976
F0.0157
F75.0
tp501
a(S'cpvert_11MeV_15tilt_105rot_det4.npy'
p502
F4.9577
F0.0173
F40.3403
F0.2941
F3.4566
F0.0155
F73.0
tp503
a(S'cpvert_11MeV_15tilt_105rot_det5.npy'
p504
F3.9323
F0.0132
F24.964
F0.1255
F2.7084
F0.0113
F120.0
tp505
a(S'cpvert_11MeV_15tilt_105rot_det6.npy'
p506
F2.7933
F0.0111
F19.7693
F0.056
F1.8818
F0.0085
F175.0
tp507
a(S'cpvert_11MeV_15tilt_105rot_det7.npy'
p508
F1.7021
F0.0085
F17.9291
F0.041
F1.1059
F0.006
F186.0
tp509
a(S'cpvert_11MeV_15tilt_105rot_det8.npy'
p510
F0.8413
F0.0076
F19.357
F0.0312
F0.5162
F0.005
F168.0
tp511
a(S'cpvert_11MeV_15tilt_105rot_det9.npy'
p512
F0.2857
F0.0038
F17.7911
F0.0404
F0.1662
F0.0022
F163.0
tp513
a(S'cpvert_11MeV_15tilt_115rot_det10.npy'
p514
F0.2935
F0.0035
F15.8954
F0.0405
F0.1723
F0.0021
F181.0
tp515
a(S'cpvert_11MeV_15tilt_115rot_det11.npy'
p516
F0.8599
F0.0067
F20.0306
F0.0355
F0.5287
F0.0044
F160.0
tp517
a(S'cpvert_11MeV_15tilt_115rot_det12.npy'
p518
F1.7906
F0.0087
F19.1267
F0.0395
F1.1513
F0.0061
F198.0
tp519
a(S'cpvert_11MeV_15tilt_115rot_det13.npy'
p520
F2.9463
F0.0115
F22.3744
F0.0516
F1.9629
F0.0086
F165.0
tp521
a(S'cpvert_11MeV_15tilt_115rot_det14.npy'
p522
F4.1047
F0.013
F27.0147
F0.1139
F2.7791
F0.0097
F141.0
tp523
a(S'cpvert_11MeV_15tilt_115rot_det15.npy'
p524
F5.0954
F0.0177
F41.8361
F0.2563
F3.4849
F0.0153
F100.0
tp525
a(S'cpvert_11MeV_15tilt_115rot_det4.npy'
p526
F4.9591
F0.0131
F39.8371
F0.3202
F3.46
F0.0137
F71.0
tp527
a(S'cpvert_11MeV_15tilt_115rot_det5.npy'
p528
F3.9556
F0.0131
F24.9466
F0.0973
F2.7161
F0.0101
F160.0
tp529
a(S'cpvert_11MeV_15tilt_115rot_det6.npy'
p530
F2.8073
F0.0107
F19.7753
F0.0527
F1.8859
F0.0083
F174.0
tp531
a(S'cpvert_11MeV_15tilt_115rot_det7.npy'
p532
F1.7048
F0.0095
F18.0229
F0.0394
F1.104
F0.007
F190.0
tp533
a(S'cpvert_11MeV_15tilt_115rot_det8.npy'
p534
F0.8421
F0.0065
F19.2858
F0.0308
F0.5164
F0.0044
F191.0
tp535
a(S'cpvert_11MeV_15tilt_115rot_det9.npy'
p536
F0.2868
F0.0032
F17.8974
F0.0358
F0.1672
F0.0019
F179.0
tp537
a(S'cpvert_11MeV_15tilt_125rot_det10.npy'
p538
F0.2972
F0.0034
F15.9759
F0.0393
F0.172
F0.0019
F188.0
tp539
a(S'cpvert_11MeV_15tilt_125rot_det11.npy'
p540
F0.8675
F0.0073
F20.0709
F0.0338
F0.5309
F0.005
F151.0
tp541
a(S'cpvert_11MeV_15tilt_125rot_det12.npy'
p542
F1.7733
F0.0105
F19.1722
F0.0403
F1.1453
F0.0078
F171.0
tp543
a(S'cpvert_11MeV_15tilt_125rot_det13.npy'
p544
F2.8945
F0.0108
F22.3436
F0.053
F1.9298
F0.0081
F180.0
tp545
a(S'cpvert_11MeV_15tilt_125rot_det14.npy'
p546
F4.1001
F0.0131
F27.2357
F0.112
F2.7852
F0.0111
F133.0
tp547
a(S'cpvert_11MeV_15tilt_125rot_det15.npy'
p548
F5.0992
F0.016
F41.8959
F0.2525
F3.4888
F0.0131
F98.0
tp549
a(S'cpvert_11MeV_15tilt_125rot_det4.npy'
p550
F5.0196
F0.0142
F40.0213
F0.3024
F3.4879
F0.0117
F92.0
tp551
a(S'cpvert_11MeV_15tilt_125rot_det5.npy'
p552
F3.9715
F0.0126
F24.91
F0.1082
F2.7226
F0.0103
F134.0
tp553
a(S'cpvert_11MeV_15tilt_125rot_det6.npy'
p554
F2.8272
F0.0128
F19.6732
F0.0687
F1.895
F0.01
F147.0
tp555
a(S'cpvert_11MeV_15tilt_125rot_det7.npy'
p556
F1.6987
F0.01
F17.8806
F0.0393
F1.0984
F0.0075
F186.0
tp557
a(S'cpvert_11MeV_15tilt_125rot_det8.npy'
p558
F0.8416
F0.0065
F19.3523
F0.0317
F0.5174
F0.0044
F169.0
tp559
a(S'cpvert_11MeV_15tilt_125rot_det9.npy'
p560
F0.282
F0.003
F17.8144
F0.0389
F0.1642
F0.0019
F202.0
tp561
a(S'cpvert_11MeV_15tilt_135rot_det10.npy'
p562
F0.2888
F0.0039
F15.9526
F0.038
F0.1688
F0.0024
F160.0
tp563
a(S'cpvert_11MeV_15tilt_135rot_det11.npy'
p564
F0.8348
F0.0067
F20.1024
F0.0297
F0.5135
F0.0046
F176.0
tp565
a(S'cpvert_11MeV_15tilt_135rot_det12.npy'
p566
F1.7704
F0.0105
F19.1193
F0.0387
F1.1472
F0.0073
F181.0
tp567
a(S'cpvert_11MeV_15tilt_135rot_det13.npy'
p568
F2.8742
F0.012
F22.2788
F0.0627
F1.9287
F0.0096
F147.0
tp569
a(S'cpvert_11MeV_15tilt_135rot_det14.npy'
p570
F4.0589
F0.0121
F27.2111
F0.1064
F2.7858
F0.0104
F148.0
tp571
a(S'cpvert_11MeV_15tilt_135rot_det15.npy'
p572
F5.0661
F0.0168
F41.721
F0.2738
F3.4863
F0.0138
F89.0
tp573
a(S'cpvert_11MeV_15tilt_135rot_det4.npy'
p574
F5.0548
F0.0194
F40.1805
F0.306
F3.4776
F0.0157
F72.0
tp575
a(S'cpvert_11MeV_15tilt_135rot_det5.npy'
p576
F3.9943
F0.0151
F25.0064
F0.1146
F2.7249
F0.0125
F131.0
tp577
a(S'cpvert_11MeV_15tilt_135rot_det6.npy'
p578
F2.8506
F0.0114
F19.6729
F0.057
F1.9075
F0.0088
F158.0
tp579
a(S'cpvert_11MeV_15tilt_135rot_det7.npy'
p580
F1.7164
F0.0097
F17.9134
F0.0436
F1.1091
F0.0073
F165.0
tp581
a(S'cpvert_11MeV_15tilt_135rot_det8.npy'
p582
F0.8329
F0.0062
F19.2067
F0.0304
F0.5107
F0.0041
F181.0
tp583
a(S'cpvert_11MeV_15tilt_135rot_det9.npy'
p584
F0.285
F0.0035
F17.821
F0.0364
F0.1653
F0.002
F162.0
tp585
a(S'cpvert_11MeV_15tilt_145rot_det10.npy'
p586
F0.2893
F0.0034
F15.9702
F0.0363
F0.1688
F0.002
F174.0
tp587
a(S'cpvert_11MeV_15tilt_145rot_det11.npy'
p588
F0.858
F0.0066
F20.156
F0.0306
F0.5282
F0.0046
F179.0
tp589
a(S'cpvert_11MeV_15tilt_145rot_det12.npy'
p590
F1.759
F0.0099
F19.1907
F0.0466
F1.1407
F0.0075
F164.0
tp591
a(S'cpvert_11MeV_15tilt_145rot_det13.npy'
p592
F2.8406
F0.0111
F22.3278
F0.0573
F1.9101
F0.009
F165.0
tp593
a(S'cpvert_11MeV_15tilt_145rot_det14.npy'
p594
F4.0199
F0.0131
F27.0679
F0.1035
F2.765
F0.0097
F141.0
tp595
a(S'cpvert_11MeV_15tilt_145rot_det15.npy'
p596
F5.0284
F0.0174
F41.8249
F0.2874
F3.4952
F0.0153
F68.0
tp597
a(S'cpvert_11MeV_15tilt_145rot_det4.npy'
p598
F5.0891
F0.016
F39.9105
F0.2564
F3.4939
F0.0138
F91.0
tp599
a(S'cpvert_11MeV_15tilt_145rot_det5.npy'
p600
F4.087
F0.0134
F24.9361
F0.1055
F2.7716
F0.0104
F126.0
tp601
a(S'cpvert_11MeV_15tilt_145rot_det6.npy'
p602
F2.8695
F0.0128
F19.6721
F0.0672
F1.9083
F0.0099
F168.0
tp603
a(S'cpvert_11MeV_15tilt_145rot_det7.npy'
p604
F1.7431
F0.0102
F17.8568
F0.0411
F1.1219
F0.0071
F176.0
tp605
a(S'cpvert_11MeV_15tilt_145rot_det8.npy'
p606
F0.8409
F0.0074
F19.2591
F0.0335
F0.5179
F0.0051
F143.0
tp607
a(S'cpvert_11MeV_15tilt_145rot_det9.npy'
p608
F0.2847
F0.0033
F17.8497
F0.0369
F0.165
F0.0019
F174.0
tp609
a(S'cpvert_11MeV_15tilt_15rot_det10.npy'
p610
F0.2839
F0.0033
F15.8438
F0.0351
F0.1653
F0.0019
F170.0
tp611
a(S'cpvert_11MeV_15tilt_15rot_det11.npy'
p612
F0.834
F0.0077
F20.013
F0.0357
F0.5115
F0.0048
F155.0
tp613
a(S'cpvert_11MeV_15tilt_15rot_det12.npy'
p614
F1.7307
F0.0092
F19.1001
F0.0369
F1.1234
F0.007
F193.0
tp615
a(S'cpvert_11MeV_15tilt_15rot_det13.npy'
p616
F2.8096
F0.0141
F22.2784
F0.0694
F1.904
F0.0106
F141.0
tp617
a(S'cpvert_11MeV_15tilt_15rot_det14.npy'
p618
F3.9318
F0.0137
F26.8689
F0.1075
F2.7309
F0.0108
F140.0
tp619
a(S'cpvert_11MeV_15tilt_15rot_det15.npy'
p620
F4.9255
F0.0145
F41.4937
F0.3035
F3.4657
F0.0141
F85.0
tp621
a(S'cpvert_11MeV_15tilt_15rot_det4.npy'
p622
F5.006
F0.0151
F39.4612
F0.2551
F3.4813
F0.0139
F79.0
tp623
a(S'cpvert_11MeV_15tilt_15rot_det5.npy'
p624
F4.0785
F0.0123
F25.2044
F0.0962
F2.788
F0.0104
F148.0
tp625
a(S'cpvert_11MeV_15tilt_15rot_det6.npy'
p626
F2.9227
F0.0119
F19.7031
F0.0633
F1.9495
F0.0094
F153.0
tp627
a(S'cpvert_11MeV_15tilt_15rot_det7.npy'
p628
F1.8028
F0.0107
F17.9015
F0.0491
F1.147
F0.0079
F160.0
tp629
a(S'cpvert_11MeV_15tilt_15rot_det8.npy'
p630
F0.8816
F0.0076
F19.2848
F0.0364
F0.5369
F0.005
F139.0
tp631
a(S'cpvert_11MeV_15tilt_15rot_det9.npy'
p632
F0.299
F0.0038
F17.7471
F0.0377
F0.1755
F0.0023
F169.0
tp633
a(S'cpvert_11MeV_15tilt_25rot_det10.npy'
p634
F0.2928
F0.0033
F15.8851
F0.0372
F0.1711
F0.0019
F183.0
tp635
a(S'cpvert_11MeV_15tilt_25rot_det11.npy'
p636
F0.861
F0.0064
F20.0343
F0.0298
F0.5277
F0.0043
F163.0
tp637
a(S'cpvert_11MeV_15tilt_25rot_det12.npy'
p638
F1.7435
F0.0097
F19.0379
F0.0382
F1.1302
F0.0072
F172.0
tp639
a(S'cpvert_11MeV_15tilt_25rot_det13.npy'
p640
F2.8257
F0.0126
F22.2903
F0.0665
F1.9028
F0.0092
F136.0
tp641
a(S'cpvert_11MeV_15tilt_25rot_det14.npy'
p642
F3.9374
F0.0123
F26.9215
F0.1069
F2.7173
F0.0105
F144.0
tp643
a(S'cpvert_11MeV_15tilt_25rot_det15.npy'
p644
F4.8836
F0.0166
F41.3346
F0.2887
F3.4274
F0.0149
F78.0
tp645
a(S'cpvert_11MeV_15tilt_25rot_det4.npy'
p646
F5.0105
F0.0201
F40.7033
F0.3205
F3.4935
F0.0168
F65.0
tp647
a(S'cpvert_11MeV_15tilt_25rot_det5.npy'
p648
F4.0458
F0.0138
F25.1342
F0.1155
F2.7816
F0.0115
F123.0
tp649
a(S'cpvert_11MeV_15tilt_25rot_det6.npy'
p650
F2.9264
F0.0128
F19.7617
F0.0615
F1.9556
F0.0096
F147.0
tp651
a(S'cpvert_11MeV_15tilt_25rot_det7.npy'
p652
F1.7753
F0.0103
F17.9368
F0.0431
F1.1348
F0.0075
F159.0
tp653
a(S'cpvert_11MeV_15tilt_25rot_det8.npy'
p654
F0.8882
F0.0073
F19.27
F0.0332
F0.5413
F0.005
F150.0
tp655
a(S'cpvert_11MeV_15tilt_25rot_det9.npy'
p656
F0.3001
F0.0036
F17.7943
F0.041
F0.1763
F0.0022
F175.0
tp657
a(S'cpvert_11MeV_15tilt_315rot_det10.npy'
p658
F0.2907
F0.004
F15.9148
F0.0397
F0.1691
F0.0023
F160.0
tp659
a(S'cpvert_11MeV_15tilt_315rot_det11.npy'
p660
F0.8556
F0.0067
F20.0452
F0.0311
F0.5256
F0.0046
F189.0
tp661
a(S'cpvert_11MeV_15tilt_315rot_det12.npy'
p662
F1.7809
F0.01
F19.1426
F0.0437
F1.157
F0.0073
F167.0
tp663
a(S'cpvert_11MeV_15tilt_315rot_det13.npy'
p664
F2.9124
F0.0116
F22.3538
F0.0573
F1.9525
F0.0087
F171.0
tp665
a(S'cpvert_11MeV_15tilt_315rot_det14.npy'
p666
F4.0803
F0.0146
F27.0325
F0.112
F2.8002
F0.012
F111.0
tp667
a(S'cpvert_11MeV_15tilt_315rot_det15.npy'
p668
F5.11
F0.0152
F41.9582
F0.2766
F3.5254
F0.014
F81.0
tp669
a(S'cpvert_11MeV_15tilt_315rot_det4.npy'
p670
F5.1155
F0.0175
F40.2175
F0.2836
F3.5182
F0.0163
F64.0
tp671
a(S'cpvert_11MeV_15tilt_315rot_det5.npy'
p672
F4.084
F0.0126
F25.2413
F0.1024
F2.7889
F0.0098
F143.0
tp673
a(S'cpvert_11MeV_15tilt_315rot_det6.npy'
p674
F2.8658
F0.012
F19.7033
F0.0573
F1.9119
F0.0091
F158.0
tp675
a(S'cpvert_11MeV_15tilt_315rot_det7.npy'
p676
F1.753
F0.0102
F17.9115
F0.0442
F1.1296
F0.0074
F159.0
tp677
a(S'cpvert_11MeV_15tilt_315rot_det8.npy'
p678
F0.8418
F0.0066
F19.2748
F0.033
F0.5145
F0.0045
F163.0
tp679
a(S'cpvert_11MeV_15tilt_315rot_det9.npy'
p680
F0.2848
F0.0034
F17.7746
F0.0376
F0.1661
F0.0019
F182.0
tp681
a(S'cpvert_11MeV_15tilt_325rot_det10.npy'
p682
F0.2871
F0.0038
F15.9242
F0.0375
F0.1671
F0.0023
F191.0
tp683
a(S'cpvert_11MeV_15tilt_325rot_det11.npy'
p684
F0.8398
F0.0066
F20.0607
F0.0345
F0.5153
F0.0043
F167.0
tp685
a(S'cpvert_11MeV_15tilt_325rot_det12.npy'
p686
F1.7788
F0.0097
F19.0869
F0.0408
F1.1577
F0.0072
F158.0
tp687
a(S'cpvert_11MeV_15tilt_325rot_det13.npy'
p688
F2.8791
F0.0115
F22.2758
F0.0609
F1.9426
F0.0088
F160.0
tp689
a(S'cpvert_11MeV_15tilt_325rot_det14.npy'
p690
F4.0531
F0.0132
F27.3012
F0.1106
F2.7828
F0.0113
F130.0
tp691
a(S'cpvert_11MeV_15tilt_325rot_det15.npy'
p692
F5.0461
F0.0166
F41.6313
F0.2693
F3.488
F0.0148
F92.0
tp693
a(S'cpvert_11MeV_15tilt_325rot_det4.npy'
p694
F5.156
F0.0157
F40.4804
F0.3119
F3.5216
F0.0146
F77.0
tp695
a(S'cpvert_11MeV_15tilt_325rot_det5.npy'
p696
F4.0987
F0.0145
F25.0327
F0.1134
F2.786
F0.0116
F130.0
tp697
a(S'cpvert_11MeV_15tilt_325rot_det6.npy'
p698
F2.9224
F0.0122
F19.7493
F0.0636
F1.9454
F0.0094
F155.0
tp699
a(S'cpvert_11MeV_15tilt_325rot_det7.npy'
p700
F1.7603
F0.0101
F17.9346
F0.0433
F1.1337
F0.0072
F194.0
tp701
a(S'cpvert_11MeV_15tilt_325rot_det8.npy'
p702
F0.8552
F0.0071
F19.2554
F0.0338
F0.5244
F0.0046
F160.0
tp703
a(S'cpvert_11MeV_15tilt_325rot_det9.npy'
p704
F0.2858
F0.0036
F17.8084
F0.041
F0.1675
F0.0021
F169.0
tp705
a(S'cpvert_11MeV_15tilt_335rot_det10.npy'
p706
F0.2857
F0.0035
F15.9275
F0.0375
F0.1666
F0.0021
F182.0
tp707
a(S'cpvert_11MeV_15tilt_335rot_det11.npy'
p708
F0.8548
F0.0077
F20.0723
F0.0343
F0.5247
F0.0052
F141.0
tp709
a(S'cpvert_11MeV_15tilt_335rot_det12.npy'
p710
F1.7348
F0.0097
F19.0503
F0.0463
F1.1296
F0.0074
F158.0
tp711
a(S'cpvert_11MeV_15tilt_335rot_det13.npy'
p712
F2.8414
F0.0113
F22.2546
F0.056
F1.9117
F0.0087
F185.0
tp713
a(S'cpvert_11MeV_15tilt_335rot_det14.npy'
p714
F4.0303
F0.0142
F27.0745
F0.1105
F2.772
F0.0117
F130.0
tp715
a(S'cpvert_11MeV_15tilt_335rot_det15.npy'
p716
F5.0265
F0.0171
F42.342
F0.316
F3.5038
F0.0157
F70.0
tp717
a(S'cpvert_11MeV_15tilt_335rot_det4.npy'
p718
F5.1543
F0.0145
F40.7054
F0.248
F3.529
F0.0124
F110.0
tp719
a(S'cpvert_11MeV_15tilt_335rot_det5.npy'
p720
F4.1406
F0.0128
F25.1172
F0.1085
F2.7909
F0.0106
F130.0
tp721
a(S'cpvert_11MeV_15tilt_335rot_det6.npy'
p722
F2.9315
F0.0112
F19.7272
F0.0591
F1.9437
F0.0089
F168.0
tp723
a(S'cpvert_11MeV_15tilt_335rot_det7.npy'
p724
F1.7938
F0.011
F17.9202
F0.0475
F1.1522
F0.008
F161.0
tp725
a(S'cpvert_11MeV_15tilt_335rot_det8.npy'
p726
F0.8741
F0.0074
F19.3126
F0.037
F0.5346
F0.0049
F139.0
tp727
a(S'cpvert_11MeV_15tilt_335rot_det9.npy'
p728
F0.2936
F0.0038
F17.7812
F0.0396
F0.1717
F0.0022
F173.0
tp729
a(S'cpvert_11MeV_15tilt_345rot_det10.npy'
p730
F0.2903
F0.0035
F15.922
F0.0401
F0.1695
F0.0021
F179.0
tp731
a(S'cpvert_11MeV_15tilt_345rot_det11.npy'
p732
F0.8524
F0.007
F20.0955
F0.0339
F0.5228
F0.0047
F178.0
tp733
a(S'cpvert_11MeV_15tilt_345rot_det12.npy'
p734
F1.7516
F0.0081
F19.0983
F0.0383
F1.1415
F0.0061
F187.0
tp735
a(S'cpvert_11MeV_15tilt_345rot_det13.npy'
p736
F2.8239
F0.0116
F22.3062
F0.0623
F1.9047
F0.0091
F175.0
tp737
a(S'cpvert_11MeV_15tilt_345rot_det14.npy'
p738
F3.9683
F0.0134
F27.1079
F0.1108
F2.7405
F0.0108
F132.0
tp739
a(S'cpvert_11MeV_15tilt_345rot_det15.npy'
p740
F4.995
F0.0137
F42.0178
F0.3292
F3.4885
F0.0135
F67.0
tp741
a(S'cpvert_11MeV_15tilt_345rot_det4.npy'
p742
F5.095
F0.0186
F40.0078
F0.2836
F3.4888
F0.0158
F81.0
tp743
a(S'cpvert_11MeV_15tilt_345rot_det5.npy'
p744
F4.1335
F0.0134
F24.8365
F0.1097
F2.7947
F0.0111
F140.0
tp745
a(S'cpvert_11MeV_15tilt_345rot_det6.npy'
p746
F2.9512
F0.0134
F19.7329
F0.0649
F1.945
F0.0101
F160.0
tp747
a(S'cpvert_11MeV_15tilt_345rot_det7.npy'
p748
F1.7656
F0.0114
F17.8711
F0.0469
F1.1262
F0.0079
F157.0
tp749
a(S'cpvert_11MeV_15tilt_345rot_det8.npy'
p750
F0.8722
F0.0071
F19.3013
F0.0343
F0.5329
F0.0046
F170.0
tp751
a(S'cpvert_11MeV_15tilt_345rot_det9.npy'
p752
F0.2906
F0.0034
F17.7272
F0.0386
F0.1708
F0.002
F178.0
tp753
a(S'cpvert_11MeV_15tilt_355rot_det10.npy'
p754
F0.2871
F0.0035
F15.8602
F0.0388
F0.1674
F0.0021
F192.0
tp755
a(S'cpvert_11MeV_15tilt_355rot_det11.npy'
p756
F0.851
F0.0066
F20.0811
F0.0351
F0.5225
F0.0045
F168.0
tp757
a(S'cpvert_11MeV_15tilt_355rot_det12.npy'
p758
F1.7419
F0.0106
F19.1279
F0.0416
F1.135
F0.0076
F169.0
tp759
a(S'cpvert_11MeV_15tilt_355rot_det13.npy'
p760
F2.8402
F0.0113
F22.3634
F0.056
F1.9177
F0.0085
F155.0
tp761
a(S'cpvert_11MeV_15tilt_355rot_det14.npy'
p762
F3.988
F0.0121
F27.0793
F0.0956
F2.7613
F0.0106
F146.0
tp763
a(S'cpvert_11MeV_15tilt_355rot_det15.npy'
p764
F4.932
F0.0141
F41.2075
F0.3067
F3.4492
F0.013
F84.0
tp765
a(S'cpvert_11MeV_15tilt_355rot_det4.npy'
p766
F5.1149
F0.017
F40.8812
F0.2861
F3.5188
F0.0154
F74.0
tp767
a(S'cpvert_11MeV_15tilt_355rot_det5.npy'
p768
F4.1429
F0.0139
F25.224
F0.1073
F2.8103
F0.0117
F133.0
tp769
a(S'cpvert_11MeV_15tilt_355rot_det6.npy'
p770
F2.979
F0.0117
F19.7015
F0.0554
F1.9694
F0.0086
F155.0
tp771
a(S'cpvert_11MeV_15tilt_355rot_det7.npy'
p772
F1.7913
F0.0098
F17.8874
F0.0472
F1.1393
F0.0071
F160.0
tp773
a(S'cpvert_11MeV_15tilt_355rot_det8.npy'
p774
F0.8841
F0.0067
F19.2732
F0.0323
F0.5383
F0.0044
F173.0
tp775
a(S'cpvert_11MeV_15tilt_355rot_det9.npy'
p776
F0.2918
F0.0035
F17.7924
F0.0383
F0.1715
F0.0022
F170.0
tp777
a(S'cpvert_11MeV_15tilt_35rot_det10.npy'
p778
F0.2934
F0.0037
F15.8359
F0.0405
F0.1706
F0.0022
F174.0
tp779
a(S'cpvert_11MeV_15tilt_35rot_det11.npy'
p780
F0.8626
F0.0061
F20.0436
F0.0379
F0.5244
F0.0042
F133.0
tp781
a(S'cpvert_11MeV_15tilt_35rot_det12.npy'
p782
F1.7522
F0.0101
F19.0383
F0.0391
F1.1329
F0.0073
F175.0
tp783
a(S'cpvert_11MeV_15tilt_35rot_det13.npy'
p784
F2.8175
F0.0106
F22.2406
F0.0543
F1.8976
F0.0085
F175.0
tp785
a(S'cpvert_11MeV_15tilt_35rot_det14.npy'
p786
F3.9468
F0.0127
F26.9923
F0.1162
F2.7303
F0.0113
F136.0
tp787
a(S'cpvert_11MeV_15tilt_35rot_det15.npy'
p788
F4.9039
F0.0152
F41.847
F0.2953
F3.4356
F0.0153
F83.0
tp789
a(S'cpvert_11MeV_15tilt_35rot_det4.npy'
p790
F4.9625
F0.0147
F40.879
F0.2737
F3.4823
F0.0123
F80.0
tp791
a(S'cpvert_11MeV_15tilt_35rot_det5.npy'
p792
F3.9943
F0.0144
F25.2499
F0.1173
F2.7607
F0.0118
F130.0
tp793
a(S'cpvert_11MeV_15tilt_35rot_det6.npy'
p794
F2.8841
F0.0122
F19.6832
F0.0695
F1.9304
F0.0093
F147.0
tp795
a(S'cpvert_11MeV_15tilt_35rot_det7.npy'
p796
F1.7657
F0.01
F17.9748
F0.0459
F1.1333
F0.0071
F169.0
tp797
a(S'cpvert_11MeV_15tilt_35rot_det8.npy'
p798
F0.8952
F0.0068
F19.3182
F0.032
F0.5484
F0.0046
F181.0
tp799
a(S'cpvert_11MeV_15tilt_35rot_det9.npy'
p800
F0.304
F0.004
F17.8447
F0.0378
F0.1796
F0.0024
F157.0
tp801
a(S'cpvert_11MeV_15tilt_45rot_det10.npy'
p802
F0.2905
F0.0037
F15.8089
F0.0349
F0.1701
F0.0022
F166.0
tp803
a(S'cpvert_11MeV_15tilt_45rot_det11.npy'
p804
F0.8662
F0.0069
F19.992
F0.032
F0.5287
F0.0046
F170.0
tp805
a(S'cpvert_11MeV_15tilt_45rot_det12.npy'
p806
F1.7675
F0.0093
F19.0148
F0.0397
F1.1392
F0.0068
F178.0
tp807
a(S'cpvert_11MeV_15tilt_45rot_det13.npy'
p808
F2.8253
F0.0127
F22.2309
F0.0569
F1.8965
F0.0095
F154.0
tp809
a(S'cpvert_11MeV_15tilt_45rot_det14.npy'
p810
F3.9439
F0.0139
F26.8654
F0.0985
F2.7261
F0.0118
F133.0
tp811
a(S'cpvert_11MeV_15tilt_45rot_det15.npy'
p812
F4.9214
F0.015
F41.7126
F0.2938
F3.4598
F0.0143
F82.0
tp813
a(S'cpvert_11MeV_15tilt_45rot_det4.npy'
p814
F4.9042
F0.0147
F40.4575
F0.3144
F3.4222
F0.0148
F80.0
tp815
a(S'cpvert_11MeV_15tilt_45rot_det5.npy'
p816
F3.9976
F0.0129
F25.2014
F0.1104
F2.762
F0.0114
F129.0
tp817
a(S'cpvert_11MeV_15tilt_45rot_det6.npy'
p818
F2.8724
F0.0119
F19.9676
F0.064
F1.9307
F0.0095
F172.0
tp819
a(S'cpvert_11MeV_15tilt_45rot_det7.npy'
p820
F1.7622
F0.01
F17.9607
F0.0434
F1.145
F0.0073
F171.0
tp821
a(S'cpvert_11MeV_15tilt_45rot_det8.npy'
p822
F0.8799
F0.0063
F19.3074
F0.0363
F0.5388
F0.0042
F158.0
tp823
a(S'cpvert_11MeV_15tilt_45rot_det9.npy'
p824
F0.297
F0.0036
F17.786
F0.0401
F0.1735
F0.002
F173.0
tp825
a(S'cpvert_11MeV_15tilt_55rot_det10.npy'
p826
F0.295
F0.0036
F15.8919
F0.038
F0.1723
F0.0021
F191.0
tp827
a(S'cpvert_11MeV_15tilt_55rot_det11.npy'
p828
F0.879
F0.0068
F19.9758
F0.0352
F0.5317
F0.0045
F182.0
tp829
a(S'cpvert_11MeV_15tilt_55rot_det12.npy'
p830
F1.7649
F0.0098
F18.9879
F0.0389
F1.1311
F0.0069
F176.0
tp831
a(S'cpvert_11MeV_15tilt_55rot_det13.npy'
p832
F2.8679
F0.0106
F22.3059
F0.0575
F1.9147
F0.0082
F168.0
tp833
a(S'cpvert_11MeV_15tilt_55rot_det14.npy'
p834
F3.9593
F0.0138
F26.9131
F0.1178
F2.7342
F0.0113
F119.0
tp835
a(S'cpvert_11MeV_15tilt_55rot_det15.npy'
p836
F4.9364
F0.0147
F41.9108
F0.2769
F3.4634
F0.0147
F85.0
tp837
a(S'cpvert_11MeV_15tilt_55rot_det4.npy'
p838
F4.8726
F0.0129
F39.8397
F0.26
F3.4305
F0.0121
F90.0
tp839
a(S'cpvert_11MeV_15tilt_55rot_det5.npy'
p840
F3.9482
F0.0128
F25.1391
F0.1114
F2.7272
F0.0107
F135.0
tp841
a(S'cpvert_11MeV_15tilt_55rot_det6.npy'
p842
F2.8262
F0.0114
F19.7141
F0.0548
F1.9074
F0.009
F187.0
tp843
a(S'cpvert_11MeV_15tilt_55rot_det7.npy'
p844
F1.7501
F0.0091
F17.9036
F0.0389
F1.136
F0.007
F200.0
tp845
a(S'cpvert_11MeV_15tilt_55rot_det8.npy'
p846
F0.8642
F0.0072
F19.2853
F0.037
F0.5311
F0.0049
F154.0
tp847
a(S'cpvert_11MeV_15tilt_55rot_det9.npy'
p848
F0.2999
F0.0035
F17.7814
F0.0348
F0.1754
F0.0021
F194.0
tp849
a(S'cpvert_11MeV_15tilt_5rot_det10.npy'
p850
F0.2853
F0.0037
F15.9077
F0.042
F0.1669
F0.0021
F149.0
tp851
a(S'cpvert_11MeV_15tilt_5rot_det11.npy'
p852
F0.8375
F0.0065
F20.0137
F0.0332
F0.5122
F0.0044
F180.0
tp853
a(S'cpvert_11MeV_15tilt_5rot_det12.npy'
p854
F1.7232
F0.0104
F19.0614
F0.0392
F1.1222
F0.0077
F178.0
tp855
a(S'cpvert_11MeV_15tilt_5rot_det13.npy'
p856
F2.8204
F0.0107
F22.2979
F0.0556
F1.9059
F0.0084
F196.0
tp857
a(S'cpvert_11MeV_15tilt_5rot_det14.npy'
p858
F3.9514
F0.0131
F27.1109
F0.1184
F2.74
F0.0109
F129.0
tp859
a(S'cpvert_11MeV_15tilt_5rot_det15.npy'
p860
F4.9382
F0.013
F41.7812
F0.2999
F3.4601
F0.0146
F72.0
tp861
a(S'cpvert_11MeV_15tilt_5rot_det4.npy'
p862
F5.0411
F0.0148
F39.8149
F0.2632
F3.5053
F0.0134
F90.0
tp863
a(S'cpvert_11MeV_15tilt_5rot_det5.npy'
p864
F4.1343
F0.0135
F25.1336
F0.1172
F2.8179
F0.0104
F120.0
tp865
a(S'cpvert_11MeV_15tilt_5rot_det6.npy'
p866
F2.95
F0.0106
F19.7301
F0.0649
F1.9554
F0.0083
F158.0
tp867
a(S'cpvert_11MeV_15tilt_5rot_det7.npy'
p868
F1.8098
F0.0099
F17.8655
F0.0413
F1.1502
F0.0071
F162.0
tp869
a(S'cpvert_11MeV_15tilt_5rot_det8.npy'
p870
F0.8871
F0.0073
F19.2469
F0.0343
F0.5364
F0.0049
F166.0
tp871
a(S'cpvert_11MeV_15tilt_5rot_det9.npy'
p872
F0.2992
F0.0038
F17.7636
F0.0394
F0.1761
F0.0022
F154.0
tp873
a(S'cpvert_11MeV_15tilt_65rot_det10.npy'
p874
F0.2941
F0.0038
F15.788
F0.0425
F0.1737
F0.0022
F158.0
tp875
a(S'cpvert_11MeV_15tilt_65rot_det11.npy'
p876
F0.8934
F0.0068
F20.0052
F0.0321
F0.5427
F0.0044
F169.0
tp877
a(S'cpvert_11MeV_15tilt_65rot_det12.npy'
p878
F1.8022
F0.0094
F19.1036
F0.043
F1.1529
F0.0069
F163.0
tp879
a(S'cpvert_11MeV_15tilt_65rot_det13.npy'
p880
F2.8909
F0.0106
F22.2934
F0.0569
F1.9313
F0.0083
F182.0
tp881
a(S'cpvert_11MeV_15tilt_65rot_det14.npy'
p882
F3.9936
F0.0136
F27.0553
F0.1219
F2.7326
F0.0117
F126.0
tp883
a(S'cpvert_11MeV_15tilt_65rot_det15.npy'
p884
F4.9635
F0.0173
F41.6336
F0.318
F3.4669
F0.0175
F54.0
tp885
a(S'cpvert_11MeV_15tilt_65rot_det4.npy'
p886
F4.8918
F0.0146
F40.6676
F0.2867
F3.4461
F0.0137
F90.0
tp887
a(S'cpvert_11MeV_15tilt_65rot_det5.npy'
p888
F3.9586
F0.0127
F25.1076
F0.1065
F2.7554
F0.0112
F119.0
tp889
a(S'cpvert_11MeV_15tilt_65rot_det6.npy'
p890
F2.8639
F0.0124
F20.0453
F0.0585
F1.9415
F0.01
F175.0
tp891
a(S'cpvert_11MeV_15tilt_65rot_det7.npy'
p892
F1.73
F0.0099
F18.0436
F0.0426
F1.1207
F0.0072
F169.0
tp893
a(S'cpvert_11MeV_15tilt_65rot_det8.npy'
p894
F0.8573
F0.0065
F19.2672
F0.0322
F0.5269
F0.0044
F176.0
tp895
a(S'cpvert_11MeV_15tilt_65rot_det9.npy'
p896
F0.2958
F0.0034
F17.7395
F0.038
F0.1729
F0.002
F189.0
tp897
a(S'cpvert_11MeV_15tilt_75rot_det10.npy'
p898
F0.3002
F0.0033
F15.8508
F0.0389
F0.1757
F0.002
F180.0
tp899
a(S'cpvert_11MeV_15tilt_75rot_det11.npy'
p900
F0.8732
F0.0078
F20.0376
F0.0361
F0.5288
F0.005
F137.0
tp901
a(S'cpvert_11MeV_15tilt_75rot_det12.npy'
p902
F1.8157
F0.0108
F19.0304
F0.0433
F1.155
F0.0077
F150.0
tp903
a(S'cpvert_11MeV_15tilt_75rot_det13.npy'
p904
F2.9215
F0.0122
F22.2621
F0.0554
F1.9347
F0.0094
F167.0
tp905
a(S'cpvert_11MeV_15tilt_75rot_det14.npy'
p906
F4.0473
F0.0132
F26.91
F0.1083
F2.7644
F0.0117
F124.0
tp907
a(S'cpvert_11MeV_15tilt_75rot_det15.npy'
p908
F4.9952
F0.0169
F41.3692
F0.2858
F3.4703
F0.0148
F62.0
tp909
a(S'cpvert_11MeV_15tilt_75rot_det4.npy'
p910
F4.901
F0.0151
F39.9254
F0.2719
F3.4333
F0.0144
F77.0
tp911
a(S'cpvert_11MeV_15tilt_75rot_det5.npy'
p912
F3.9167
F0.0122
F24.8842
F0.101
F2.7124
F0.0102
F148.0
tp913
a(S'cpvert_11MeV_15tilt_75rot_det6.npy'
p914
F2.8352
F0.011
F19.852
F0.0567
F1.9215
F0.0089
F182.0
tp915
a(S'cpvert_11MeV_15tilt_75rot_det7.npy'
p916
F1.7141
F0.0093
F17.98
F0.043
F1.1158
F0.0069
F177.0
tp917
a(S'cpvert_11MeV_15tilt_75rot_det8.npy'
p918
F0.8593
F0.0072
F19.3616
F0.0314
F0.527
F0.0048
F151.0
tp919
a(S'cpvert_11MeV_15tilt_75rot_det9.npy'
p920
F0.2971
F0.0036
F17.782
F0.0374
F0.1722
F0.0021
F177.0
tp921
a(S'cpvert_11MeV_15tilt_85rot_det10.npy'
p922
F0.296
F0.0035
F15.8735
F0.0378
F0.1743
F0.002
F178.0
tp923
a(S'cpvert_11MeV_15tilt_85rot_det11.npy'
p924
F0.8941
F0.0067
F19.9958
F0.0381
F0.5436
F0.0044
F142.0
tp925
a(S'cpvert_11MeV_15tilt_85rot_det12.npy'
p926
F1.807
F0.0105
F19.0857
F0.0453
F1.1487
F0.0076
F176.0
tp927
a(S'cpvert_11MeV_15tilt_85rot_det13.npy'
p928
F2.9439
F0.0108
F22.3547
F0.0608
F1.95
F0.0084
F149.0
tp929
a(S'cpvert_11MeV_15tilt_85rot_det14.npy'
p930
F4.0791
F0.0151
F27.0741
F0.105
F2.7727
F0.0123
F118.0
tp931
a(S'cpvert_11MeV_15tilt_85rot_det15.npy'
p932
F5.0187
F0.017
F41.8379
F0.2884
F3.4719
F0.014
F75.0
tp933
a(S'cpvert_11MeV_15tilt_85rot_det4.npy'
p934
F4.9062
F0.015
F40.2594
F0.2485
F3.4476
F0.0132
F87.0
tp935
a(S'cpvert_11MeV_15tilt_85rot_det5.npy'
p936
F3.9202
F0.0136
F25.0929
F0.1178
F2.7266
F0.0112
F116.0
tp937
a(S'cpvert_11MeV_15tilt_85rot_det6.npy'
p938
F2.7974
F0.0114
F19.7918
F0.0603
F1.8917
F0.0094
F156.0
tp939
a(S'cpvert_11MeV_15tilt_85rot_det7.npy'
p940
F1.7185
F0.0089
F18.0165
F0.0437
F1.1136
F0.0067
F165.0
tp941
a(S'cpvert_11MeV_15tilt_85rot_det8.npy'
p942
F0.8489
F0.0066
F19.3561
F0.0296
F0.5211
F0.0045
F190.0
tp943
a(S'cpvert_11MeV_15tilt_85rot_det9.npy'
p944
F0.287
F0.0036
F17.9
F0.0423
F0.1672
F0.0022
F167.0
tp945
a(S'cpvert_11MeV_15tilt_95rot_det10.npy'
p946
F0.3026
F0.0038
F15.9719
F0.0379
F0.1782
F0.0022
F185.0
tp947
a(S'cpvert_11MeV_15tilt_95rot_det11.npy'
p948
F0.8848
F0.0077
F20.1202
F0.0329
F0.5381
F0.0049
F158.0
tp949
a(S'cpvert_11MeV_15tilt_95rot_det12.npy'
p950
F1.7927
F0.0094
F19.0262
F0.0377
F1.1444
F0.0065
F191.0
tp951
a(S'cpvert_11MeV_15tilt_95rot_det13.npy'
p952
F2.9497
F0.0116
F22.3106
F0.0569
F1.9463
F0.0091
F166.0
tp953
a(S'cpvert_11MeV_15tilt_95rot_det14.npy'
p954
F4.1264
F0.0126
F27.2645
F0.1136
F2.8041
F0.0099
F125.0
tp955
a(S'cpvert_11MeV_15tilt_95rot_det15.npy'
p956
F5.0921
F0.0139
F41.865
F0.2744
F3.5034
F0.0147
F78.0
tp957
a(S'cpvert_11MeV_15tilt_95rot_det4.npy'
p958
F4.9043
F0.0158
F40.1121
F0.3111
F3.4389
F0.013
F80.0
tp959
a(S'cpvert_11MeV_15tilt_95rot_det5.npy'
p960
F3.9358
F0.0134
F25.0485
F0.1017
F2.7299
F0.0106
F120.0
tp961
a(S'cpvert_11MeV_15tilt_95rot_det6.npy'
p962
F2.8034
F0.0106
F19.7356
F0.0642
F1.8905
F0.0081
F173.0
tp963
a(S'cpvert_11MeV_15tilt_95rot_det7.npy'
p964
F1.7002
F0.0103
F17.9289
F0.0416
F1.1057
F0.0072
F160.0
tp965
a(S'cpvert_11MeV_15tilt_95rot_det8.npy'
p966
F0.8437
F0.0069
F19.3294
F0.0316
F0.5196
F0.0046
F158.0
tp967
a(S'cpvert_11MeV_15tilt_95rot_det9.npy'
p968
F0.2888
F0.0037
F17.8837
F0.0386
F0.1675
F0.0021
F183.0
tp969
a(S'cpvert_11MeV_30tilt_105rot_det10.npy'
p970
F0.2813
F0.0032
F15.8282
F0.0359
F0.1636
F0.0019
F179.0
tp971
a(S'cpvert_11MeV_30tilt_105rot_det11.npy'
p972
F0.8451
F0.0067
F19.9622
F0.0339
F0.5137
F0.0044
F168.0
tp973
a(S'cpvert_11MeV_30tilt_105rot_det12.npy'
p974
F1.7777
F0.0097
F18.9757
F0.0348
F1.1328
F0.0066
F194.0
tp975
a(S'cpvert_11MeV_30tilt_105rot_det13.npy'
p976
F2.9402
F0.0129
F22.128
F0.0625
F1.943
F0.0093
F158.0
tp977
a(S'cpvert_11MeV_30tilt_105rot_det14.npy'
p978
F4.099
F0.0145
F26.8972
F0.1112
F2.7658
F0.0113
F139.0
tp979
a(S'cpvert_11MeV_30tilt_105rot_det15.npy'
p980
F5.1005
F0.0145
F41.549
F0.2757
F3.5046
F0.0141
F93.0
tp981
a(S'cpvert_11MeV_30tilt_105rot_det4.npy'
p982
F4.8675
F0.0138
F40.4443
F0.2713
F3.4031
F0.0137
F84.0
tp983
a(S'cpvert_11MeV_30tilt_105rot_det5.npy'
p984
F3.9204
F0.0124
F25.3348
F0.1006
F2.7142
F0.0104
F147.0
tp985
a(S'cpvert_11MeV_30tilt_105rot_det6.npy'
p986
F2.7815
F0.0125
F19.9536
F0.0604
F1.8852
F0.0093
F151.0
tp987
a(S'cpvert_11MeV_30tilt_105rot_det7.npy'
p988
F1.6849
F0.0094
F18.0493
F0.0431
F1.0987
F0.0071
F175.0
tp989
a(S'cpvert_11MeV_30tilt_105rot_det8.npy'
p990
F0.8207
F0.0062
F19.3537
F0.0284
F0.5063
F0.0042
F186.0
tp991
a(S'cpvert_11MeV_30tilt_105rot_det9.npy'
p992
F0.2847
F0.0033
F17.8744
F0.0356
F0.1664
F0.002
F194.0
tp993
a(S'cpvert_11MeV_30tilt_115rot_det10.npy'
p994
F0.2781
F0.0036
F15.8466
F0.0381
F0.1619
F0.002
F191.0
tp995
a(S'cpvert_11MeV_30tilt_115rot_det11.npy'
p996
F0.8257
F0.0076
F19.9173
F0.0351
F0.506
F0.005
F154.0
tp997
a(S'cpvert_11MeV_30tilt_115rot_det12.npy'
p998
F1.7375
F0.0096
F18.9728
F0.0372
F1.1146
F0.007
F181.0
tp999
a(S'cpvert_11MeV_30tilt_115rot_det13.npy'
p1000
F2.8915
F0.0149
F22.0856
F0.0627
F1.9115
F0.0109
F144.0
tp1001
a(S'cpvert_11MeV_30tilt_115rot_det14.npy'
p1002
F4.0837
F0.0127
F26.7753
F0.0954
F2.7673
F0.0101
F159.0
tp1003
a(S'cpvert_11MeV_30tilt_115rot_det15.npy'
p1004
F5.1172
F0.0164
F41.5057
F0.2645
F3.5035
F0.0148
F91.0
tp1005
a(S'cpvert_11MeV_30tilt_115rot_det4.npy'
p1006
F4.9983
F0.0166
F41.2479
F0.2755
F3.4801
F0.0131
F78.0
tp1007
a(S'cpvert_11MeV_30tilt_115rot_det5.npy'
p1008
F3.9803
F0.0131
F25.3611
F0.1063
F2.7578
F0.0104
F144.0
tp1009
a(S'cpvert_11MeV_30tilt_115rot_det6.npy'
p1010
F2.8055
F0.0125
F19.8245
F0.0597
F1.8968
F0.0099
F163.0
tp1011
a(S'cpvert_11MeV_30tilt_115rot_det7.npy'
p1012
F1.6899
F0.0083
F17.9783
F0.0366
F1.098
F0.0062
F195.0
tp1013
a(S'cpvert_11MeV_30tilt_115rot_det8.npy'
p1014
F0.8345
F0.0064
F19.4405
F0.0335
F0.5164
F0.0042
F174.0
tp1015
a(S'cpvert_11MeV_30tilt_115rot_det9.npy'
p1016
F0.2884
F0.0031
F17.9043
F0.0371
F0.1675
F0.0019
F200.0
tp1017
a(S'cpvert_11MeV_30tilt_125rot_det10.npy'
p1018
F0.2736
F0.0033
F15.8784
F0.0361
F0.1599
F0.002
F199.0
tp1019
a(S'cpvert_11MeV_30tilt_125rot_det11.npy'
p1020
F0.803
F0.0064
F20.0012
F0.0313
F0.4924
F0.0044
F176.0
tp1021
a(S'cpvert_11MeV_30tilt_125rot_det12.npy'
p1022
F1.7182
F0.0085
F19.0515
F0.0389
F1.1092
F0.006
F208.0
tp1023
a(S'cpvert_11MeV_30tilt_125rot_det13.npy'
p1024
F2.8424
F0.0117
F22.133
F0.0571
F1.8962
F0.0086
F183.0
tp1025
a(S'cpvert_11MeV_30tilt_125rot_det14.npy'
p1026
F4.0048
F0.0158
F26.8814
F0.1085
F2.7198
F0.0125
F133.0
tp1027
a(S'cpvert_11MeV_30tilt_125rot_det15.npy'
p1028
F5.0786
F0.0148
F41.3796
F0.2329
F3.4795
F0.0132
F97.0
tp1029
a(S'cpvert_11MeV_30tilt_125rot_det4.npy'
p1030
F4.9891
F0.0168
F40.4053
F0.2883
F3.4678
F0.016
F85.0
tp1031
a(S'cpvert_11MeV_30tilt_125rot_det5.npy'
p1032
F3.9833
F0.0124
F25.1954
F0.1041
F2.7436
F0.0101
F146.0
tp1033
a(S'cpvert_11MeV_30tilt_125rot_det6.npy'
p1034
F2.8272
F0.0116
F19.8392
F0.0569
F1.9055
F0.0089
F158.0
tp1035
a(S'cpvert_11MeV_30tilt_125rot_det7.npy'
p1036
F1.698
F0.0091
F17.9726
F0.0426
F1.104
F0.0067
F180.0
tp1037
a(S'cpvert_11MeV_30tilt_125rot_det8.npy'
p1038
F0.8224
F0.0061
F19.3744
F0.0295
F0.5063
F0.0042
F161.0
tp1039
a(S'cpvert_11MeV_30tilt_125rot_det9.npy'
p1040
F0.2872
F0.0033
F17.9739
F0.0372
F0.168
F0.002
F169.0
tp1041
a(S'cpvert_11MeV_30tilt_135rot_det10.npy'
p1042
F0.2649
F0.0031
F15.851
F0.0369
F0.154
F0.0018
F186.0
tp1043
a(S'cpvert_11MeV_30tilt_135rot_det11.npy'
p1044
F0.8111
F0.0063
F20.016
F0.0308
F0.4963
F0.0043
F169.0
tp1045
a(S'cpvert_11MeV_30tilt_135rot_det12.npy'
p1046
F1.6862
F0.0092
F19.0002
F0.0409
F1.088
F0.0067
F179.0
tp1047
a(S'cpvert_11MeV_30tilt_135rot_det13.npy'
p1048
F2.7985
F0.0114
F22.1762
F0.0549
F1.8767
F0.009
F169.0
tp1049
a(S'cpvert_11MeV_30tilt_135rot_det14.npy'
p1050
F3.983
F0.0127
F27.0445
F0.1054
F2.7274
F0.0108
F136.0
tp1051
a(S'cpvert_11MeV_30tilt_135rot_det15.npy'
p1052
F5.0558
F0.0144
F41.7347
F0.2834
F3.4925
F0.0135
F85.0
tp1053
a(S'cpvert_11MeV_30tilt_135rot_det4.npy'
p1054
F5.0584
F0.0141
F39.9849
F0.2616
F3.4631
F0.0124
F79.0
tp1055
a(S'cpvert_11MeV_30tilt_135rot_det5.npy'
p1056
F4.0657
F0.013
F25.3278
F0.1146
F2.7822
F0.0108
F127.0
tp1057
a(S'cpvert_11MeV_30tilt_135rot_det6.npy'
p1058
F2.8519
F0.0104
F19.8172
F0.056
F1.9154
F0.0077
F200.0
tp1059
a(S'cpvert_11MeV_30tilt_135rot_det7.npy'
p1060
F1.7444
F0.0092
F18.0518
F0.041
F1.131
F0.0066
F183.0
tp1061
a(S'cpvert_11MeV_30tilt_135rot_det8.npy'
p1062
F0.8395
F0.0068
F19.3708
F0.0349
F0.5166
F0.0046
F180.0
tp1063
a(S'cpvert_11MeV_30tilt_135rot_det9.npy'
p1064
F0.288
F0.0032
F17.8791
F0.0347
F0.168
F0.0019
F184.0
tp1065
a(S'cpvert_11MeV_30tilt_145rot_det10.npy'
p1066
F0.2652
F0.0032
F15.9273
F0.0381
F0.1552
F0.0019
F178.0
tp1067
a(S'cpvert_11MeV_30tilt_145rot_det11.npy'
p1068
F0.8111
F0.0064
F20.0615
F0.0368
F0.4969
F0.0044
F163.0
tp1069
a(S'cpvert_11MeV_30tilt_145rot_det12.npy'
p1070
F1.6691
F0.0088
F19.0229
F0.0381
F1.083
F0.0065
F207.0
tp1071
a(S'cpvert_11MeV_30tilt_145rot_det13.npy'
p1072
F2.7452
F0.0117
F22.138
F0.0593
F1.8444
F0.0095
F149.0
tp1073
a(S'cpvert_11MeV_30tilt_145rot_det14.npy'
p1074
F3.8916
F0.0141
F26.7181
F0.1113
F2.6696
F0.0117
F134.0
tp1075
a(S'cpvert_11MeV_30tilt_145rot_det15.npy'
p1076
F4.9699
F0.0148
F41.6642
F0.3076
F3.4429
F0.0129
F77.0
tp1077
a(S'cpvert_11MeV_30tilt_145rot_det4.npy'
p1078
F5.126
F0.0139
F40.4649
F0.2817
F3.5163
F0.013
F90.0
tp1079
a(S'cpvert_11MeV_30tilt_145rot_det5.npy'
p1080
F4.0935
F0.015
F25.1847
F0.1042
F2.7778
F0.0122
F140.0
tp1081
a(S'cpvert_11MeV_30tilt_145rot_det6.npy'
p1082
F2.8987
F0.0114
F19.7793
F0.0609
F1.9372
F0.0089
F160.0
tp1083
a(S'cpvert_11MeV_30tilt_145rot_det7.npy'
p1084
F1.7388
F0.0088
F18.0006
F0.0395
F1.1233
F0.0064
F198.0
tp1085
a(S'cpvert_11MeV_30tilt_145rot_det8.npy'
p1086
F0.8502
F0.0074
F19.3628
F0.0355
F0.5244
F0.005
F148.0
tp1087
a(S'cpvert_11MeV_30tilt_145rot_det9.npy'
p1088
F0.2787
F0.0034
F17.8689
F0.0368
F0.1633
F0.002
F177.0
tp1089
a(S'cpvert_11MeV_30tilt_15rot_det10.npy'
p1090
F0.2904
F0.0036
F15.8898
F0.0388
F0.1694
F0.0021
F181.0
tp1091
a(S'cpvert_11MeV_30tilt_15rot_det11.npy'
p1092
F0.8507
F0.0069
F20.082
F0.0369
F0.5273
F0.0048
F152.0
tp1093
a(S'cpvert_11MeV_30tilt_15rot_det12.npy'
p1094
F1.7226
F0.0092
F19.1899
F0.0419
F1.1213
F0.0067
F156.0
tp1095
a(S'cpvert_11MeV_30tilt_15rot_det13.npy'
p1096
F2.7721
F0.01
F22.4185
F0.0596
F1.8709
F0.0077
F183.0
tp1097
a(S'cpvert_11MeV_30tilt_15rot_det14.npy'
p1098
F3.868
F0.013
F27.1286
F0.1103
F2.678
F0.0109
F137.0
tp1099
a(S'cpvert_11MeV_30tilt_15rot_det15.npy'
p1100
F4.832
F0.015
F42.3448
F0.2616
F3.3784
F0.0146
F76.0
tp1101
a(S'cpvert_11MeV_30tilt_15rot_det4.npy'
p1102
F4.9422
F0.0151
F40.2643
F0.2968
F3.441
F0.0134
F74.0
tp1103
a(S'cpvert_11MeV_30tilt_15rot_det5.npy'
p1104
F4.0081
F0.0132
F24.8924
F0.1117
F2.7365
F0.01
F126.0
tp1105
a(S'cpvert_11MeV_30tilt_15rot_det6.npy'
p1106
F2.9451
F0.0098
F19.743
F0.0599
F1.9566
F0.0084
F157.0
tp1107
a(S'cpvert_11MeV_30tilt_15rot_det7.npy'
p1108
F1.7818
F0.0094
F17.7641
F0.0422
F1.1336
F0.0066
F179.0
tp1109
a(S'cpvert_11MeV_30tilt_15rot_det8.npy'
p1110
F0.8875
F0.0067
F19.204
F0.0345
F0.5344
F0.0043
F175.0
tp1111
a(S'cpvert_11MeV_30tilt_15rot_det9.npy'
p1112
F0.3014
F0.0035
F17.6966
F0.0365
F0.1755
F0.002
F184.0
tp1113
a(S'cpvert_11MeV_30tilt_25rot_det10.npy'
p1114
F0.2878
F0.0031
F15.9119
F0.0375
F0.1688
F0.0019
F183.0
tp1115
a(S'cpvert_11MeV_30tilt_25rot_det11.npy'
p1116
F0.8593
F0.0064
F20.0434
F0.0315
F0.5291
F0.0042
F181.0
tp1117
a(S'cpvert_11MeV_30tilt_25rot_det12.npy'
p1118
F1.7478
F0.0099
F19.0786
F0.0428
F1.1361
F0.0073
F174.0
tp1119
a(S'cpvert_11MeV_30tilt_25rot_det13.npy'
p1120
F2.8032
F0.0106
F22.4516
F0.0549
F1.8948
F0.0081
F175.0
tp1121
a(S'cpvert_11MeV_30tilt_25rot_det14.npy'
p1122
F3.9
F0.0109
F27.2938
F0.1057
F2.7057
F0.0093
F141.0
tp1123
a(S'cpvert_11MeV_30tilt_25rot_det15.npy'
p1124
F4.8364
F0.0153
F42.2568
F0.2822
F3.4199
F0.0136
F79.0
tp1125
a(S'cpvert_11MeV_30tilt_25rot_det4.npy'
p1126
F4.896
F0.0133
F40.3867
F0.31
F3.417
F0.0145
F70.0
tp1127
a(S'cpvert_11MeV_30tilt_25rot_det5.npy'
p1128
F3.9606
F0.0117
F25.1894
F0.0988
F2.7239
F0.0096
F125.0
tp1129
a(S'cpvert_11MeV_30tilt_25rot_det6.npy'
p1130
F2.8588
F0.0116
F19.5281
F0.0695
F1.9038
F0.0095
F145.0
tp1131
a(S'cpvert_11MeV_30tilt_25rot_det7.npy'
p1132
F1.7778
F0.0101
F17.9089
F0.0413
F1.1379
F0.0072
F179.0
tp1133
a(S'cpvert_11MeV_30tilt_25rot_det8.npy'
p1134
F0.8807
F0.008
F19.2175
F0.0378
F0.5376
F0.0054
F143.0
tp1135
a(S'cpvert_11MeV_30tilt_25rot_det9.npy'
p1136
F0.3069
F0.0036
F17.6962
F0.0398
F0.1797
F0.0022
F191.0
tp1137
a(S'cpvert_11MeV_30tilt_315rot_det10.npy'
p1138
F0.2886
F0.0035
F15.9856
F0.0364
F0.1679
F0.002
F173.0
tp1139
a(S'cpvert_11MeV_30tilt_315rot_det11.npy'
p1140
F0.8456
F0.0061
F20.1671
F0.0333
F0.5194
F0.0042
F168.0
tp1141
a(S'cpvert_11MeV_30tilt_315rot_det12.npy'
p1142
F1.7468
F0.0092
F19.19
F0.0395
F1.1339
F0.0066
F181.0
tp1143
a(S'cpvert_11MeV_30tilt_315rot_det13.npy'
p1144
F2.8661
F0.0124
F22.5118
F0.0616
F1.9161
F0.0091
F153.0
tp1145
a(S'cpvert_11MeV_30tilt_315rot_det14.npy'
p1146
F4.032
F0.0143
F27.2011
F0.1169
F2.7513
F0.0119
F123.0
tp1147
a(S'cpvert_11MeV_30tilt_315rot_det15.npy'
p1148
F5.1056
F0.0169
F42.4515
F0.2644
F3.513
F0.0151
F94.0
tp1149
a(S'cpvert_11MeV_30tilt_315rot_det4.npy'
p1150
F5.0992
F0.0158
F39.617
F0.2964
F3.5059
F0.0135
F92.0
tp1151
a(S'cpvert_11MeV_30tilt_315rot_det5.npy'
p1152
F4.0517
F0.0132
F24.7934
F0.1054
F2.777
F0.0106
F147.0
tp1153
a(S'cpvert_11MeV_30tilt_315rot_det6.npy'
p1154
F2.8616
F0.0122
F19.6543
F0.0612
F1.9111
F0.0092
F176.0
tp1155
a(S'cpvert_11MeV_30tilt_315rot_det7.npy'
p1156
F1.6985
F0.0091
F17.8585
F0.0432
F1.0956
F0.0066
F168.0
tp1157
a(S'cpvert_11MeV_30tilt_315rot_det8.npy'
p1158
F0.8159
F0.0065
F19.227
F0.0311
F0.4992
F0.0044
F181.0
tp1159
a(S'cpvert_11MeV_30tilt_315rot_det9.npy'
p1160
F0.2741
F0.0036
F17.7071
F0.0388
F0.1599
F0.0021
F165.0
tp1161
a(S'cpvert_11MeV_30tilt_335rot_det10.npy'
p1162
F0.2853
F0.0034
F15.9161
F0.0383
F0.1655
F0.002
F196.0
tp1163
a(S'cpvert_11MeV_30tilt_335rot_det11.npy'
p1164
F0.8274
F0.0066
F20.1249
F0.0345
F0.5058
F0.0045
F163.0
tp1165
a(S'cpvert_11MeV_30tilt_335rot_det12.npy'
p1166
F1.7343
F0.0088
F19.1692
F0.0388
F1.1279
F0.0067
F175.0
tp1167
a(S'cpvert_11MeV_30tilt_335rot_det13.npy'
p1168
F2.7887
F0.0133
F22.3651
F0.0658
F1.884
F0.0103
F125.0
tp1169
a(S'cpvert_11MeV_30tilt_335rot_det14.npy'
p1170
F3.9417
F0.0133
F27.2398
F0.1153
F2.7226
F0.0107
F121.0
tp1171
a(S'cpvert_11MeV_30tilt_335rot_det15.npy'
p1172
F4.9405
F0.02
F42.5074
F0.3339
F3.443
F0.0169
F64.0
tp1173
a(S'cpvert_11MeV_30tilt_335rot_det4.npy'
p1174
F5.1218
F0.0155
F39.7991
F0.2601
F3.5077
F0.0139
F82.0
tp1175
a(S'cpvert_11MeV_30tilt_335rot_det5.npy'
p1176
F4.1284
F0.0134
F24.8815
F0.1126
F2.7845
F0.0108
F146.0
tp1177
a(S'cpvert_11MeV_30tilt_335rot_det6.npy'
p1178
F2.9301
F0.0127
F19.6771
F0.065
F1.9474
F0.0094
F163.0
tp1179
a(S'cpvert_11MeV_30tilt_335rot_det7.npy'
p1180
F1.7657
F0.0112
F17.7845
F0.0449
F1.1284
F0.0078
F162.0
tp1181
a(S'cpvert_11MeV_30tilt_335rot_det8.npy'
p1182
F0.8584
F0.007
F19.2276
F0.0307
F0.524
F0.0046
F166.0
tp1183
a(S'cpvert_11MeV_30tilt_335rot_det9.npy'
p1184
F0.2884
F0.0037
F17.7648
F0.04
F0.1684
F0.0022
F164.0
tp1185
a(S'cpvert_11MeV_30tilt_345rot_det10.npy'
p1186
F0.2861
F0.0034
F15.9066
F0.0391
F0.1662
F0.002
F178.0
tp1187
a(S'cpvert_11MeV_30tilt_345rot_det11.npy'
p1188
F0.8429
F0.0071
F20.0939
F0.0345
F0.5197
F0.0048
F155.0
tp1189
a(S'cpvert_11MeV_30tilt_345rot_det12.npy'
p1190
F1.7283
F0.0092
F19.1653
F0.0433
F1.1259
F0.0071
F156.0
tp1191
a(S'cpvert_11MeV_30tilt_345rot_det13.npy'
p1192
F2.7816
F0.0112
F22.4377
F0.0595
F1.8843
F0.0088
F174.0
tp1193
a(S'cpvert_11MeV_30tilt_345rot_det14.npy'
p1194
F3.9311
F0.0149
F27.282
F0.1132
F2.7128
F0.0125
F113.0
tp1195
a(S'cpvert_11MeV_30tilt_345rot_det15.npy'
p1196
F4.8994
F0.0176
F42.4575
F0.3556
F3.4205
F0.0151
F69.0
tp1197
a(S'cpvert_11MeV_30tilt_345rot_det4.npy'
p1198
F5.1206
F0.0159
F40.1282
F0.2703
F3.5189
F0.0145
F83.0
tp1199
a(S'cpvert_11MeV_30tilt_345rot_det5.npy'
p1200
F4.134
F0.012
F24.9739
F0.1
F2.7829
F0.0107
F145.0
tp1201
a(S'cpvert_11MeV_30tilt_345rot_det6.npy'
p1202
F2.9397
F0.0123
F19.448
F0.0613
F1.9358
F0.009
F160.0
tp1203
a(S'cpvert_11MeV_30tilt_345rot_det7.npy'
p1204
F1.7978
F0.0094
F17.8486
F0.0426
F1.1493
F0.0068
F165.0
tp1205
a(S'cpvert_11MeV_30tilt_345rot_det8.npy'
p1206
F0.8766
F0.008
F19.2782
F0.0376
F0.5366
F0.0054
F151.0
tp1207
a(S'cpvert_11MeV_30tilt_345rot_det9.npy'
p1208
F0.2883
F0.0033
F17.6642
F0.0394
F0.1681
F0.002
F191.0
tp1209
a(S'cpvert_11MeV_30tilt_355rot_det10.npy'
p1210
F0.2924
F0.0035
F15.9628
F0.0406
F0.1719
F0.002
F156.0
tp1211
a(S'cpvert_11MeV_30tilt_355rot_det11.npy'
p1212
F0.8468
F0.0061
F20.1008
F0.0316
F0.521
F0.0041
F177.0
tp1213
a(S'cpvert_11MeV_30tilt_355rot_det12.npy'
p1214
F1.7108
F0.0086
F19.1901
F0.0358
F1.1141
F0.0063
F202.0
tp1215
a(S'cpvert_11MeV_30tilt_355rot_det13.npy'
p1216
F2.7602
F0.0122
F22.4562
F0.0663
F1.8623
F0.0089
F147.0
tp1217
a(S'cpvert_11MeV_30tilt_355rot_det14.npy'
p1218
F3.8765
F0.0138
F27.3064
F0.1081
F2.6768
F0.0107
F115.0
tp1219
a(S'cpvert_11MeV_30tilt_355rot_det15.npy'
p1220
F4.8739
F0.0158
F42.1103
F0.3103
F3.3942
F0.0154
F71.0
tp1221
a(S'cpvert_11MeV_30tilt_355rot_det4.npy'
p1222
F5.0866
F0.0164
F40.2507
F0.2996
F3.4855
F0.0148
F66.0
tp1223
a(S'cpvert_11MeV_30tilt_355rot_det5.npy'
p1224
F4.1274
F0.0131
F25.0077
F0.1061
F2.7839
F0.0108
F123.0
tp1225
a(S'cpvert_11MeV_30tilt_355rot_det6.npy'
p1226
F2.9779
F0.012
F19.7287
F0.0656
F1.9639
F0.0091
F166.0
tp1227
a(S'cpvert_11MeV_30tilt_355rot_det7.npy'
p1228
F1.8007
F0.0093
F17.8216
F0.0401
F1.1443
F0.0068
F194.0
tp1229
a(S'cpvert_11MeV_30tilt_355rot_det8.npy'
p1230
F0.8725
F0.0073
F19.191
F0.0336
F0.5308
F0.0047
F168.0
tp1231
a(S'cpvert_11MeV_30tilt_355rot_det9.npy'
p1232
F0.2972
F0.0037
F17.7469
F0.0402
F0.1737
F0.0022
F168.0
tp1233
a(S'cpvert_11MeV_30tilt_35rot_det10.npy'
p1234
F0.2979
F0.0037
F15.8037
F0.0383
F0.1749
F0.0022
F154.0
tp1235
a(S'cpvert_11MeV_30tilt_35rot_det11.npy'
p1236
F0.8615
F0.008
F20.0672
F0.0329
F0.5315
F0.0051
F157.0
tp1237
a(S'cpvert_11MeV_30tilt_35rot_det12.npy'
p1238
F1.7449
F0.0104
F19.0686
F0.0408
F1.138
F0.0078
F174.0
tp1239
a(S'cpvert_11MeV_30tilt_35rot_det13.npy'
p1240
F2.8326
F0.0103
F22.3284
F0.057
F1.9136
F0.0081
F169.0
tp1241
a(S'cpvert_11MeV_30tilt_35rot_det14.npy'
p1242
F3.9283
F0.0128
F27.2034
F0.1191
F2.7186
F0.0107
F113.0
tp1243
a(S'cpvert_11MeV_30tilt_35rot_det15.npy'
p1244
F4.8679
F0.0158
F42.5708
F0.3682
F3.4196
F0.0149
F60.0
tp1245
a(S'cpvert_11MeV_30tilt_35rot_det4.npy'
p1246
F4.8354
F0.0144
F40.4859
F0.2838
F3.3862
F0.0126
F86.0
tp1247
a(S'cpvert_11MeV_30tilt_35rot_det5.npy'
p1248
F3.9198
F0.0115
F25.2516
F0.0885
F2.7077
F0.01
F158.0
tp1249
a(S'cpvert_11MeV_30tilt_35rot_det6.npy'
p1250
F2.8284
F0.0106
F19.7131
F0.0607
F1.8972
F0.0086
F165.0
tp1251
a(S'cpvert_11MeV_30tilt_35rot_det7.npy'
p1252
F1.7483
F0.0088
F17.8645
F0.0428
F1.1279
F0.0068
F170.0
tp1253
a(S'cpvert_11MeV_30tilt_35rot_det8.npy'
p1254
F0.8918
F0.0069
F19.2614
F0.0309
F0.5427
F0.0046
F171.0
tp1255
a(S'cpvert_11MeV_30tilt_35rot_det9.npy'
p1256
F0.3068
F0.0036
F17.6559
F0.0358
F0.1799
F0.002
F183.0
tp1257
a(S'cpvert_11MeV_30tilt_45rot_det10.npy'
p1258
F0.2928
F0.0035
F15.7967
F0.0402
F0.173
F0.0021
F186.0
tp1259
a(S'cpvert_11MeV_30tilt_45rot_det11.npy'
p1260
F0.887
F0.0067
F19.9567
F0.0344
F0.5435
F0.0045
F174.0
tp1261
a(S'cpvert_11MeV_30tilt_45rot_det12.npy'
p1262
F1.7771
F0.01
F19.0844
F0.0452
F1.1514
F0.0072
F159.0
tp1263
a(S'cpvert_11MeV_30tilt_45rot_det13.npy'
p1264
F2.835
F0.0123
F22.2773
F0.0581
F1.8997
F0.0092
F153.0
tp1265
a(S'cpvert_11MeV_30tilt_45rot_det14.npy'
p1266
F3.9315
F0.0131
F27.149
F0.1144
F2.7301
F0.0108
F132.0
tp1267
a(S'cpvert_11MeV_30tilt_45rot_det15.npy'
p1268
F4.8795
F0.0162
F41.5037
F0.3008
F3.4188
F0.0153
F78.0
tp1269
a(S'cpvert_11MeV_30tilt_45rot_det4.npy'
p1270
F4.8122
F0.016
F40.8668
F0.301
F3.3716
F0.0163
F64.0
tp1271
a(S'cpvert_11MeV_30tilt_45rot_det5.npy'
p1272
F3.874
F0.012
F25.2375
F0.1023
F2.679
F0.0105
F131.0
tp1273
a(S'cpvert_11MeV_30tilt_45rot_det6.npy'
p1274
F2.8179
F0.0116
F19.8221
F0.0653
F1.8954
F0.0091
F148.0
tp1275
a(S'cpvert_11MeV_30tilt_45rot_det7.npy'
p1276
F1.7355
F0.0091
F17.9904
F0.0417
F1.1142
F0.0065
F180.0
tp1277
a(S'cpvert_11MeV_30tilt_45rot_det8.npy'
p1278
F0.868
F0.0067
F19.3165
F0.034
F0.53
F0.0043
F176.0
tp1279
a(S'cpvert_11MeV_30tilt_45rot_det9.npy'
p1280
F0.2954
F0.0033
F17.7374
F0.0429
F0.1722
F0.0019
F183.0
tp1281
a(S'cpvert_11MeV_30tilt_55rot_det10.npy'
p1282
F0.3013
F0.0037
F15.7702
F0.0393
F0.1769
F0.0022
F177.0
tp1283
a(S'cpvert_11MeV_30tilt_55rot_det11.npy'
p1284
F0.877
F0.0062
F19.9867
F0.0329
F0.5352
F0.0041
F174.0
tp1285
a(S'cpvert_11MeV_30tilt_55rot_det12.npy'
p1286
F1.7878
F0.0086
F19.0192
F0.0383
F1.1538
F0.0065
F193.0
tp1287
a(S'cpvert_11MeV_30tilt_55rot_det13.npy'
p1288
F2.8675
F0.0102
F22.3099
F0.0521
F1.9276
F0.0084
F190.0
tp1289
a(S'cpvert_11MeV_30tilt_55rot_det14.npy'
p1290
F4.006
F0.0116
F27.1231
F0.1016
F2.7699
F0.0104
F141.0
tp1291
a(S'cpvert_11MeV_30tilt_55rot_det15.npy'
p1292
F4.8796
F0.0152
F41.6486
F0.2725
F3.437
F0.015
F75.0
tp1293
a(S'cpvert_11MeV_30tilt_55rot_det4.npy'
p1294
F4.8145
F0.0114
F40.7857
F0.2775
F3.3876
F0.0132
F69.0
tp1295
a(S'cpvert_11MeV_30tilt_55rot_det5.npy'
p1296
F3.8521
F0.0121
F25.1878
F0.1026
F2.6701
F0.0102
F126.0
tp1297
a(S'cpvert_11MeV_30tilt_55rot_det6.npy'
p1298
F2.7799
F0.0106
F19.9084
F0.0535
F1.8788
F0.0085
F183.0
tp1299
a(S'cpvert_11MeV_30tilt_55rot_det7.npy'
p1300
F1.712
F0.0094
F18.0333
F0.0443
F1.1092
F0.0071
F157.0
tp1301
a(S'cpvert_11MeV_30tilt_55rot_det8.npy'
p1302
F0.8528
F0.0068
F19.3046
F0.0306
F0.5211
F0.0045
F161.0
tp1303
a(S'cpvert_11MeV_30tilt_55rot_det9.npy'
p1304
F0.2954
F0.0034
F17.845
F0.0398
F0.1729
F0.002
F187.0
tp1305
a(S'cpvert_11MeV_30tilt_5rot_det10.npy'
p1306
F0.2889
F0.0034
F15.8702
F0.0384
F0.169
F0.002
F185.0
tp1307
a(S'cpvert_11MeV_30tilt_5rot_det11.npy'
p1308
F0.8503
F0.0064
F20.1297
F0.033
F0.5251
F0.0043
F157.0
tp1309
a(S'cpvert_11MeV_30tilt_5rot_det12.npy'
p1310
F1.7151
F0.009
F19.1594
F0.0364
F1.1134
F0.0068
F176.0
tp1311
a(S'cpvert_11MeV_30tilt_5rot_det13.npy'
p1312
F2.7869
F0.0115
F22.533
F0.0558
F1.8794
F0.0083
F151.0
tp1313
a(S'cpvert_11MeV_30tilt_5rot_det14.npy'
p1314
F3.865
F0.0127
F27.4046
F0.1092
F2.6774
F0.0106
F142.0
tp1315
a(S'cpvert_11MeV_30tilt_5rot_det15.npy'
p1316
F4.8394
F0.0189
F42.6111
F0.3332
F3.4062
F0.017
F64.0
tp1317
a(S'cpvert_11MeV_30tilt_5rot_det4.npy'
p1318
F5.0194
F0.0158
F40.4769
F0.3444
F3.4798
F0.0147
F72.0
tp1319
a(S'cpvert_11MeV_30tilt_5rot_det5.npy'
p1320
F4.1206
F0.0123
F25.265
F0.1031
F2.8011
F0.0103
F135.0
tp1321
a(S'cpvert_11MeV_30tilt_5rot_det6.npy'
p1322
F2.9441
F0.0121
F19.6385
F0.0573
F1.9428
F0.0095
F149.0
tp1323
a(S'cpvert_11MeV_30tilt_5rot_det7.npy'
p1324
F1.8053
F0.0097
F17.8021
F0.0419
F1.1478
F0.0069
F170.0
tp1325
a(S'cpvert_11MeV_30tilt_5rot_det8.npy'
p1326
F0.8783
F0.0079
F19.1647
F0.0333
F0.5346
F0.0053
F154.0
tp1327
a(S'cpvert_11MeV_30tilt_5rot_det9.npy'
p1328
F0.3009
F0.0038
F17.7281
F0.0417
F0.176
F0.0022
F174.0
tp1329
a(S'cpvert_11MeV_30tilt_65rot_det10.npy'
p1330
F0.2952
F0.0035
F15.8269
F0.0384
F0.173
F0.0021
F193.0
tp1331
a(S'cpvert_11MeV_30tilt_65rot_det11.npy'
p1332
F0.8757
F0.0071
F19.9695
F0.0353
F0.5308
F0.0047
F164.0
tp1333
a(S'cpvert_11MeV_30tilt_65rot_det12.npy'
p1334
F1.8105
F0.0098
F19.0511
F0.0394
F1.1638
F0.0074
F175.0
tp1335
a(S'cpvert_11MeV_30tilt_65rot_det13.npy'
p1336
F2.9076
F0.0116
F22.2095
F0.0653
F1.9391
F0.0092
F148.0
tp1337
a(S'cpvert_11MeV_30tilt_65rot_det14.npy'
p1338
F4.019
F0.0133
F27.0534
F0.1076
F2.7778
F0.0116
F120.0
tp1339
a(S'cpvert_11MeV_30tilt_65rot_det15.npy'
p1340
F4.932
F0.0156
F42.1797
F0.3244
F3.4542
F0.0156
F72.0
tp1341
a(S'cpvert_11MeV_30tilt_65rot_det4.npy'
p1342
F4.7985
F0.0134
F40.8429
F0.2854
F3.3845
F0.0124
F74.0
tp1343
a(S'cpvert_11MeV_30tilt_65rot_det5.npy'
p1344
F3.863
F0.0123
F25.3377
F0.1049
F2.6778
F0.0098
F135.0
tp1345
a(S'cpvert_11MeV_30tilt_65rot_det6.npy'
p1346
F2.7628
F0.0112
F19.9374
F0.0584
F1.8681
F0.0085
F165.0
tp1347
a(S'cpvert_11MeV_30tilt_65rot_det7.npy'
p1348
F1.7086
F0.0084
F18.0284
F0.0403
F1.1086
F0.0064
F182.0
tp1349
a(S'cpvert_11MeV_30tilt_65rot_det8.npy'
p1350
F0.8327
F0.0059
F19.3307
F0.0319
F0.5093
F0.0042
F174.0
tp1351
a(S'cpvert_11MeV_30tilt_65rot_det9.npy'
p1352
F0.2965
F0.0037
F17.8203
F0.0396
F0.1731
F0.0022
F164.0
tp1353
a(S'cpvert_11MeV_30tilt_75rot_det10.npy'
p1354
F0.2948
F0.0034
F15.7552
F0.0383
F0.1716
F0.002
F185.0
tp1355
a(S'cpvert_11MeV_30tilt_75rot_det11.npy'
p1356
F0.8919
F0.0063
F19.9501
F0.0339
F0.5424
F0.0043
F173.0
tp1357
a(S'cpvert_11MeV_30tilt_75rot_det12.npy'
p1358
F1.8124
F0.0092
F18.9695
F0.0393
F1.1558
F0.0067
F180.0
tp1359
a(S'cpvert_11MeV_30tilt_75rot_det13.npy'
p1360
F2.9178
F0.0112
F22.1383
F0.0547
F1.9347
F0.0089
F182.0
tp1361
a(S'cpvert_11MeV_30tilt_75rot_det14.npy'
p1362
F4.0798
F0.0137
F27.0924
F0.1345
F2.7937
F0.0126
F115.0
tp1363
a(S'cpvert_11MeV_30tilt_75rot_det15.npy'
p1364
F4.9842
F0.0161
F42.0146
F0.3242
F3.4745
F0.0144
F76.0
tp1365
a(S'cpvert_11MeV_30tilt_75rot_det4.npy'
p1366
F4.8177
F0.0135
F40.8052
F0.2885
F3.384
F0.0134
F83.0
tp1367
a(S'cpvert_11MeV_30tilt_75rot_det5.npy'
p1368
F3.8576
F0.0139
F25.1619
F0.1004
F2.6762
F0.0118
F135.0
tp1369
a(S'cpvert_11MeV_30tilt_75rot_det6.npy'
p1370
F2.7589
F0.0109
F19.9697
F0.0599
F1.8619
F0.0092
F155.0
tp1371
a(S'cpvert_11MeV_30tilt_75rot_det7.npy'
p1372
F1.6713
F0.01
F18.0048
F0.042
F1.0868
F0.007
F156.0
tp1373
a(S'cpvert_11MeV_30tilt_75rot_det8.npy'
p1374
F0.8328
F0.007
F19.3743
F0.0346
F0.5122
F0.0047
F169.0
tp1375
a(S'cpvert_11MeV_30tilt_75rot_det9.npy'
p1376
F0.2867
F0.0034
F17.8267
F0.0425
F0.1679
F0.002
F162.0
tp1377
a(S'cpvert_11MeV_30tilt_85rot_det10.npy'
p1378
F0.2927
F0.0038
F15.8311
F0.0367
F0.1707
F0.0022
F162.0
tp1379
a(S'cpvert_11MeV_30tilt_85rot_det11.npy'
p1380
F0.8887
F0.0072
F19.9602
F0.0329
F0.5395
F0.0049
F149.0
tp1381
a(S'cpvert_11MeV_30tilt_85rot_det12.npy'
p1382
F1.8083
F0.0107
F18.9377
F0.046
F1.1488
F0.0076
F148.0
tp1383
a(S'cpvert_11MeV_30tilt_85rot_det13.npy'
p1384
F2.939
F0.011
F22.1564
F0.0554
F1.9448
F0.0088
F169.0
tp1385
a(S'cpvert_11MeV_30tilt_85rot_det14.npy'
p1386
F4.0974
F0.0141
F26.9327
F0.1137
F2.7834
F0.0116
F125.0
tp1387
a(S'cpvert_11MeV_30tilt_85rot_det15.npy'
p1388
F5.0315
F0.015
F42.0246
F0.2668
F3.4771
F0.0136
F86.0
tp1389
a(S'cpvert_11MeV_30tilt_85rot_det4.npy'
p1390
F4.8366
F0.0141
F40.82
F0.2489
F3.3976
F0.0126
F98.0
tp1391
a(S'cpvert_11MeV_30tilt_85rot_det5.npy'
p1392
F3.8815
F0.0122
F25.424
F0.1101
F2.6889
F0.0098
F149.0
tp1393
a(S'cpvert_11MeV_30tilt_85rot_det6.npy'
p1394
F2.7604
F0.0101
F19.9429
F0.053
F1.8668
F0.0082
F160.0
tp1395
a(S'cpvert_11MeV_30tilt_85rot_det7.npy'
p1396
F1.6835
F0.0085
F18.0359
F0.0438
F1.0996
F0.0066
F178.0
tp1397
a(S'cpvert_11MeV_30tilt_85rot_det8.npy'
p1398
F0.839
F0.0066
F19.3895
F0.035
F0.5171
F0.0044
F164.0
tp1399
a(S'cpvert_11MeV_30tilt_85rot_det9.npy'
p1400
F0.2832
F0.0036
F17.7841
F0.0397
F0.164
F0.0022
F161.0
tp1401
a(S'cpvert_11MeV_30tilt_95rot_det10.npy'
p1402
F0.2808
F0.0033
F15.8607
F0.0349
F0.1642
F0.002
F207.0
tp1403
a(S'cpvert_11MeV_30tilt_95rot_det11.npy'
p1404
F0.8585
F0.0076
F19.8939
F0.0377
F0.5214
F0.0051
F153.0
tp1405
a(S'cpvert_11MeV_30tilt_95rot_det12.npy'
p1406
F1.8099
F0.0102
F18.9802
F0.04
F1.1488
F0.0069
F185.0
tp1407
a(S'cpvert_11MeV_30tilt_95rot_det13.npy'
p1408
F2.9495
F0.0115
F22.3379
F0.0611
F1.9487
F0.0088
F179.0
tp1409
a(S'cpvert_11MeV_30tilt_95rot_det14.npy'
p1410
F4.1277
F0.0122
F26.8661
F0.1069
F2.7832
F0.0099
F147.0
tp1411
a(S'cpvert_11MeV_30tilt_95rot_det15.npy'
p1412
F5.0589
F0.0136
F41.4482
F0.2673
F3.4932
F0.0132
F100.0
tp1413
a(S'cpvert_11MeV_30tilt_95rot_det4.npy'
p1414
F4.9122
F0.0175
F40.9085
F0.3684
F3.4481
F0.0164
F57.0
tp1415
a(S'cpvert_11MeV_30tilt_95rot_det5.npy'
p1416
F3.9101
F0.0125
F25.3961
F0.1042
F2.7199
F0.0106
F144.0
tp1417
a(S'cpvert_11MeV_30tilt_95rot_det6.npy'
p1418
F2.78
F0.0106
F19.9526
F0.0588
F1.8857
F0.0087
F151.0
tp1419
a(S'cpvert_11MeV_30tilt_95rot_det7.npy'
p1420
F1.6815
F0.0087
F18.0825
F0.0419
F1.0983
F0.0067
F164.0
tp1421
a(S'cpvert_11MeV_30tilt_95rot_det8.npy'
p1422
F0.8251
F0.0066
F19.3933
F0.0297
F0.5073
F0.0043
F179.0
tp1423
a(S'cpvert_11MeV_30tilt_95rot_det9.npy'
p1424
F0.2878
F0.0038
F17.9275
F0.0392
F0.168
F0.0023
F163.0
tp1425
a(S'cpvert_11MeV_neg15tilt_105rot_det10.npy'
p1426
F0.2891
F0.0042
F15.9227
F0.0426
F0.1685
F0.0025
F156.0
tp1427
a(S'cpvert_11MeV_neg15tilt_105rot_det11.npy'
p1428
F0.8558
F0.0067
F20.0001
F0.0341
F0.5217
F0.0046
F161.0
tp1429
a(S'cpvert_11MeV_neg15tilt_105rot_det12.npy'
p1430
F1.7837
F0.0105
F19.0856
F0.0432
F1.1444
F0.0074
F153.0
tp1431
a(S'cpvert_11MeV_neg15tilt_105rot_det13.npy'
p1432
F2.9139
F0.0121
F22.1471
F0.0552
F1.9215
F0.0089
F172.0
tp1433
a(S'cpvert_11MeV_neg15tilt_105rot_det14.npy'
p1434
F4.0915
F0.0147
F26.8578
F0.1172
F2.7606
F0.0117
F113.0
tp1435
a(S'cpvert_11MeV_neg15tilt_105rot_det15.npy'
p1436
F5.0853
F0.0213
F42.0176
F0.3185
F3.479
F0.0173
F72.0
tp1437
a(S'cpvert_11MeV_neg15tilt_105rot_det4.npy'
p1438
F4.943
F0.0172
F39.6204
F0.2958
F3.4625
F0.0152
F77.0
tp1439
a(S'cpvert_11MeV_neg15tilt_105rot_det5.npy'
p1440
F3.9191
F0.0137
F24.6668
F0.1031
F2.7058
F0.011
F130.0
tp1441
a(S'cpvert_11MeV_neg15tilt_105rot_det6.npy'
p1442
F2.7951
F0.0112
F19.7832
F0.0577
F1.8841
F0.0089
F149.0
tp1443
a(S'cpvert_11MeV_neg15tilt_105rot_det7.npy'
p1444
F1.7183
F0.0092
F18.0619
F0.0415
F1.1185
F0.0071
F172.0
tp1445
a(S'cpvert_11MeV_neg15tilt_105rot_det8.npy'
p1446
F0.8476
F0.0068
F19.3726
F0.0317
F0.5209
F0.0044
F163.0
tp1447
a(S'cpvert_11MeV_neg15tilt_105rot_det9.npy'
p1448
F0.2824
F0.0038
F17.8741
F0.0459
F0.1648
F0.0022
F141.0
tp1449
a(S'cpvert_11MeV_neg15tilt_115rot_det10.npy'
p1450
F0.2822
F0.0034
F15.8969
F0.0386
F0.1647
F0.002
F167.0
tp1451
a(S'cpvert_11MeV_neg15tilt_115rot_det11.npy'
p1452
F0.8393
F0.0069
F20.0078
F0.0383
F0.5118
F0.0045
F143.0
tp1453
a(S'cpvert_11MeV_neg15tilt_115rot_det12.npy'
p1454
F1.774
F0.01
F19.1512
F0.0414
F1.1363
F0.0071
F164.0
tp1455
a(S'cpvert_11MeV_neg15tilt_115rot_det13.npy'
p1456
F2.899
F0.012
F22.2546
F0.0559
F1.9288
F0.0102
F155.0
tp1457
a(S'cpvert_11MeV_neg15tilt_115rot_det14.npy'
p1458
F4.0844
F0.013
F27.0263
F0.1119
F2.7667
F0.011
F139.0
tp1459
a(S'cpvert_11MeV_neg15tilt_115rot_det15.npy'
p1460
F5.112
F0.0157
F41.991
F0.2683
F3.5071
F0.0145
F85.0
tp1461
a(S'cpvert_11MeV_neg15tilt_115rot_det4.npy'
p1462
F4.9811
F0.0165
F39.7262
F0.3058
F3.456
F0.0137
F72.0
tp1463
a(S'cpvert_11MeV_neg15tilt_115rot_det5.npy'
p1464
F3.9561
F0.0132
F24.8981
F0.1077
F2.7261
F0.0106
F134.0
tp1465
a(S'cpvert_11MeV_neg15tilt_115rot_det6.npy'
p1466
F2.8124
F0.0122
F19.6771
F0.0625
F1.8899
F0.0105
F137.0
tp1467
a(S'cpvert_11MeV_neg15tilt_115rot_det7.npy'
p1468
F1.714
F0.01
F17.9746
F0.0479
F1.1153
F0.0075
F147.0
tp1469
a(S'cpvert_11MeV_neg15tilt_115rot_det8.npy'
p1470
F0.8412
F0.0072
F19.3493
F0.0386
F0.518
F0.0049
F147.0
tp1471
a(S'cpvert_11MeV_neg15tilt_115rot_det9.npy'
p1472
F0.2794
F0.0036
F17.8123
F0.0428
F0.1624
F0.0021
F151.0
tp1473
a(S'cpvert_11MeV_neg15tilt_125rot_det10.npy'
p1474
F0.287
F0.0033
F15.8896
F0.0344
F0.1676
F0.002
F186.0
tp1475
a(S'cpvert_11MeV_neg15tilt_125rot_det11.npy'
p1476
F0.8595
F0.0068
F20.1299
F0.0345
F0.5286
F0.0046
F161.0
tp1477
a(S'cpvert_11MeV_neg15tilt_125rot_det12.npy'
p1478
F1.7186
F0.0101
F19.0436
F0.0414
F1.1114
F0.0073
F171.0
tp1479
a(S'cpvert_11MeV_neg15tilt_125rot_det13.npy'
p1480
F2.8621
F0.0115
F22.2509
F0.0577
F1.9097
F0.0089
F179.0
tp1481
a(S'cpvert_11MeV_neg15tilt_125rot_det14.npy'
p1482
F4.0494
F0.0134
F26.872
F0.107
F2.7576
F0.011
F134.0
tp1483
a(S'cpvert_11MeV_neg15tilt_125rot_det15.npy'
p1484
F5.0544
F0.0143
F41.1905
F0.2632
F3.4706
F0.0141
F92.0
tp1485
a(S'cpvert_11MeV_neg15tilt_125rot_det4.npy'
p1486
F5.0347
F0.0159
F39.371
F0.2908
F3.481
F0.0138
F69.0
tp1487
a(S'cpvert_11MeV_neg15tilt_125rot_det5.npy'
p1488
F3.9724
F0.0136
F24.7232
F0.1166
F2.7274
F0.012
F116.0
tp1489
a(S'cpvert_11MeV_neg15tilt_125rot_det6.npy'
p1490
F2.8229
F0.0141
F19.709
F0.0619
F1.8964
F0.0108
F156.0
tp1491
a(S'cpvert_11MeV_neg15tilt_125rot_det7.npy'
p1492
F1.7212
F0.0114
F17.9327
F0.0445
F1.1165
F0.0084
F148.0
tp1493
a(S'cpvert_11MeV_neg15tilt_125rot_det8.npy'
p1494
F0.8514
F0.0069
F19.3597
F0.0328
F0.5232
F0.0046
F156.0
tp1495
a(S'cpvert_11MeV_neg15tilt_125rot_det9.npy'
p1496
F0.2799
F0.0035
F17.8311
F0.0423
F0.1643
F0.0021
F165.0
tp1497
a(S'cpvert_11MeV_neg15tilt_135rot_det10.npy'
p1498
F0.2868
F0.0033
F16.0395
F0.0349
F0.1665
F0.002
F188.0
tp1499
a(S'cpvert_11MeV_neg15tilt_135rot_det11.npy'
p1500
F0.8463
F0.0059
F20.179
F0.0302
F0.5177
F0.004
F194.0
tp1501
a(S'cpvert_11MeV_neg15tilt_135rot_det12.npy'
p1502
F1.736
F0.01
F19.1053
F0.0412
F1.1267
F0.0074
F162.0
tp1503
a(S'cpvert_11MeV_neg15tilt_135rot_det13.npy'
p1504
F2.8519
F0.012
F22.3573
F0.06
F1.9074
F0.0093
F152.0
tp1505
a(S'cpvert_11MeV_neg15tilt_135rot_det14.npy'
p1506
F3.9987
F0.0129
F26.853
F0.1143
F2.7344
F0.0106
F135.0
tp1507
a(S'cpvert_11MeV_neg15tilt_135rot_det15.npy'
p1508
F5.0552
F0.0183
F41.8358
F0.3022
F3.4999
F0.0165
F70.0
tp1509
a(S'cpvert_11MeV_neg15tilt_135rot_det4.npy'
p1510
F5.0659
F0.0154
F39.7235
F0.2653
F3.4867
F0.0153
F76.0
tp1511
a(S'cpvert_11MeV_neg15tilt_135rot_det5.npy'
p1512
F3.9912
F0.0142
F24.6294
F0.0971
F2.7379
F0.0115
F129.0
tp1513
a(S'cpvert_11MeV_neg15tilt_135rot_det6.npy'
p1514
F2.8587
F0.0114
F19.6976
F0.0648
F1.9139
F0.0089
F160.0
tp1515
a(S'cpvert_11MeV_neg15tilt_135rot_det7.npy'
p1516
F1.7403
F0.0099
F17.9715
F0.0419
F1.123
F0.0071
F176.0
tp1517
a(S'cpvert_11MeV_neg15tilt_135rot_det8.npy'
p1518
F0.8556
F0.0069
F19.3216
F0.0355
F0.526
F0.0046
F139.0
tp1519
a(S'cpvert_11MeV_neg15tilt_135rot_det9.npy'
p1520
F0.289
F0.0035
F17.8314
F0.0402
F0.1673
F0.002
F174.0
tp1521
a(S'cpvert_11MeV_neg15tilt_145rot_det10.npy'
p1522
F0.2891
F0.0034
F16.0023
F0.0383
F0.168
F0.002
F170.0
tp1523
a(S'cpvert_11MeV_neg15tilt_145rot_det11.npy'
p1524
F0.8456
F0.0064
F20.1416
F0.0327
F0.5178
F0.0043
F171.0
tp1525
a(S'cpvert_11MeV_neg15tilt_145rot_det12.npy'
p1526
F1.7393
F0.0099
F19.1903
F0.0403
F1.1354
F0.0073
F165.0
tp1527
a(S'cpvert_11MeV_neg15tilt_145rot_det13.npy'
p1528
F2.8288
F0.0105
F22.4232
F0.0562
F1.8997
F0.0084
F176.0
tp1529
a(S'cpvert_11MeV_neg15tilt_145rot_det14.npy'
p1530
F4.0057
F0.0147
F27.3919
F0.1125
F2.7524
F0.0118
F117.0
tp1531
a(S'cpvert_11MeV_neg15tilt_145rot_det15.npy'
p1532
F4.9885
F0.0161
F41.5786
F0.2643
F3.4629
F0.0151
F72.0
tp1533
a(S'cpvert_11MeV_neg15tilt_145rot_det4.npy'
p1534
F5.1081
F0.0155
F39.8075
F0.2774
F3.5076
F0.0139
F81.0
tp1535
a(S'cpvert_11MeV_neg15tilt_145rot_det5.npy'
p1536
F4.0557
F0.014
F24.888
F0.1073
F2.7505
F0.0113
F146.0
tp1537
a(S'cpvert_11MeV_neg15tilt_145rot_det6.npy'
p1538
F2.8755
F0.0116
F19.6424
F0.0543
F1.9167
F0.0088
F177.0
tp1539
a(S'cpvert_11MeV_neg15tilt_145rot_det7.npy'
p1540
F1.744
F0.0106
F17.974
F0.0487
F1.1267
F0.0074
F146.0
tp1541
a(S'cpvert_11MeV_neg15tilt_145rot_det8.npy'
p1542
F0.845
F0.0073
F19.3018
F0.0344
F0.5202
F0.0049
F172.0
tp1543
a(S'cpvert_11MeV_neg15tilt_145rot_det9.npy'
p1544
F0.286
F0.0037
F17.8086
F0.0406
F0.1672
F0.0023
F168.0
tp1545
a(S'cpvert_11MeV_neg15tilt_15rot_det10.npy'
p1546
F0.2859
F0.0033
F15.848
F0.037
F0.1671
F0.002
F190.0
tp1547
a(S'cpvert_11MeV_neg15tilt_15rot_det11.npy'
p1548
F0.8457
F0.0069
F20.018
F0.0384
F0.5207
F0.0047
F139.0
tp1549
a(S'cpvert_11MeV_neg15tilt_15rot_det12.npy'
p1550
F1.7561
F0.0088
F19.0739
F0.036
F1.1433
F0.0065
F204.0
tp1551
a(S'cpvert_11MeV_neg15tilt_15rot_det13.npy'
p1552
F2.8108
F0.0105
F22.1895
F0.0528
F1.8977
F0.0083
F171.0
tp1553
a(S'cpvert_11MeV_neg15tilt_15rot_det14.npy'
p1554
F3.9069
F0.0125
F26.7435
F0.0998
F2.708
F0.011
F145.0
tp1555
a(S'cpvert_11MeV_neg15tilt_15rot_det15.npy'
p1556
F4.8879
F0.0161
F41.662
F0.3518
F3.4288
F0.0139
F62.0
tp1557
a(S'cpvert_11MeV_neg15tilt_15rot_det4.npy'
p1558
F4.9827
F0.0157
F41.0223
F0.3031
F3.463
F0.0145
F70.0
tp1559
a(S'cpvert_11MeV_neg15tilt_15rot_det5.npy'
p1560
F4.0292
F0.0148
F25.132
F0.0966
F2.7673
F0.0127
F130.0
tp1561
a(S'cpvert_11MeV_neg15tilt_15rot_det6.npy'
p1562
F2.9212
F0.0112
F19.7716
F0.059
F1.9352
F0.0089
F169.0
tp1563
a(S'cpvert_11MeV_neg15tilt_15rot_det7.npy'
p1564
F1.819
F0.0098
F17.9735
F0.0468
F1.1647
F0.0073
F140.0
tp1565
a(S'cpvert_11MeV_neg15tilt_15rot_det8.npy'
p1566
F0.9055
F0.0068
F19.2888
F0.0359
F0.5514
F0.0045
F148.0
tp1567
a(S'cpvert_11MeV_neg15tilt_15rot_det9.npy'
p1568
F0.2974
F0.0033
F17.7
F0.036
F0.1752
F0.002
F179.0
tp1569
a(S'cpvert_11MeV_neg15tilt_25rot_det10.npy'
p1570
F0.2809
F0.0037
F15.8083
F0.0367
F0.1644
F0.0021
F177.0
tp1571
a(S'cpvert_11MeV_neg15tilt_25rot_det11.npy'
p1572
F0.8528
F0.0057
F19.9654
F0.0299
F0.5205
F0.0038
F180.0
tp1573
a(S'cpvert_11MeV_neg15tilt_25rot_det12.npy'
p1574
F1.7368
F0.0089
F19.0252
F0.041
F1.1254
F0.0066
F185.0
tp1575
a(S'cpvert_11MeV_neg15tilt_25rot_det13.npy'
p1576
F2.8204
F0.0115
F22.2405
F0.0573
F1.902
F0.0088
F154.0
tp1577
a(S'cpvert_11MeV_neg15tilt_25rot_det14.npy'
p1578
F3.9402
F0.0113
F27.1139
F0.1036
F2.7347
F0.0091
F141.0
tp1579
a(S'cpvert_11MeV_neg15tilt_25rot_det15.npy'
p1580
F4.8729
F0.0172
F41.5992
F0.3191
F3.4245
F0.0136
F70.0
tp1581
a(S'cpvert_11MeV_neg15tilt_25rot_det4.npy'
p1582
F4.9166
F0.0148
F40.4165
F0.2723
F3.4352
F0.0136
F84.0
tp1583
a(S'cpvert_11MeV_neg15tilt_25rot_det5.npy'
p1584
F4.0
F0.0134
F25.2137
F0.1058
F2.7453
F0.0107
F145.0
tp1585
a(S'cpvert_11MeV_neg15tilt_25rot_det6.npy'
p1586
F2.9164
F0.0119
F19.9675
F0.0627
F1.9512
F0.0088
F144.0
tp1587
a(S'cpvert_11MeV_neg15tilt_25rot_det7.npy'
p1588
F1.7965
F0.0098
F18.0141
F0.044
F1.1485
F0.0071
F163.0
tp1589
a(S'cpvert_11MeV_neg15tilt_25rot_det8.npy'
p1590
F0.8973
F0.0064
F19.2845
F0.0314
F0.5449
F0.0042
F183.0
tp1591
a(S'cpvert_11MeV_neg15tilt_25rot_det9.npy'
p1592
F0.3062
F0.0033
F17.6997
F0.0389
F0.1787
F0.002
F176.0
tp1593
a(S'cpvert_11MeV_neg15tilt_315rot_det10.npy'
p1594
F0.2984
F0.0034
F15.9215
F0.0372
F0.1742
F0.002
F175.0
tp1595
a(S'cpvert_11MeV_neg15tilt_315rot_det11.npy'
p1596
F0.8535
F0.0067
F20.063
F0.0328
F0.5244
F0.0045
F190.0
tp1597
a(S'cpvert_11MeV_neg15tilt_315rot_det12.npy'
p1598
F1.754
F0.0098
F19.1257
F0.0407
F1.1366
F0.0075
F191.0
tp1599
a(S'cpvert_11MeV_neg15tilt_315rot_det13.npy'
p1600
F2.886
F0.014
F22.3994
F0.0642
F1.9287
F0.0106
F124.0
tp1601
a(S'cpvert_11MeV_neg15tilt_315rot_det14.npy'
p1602
F4.0355
F0.0148
F27.0284
F0.106
F2.7379
F0.0109
F130.0
tp1603
a(S'cpvert_11MeV_neg15tilt_315rot_det15.npy'
p1604
F5.0652
F0.0187
F42.1908
F0.3079
F3.4751
F0.015
F67.0
tp1605
a(S'cpvert_11MeV_neg15tilt_315rot_det4.npy'
p1606
F5.0756
F0.0174
F40.1481
F0.3001
F3.4797
F0.0158
F72.0
tp1607
a(S'cpvert_11MeV_neg15tilt_315rot_det5.npy'
p1608
F4.0695
F0.0149
F25.1276
F0.1085
F2.7841
F0.0115
F128.0
tp1609
a(S'cpvert_11MeV_neg15tilt_315rot_det6.npy'
p1610
F2.8938
F0.0109
F19.7979
F0.059
F1.9388
F0.0084
F172.0
tp1611
a(S'cpvert_11MeV_neg15tilt_315rot_det7.npy'
p1612
F1.7723
F0.0096
F17.9426
F0.0416
F1.1497
F0.007
F158.0
tp1613
a(S'cpvert_11MeV_neg15tilt_315rot_det8.npy'
p1614
F0.8537
F0.0067
F19.2969
F0.0358
F0.5231
F0.0046
F150.0
tp1615
a(S'cpvert_11MeV_neg15tilt_315rot_det9.npy'
p1616
F0.2967
F0.0035
F17.8388
F0.0351
F0.1722
F0.0021
F175.0
tp1617
a(S'cpvert_11MeV_neg15tilt_325rot_det10.npy'
p1618
F0.2878
F0.0033
F15.9273
F0.0357
F0.1663
F0.002
F196.0
tp1619
a(S'cpvert_11MeV_neg15tilt_325rot_det11.npy'
p1620
F0.8553
F0.0071
F19.9893
F0.0319
F0.5251
F0.0048
F163.0
tp1621
a(S'cpvert_11MeV_neg15tilt_325rot_det12.npy'
p1622
F1.7516
F0.0093
F19.0117
F0.0396
F1.1371
F0.0071
F168.0
tp1623
a(S'cpvert_11MeV_neg15tilt_325rot_det13.npy'
p1624
F2.8661
F0.0131
F22.3418
F0.0616
F1.9267
F0.0099
F164.0
tp1625
a(S'cpvert_11MeV_neg15tilt_325rot_det14.npy'
p1626
F4.0126
F0.0134
F27.0864
F0.1169
F2.7612
F0.0117
F119.0
tp1627
a(S'cpvert_11MeV_neg15tilt_325rot_det15.npy'
p1628
F5.0591
F0.0141
F42.4261
F0.2802
F3.5074
F0.0125
F89.0
tp1629
a(S'cpvert_11MeV_neg15tilt_325rot_det4.npy'
p1630
F5.1053
F0.0178
F40.4824
F0.2631
F3.498
F0.0165
F74.0
tp1631
a(S'cpvert_11MeV_neg15tilt_325rot_det5.npy'
p1632
F4.094
F0.014
F25.2373
F0.1026
F2.786
F0.011
F138.0
tp1633
a(S'cpvert_11MeV_neg15tilt_325rot_det6.npy'
p1634
F2.9175
F0.0122
F19.8304
F0.0592
F1.9518
F0.0092
F157.0
tp1635
a(S'cpvert_11MeV_neg15tilt_325rot_det7.npy'
p1636
F1.7667
F0.0098
F17.9829
F0.0419
F1.1407
F0.0073
F164.0
tp1637
a(S'cpvert_11MeV_neg15tilt_325rot_det8.npy'
p1638
F0.8661
F0.0066
F19.3286
F0.0377
F0.5323
F0.0044
F158.0
tp1639
a(S'cpvert_11MeV_neg15tilt_325rot_det9.npy'
p1640
F0.2899
F0.0033
F17.7607
F0.0366
F0.1691
F0.0019
F186.0
tp1641
a(S'cpvert_11MeV_neg15tilt_335rot_det10.npy'
p1642
F0.2921
F0.0033
F15.8844
F0.0384
F0.17
F0.002
F187.0
tp1643
a(S'cpvert_11MeV_neg15tilt_335rot_det11.npy'
p1644
F0.8417
F0.0069
F20.019
F0.0345
F0.5169
F0.0046
F182.0
tp1645
a(S'cpvert_11MeV_neg15tilt_335rot_det12.npy'
p1646
F1.7499
F0.01
F19.1253
F0.0398
F1.1388
F0.0072
F176.0
tp1647
a(S'cpvert_11MeV_neg15tilt_335rot_det13.npy'
p1648
F2.8421
F0.0107
F22.2599
F0.0576
F1.918
F0.0082
F166.0
tp1649
a(S'cpvert_11MeV_neg15tilt_335rot_det14.npy'
p1650
F3.9371
F0.0131
F26.9264
F0.1133
F2.7125
F0.0111
F138.0
tp1651
a(S'cpvert_11MeV_neg15tilt_335rot_det15.npy'
p1652
F4.9903
F0.02
F42.4749
F0.3171
F3.4647
F0.0173
F67.0
tp1653
a(S'cpvert_11MeV_neg15tilt_335rot_det4.npy'
p1654
F5.1402
F0.0174
F40.8264
F0.2775
F3.5282
F0.0156
F82.0
tp1655
a(S'cpvert_11MeV_neg15tilt_335rot_det5.npy'
p1656
F4.1625
F0.0119
F25.3047
F0.1004
F2.818
F0.0104
F134.0
tp1657
a(S'cpvert_11MeV_neg15tilt_335rot_det6.npy'
p1658
F2.9502
F0.0122
F19.8413
F0.0557
F1.9633
F0.0093
F147.0
tp1659
a(S'cpvert_11MeV_neg15tilt_335rot_det7.npy'
p1660
F1.7835
F0.0099
F18.0068
F0.0419
F1.1484
F0.0069
F187.0
tp1661
a(S'cpvert_11MeV_neg15tilt_335rot_det8.npy'
p1662
F0.8818
F0.0067
F19.2705
F0.0351
F0.5421
F0.0044
F160.0
tp1663
a(S'cpvert_11MeV_neg15tilt_335rot_det9.npy'
p1664
F0.2881
F0.0035
F17.7667
F0.0416
F0.1679
F0.0021
F162.0
tp1665
a(S'cpvert_11MeV_neg15tilt_345rot_det10.npy'
p1666
F0.2894
F0.0035
F15.9697
F0.0402
F0.1682
F0.0021
F167.0
tp1667
a(S'cpvert_11MeV_neg15tilt_345rot_det11.npy'
p1668
F0.8472
F0.0067
F19.9883
F0.0314
F0.5198
F0.0047
F185.0
tp1669
a(S'cpvert_11MeV_neg15tilt_345rot_det12.npy'
p1670
F1.7266
F0.0085
F19.0457
F0.0397
F1.1243
F0.0062
F202.0
tp1671
a(S'cpvert_11MeV_neg15tilt_345rot_det13.npy'
p1672
F2.8473
F0.0114
F22.3853
F0.0607
F1.9223
F0.009
F152.0
tp1673
a(S'cpvert_11MeV_neg15tilt_345rot_det14.npy'
p1674
F3.959
F0.0136
F27.0824
F0.1152
F2.7376
F0.0106
F133.0
tp1675
a(S'cpvert_11MeV_neg15tilt_345rot_det15.npy'
p1676
F4.9462
F0.0161
F41.7642
F0.2688
F3.4416
F0.0132
F90.0
tp1677
a(S'cpvert_11MeV_neg15tilt_345rot_det4.npy'
p1678
F5.1052
F0.0152
F40.4531
F0.2933
F3.5031
F0.0147
F81.0
tp1679
a(S'cpvert_11MeV_neg15tilt_345rot_det5.npy'
p1680
F4.1182
F0.0118
F25.1083
F0.1099
F2.7813
F0.0102
F150.0
tp1681
a(S'cpvert_11MeV_neg15tilt_345rot_det6.npy'
p1682
F2.9872
F0.0111
F19.82
F0.0558
F1.9749
F0.0085
F164.0
tp1683
a(S'cpvert_11MeV_neg15tilt_345rot_det7.npy'
p1684
F1.798
F0.0104
F17.8979
F0.0415
F1.1493
F0.0071
F167.0
tp1685
a(S'cpvert_11MeV_neg15tilt_345rot_det8.npy'
p1686
F0.8827
F0.0069
F19.2365
F0.0294
F0.5404
F0.0045
F177.0
tp1687
a(S'cpvert_11MeV_neg15tilt_345rot_det9.npy'
p1688
F0.2974
F0.0032
F17.7242
F0.0369
F0.1743
F0.002
F186.0
tp1689
a(S'cpvert_11MeV_neg15tilt_355rot_det10.npy'
p1690
F0.2881
F0.0035
F15.8254
F0.0381
F0.1674
F0.0021
F165.0
tp1691
a(S'cpvert_11MeV_neg15tilt_355rot_det11.npy'
p1692
F0.833
F0.0068
F19.9951
F0.0358
F0.5097
F0.0043
F161.0
tp1693
a(S'cpvert_11MeV_neg15tilt_355rot_det12.npy'
p1694
F1.7036
F0.0098
F18.9733
F0.0391
F1.1037
F0.0071
F188.0
tp1695
a(S'cpvert_11MeV_neg15tilt_355rot_det13.npy'
p1696
F2.8236
F0.0102
F22.3257
F0.059
F1.9111
F0.008
F177.0
tp1697
a(S'cpvert_11MeV_neg15tilt_355rot_det14.npy'
p1698
F3.9179
F0.012
F27.0759
F0.0961
F2.7027
F0.0098
F147.0
tp1699
a(S'cpvert_11MeV_neg15tilt_355rot_det15.npy'
p1700
F4.9169
F0.0159
F41.9481
F0.2938
F3.4484
F0.0156
F70.0
tp1701
a(S'cpvert_11MeV_neg15tilt_355rot_det4.npy'
p1702
F5.0584
F0.0165
F40.4829
F0.3016
F3.4857
F0.0145
F61.0
tp1703
a(S'cpvert_11MeV_neg15tilt_355rot_det5.npy'
p1704
F4.1109
F0.0136
F25.2034
F0.1091
F2.7898
F0.0119
F118.0
tp1705
a(S'cpvert_11MeV_neg15tilt_355rot_det6.npy'
p1706
F2.9566
F0.012
F19.6278
F0.0572
F1.9495
F0.0089
F164.0
tp1707
a(S'cpvert_11MeV_neg15tilt_355rot_det7.npy'
p1708
F1.8287
F0.0098
F17.9447
F0.0448
F1.171
F0.0071
F167.0
tp1709
a(S'cpvert_11MeV_neg15tilt_355rot_det8.npy'
p1710
F0.8839
F0.007
F19.2736
F0.033
F0.5401
F0.0048
F161.0
tp1711
a(S'cpvert_11MeV_neg15tilt_355rot_det9.npy'
p1712
F0.304
F0.0037
F17.6943
F0.035
F0.1788
F0.0022
F178.0
tp1713
a(S'cpvert_11MeV_neg15tilt_35rot_det10.npy'
p1714
F0.2848
F0.0032
F15.8621
F0.038
F0.1673
F0.0019
F180.0
tp1715
a(S'cpvert_11MeV_neg15tilt_35rot_det11.npy'
p1716
F0.8706
F0.0071
F20.0032
F0.038
F0.5339
F0.0047
F157.0
tp1717
a(S'cpvert_11MeV_neg15tilt_35rot_det12.npy'
p1718
F1.7239
F0.0095
F18.9943
F0.0394
F1.1148
F0.0068
F174.0
tp1719
a(S'cpvert_11MeV_neg15tilt_35rot_det13.npy'
p1720
F2.8211
F0.0122
F22.281
F0.0563
F1.901
F0.0096
F172.0
tp1721
a(S'cpvert_11MeV_neg15tilt_35rot_det14.npy'
p1722
F3.9373
F0.0122
F26.7993
F0.0947
F2.7302
F0.0099
F146.0
tp1723
a(S'cpvert_11MeV_neg15tilt_35rot_det15.npy'
p1724
F4.8786
F0.013
F41.2904
F0.2916
F3.4274
F0.0126
F90.0
tp1725
a(S'cpvert_11MeV_neg15tilt_35rot_det4.npy'
p1726
F4.9116
F0.0148
F40.5735
F0.3056
F3.4347
F0.0136
F74.0
tp1727
a(S'cpvert_11MeV_neg15tilt_35rot_det5.npy'
p1728
F3.985
F0.0141
F25.2783
F0.1177
F2.7482
F0.0127
F103.0
tp1729
a(S'cpvert_11MeV_neg15tilt_35rot_det6.npy'
p1730
F2.8584
F0.0129
F19.8346
F0.0622
F1.9127
F0.01
F157.0
tp1731
a(S'cpvert_11MeV_neg15tilt_35rot_det7.npy'
p1732
F1.7612
F0.0089
F17.9285
F0.0451
F1.1343
F0.0065
F165.0
tp1733
a(S'cpvert_11MeV_neg15tilt_35rot_det8.npy'
p1734
F0.8847
F0.0073
F19.2598
F0.0383
F0.5409
F0.0049
F145.0
tp1735
a(S'cpvert_11MeV_neg15tilt_35rot_det9.npy'
p1736
F0.3109
F0.0039
F17.8146
F0.0395
F0.1816
F0.0023
F172.0
tp1737
a(S'cpvert_11MeV_neg15tilt_45rot_det10.npy'
p1738
F0.2906
F0.004
F15.8778
F0.0385
F0.171
F0.0024
F169.0
tp1739
a(S'cpvert_11MeV_neg15tilt_45rot_det11.npy'
p1740
F0.8671
F0.0063
F19.9521
F0.0312
F0.5297
F0.0043
F169.0
tp1741
a(S'cpvert_11MeV_neg15tilt_45rot_det12.npy'
p1742
F1.7629
F0.0099
F18.9961
F0.0435
F1.1387
F0.0073
F169.0
tp1743
a(S'cpvert_11MeV_neg15tilt_45rot_det13.npy'
p1744
F2.856
F0.0112
F22.3223
F0.0589
F1.9145
F0.0088
F170.0
tp1745
a(S'cpvert_11MeV_neg15tilt_45rot_det14.npy'
p1746
F3.9618
F0.0128
F26.799
F0.1059
F2.7434
F0.0115
F138.0
tp1747
a(S'cpvert_11MeV_neg15tilt_45rot_det15.npy'
p1748
F4.9091
F0.0195
F41.915
F0.3091
F3.4422
F0.0161
F74.0
tp1749
a(S'cpvert_11MeV_neg15tilt_45rot_det4.npy'
p1750
F4.8572
F0.0201
F40.3679
F0.3441
F3.4159
F0.0162
F62.0
tp1751
a(S'cpvert_11MeV_neg15tilt_45rot_det5.npy'
p1752
F3.9773
F0.012
F25.356
F0.0967
F2.7502
F0.0111
F137.0
tp1753
a(S'cpvert_11MeV_neg15tilt_45rot_det6.npy'
p1754
F2.839
F0.0137
F19.8216
F0.0693
F1.9123
F0.0106
F126.0
tp1755
a(S'cpvert_11MeV_neg15tilt_45rot_det7.npy'
p1756
F1.7553
F0.0095
F18.0493
F0.0369
F1.1326
F0.0073
F168.0
tp1757
a(S'cpvert_11MeV_neg15tilt_45rot_det8.npy'
p1758
F0.8792
F0.0074
F19.3643
F0.0372
F0.5357
F0.0049
F155.0
tp1759
a(S'cpvert_11MeV_neg15tilt_45rot_det9.npy'
p1760
F0.3079
F0.0037
F17.8151
F0.0375
F0.1804
F0.0022
F175.0
tp1761
a(S'cpvert_11MeV_neg15tilt_55rot_det10.npy'
p1762
F0.2942
F0.0031
F15.8457
F0.0365
F0.1722
F0.0018
F196.0
tp1763
a(S'cpvert_11MeV_neg15tilt_55rot_det11.npy'
p1764
F0.8645
F0.0071
F19.898
F0.0334
F0.5286
F0.0047
F163.0
tp1765
a(S'cpvert_11MeV_neg15tilt_55rot_det12.npy'
p1766
F1.761
F0.0101
F19.0228
F0.0413
F1.1343
F0.007
F178.0
tp1767
a(S'cpvert_11MeV_neg15tilt_55rot_det13.npy'
p1768
F2.8994
F0.013
F22.2674
F0.063
F1.9452
F0.0101
F139.0
tp1769
a(S'cpvert_11MeV_neg15tilt_55rot_det14.npy'
p1770
F3.9626
F0.0131
F26.7749
F0.1037
F2.7279
F0.0108
F140.0
tp1771
a(S'cpvert_11MeV_neg15tilt_55rot_det15.npy'
p1772
F4.9342
F0.0151
F41.7673
F0.2843
F3.466
F0.014
F84.0
tp1773
a(S'cpvert_11MeV_neg15tilt_55rot_det4.npy'
p1774
F4.8935
F0.0165
F40.7591
F0.2965
F3.4585
F0.0143
F70.0
tp1775
a(S'cpvert_11MeV_neg15tilt_55rot_det5.npy'
p1776
F3.9185
F0.0131
F25.021
F0.1031
F2.7089
F0.0108
F126.0
tp1777
a(S'cpvert_11MeV_neg15tilt_55rot_det6.npy'
p1778
F2.7774
F0.0121
F19.6732
F0.0592
F1.8649
F0.0088
F177.0
tp1779
a(S'cpvert_11MeV_neg15tilt_55rot_det7.npy'
p1780
F1.7115
F0.0093
F17.9117
F0.0457
F1.1052
F0.0067
F164.0
tp1781
a(S'cpvert_11MeV_neg15tilt_55rot_det8.npy'
p1782
F0.8685
F0.0063
F19.3906
F0.0289
F0.5314
F0.0044
F170.0
tp1783
a(S'cpvert_11MeV_neg15tilt_55rot_det9.npy'
p1784
F0.2955
F0.0041
F17.8004
F0.044
F0.1738
F0.0024
F143.0
tp1785
a(S'cpvert_11MeV_neg15tilt_5rot_det10.npy'
p1786
F0.2863
F0.0035
F15.8604
F0.0401
F0.1671
F0.0022
F167.0
tp1787
a(S'cpvert_11MeV_neg15tilt_5rot_det11.npy'
p1788
F0.84
F0.0064
F20.0116
F0.0341
F0.5175
F0.0043
F181.0
tp1789
a(S'cpvert_11MeV_neg15tilt_5rot_det12.npy'
p1790
F1.7239
F0.009
F18.9792
F0.0398
F1.1196
F0.0065
F197.0
tp1791
a(S'cpvert_11MeV_neg15tilt_5rot_det13.npy'
p1792
F2.8007
F0.0122
F22.1931
F0.0574
F1.8935
F0.0095
F169.0
tp1793
a(S'cpvert_11MeV_neg15tilt_5rot_det14.npy'
p1794
F3.92
F0.0125
F27.042
F0.1081
F2.7263
F0.0106
F158.0
tp1795
a(S'cpvert_11MeV_neg15tilt_5rot_det15.npy'
p1796
F4.9038
F0.0147
F41.8123
F0.2647
F3.4401
F0.0146
F79.0
tp1797
a(S'cpvert_11MeV_neg15tilt_5rot_det4.npy'
p1798
F5.0155
F0.0143
F40.5008
F0.2488
F3.4939
F0.0138
F81.0
tp1799
a(S'cpvert_11MeV_neg15tilt_5rot_det5.npy'
p1800
F4.0571
F0.0138
F25.1346
F0.1059
F2.7603
F0.0114
F136.0
tp1801
a(S'cpvert_11MeV_neg15tilt_5rot_det6.npy'
p1802
F2.958
F0.0111
F19.8304
F0.0621
F1.9548
F0.009
F163.0
tp1803
a(S'cpvert_11MeV_neg15tilt_5rot_det7.npy'
p1804
F1.8107
F0.0104
F17.9583
F0.0439
F1.1532
F0.0077
F162.0
tp1805
a(S'cpvert_11MeV_neg15tilt_5rot_det8.npy'
p1806
F0.8918
F0.007
F19.2598
F0.0341
F0.544
F0.0047
F167.0
tp1807
a(S'cpvert_11MeV_neg15tilt_5rot_det9.npy'
p1808
F0.3125
F0.0035
F17.7525
F0.0351
F0.1833
F0.002
F183.0
tp1809
a(S'cpvert_11MeV_neg15tilt_65rot_det10.npy'
p1810
F0.2926
F0.0038
F15.8448
F0.039
F0.1728
F0.0023
F148.0
tp1811
a(S'cpvert_11MeV_neg15tilt_65rot_det11.npy'
p1812
F0.8731
F0.0073
F19.9573
F0.0343
F0.5308
F0.0047
F165.0
tp1813
a(S'cpvert_11MeV_neg15tilt_65rot_det12.npy'
p1814
F1.7952
F0.0103
F19.068
F0.0386
F1.1483
F0.0076
F158.0
tp1815
a(S'cpvert_11MeV_neg15tilt_65rot_det13.npy'
p1816
F2.8792
F0.0127
F22.1157
F0.0668
F1.9142
F0.0098
F142.0
tp1817
a(S'cpvert_11MeV_neg15tilt_65rot_det14.npy'
p1818
F4.0157
F0.013
F27.019
F0.1208
F2.7551
F0.0108
F129.0
tp1819
a(S'cpvert_11MeV_neg15tilt_65rot_det15.npy'
p1820
F4.9705
F0.0179
F41.1784
F0.3369
F3.4742
F0.0154
F60.0
tp1821
a(S'cpvert_11MeV_neg15tilt_65rot_det4.npy'
p1822
F4.882
F0.0155
F40.7217
F0.3206
F3.409
F0.016
F69.0
tp1823
a(S'cpvert_11MeV_neg15tilt_65rot_det5.npy'
p1824
F3.9253
F0.0118
F24.9642
F0.1103
F2.7153
F0.0101
F132.0
tp1825
a(S'cpvert_11MeV_neg15tilt_65rot_det6.npy'
p1826
F2.8162
F0.012
F19.7833
F0.0616
F1.894
F0.0099
F138.0
tp1827
a(S'cpvert_11MeV_neg15tilt_65rot_det7.npy'
p1828
F1.7181
F0.0097
F18.0357
F0.0445
F1.1142
F0.0071
F163.0
tp1829
a(S'cpvert_11MeV_neg15tilt_65rot_det8.npy'
p1830
F0.856
F0.0074
F19.3385
F0.0416
F0.5253
F0.005
F131.0
tp1831
a(S'cpvert_11MeV_neg15tilt_65rot_det9.npy'
p1832
F0.2902
F0.0038
F17.7953
F0.0372
F0.1694
F0.0023
F172.0
tp1833
a(S'cpvert_11MeV_neg15tilt_75rot_det10.npy'
p1834
F0.2925
F0.0039
F15.8165
F0.0428
F0.1702
F0.0023
F168.0
tp1835
a(S'cpvert_11MeV_neg15tilt_75rot_det11.npy'
p1836
F0.8748
F0.008
F19.9981
F0.0407
F0.5308
F0.0055
F137.0
tp1837
a(S'cpvert_11MeV_neg15tilt_75rot_det12.npy'
p1838
F1.8051
F0.0096
F19.0608
F0.037
F1.1535
F0.0067
F202.0
tp1839
a(S'cpvert_11MeV_neg15tilt_75rot_det13.npy'
p1840
F2.9079
F0.0107
F22.2401
F0.0542
F1.9285
F0.0087
F164.0
tp1841
a(S'cpvert_11MeV_neg15tilt_75rot_det14.npy'
p1842
F4.0552
F0.0148
F26.9611
F0.1202
F2.7793
F0.0125
F123.0
tp1843
a(S'cpvert_11MeV_neg15tilt_75rot_det15.npy'
p1844
F4.9646
F0.0177
F40.9206
F0.3007
F3.461
F0.0171
F60.0
tp1845
a(S'cpvert_11MeV_neg15tilt_75rot_det4.npy'
p1846
F4.8993
F0.0158
F40.1984
F0.2902
F3.4459
F0.0147
F83.0
tp1847
a(S'cpvert_11MeV_neg15tilt_75rot_det5.npy'
p1848
F3.8971
F0.013
F25.0395
F0.1107
F2.6968
F0.0113
F136.0
tp1849
a(S'cpvert_11MeV_neg15tilt_75rot_det6.npy'
p1850
F2.8204
F0.0111
F19.8422
F0.0611
F1.9045
F0.009
F146.0
tp1851
a(S'cpvert_11MeV_neg15tilt_75rot_det7.npy'
p1852
F1.7152
F0.0095
F17.9806
F0.0451
F1.1146
F0.0071
F170.0
tp1853
a(S'cpvert_11MeV_neg15tilt_75rot_det8.npy'
p1854
F0.8501
F0.0058
F19.377
F0.0331
F0.5219
F0.0041
F166.0
tp1855
a(S'cpvert_11MeV_neg15tilt_75rot_det9.npy'
p1856
F0.2986
F0.0036
F17.8609
F0.044
F0.1737
F0.0021
F141.0
tp1857
a(S'cpvert_11MeV_neg15tilt_85rot_det10.npy'
p1858
F0.2847
F0.0037
F15.8685
F0.0385
F0.1671
F0.0022
F162.0
tp1859
a(S'cpvert_11MeV_neg15tilt_85rot_det11.npy'
p1860
F0.8874
F0.0068
F20.0303
F0.0343
F0.5387
F0.0048
F142.0
tp1861
a(S'cpvert_11MeV_neg15tilt_85rot_det12.npy'
p1862
F1.8138
F0.0097
F19.099
F0.0409
F1.1543
F0.007
F186.0
tp1863
a(S'cpvert_11MeV_neg15tilt_85rot_det13.npy'
p1864
F2.9187
F0.0117
F22.1237
F0.0551
F1.9266
F0.0092
F170.0
tp1865
a(S'cpvert_11MeV_neg15tilt_85rot_det14.npy'
p1866
F4.0619
F0.0126
F26.9168
F0.114
F2.7647
F0.0107
F134.0
tp1867
a(S'cpvert_11MeV_neg15tilt_85rot_det15.npy'
p1868
F5.0179
F0.0183
F41.5267
F0.3332
F3.4916
F0.017
F72.0
tp1869
a(S'cpvert_11MeV_neg15tilt_85rot_det4.npy'
p1870
F4.9014
F0.0158
F40.1335
F0.3073
F3.4146
F0.0147
F68.0
tp1871
a(S'cpvert_11MeV_neg15tilt_85rot_det5.npy'
p1872
F3.8942
F0.0145
F25.1451
F0.1092
F2.6994
F0.0116
F133.0
tp1873
a(S'cpvert_11MeV_neg15tilt_85rot_det6.npy'
p1874
F2.8136
F0.0115
F19.8312
F0.0614
F1.8933
F0.0085
F148.0
tp1875
a(S'cpvert_11MeV_neg15tilt_85rot_det7.npy'
p1876
F1.7096
F0.0103
F17.9248
F0.0469
F1.1114
F0.0075
F156.0
tp1877
a(S'cpvert_11MeV_neg15tilt_85rot_det8.npy'
p1878
F0.8313
F0.0072
F19.3752
F0.0371
F0.5098
F0.0049
F146.0
tp1879
a(S'cpvert_11MeV_neg15tilt_85rot_det9.npy'
p1880
F0.2934
F0.0037
F17.9354
F0.0399
F0.1704
F0.0022
F145.0
tp1881
a(S'cpvert_11MeV_neg15tilt_95rot_det10.npy'
p1882
F0.2881
F0.0034
F15.902
F0.0436
F0.1684
F0.002
F158.0
tp1883
a(S'cpvert_11MeV_neg15tilt_95rot_det11.npy'
p1884
F0.8565
F0.007
F20.0448
F0.0324
F0.5206
F0.0045
F164.0
tp1885
a(S'cpvert_11MeV_neg15tilt_95rot_det12.npy'
p1886
F1.7764
F0.0093
F19.0414
F0.0434
F1.13
F0.0067
F171.0
tp1887
a(S'cpvert_11MeV_neg15tilt_95rot_det13.npy'
p1888
F2.9368
F0.0119
F22.3008
F0.0546
F1.9386
F0.0089
F177.0
tp1889
a(S'cpvert_11MeV_neg15tilt_95rot_det14.npy'
p1890
F4.0961
F0.0133
F26.6509
F0.1208
F2.7677
F0.011
F120.0
tp1891
a(S'cpvert_11MeV_neg15tilt_95rot_det15.npy'
p1892
F5.077
F0.0162
F41.928
F0.337
F3.505
F0.0151
F68.0
tp1893
a(S'cpvert_11MeV_neg15tilt_95rot_det4.npy'
p1894
F4.9398
F0.0146
F39.6926
F0.2761
F3.4538
F0.014
F79.0
tp1895
a(S'cpvert_11MeV_neg15tilt_95rot_det5.npy'
p1896
F3.9283
F0.0134
F25.1233
F0.1086
F2.724
F0.0112
F144.0
tp1897
a(S'cpvert_11MeV_neg15tilt_95rot_det6.npy'
p1898
F2.8
F0.012
F19.8764
F0.0549
F1.8914
F0.0091
F155.0
tp1899
a(S'cpvert_11MeV_neg15tilt_95rot_det7.npy'
p1900
F1.6995
F0.0104
F17.9638
F0.0455
F1.1062
F0.0076
F159.0
tp1901
a(S'cpvert_11MeV_neg15tilt_95rot_det8.npy'
p1902
F0.8508
F0.0069
F19.3833
F0.0325
F0.5216
F0.0046
F164.0
tp1903
a(S'cpvert_11MeV_neg15tilt_95rot_det9.npy'
p1904
F0.2813
F0.0038
F17.8856
F0.0369
F0.1639
F0.0022
F171.0
tp1905
a(S'cpvert_11MeV_neg30tilt_105rot_det10.npy'
p1906
F0.2814
F0.0023
F15.8681
F0.0239
F0.1649
F0.0014
F424.0
tp1907
a(S'cpvert_11MeV_neg30tilt_105rot_det11.npy'
p1908
F0.8375
F0.0045
F19.956
F0.022
F0.5134
F0.003
F379.0
tp1909
a(S'cpvert_11MeV_neg30tilt_105rot_det12.npy'
p1910
F1.7677
F0.0061
F18.896
F0.0256
F1.1332
F0.0044
F440.0
tp1911
a(S'cpvert_11MeV_neg30tilt_105rot_det13.npy'
p1912
F2.9074
F0.0081
F22.03
F0.0394
F1.926
F0.006
F371.0
tp1913
a(S'cpvert_11MeV_neg30tilt_105rot_det14.npy'
p1914
F4.1037
F0.0089
F26.8454
F0.0664
F2.7744
F0.0073
F318.0
tp1915
a(S'cpvert_11MeV_neg30tilt_105rot_det15.npy'
p1916
F5.0542
F0.0124
F41.1096
F0.1949
F3.4616
F0.0108
F177.0
tp1917
a(S'cpvert_11MeV_neg30tilt_105rot_det4.npy'
p1918
F4.8556
F0.0098
F40.6689
F0.1855
F3.4056
F0.0089
F195.0
tp1919
a(S'cpvert_11MeV_neg30tilt_105rot_det5.npy'
p1920
F3.8727
F0.0085
F25.3249
F0.0711
F2.6767
F0.0072
F316.0
tp1921
a(S'cpvert_11MeV_neg30tilt_105rot_det6.npy'
p1922
F2.7368
F0.0074
F19.9225
F0.0394
F1.8506
F0.0056
F407.0
tp1923
a(S'cpvert_11MeV_neg30tilt_105rot_det7.npy'
p1924
F1.6732
F0.0062
F18.0786
F0.0275
F1.0913
F0.0045
F383.0
tp1925
a(S'cpvert_11MeV_neg30tilt_105rot_det8.npy'
p1926
F0.8279
F0.0044
F19.414
F0.021
F0.5109
F0.003
F373.0
tp1927
a(S'cpvert_11MeV_neg30tilt_105rot_det9.npy'
p1928
F0.2832
F0.0022
F17.9418
F0.0259
F0.166
F0.0013
F404.0
tp1929
a(S'cpvert_11MeV_neg30tilt_115rot_det10.npy'
p1930
F0.2786
F0.004
F15.7835
F0.0411
F0.162
F0.0022
F157.0
tp1931
a(S'cpvert_11MeV_neg30tilt_115rot_det11.npy'
p1932
F0.834
F0.0078
F19.9696
F0.035
F0.5108
F0.0052
F141.0
tp1933
a(S'cpvert_11MeV_neg30tilt_115rot_det12.npy'
p1934
F1.7402
F0.0107
F18.916
F0.0416
F1.1194
F0.0077
F159.0
tp1935
a(S'cpvert_11MeV_neg30tilt_115rot_det13.npy'
p1936
F2.8977
F0.0122
F22.0882
F0.0574
F1.9287
F0.0097
F168.0
tp1937
a(S'cpvert_11MeV_neg30tilt_115rot_det14.npy'
p1938
F4.102
F0.0135
F26.7222
F0.1147
F2.7883
F0.0115
F130.0
tp1939
a(S'cpvert_11MeV_neg30tilt_115rot_det15.npy'
p1940
F5.0927
F0.0165
F40.8174
F0.2855
F3.4965
F0.0141
F88.0
tp1941
a(S'cpvert_11MeV_neg30tilt_115rot_det4.npy'
p1942
F4.9196
F0.0179
F40.8775
F0.328
F3.4219
F0.0156
F69.0
tp1943
a(S'cpvert_11MeV_neg30tilt_115rot_det5.npy'
p1944
F3.9031
F0.013
F25.1679
F0.1141
F2.6961
F0.0107
F111.0
tp1945
a(S'cpvert_11MeV_neg30tilt_115rot_det6.npy'
p1946
F2.7677
F0.0105
F19.9244
F0.0615
F1.8689
F0.0089
F153.0
tp1947
a(S'cpvert_11MeV_neg30tilt_115rot_det7.npy'
p1948
F1.6751
F0.0096
F18.0606
F0.0444
F1.0899
F0.0071
F166.0
tp1949
a(S'cpvert_11MeV_neg30tilt_115rot_det8.npy'
p1950
F0.8256
F0.0072
F19.4508
F0.0377
F0.5073
F0.0048
F142.0
tp1951
a(S'cpvert_11MeV_neg30tilt_115rot_det9.npy'
p1952
F0.2812
F0.0033
F17.9072
F0.0354
F0.1646
F0.0019
F172.0
tp1953
a(S'cpvert_11MeV_neg30tilt_125rot_det10.npy'
p1954
F0.2683
F0.0037
F15.9529
F0.0413
F0.1576
F0.0021
F138.0
tp1955
a(S'cpvert_11MeV_neg30tilt_125rot_det11.npy'
p1956
F0.8209
F0.0075
F20.0279
F0.0379
F0.5055
F0.005
F138.0
tp1957
a(S'cpvert_11MeV_neg30tilt_125rot_det12.npy'
p1958
F1.7371
F0.0089
F18.9777
F0.0388
F1.127
F0.0064
F185.0
tp1959
a(S'cpvert_11MeV_neg30tilt_125rot_det13.npy'
p1960
F2.8452
F0.012
F22.1198
F0.0534
F1.8983
F0.0094
F162.0
tp1961
a(S'cpvert_11MeV_neg30tilt_125rot_det14.npy'
p1962
F4.0594
F0.0143
F26.8217
F0.1139
F2.7711
F0.0113
F109.0
tp1963
a(S'cpvert_11MeV_neg30tilt_125rot_det15.npy'
p1964
F5.1053
F0.0153
F41.3893
F0.3091
F3.5031
F0.0146
F85.0
tp1965
a(S'cpvert_11MeV_neg30tilt_125rot_det4.npy'
p1966
F4.996
F0.0156
F41.0287
F0.2815
F3.4549
F0.012
F71.0
tp1967
a(S'cpvert_11MeV_neg30tilt_125rot_det5.npy'
p1968
F3.8988
F0.014
F24.8929
F0.1191
F2.6687
F0.0118
F111.0
tp1969
a(S'cpvert_11MeV_neg30tilt_125rot_det6.npy'
p1970
F2.8192
F0.0114
F19.9443
F0.0634
F1.8994
F0.0085
F135.0
tp1971
a(S'cpvert_11MeV_neg30tilt_125rot_det7.npy'
p1972
F1.6856
F0.0101
F18.1041
F0.0482
F1.0948
F0.0071
F138.0
tp1973
a(S'cpvert_11MeV_neg30tilt_125rot_det8.npy'
p1974
F0.82
F0.0064
F19.4018
F0.0331
F0.5057
F0.0043
F172.0
tp1975
a(S'cpvert_11MeV_neg30tilt_125rot_det9.npy'
p1976
F0.2865
F0.0035
F17.9249
F0.0398
F0.1672
F0.0021
F179.0
tp1977
a(S'cpvert_11MeV_neg30tilt_135rot_det10.npy'
p1978
F0.2702
F0.0034
F15.8997
F0.038
F0.1575
F0.002
F178.0
tp1979
a(S'cpvert_11MeV_neg30tilt_135rot_det11.npy'
p1980
F0.8192
F0.0069
F20.0318
F0.0358
F0.5043
F0.0047
F142.0
tp1981
a(S'cpvert_11MeV_neg30tilt_135rot_det12.npy'
p1982
F1.7061
F0.0098
F18.9349
F0.0383
F1.1083
F0.0071
F173.0
tp1983
a(S'cpvert_11MeV_neg30tilt_135rot_det13.npy'
p1984
F2.8162
F0.0122
F22.1351
F0.0547
F1.8931
F0.0096
F160.0
tp1985
a(S'cpvert_11MeV_neg30tilt_135rot_det14.npy'
p1986
F3.9837
F0.013
F26.6875
F0.1093
F2.7228
F0.0102
F127.0
tp1987
a(S'cpvert_11MeV_neg30tilt_135rot_det15.npy'
p1988
F5.072
F0.0173
F41.2463
F0.3019
F3.5034
F0.0141
F88.0
tp1989
a(S'cpvert_11MeV_neg30tilt_135rot_det4.npy'
p1990
F5.061
F0.0169
F40.5023
F0.2632
F3.4897
F0.0177
F62.0
tp1991
a(S'cpvert_11MeV_neg30tilt_135rot_det5.npy'
p1992
F4.0218
F0.0146
F25.197
F0.1127
F2.7527
F0.011
F127.0
tp1993
a(S'cpvert_11MeV_neg30tilt_135rot_det6.npy'
p1994
F2.8216
F0.0129
F19.7966
F0.0577
F1.8867
F0.0097
F170.0
tp1995
a(S'cpvert_11MeV_neg30tilt_135rot_det7.npy'
p1996
F1.7117
F0.0104
F18.0307
F0.0465
F1.1076
F0.0075
F152.0
tp1997
a(S'cpvert_11MeV_neg30tilt_135rot_det8.npy'
p1998
F0.8228
F0.007
F19.4387
F0.0347
F0.5092
F0.0048
F145.0
tp1999
a(S'cpvert_11MeV_neg30tilt_135rot_det9.npy'
p2000
F0.2851
F0.0036
F17.9154
F0.0395
F0.1665
F0.0023
F142.0
tp2001
a(S'cpvert_11MeV_neg30tilt_145rot_det10.npy'
p2002
F0.2695
F0.0035
F15.9613
F0.0395
F0.158
F0.0021
F136.0
tp2003
a(S'cpvert_11MeV_neg30tilt_145rot_det11.npy'
p2004
F0.8113
F0.0065
F20.0543
F0.0354
F0.4991
F0.0043
F153.0
tp2005
a(S'cpvert_11MeV_neg30tilt_145rot_det12.npy'
p2006
F1.6882
F0.0108
F19.0228
F0.0446
F1.0999
F0.0081
F131.0
tp2007
a(S'cpvert_11MeV_neg30tilt_145rot_det13.npy'
p2008
F2.7778
F0.014
F22.213
F0.0641
F1.8748
F0.0105
F140.0
tp2009
a(S'cpvert_11MeV_neg30tilt_145rot_det14.npy'
p2010
F3.9566
F0.0123
F26.6749
F0.0998
F2.7374
F0.0106
F146.0
tp2011
a(S'cpvert_11MeV_neg30tilt_145rot_det15.npy'
p2012
F5.029
F0.0171
F41.5635
F0.3159
F3.504
F0.0158
F62.0
tp2013
a(S'cpvert_11MeV_neg30tilt_145rot_det4.npy'
p2014
F5.0719
F0.016
F40.0512
F0.3017
F3.4817
F0.0161
F77.0
tp2015
a(S'cpvert_11MeV_neg30tilt_145rot_det5.npy'
p2016
F4.0366
F0.0155
F25.1403
F0.1229
F2.7461
F0.0126
F111.0
tp2017
a(S'cpvert_11MeV_neg30tilt_145rot_det6.npy'
p2018
F2.8304
F0.0128
F19.693
F0.0588
F1.8836
F0.0094
F145.0
tp2019
a(S'cpvert_11MeV_neg30tilt_145rot_det7.npy'
p2020
F1.7191
F0.0096
F17.9911
F0.0443
F1.1092
F0.0068
F175.0
tp2021
a(S'cpvert_11MeV_neg30tilt_145rot_det8.npy'
p2022
F0.8492
F0.0078
F19.3723
F0.0329
F0.5218
F0.0052
F140.0
tp2023
a(S'cpvert_11MeV_neg30tilt_145rot_det9.npy'
p2024
F0.2795
F0.0036
F17.8248
F0.0409
F0.1633
F0.0021
F162.0
tp2025
a(S'cpvert_11MeV_neg30tilt_15rot_det10.npy'
p2026
F0.2834
F0.0035
F15.9023
F0.0432
F0.1662
F0.0021
F173.0
tp2027
a(S'cpvert_11MeV_neg30tilt_15rot_det11.npy'
p2028
F0.825
F0.0065
F20.0005
F0.037
F0.5076
F0.0046
F152.0
tp2029
a(S'cpvert_11MeV_neg30tilt_15rot_det12.npy'
p2030
F1.6944
F0.0093
F19.1242
F0.0389
F1.1038
F0.0067
F186.0
tp2031
a(S'cpvert_11MeV_neg30tilt_15rot_det13.npy'
p2032
F2.7379
F0.012
F22.2371
F0.0626
F1.8486
F0.0092
F153.0
tp2033
a(S'cpvert_11MeV_neg30tilt_15rot_det14.npy'
p2034
F3.8496
F0.0112
F27.2057
F0.106
F2.6716
F0.0096
F158.0
tp2035
a(S'cpvert_11MeV_neg30tilt_15rot_det15.npy'
p2036
F4.8199
F0.0159
F42.1983
F0.2878
F3.4143
F0.0144
F75.0
tp2037
a(S'cpvert_11MeV_neg30tilt_15rot_det4.npy'
p2038
F4.9611
F0.0173
F40.7663
F0.272
F3.4718
F0.0138
F89.0
tp2039
a(S'cpvert_11MeV_neg30tilt_15rot_det5.npy'
p2040
F4.0172
F0.0139
F25.0845
F0.1129
F2.7552
F0.0112
F137.0
tp2041
a(S'cpvert_11MeV_neg30tilt_15rot_det6.npy'
p2042
F2.9281
F0.0121
F19.7315
F0.0698
F1.9572
F0.0095
F144.0
tp2043
a(S'cpvert_11MeV_neg30tilt_15rot_det7.npy'
p2044
F1.799
F0.0103
F17.9168
F0.0466
F1.1482
F0.0071
F154.0
tp2045
a(S'cpvert_11MeV_neg30tilt_15rot_det8.npy'
p2046
F0.8943
F0.0078
F19.2058
F0.0347
F0.5457
F0.005
F151.0
tp2047
a(S'cpvert_11MeV_neg30tilt_15rot_det9.npy'
p2048
F0.301
F0.0037
F17.7322
F0.0392
F0.1771
F0.0021
F170.0
tp2049
a(S'cpvert_11MeV_neg30tilt_25rot_det10.npy'
p2050
F0.281
F0.0034
F15.7825
F0.0399
F0.1649
F0.0019
F172.0
tp2051
a(S'cpvert_11MeV_neg30tilt_25rot_det11.npy'
p2052
F0.8219
F0.0071
F19.9705
F0.0367
F0.5046
F0.0047
F144.0
tp2053
a(S'cpvert_11MeV_neg30tilt_25rot_det12.npy'
p2054
F1.7083
F0.0097
F19.0053
F0.0426
F1.108
F0.0073
F154.0
tp2055
a(S'cpvert_11MeV_neg30tilt_25rot_det13.npy'
p2056
F2.7365
F0.0111
F22.2291
F0.0572
F1.8506
F0.009
F177.0
tp2057
a(S'cpvert_11MeV_neg30tilt_25rot_det14.npy'
p2058
F3.8299
F0.0115
F27.1373
F0.1064
F2.662
F0.0097
F148.0
tp2059
a(S'cpvert_11MeV_neg30tilt_25rot_det15.npy'
p2060
F4.8067
F0.0154
F42.2196
F0.298
F3.3957
F0.0146
F68.0
tp2061
a(S'cpvert_11MeV_neg30tilt_25rot_det4.npy'
p2062
F4.9064
F0.0149
F40.2679
F0.2606
F3.4275
F0.0128
F80.0
tp2063
a(S'cpvert_11MeV_neg30tilt_25rot_det5.npy'
p2064
F3.9931
F0.0131
F25.3017
F0.1022
F2.748
F0.0115
F140.0
tp2065
a(S'cpvert_11MeV_neg30tilt_25rot_det6.npy'
p2066
F2.919
F0.0107
F19.7507
F0.06
F1.9583
F0.0081
F153.0
tp2067
a(S'cpvert_11MeV_neg30tilt_25rot_det7.npy'
p2068
F1.786
F0.0097
F17.8268
F0.0461
F1.1472
F0.0072
F150.0
tp2069
a(S'cpvert_11MeV_neg30tilt_25rot_det8.npy'
p2070
F0.917
F0.0072
F19.2434
F0.0321
F0.5578
F0.0048
F163.0
tp2071
a(S'cpvert_11MeV_neg30tilt_25rot_det9.npy'
p2072
F0.2903
F0.0038
F17.6397
F0.0365
F0.1704
F0.0022
F167.0
tp2073
a(S'cpvert_11MeV_neg30tilt_315rot_det10.npy'
p2074
F0.2919
F0.0036
F16.0225
F0.0393
F0.1716
F0.0022
F168.0
tp2075
a(S'cpvert_11MeV_neg30tilt_315rot_det11.npy'
p2076
F0.8462
F0.007
F20.0748
F0.0345
F0.5227
F0.0048
F172.0
tp2077
a(S'cpvert_11MeV_neg30tilt_315rot_det12.npy'
p2078
F1.7641
F0.0103
F19.157
F0.0433
F1.1483
F0.0072
F160.0
tp2079
a(S'cpvert_11MeV_neg30tilt_315rot_det13.npy'
p2080
F2.9084
F0.0117
F22.5948
F0.0588
F1.957
F0.0092
F140.0
tp2081
a(S'cpvert_11MeV_neg30tilt_315rot_det14.npy'
p2082
F4.0731
F0.0136
F27.3999
F0.1032
F2.7971
F0.011
F137.0
tp2083
a(S'cpvert_11MeV_neg30tilt_315rot_det15.npy'
p2084
F5.1156
F0.0168
F42.7374
F0.3252
F3.5313
F0.018
F56.0
tp2085
a(S'cpvert_11MeV_neg30tilt_315rot_det4.npy'
p2086
F5.065
F0.0164
F40.4525
F0.3039
F3.4939
F0.0157
F70.0
tp2087
a(S'cpvert_11MeV_neg30tilt_315rot_det5.npy'
p2088
F4.0012
F0.015
F24.8628
F0.1155
F2.729
F0.0116
F139.0
tp2089
a(S'cpvert_11MeV_neg30tilt_315rot_det6.npy'
p2090
F2.8281
F0.0114
F19.5819
F0.0577
F1.8949
F0.0088
F155.0
tp2091
a(S'cpvert_11MeV_neg30tilt_315rot_det7.npy'
p2092
F1.7065
F0.0102
F17.9387
F0.0503
F1.1055
F0.0073
F137.0
tp2093
a(S'cpvert_11MeV_neg30tilt_315rot_det8.npy'
p2094
F0.8097
F0.0062
F19.2048
F0.0329
F0.4999
F0.0042
F159.0
tp2095
a(S'cpvert_11MeV_neg30tilt_315rot_det9.npy'
p2096
F0.2743
F0.0033
F17.7082
F0.0367
F0.1589
F0.002
F175.0
tp2097
a(S'cpvert_11MeV_neg30tilt_325rot_det10.npy'
p2098
F0.292
F0.0037
F15.9515
F0.037
F0.1701
F0.0022
F157.0
tp2099
a(S'cpvert_11MeV_neg30tilt_325rot_det11.npy'
p2100
F0.8572
F0.0076
F20.1229
F0.0349
F0.5306
F0.0051
F147.0
tp2101
a(S'cpvert_11MeV_neg30tilt_325rot_det12.npy'
p2102
F1.749
F0.0105
F19.2486
F0.0412
F1.1365
F0.0077
F155.0
tp2103
a(S'cpvert_11MeV_neg30tilt_325rot_det13.npy'
p2104
F2.866
F0.013
F22.5474
F0.058
F1.9344
F0.0095
F172.0
tp2105
a(S'cpvert_11MeV_neg30tilt_325rot_det14.npy'
p2106
F4.0383
F0.0128
F27.5387
F0.1218
F2.7806
F0.0104
F122.0
tp2107
a(S'cpvert_11MeV_neg30tilt_325rot_det15.npy'
p2108
F5.0234
F0.0169
F42.4749
F0.2771
F3.4781
F0.016
F63.0
tp2109
a(S'cpvert_11MeV_neg30tilt_325rot_det4.npy'
p2110
F5.0989
F0.0141
F39.8302
F0.2565
F3.4903
F0.0132
F90.0
tp2111
a(S'cpvert_11MeV_neg30tilt_325rot_det5.npy'
p2112
F4.0772
F0.0137
F25.0428
F0.1076
F2.7849
F0.0111
F124.0
tp2113
a(S'cpvert_11MeV_neg30tilt_325rot_det6.npy'
p2114
F2.8586
F0.013
F19.5499
F0.0604
F1.9074
F0.01
F166.0
tp2115
a(S'cpvert_11MeV_neg30tilt_325rot_det7.npy'
p2116
F1.7081
F0.0095
F17.8023
F0.043
F1.1012
F0.0067
F177.0
tp2117
a(S'cpvert_11MeV_neg30tilt_325rot_det8.npy'
p2118
F0.8275
F0.0067
F19.2352
F0.0347
F0.506
F0.0044
F161.0
tp2119
a(S'cpvert_11MeV_neg30tilt_325rot_det9.npy'
p2120
F0.2774
F0.0035
F17.7082
F0.0367
F0.1618
F0.0021
F165.0
tp2121
a(S'cpvert_11MeV_neg30tilt_335rot_det10.npy'
p2122
F0.2859
F0.0036
F15.9337
F0.0331
F0.1673
F0.0022
F176.0
tp2123
a(S'cpvert_11MeV_neg30tilt_335rot_det11.npy'
p2124
F0.8314
F0.0066
F20.0941
F0.0361
F0.5132
F0.0046
F160.0
tp2125
a(S'cpvert_11MeV_neg30tilt_335rot_det12.npy'
p2126
F1.7328
F0.009
F19.141
F0.0403
F1.1326
F0.0066
F174.0
tp2127
a(S'cpvert_11MeV_neg30tilt_335rot_det13.npy'
p2128
F2.8257
F0.0119
F22.4813
F0.0583
F1.9148
F0.0086
F184.0
tp2129
a(S'cpvert_11MeV_neg30tilt_335rot_det14.npy'
p2130
F3.999
F0.0124
F27.5837
F0.1117
F2.758
F0.0104
F127.0
tp2131
a(S'cpvert_11MeV_neg30tilt_335rot_det15.npy'
p2132
F5.0121
F0.0154
F42.5456
F0.2981
F3.5129
F0.0114
F68.0
tp2133
a(S'cpvert_11MeV_neg30tilt_335rot_det4.npy'
p2134
F5.0782
F0.0189
F39.7515
F0.3001
F3.477
F0.016
F86.0
tp2135
a(S'cpvert_11MeV_neg30tilt_335rot_det5.npy'
p2136
F4.1116
F0.0127
F24.9851
F0.106
F2.7755
F0.0107
F138.0
tp2137
a(S'cpvert_11MeV_neg30tilt_335rot_det6.npy'
p2138
F2.9134
F0.0136
F19.6059
F0.0669
F1.94
F0.0099
F148.0
tp2139
a(S'cpvert_11MeV_neg30tilt_335rot_det7.npy'
p2140
F1.7566
F0.0105
F17.8177
F0.0449
F1.1294
F0.0075
F163.0
tp2141
a(S'cpvert_11MeV_neg30tilt_335rot_det8.npy'
p2142
F0.8392
F0.0068
F19.2199
F0.0354
F0.5144
F0.0044
F169.0
tp2143
a(S'cpvert_11MeV_neg30tilt_335rot_det9.npy'
p2144
F0.2769
F0.0035
F17.7634
F0.0385
F0.1632
F0.002
F157.0
tp2145
a(S'cpvert_11MeV_neg30tilt_345rot_det10.npy'
p2146
F0.2839
F0.0032
F15.9343
F0.0362
F0.1651
F0.0019
F185.0
tp2147
a(S'cpvert_11MeV_neg30tilt_345rot_det11.npy'
p2148
F0.8321
F0.0064
F20.0627
F0.0366
F0.5137
F0.0043
F164.0
tp2149
a(S'cpvert_11MeV_neg30tilt_345rot_det12.npy'
p2150
F1.704
F0.0097
F19.1603
F0.0388
F1.114
F0.0072
F194.0
tp2151
a(S'cpvert_11MeV_neg30tilt_345rot_det13.npy'
p2152
F2.7877
F0.0118
F22.3252
F0.0572
F1.8835
F0.0094
F174.0
tp2153
a(S'cpvert_11MeV_neg30tilt_345rot_det14.npy'
p2154
F3.931
F0.0133
F27.3625
F0.103
F2.7321
F0.0114
F123.0
tp2155
a(S'cpvert_11MeV_neg30tilt_345rot_det15.npy'
p2156
F4.9566
F0.0175
F42.7218
F0.3066
F3.4869
F0.017
F65.0
tp2157
a(S'cpvert_11MeV_neg30tilt_345rot_det4.npy'
p2158
F5.1306
F0.0153
F40.571
F0.3063
F3.5343
F0.0138
F74.0
tp2159
a(S'cpvert_11MeV_neg30tilt_345rot_det5.npy'
p2160
F4.1145
F0.0135
F24.9265
F0.1093
F2.7806
F0.0111
F136.0
tp2161
a(S'cpvert_11MeV_neg30tilt_345rot_det6.npy'
p2162
F2.9359
F0.0132
F19.6245
F0.0653
F1.9354
F0.01
F142.0
tp2163
a(S'cpvert_11MeV_neg30tilt_345rot_det7.npy'
p2164
F1.7606
F0.0104
F17.8365
F0.0455
F1.1288
F0.0076
F151.0
tp2165
a(S'cpvert_11MeV_neg30tilt_345rot_det8.npy'
p2166
F0.8617
F0.0075
F19.2366
F0.037
F0.5283
F0.0049
F155.0
tp2167
a(S'cpvert_11MeV_neg30tilt_345rot_det9.npy'
p2168
F0.2827
F0.0034
F17.6767
F0.0348
F0.1654
F0.002
F194.0
tp2169
a(S'cpvert_11MeV_neg30tilt_355rot_det10.npy'
p2170
F0.2793
F0.0033
F15.9266
F0.0421
F0.1629
F0.0019
F172.0
tp2171
a(S'cpvert_11MeV_neg30tilt_355rot_det11.npy'
p2172
F0.8334
F0.0063
F20.0742
F0.0314
F0.5142
F0.0042
F162.0
tp2173
a(S'cpvert_11MeV_neg30tilt_355rot_det12.npy'
p2174
F1.6952
F0.0092
F19.1551
F0.038
F1.1044
F0.0068
F180.0
tp2175
a(S'cpvert_11MeV_neg30tilt_355rot_det13.npy'
p2176
F2.7576
F0.0118
F22.4435
F0.0555
F1.8692
F0.0093
F177.0
tp2177
a(S'cpvert_11MeV_neg30tilt_355rot_det14.npy'
p2178
F3.8856
F0.0124
F27.1103
F0.1124
F2.7088
F0.01
F120.0
tp2179
a(S'cpvert_11MeV_neg30tilt_355rot_det15.npy'
p2180
F4.8824
F0.0191
F42.4729
F0.3071
F3.4262
F0.0171
F72.0
tp2181
a(S'cpvert_11MeV_neg30tilt_355rot_det4.npy'
p2182
F5.0569
F0.0185
F40.2225
F0.2939
F3.5034
F0.0163
F77.0
tp2183
a(S'cpvert_11MeV_neg30tilt_355rot_det5.npy'
p2184
F4.1041
F0.0136
F24.9968
F0.0994
F2.7791
F0.0108
F164.0
tp2185
a(S'cpvert_11MeV_neg30tilt_355rot_det6.npy'
p2186
F2.9397
F0.0118
F19.6158
F0.0578
F1.9394
F0.0089
F175.0
tp2187
a(S'cpvert_11MeV_neg30tilt_355rot_det7.npy'
p2188
F1.8031
F0.0098
F17.822
F0.0408
F1.1447
F0.0069
F193.0
tp2189
a(S'cpvert_11MeV_neg30tilt_355rot_det8.npy'
p2190
F0.8758
F0.0071
F19.1786
F0.0322
F0.5349
F0.0045
F187.0
tp2191
a(S'cpvert_11MeV_neg30tilt_355rot_det9.npy'
p2192
F0.2862
F0.0038
F17.6792
F0.0461
F0.168
F0.0023
F153.0
tp2193
a(S'cpvert_11MeV_neg30tilt_35rot_det10.npy'
p2194
F0.2865
F0.0032
F15.7488
F0.035
F0.1682
F0.0019
F194.0
tp2195
a(S'cpvert_11MeV_neg30tilt_35rot_det11.npy'
p2196
F0.8411
F0.0065
F19.9869
F0.0346
F0.5183
F0.0044
F164.0
tp2197
a(S'cpvert_11MeV_neg30tilt_35rot_det12.npy'
p2198
F1.7043
F0.0091
F19.0825
F0.0398
F1.107
F0.007
F170.0
tp2199
a(S'cpvert_11MeV_neg30tilt_35rot_det13.npy'
p2200
F2.7386
F0.0116
F22.3194
F0.0671
F1.8431
F0.0087
F164.0
tp2201
a(S'cpvert_11MeV_neg30tilt_35rot_det14.npy'
p2202
F3.8412
F0.012
F27.1618
F0.1085
F2.6583
F0.01
F138.0
tp2203
a(S'cpvert_11MeV_neg30tilt_35rot_det15.npy'
p2204
F4.7883
F0.0147
F41.8428
F0.2779
F3.3759
F0.0127
F74.0
tp2205
a(S'cpvert_11MeV_neg30tilt_35rot_det4.npy'
p2206
F4.8559
F0.0157
F40.511
F0.3039
F3.4159
F0.0135
F87.0
tp2207
a(S'cpvert_11MeV_neg30tilt_35rot_det5.npy'
p2208
F3.9582
F0.0131
F25.2585
F0.1166
F2.7353
F0.0106
F124.0
tp2209
a(S'cpvert_11MeV_neg30tilt_35rot_det6.npy'
p2210
F2.8663
F0.0111
F19.8519
F0.0536
F1.9313
F0.0089
F168.0
tp2211
a(S'cpvert_11MeV_neg30tilt_35rot_det7.npy'
p2212
F1.7737
F0.011
F17.9464
F0.0516
F1.1455
F0.0081
F148.0
tp2213
a(S'cpvert_11MeV_neg30tilt_35rot_det8.npy'
p2214
F0.8879
F0.0064
F19.2401
F0.0335
F0.5427
F0.0044
F168.0
tp2215
a(S'cpvert_11MeV_neg30tilt_35rot_det9.npy'
p2216
F0.3067
F0.0036
F17.6742
F0.037
F0.1807
F0.0022
F158.0
tp2217
a(S'cpvert_11MeV_neg30tilt_45rot_det10.npy'
p2218
F0.2887
F0.0035
F15.7668
F0.0405
F0.1695
F0.002
F159.0
tp2219
a(S'cpvert_11MeV_neg30tilt_45rot_det11.npy'
p2220
F0.8501
F0.0064
F19.9205
F0.0323
F0.5212
F0.0042
F186.0
tp2221
a(S'cpvert_11MeV_neg30tilt_45rot_det12.npy'
p2222
F1.7184
F0.0092
F18.981
F0.0421
F1.1089
F0.0069
F169.0
tp2223
a(S'cpvert_11MeV_neg30tilt_45rot_det13.npy'
p2224
F2.7881
F0.0114
F22.1678
F0.0568
F1.8765
F0.0091
F149.0
tp2225
a(S'cpvert_11MeV_neg30tilt_45rot_det14.npy'
p2226
F3.8571
F0.0124
F27.0253
F0.0996
F2.6646
F0.0101
F149.0
tp2227
a(S'cpvert_11MeV_neg30tilt_45rot_det15.npy'
p2228
F4.7937
F0.0131
F42.0484
F0.2905
F3.3586
F0.0122
F78.0
tp2229
a(S'cpvert_11MeV_neg30tilt_45rot_det4.npy'
p2230
F4.8287
F0.0154
F40.6952
F0.3308
F3.3954
F0.0163
F66.0
tp2231
a(S'cpvert_11MeV_neg30tilt_45rot_det5.npy'
p2232
F3.9158
F0.0116
F25.2132
F0.0884
F2.7149
F0.0094
F163.0
tp2233
a(S'cpvert_11MeV_neg30tilt_45rot_det6.npy'
p2234
F2.8237
F0.0107
F19.8449
F0.0565
F1.908
F0.0084
F176.0
tp2235
a(S'cpvert_11MeV_neg30tilt_45rot_det7.npy'
p2236
F1.7511
F0.0092
F17.9919
F0.0458
F1.1346
F0.0069
F174.0
tp2237
a(S'cpvert_11MeV_neg30tilt_45rot_det8.npy'
p2238
F0.8774
F0.0073
F19.2538
F0.0332
F0.5396
F0.005
F170.0
tp2239
a(S'cpvert_11MeV_neg30tilt_45rot_det9.npy'
p2240
F0.3066
F0.0037
F17.728
F0.0363
F0.1802
F0.0022
F168.0
tp2241
a(S'cpvert_11MeV_neg30tilt_55rot_det10.npy'
p2242
F0.292
F0.0037
F15.7401
F0.04
F0.1699
F0.0021
F169.0
tp2243
a(S'cpvert_11MeV_neg30tilt_55rot_det11.npy'
p2244
F0.8618
F0.0068
F19.9618
F0.0326
F0.524
F0.0045
F169.0
tp2245
a(S'cpvert_11MeV_neg30tilt_55rot_det12.npy'
p2246
F1.7562
F0.0096
F18.9481
F0.0391
F1.1349
F0.0071
F171.0
tp2247
a(S'cpvert_11MeV_neg30tilt_55rot_det13.npy'
p2248
F2.7952
F0.0106
F22.1913
F0.0596
F1.8714
F0.0087
F180.0
tp2249
a(S'cpvert_11MeV_neg30tilt_55rot_det14.npy'
p2250
F3.8724
F0.0138
F26.9297
F0.1069
F2.6672
F0.0113
F130.0
tp2251
a(S'cpvert_11MeV_neg30tilt_55rot_det15.npy'
p2252
F4.8144
F0.0151
F42.1024
F0.3317
F3.3661
F0.0134
F66.0
tp2253
a(S'cpvert_11MeV_neg30tilt_55rot_det4.npy'
p2254
F4.8145
F0.0131
F40.8889
F0.2765
F3.3873
F0.0129
F72.0
tp2255
a(S'cpvert_11MeV_neg30tilt_55rot_det5.npy'
p2256
F3.895
F0.0123
F25.3752
F0.1078
F2.7077
F0.0103
F130.0
tp2257
a(S'cpvert_11MeV_neg30tilt_55rot_det6.npy'
p2258
F2.8201
F0.0115
F19.875
F0.0755
F1.9082
F0.0092
F133.0
tp2259
a(S'cpvert_11MeV_neg30tilt_55rot_det7.npy'
p2260
F1.7302
F0.0092
F17.8699
F0.041
F1.1245
F0.0066
F174.0
tp2261
a(S'cpvert_11MeV_neg30tilt_55rot_det8.npy'
p2262
F0.8603
F0.0064
F19.3147
F0.037
F0.5313
F0.0042
F164.0
tp2263
a(S'cpvert_11MeV_neg30tilt_55rot_det9.npy'
p2264
F0.3021
F0.0035
F17.8141
F0.037
F0.1779
F0.0021
F175.0
tp2265
a(S'cpvert_11MeV_neg30tilt_5rot_det10.npy'
p2266
F0.2852
F0.0035
F15.8918
F0.0358
F0.1667
F0.002
F174.0
tp2267
a(S'cpvert_11MeV_neg30tilt_5rot_det11.npy'
p2268
F0.8341
F0.0064
F20.1339
F0.037
F0.5134
F0.0045
F159.0
tp2269
a(S'cpvert_11MeV_neg30tilt_5rot_det12.npy'
p2270
F1.69
F0.0101
F19.1335
F0.0415
F1.1005
F0.0073
F177.0
tp2271
a(S'cpvert_11MeV_neg30tilt_5rot_det13.npy'
p2272
F2.7577
F0.0103
F22.4752
F0.0577
F1.8696
F0.0082
F199.0
tp2273
a(S'cpvert_11MeV_neg30tilt_5rot_det14.npy'
p2274
F3.8661
F0.0128
F27.2718
F0.1196
F2.6765
F0.0115
F125.0
tp2275
a(S'cpvert_11MeV_neg30tilt_5rot_det15.npy'
p2276
F4.86
F0.0161
F42.4997
F0.304
F3.4246
F0.0158
F64.0
tp2277
a(S'cpvert_11MeV_neg30tilt_5rot_det4.npy'
p2278
F4.9979
F0.0167
F40.5033
F0.2806
F3.4707
F0.0145
F79.0
tp2279
a(S'cpvert_11MeV_neg30tilt_5rot_det5.npy'
p2280
F4.0731
F0.0121
F25.1574
F0.1113
F2.7794
F0.0102
F145.0
tp2281
a(S'cpvert_11MeV_neg30tilt_5rot_det6.npy'
p2282
F2.954
F0.0115
F19.7347
F0.0593
F1.9519
F0.0089
F184.0
tp2283
a(S'cpvert_11MeV_neg30tilt_5rot_det7.npy'
p2284
F1.8218
F0.0104
F17.9219
F0.0457
F1.1571
F0.0075
F155.0
tp2285
a(S'cpvert_11MeV_neg30tilt_5rot_det8.npy'
p2286
F0.8918
F0.0075
F19.2138
F0.0361
F0.5448
F0.0049
F155.0
tp2287
a(S'cpvert_11MeV_neg30tilt_5rot_det9.npy'
p2288
F0.2918
F0.0035
F17.6661
F0.0395
F0.1714
F0.0021
F183.0
tp2289
a(S'cpvert_11MeV_neg30tilt_65rot_det10.npy'
p2290
F0.2944
F0.0036
F15.7303
F0.0408
F0.1724
F0.0021
F176.0
tp2291
a(S'cpvert_11MeV_neg30tilt_65rot_det11.npy'
p2292
F0.8756
F0.0066
F19.9015
F0.0314
F0.5343
F0.0042
F174.0
tp2293
a(S'cpvert_11MeV_neg30tilt_65rot_det12.npy'
p2294
F1.7606
F0.0098
F18.9093
F0.0425
F1.1254
F0.007
F170.0
tp2295
a(S'cpvert_11MeV_neg30tilt_65rot_det13.npy'
p2296
F2.8482
F0.01
F22.1934
F0.0569
F1.9027
F0.0081
F182.0
tp2297
a(S'cpvert_11MeV_neg30tilt_65rot_det14.npy'
p2298
F3.9178
F0.0115
F26.7191
F0.1013
F2.6883
F0.0099
F137.0
tp2299
a(S'cpvert_11MeV_neg30tilt_65rot_det15.npy'
p2300
F4.8531
F0.0148
F41.6551
F0.3127
F3.3839
F0.0149
F74.0
tp2301
a(S'cpvert_11MeV_neg30tilt_65rot_det4.npy'
p2302
F4.794
F0.0165
F41.3941
F0.3497
F3.3889
F0.0146
F65.0
tp2303
a(S'cpvert_11MeV_neg30tilt_65rot_det5.npy'
p2304
F3.851
F0.0136
F25.3594
F0.1064
F2.6749
F0.0115
F118.0
tp2305
a(S'cpvert_11MeV_neg30tilt_65rot_det6.npy'
p2306
F2.7844
F0.0103
F19.8103
F0.06
F1.8826
F0.0082
F146.0
tp2307
a(S'cpvert_11MeV_neg30tilt_65rot_det7.npy'
p2308
F1.7105
F0.0096
F18.0128
F0.0417
F1.1161
F0.0072
F156.0
tp2309
a(S'cpvert_11MeV_neg30tilt_65rot_det8.npy'
p2310
F0.8566
F0.0073
F19.3409
F0.0348
F0.5289
F0.0051
F150.0
tp2311
a(S'cpvert_11MeV_neg30tilt_65rot_det9.npy'
p2312
F0.2933
F0.0036
F17.7839
F0.0385
F0.1729
F0.0022
F159.0
tp2313
a(S'cpvert_11MeV_neg30tilt_75rot_det10.npy'
p2314
F0.2926
F0.0042
F15.718
F0.0424
F0.1707
F0.0024
F147.0
tp2315
a(S'cpvert_11MeV_neg30tilt_75rot_det11.npy'
p2316
F0.8837
F0.0063
F19.8711
F0.0284
F0.5351
F0.0039
F172.0
tp2317
a(S'cpvert_11MeV_neg30tilt_75rot_det12.npy'
p2318
F1.7735
F0.0106
F18.9521
F0.0454
F1.1295
F0.0077
F167.0
tp2319
a(S'cpvert_11MeV_neg30tilt_75rot_det13.npy'
p2320
F2.9051
F0.0124
F22.285
F0.0641
F1.9301
F0.0095
F154.0
tp2321
a(S'cpvert_11MeV_neg30tilt_75rot_det14.npy'
p2322
F3.9836
F0.0133
F26.8749
F0.1006
F2.7311
F0.0107
F138.0
tp2323
a(S'cpvert_11MeV_neg30tilt_75rot_det15.npy'
p2324
F4.9071
F0.0153
F42.041
F0.3157
F3.414
F0.014
F66.0
tp2325
a(S'cpvert_11MeV_neg30tilt_75rot_det4.npy'
p2326
F4.7659
F0.0154
F40.6455
F0.3118
F3.3587
F0.0136
F67.0
tp2327
a(S'cpvert_11MeV_neg30tilt_75rot_det5.npy'
p2328
F3.8718
F0.0136
F25.6674
F0.1153
F2.7018
F0.0122
F103.0
tp2329
a(S'cpvert_11MeV_neg30tilt_75rot_det6.npy'
p2330
F2.7653
F0.0108
F19.9446
F0.0624
F1.8777
F0.0085
F158.0
tp2331
a(S'cpvert_11MeV_neg30tilt_75rot_det7.npy'
p2332
F1.6914
F0.0096
F18.0267
F0.0473
F1.1038
F0.0072
F166.0
tp2333
a(S'cpvert_11MeV_neg30tilt_75rot_det8.npy'
p2334
F0.8519
F0.0065
F19.3945
F0.0356
F0.5261
F0.0042
F143.0
tp2335
a(S'cpvert_11MeV_neg30tilt_75rot_det9.npy'
p2336
F0.2914
F0.0035
F17.8131
F0.0418
F0.1722
F0.0021
F179.0
tp2337
a(S'cpvert_11MeV_neg30tilt_85rot_det10.npy'
p2338
F0.289
F0.0036
F15.8348
F0.0426
F0.1707
F0.0022
F166.0
tp2339
a(S'cpvert_11MeV_neg30tilt_85rot_det11.npy'
p2340
F0.8696
F0.0065
F19.845
F0.0338
F0.5281
F0.0045
F169.0
tp2341
a(S'cpvert_11MeV_neg30tilt_85rot_det12.npy'
p2342
F1.7995
F0.011
F19.0572
F0.0465
F1.1497
F0.0077
F162.0
tp2343
a(S'cpvert_11MeV_neg30tilt_85rot_det13.npy'
p2344
F2.9265
F0.0112
F22.1515
F0.0597
F1.937
F0.0088
F161.0
tp2345
a(S'cpvert_11MeV_neg30tilt_85rot_det14.npy'
p2346
F4.0394
F0.0133
F26.9539
F0.1211
F2.7432
F0.0106
F127.0
tp2347
a(S'cpvert_11MeV_neg30tilt_85rot_det15.npy'
p2348
F4.939
F0.0166
F41.565
F0.2821
F3.4174
F0.0138
F82.0
tp2349
a(S'cpvert_11MeV_neg30tilt_85rot_det4.npy'
p2350
F4.7905
F0.0151
F40.492
F0.3048
F3.3895
F0.0138
F55.0
tp2351
a(S'cpvert_11MeV_neg30tilt_85rot_det5.npy'
p2352
F3.8277
F0.0118
F25.2324
F0.1109
F2.6577
F0.0101
F134.0
tp2353
a(S'cpvert_11MeV_neg30tilt_85rot_det6.npy'
p2354
F2.7385
F0.0125
F19.8822
F0.067
F1.8536
F0.0094
F152.0
tp2355
a(S'cpvert_11MeV_neg30tilt_85rot_det7.npy'
p2356
F1.6812
F0.0091
F18.0525
F0.0441
F1.0967
F0.0068
F166.0
tp2357
a(S'cpvert_11MeV_neg30tilt_85rot_det8.npy'
p2358
F0.8533
F0.0067
F19.4126
F0.0339
F0.5289
F0.0045
F134.0
tp2359
a(S'cpvert_11MeV_neg30tilt_85rot_det9.npy'
p2360
F0.2908
F0.0035
F17.8443
F0.0392
F0.1715
F0.0021
F172.0
tp2361
a(S'cpvert_11MeV_neg30tilt_95rot_det10.npy'
p2362
F0.2812
F0.0042
F15.7856
F0.0477
F0.164
F0.0024
F152.0
tp2363
a(S'cpvert_11MeV_neg30tilt_95rot_det11.npy'
p2364
F0.8482
F0.007
F19.8869
F0.0356
F0.5184
F0.0045
F156.0
tp2365
a(S'cpvert_11MeV_neg30tilt_95rot_det12.npy'
p2366
F1.7819
F0.011
F18.9494
F0.0447
F1.1372
F0.0074
F152.0
tp2367
a(S'cpvert_11MeV_neg30tilt_95rot_det13.npy'
p2368
F2.9385
F0.0118
F22.0364
F0.0567
F1.9393
F0.0093
F161.0
tp2369
a(S'cpvert_11MeV_neg30tilt_95rot_det14.npy'
p2370
F4.0911
F0.013
F26.8599
F0.1073
F2.7743
F0.0104
F139.0
tp2371
a(S'cpvert_11MeV_neg30tilt_95rot_det15.npy'
p2372
F5.0302
F0.0162
F41.2884
F0.287
F3.4514
F0.0131
F77.0
tp2373
a(S'cpvert_11MeV_neg30tilt_95rot_det4.npy'
p2374
F4.7758
F0.0152
F40.1598
F0.2867
F3.3428
F0.0146
F70.0
tp2375
a(S'cpvert_11MeV_neg30tilt_95rot_det5.npy'
p2376
F3.8701
F0.0133
F25.5287
F0.1085
F2.6846
F0.0114
F139.0
tp2377
a(S'cpvert_11MeV_neg30tilt_95rot_det6.npy'
p2378
F2.7407
F0.0121
F19.9164
F0.0688
F1.8525
F0.0088
F147.0
tp2379
a(S'cpvert_11MeV_neg30tilt_95rot_det7.npy'
p2380
F1.6724
F0.0103
F18.1025
F0.0483
F1.0938
F0.0075
F143.0
tp2381
a(S'cpvert_11MeV_neg30tilt_95rot_det8.npy'
p2382
F0.83
F0.0068
F19.4388
F0.0353
F0.5132
F0.0046
F159.0
tp2383
a(S'cpvert_11MeV_neg30tilt_95rot_det9.npy'
p2384
F0.2877
F0.0033
F17.9265
F0.0367
F0.1692
F0.002
F164.0
tp2385
a.