(lp0
(S'filename'
p1
S'ql_mean'
p2
S'ql_abs_uncert'
p3
S'tof_mean'
p4
S'tof_abs_uncert'
p5
S'qs_mean'
p6
S'qs_abs_uncert'
p7
S'counts'
p8
tp9
a(S'bvert_4MeV_0tilt_115rot_det10.npy'
p10
F0.0694
F0.0014
F22.1633
F0.1099
F0.0344
F0.0008
cnumpy.core.multiarray
scalar
p11
(cnumpy
dtype
p12
(S'f8'
p13
I0
I1
tp14
Rp15
(I3
S'<'
p16
NNNI-1
I-1
I0
tp17
bS'\x00\x00\x00\x00\x00 `@'
p18
tp19
Rp20
tp21
a(S'bvert_4MeV_0tilt_115rot_det11.npy'
p22
F0.2276
F0.0029
F26.6966
F0.1067
F0.1247
F0.0018
g11
(g15
S'\x00\x00\x00\x00\x00@a@'
p23
tp24
Rp25
tp26
a(S'bvert_4MeV_0tilt_115rot_det12.npy'
p27
F0.521
F0.0046
F26.5163
F0.1031
F0.3025
F0.0031
g11
(g15
S'\x00\x00\x00\x00\x00`c@'
p28
tp29
Rp30
tp31
a(S'bvert_4MeV_0tilt_115rot_det13.npy'
p32
F0.8944
F0.0097
F31.5773
F0.1426
F0.5403
F0.0065
g11
(g15
S'\x00\x00\x00\x00\x00\x00_@'
p33
tp34
Rp35
tp36
a(S'bvert_4MeV_0tilt_115rot_det14.npy'
p37
F1.3459
F0.0124
F40.5997
F0.2158
F0.8297
F0.0084
g11
(g15
S'\x00\x00\x00\x00\x00\x80Y@'
p38
tp39
Rp40
tp41
a(S'bvert_4MeV_0tilt_115rot_det15.npy'
p42
F1.6487
F0.024
F63.4445
F0.5283
F1.028
F0.0158
g11
(g15
S'\x00\x00\x00\x00\x00@Q@'
p43
tp44
Rp45
tp46
a(S'bvert_4MeV_0tilt_115rot_det4.npy'
p47
F1.3949
F0.0235
F63.5363
F0.7067
F0.8863
F0.0158
g11
(g15
S'\x00\x00\x00\x00\x00\x00U@'
p48
tp49
Rp50
tp51
a(S'bvert_4MeV_0tilt_115rot_det5.npy'
p52
F1.1324
F0.0099
F38.6729
F0.2246
F0.7105
F0.0073
g11
(g15
S'\x00\x00\x00\x00\x00@Z@'
p53
tp54
Rp55
tp56
a(S'bvert_4MeV_0tilt_115rot_det6.npy'
p57
F0.74
F0.006
F28.7939
F0.1447
F0.4465
F0.0041
g11
(g15
S'\x00\x00\x00\x00\x00``@'
p58
tp59
Rp60
tp61
a(S'bvert_4MeV_0tilt_115rot_det7.npy'
p62
F0.4197
F0.0044
F25.6439
F0.113
F0.241
F0.0031
g11
(g15
S'\x00\x00\x00\x00\x00`c@'
p63
tp64
Rp65
tp66
a(S'bvert_4MeV_0tilt_115rot_det8.npy'
p67
F0.1898
F0.0023
F25.8249
F0.0999
F0.0998
F0.0014
g11
(g15
S'\x00\x00\x00\x00\x00\x80a@'
p68
tp69
Rp70
tp71
a(S'bvert_4MeV_0tilt_115rot_det9.npy'
p72
F0.0593
F0.0011
F23.9332
F0.096
F0.0285
F0.0006
g11
(g15
S'\x00\x00\x00\x00\x00\x00_@'
p73
tp74
Rp75
tp76
a(S'bvert_4MeV_0tilt_135rot_det10.npy'
p77
F0.0609
F0.0012
F22.3307
F0.0961
F0.0294
F0.0006
g11
(g15
S'\x00\x00\x00\x00\x00\xc0^@'
p78
tp79
Rp80
tp81
a(S'bvert_4MeV_0tilt_135rot_det11.npy'
p82
F0.2085
F0.0028
F26.5735
F0.1047
F0.1117
F0.0017
g11
(g15
S'\x00\x00\x00\x00\x00\xa0`@'
p83
tp84
Rp85
tp86
a(S'bvert_4MeV_0tilt_135rot_det12.npy'
p87
F0.4742
F0.0046
F26.584
F0.1048
F0.2762
F0.003
g11
(g15
S'\x00\x00\x00\x00\x00 c@'
p88
tp89
Rp90
tp91
a(S'bvert_4MeV_0tilt_135rot_det13.npy'
p92
F0.8513
F0.0085
F31.5608
F0.1386
F0.5183
F0.0056
g11
(g15
S'\x00\x00\x00\x00\x00\xc0^@'
p93
tp94
Rp95
tp96
a(S'bvert_4MeV_0tilt_135rot_det14.npy'
p97
F1.2373
F0.0112
F40.6472
F0.1909
F0.7752
F0.0078
g11
(g15
S'\x00\x00\x00\x00\x00\xc0_@'
p98
tp99
Rp100
tp101
a(S'bvert_4MeV_0tilt_135rot_det15.npy'
p102
F1.6293
F0.0199
F65.2713
F0.6086
F1.0331
F0.0136
g11
(g15
S'\x00\x00\x00\x00\x00@T@'
p103
tp104
Rp105
tp106
a(S'bvert_4MeV_0tilt_135rot_det4.npy'
p107
F1.5665
F0.0199
F63.297
F0.6513
F0.988
F0.014
g11
(g15
S'\x00\x00\x00\x00\x00\x80R@'
p108
tp109
Rp110
tp111
a(S'bvert_4MeV_0tilt_135rot_det5.npy'
p112
F1.2335
F0.0113
F38.8813
F0.2312
F0.7687
F0.0077
g11
(g15
S'\x00\x00\x00\x00\x00\x00]@'
p113
tp114
Rp115
tp116
a(S'bvert_4MeV_0tilt_135rot_det6.npy'
p117
F0.7962
F0.0094
F29.2342
F0.1505
F0.4858
F0.0067
g11
(g15
S'\x00\x00\x00\x00\x00@[@'
p118
tp119
Rp120
tp121
a(S'bvert_4MeV_0tilt_135rot_det7.npy'
p122
F0.4521
F0.0052
F25.4791
F0.1065
F0.2607
F0.0033
g11
(g15
S'\x00\x00\x00\x00\x00\x80b@'
p123
tp124
Rp125
tp126
a(S'bvert_4MeV_0tilt_135rot_det8.npy'
p127
F0.2005
F0.0028
F25.8195
F0.1024
F0.1084
F0.0017
g11
(g15
S'\x00\x00\x00\x00\x00\xc0\\@'
p128
tp129
Rp130
tp131
a(S'bvert_4MeV_0tilt_135rot_det9.npy'
p132
F0.0592
F0.0012
F23.7304
F0.1021
F0.0282
F0.0006
g11
(g15
S'\x00\x00\x00\x00\x00@a@'
p133
tp134
Rp135
tp136
a(S'bvert_4MeV_0tilt_145rot_det10.npy'
p137
F0.0596
F0.0015
F22.3182
F0.1188
F0.028
F0.0008
g11
(g15
S'\x00\x00\x00\x00\x00@Z@'
p138
tp139
Rp140
tp141
a(S'bvert_4MeV_0tilt_145rot_det11.npy'
p142
F0.2031
F0.0029
F26.6955
F0.1047
F0.1095
F0.0017
g11
(g15
S'\x00\x00\x00\x00\x00\xc0_@'
p143
tp144
Rp145
tp146
a(S'bvert_4MeV_0tilt_145rot_det12.npy'
p147
F0.4565
F0.0045
F26.7717
F0.1068
F0.2624
F0.0029
g11
(g15
S'\x00\x00\x00\x00\x00\xc0`@'
p148
tp149
Rp150
tp151
a(S'bvert_4MeV_0tilt_145rot_det13.npy'
p152
F0.7962
F0.0075
F31.7057
F0.1255
F0.4855
F0.0053
g11
(g15
S'\x00\x00\x00\x00\x00\x00a@'
p153
tp154
Rp155
tp156
a(S'bvert_4MeV_0tilt_145rot_det14.npy'
p157
F1.2142
F0.0116
F41.0372
F0.2639
F0.7705
F0.0083
g11
(g15
S'\x00\x00\x00\x00\x00\x00Y@'
p158
tp159
Rp160
tp161
a(S'bvert_4MeV_0tilt_145rot_det15.npy'
p162
F1.5729
F0.0226
F64.5474
F0.6224
F1.0063
F0.016
g11
(g15
S'\x00\x00\x00\x00\x00\x00I@'
p163
tp164
Rp165
tp166
a(S'bvert_4MeV_0tilt_145rot_det4.npy'
p167
F1.5908
F0.0288
F63.5459
F0.6768
F0.9935
F0.0195
g11
(g15
S'\x00\x00\x00\x00\x00\x00L@'
p168
tp169
Rp170
tp171
a(S'bvert_4MeV_0tilt_145rot_det5.npy'
p172
F1.2451
F0.0122
F38.7208
F0.1902
F0.7726
F0.0083
g11
(g15
S'\x00\x00\x00\x00\x00\x80_@'
p173
tp174
Rp175
tp176
a(S'bvert_4MeV_0tilt_145rot_det6.npy'
p177
F0.856
F0.0079
F28.9304
F0.1532
F0.5213
F0.0056
g11
(g15
S'\x00\x00\x00\x00\x00@[@'
p178
tp179
Rp180
tp181
a(S'bvert_4MeV_0tilt_145rot_det7.npy'
p182
F0.4667
F0.0045
F25.4997
F0.1113
F0.2703
F0.0029
g11
(g15
S'\x00\x00\x00\x00\x00@`@'
p183
tp184
Rp185
tp186
a(S'bvert_4MeV_0tilt_145rot_det8.npy'
p187
F0.2088
F0.003
F25.6766
F0.0919
F0.1118
F0.0018
g11
(g15
S'\x00\x00\x00\x00\x00\x00`@'
p188
tp189
Rp190
tp191
a(S'bvert_4MeV_0tilt_145rot_det9.npy'
p192
F0.0599
F0.0013
F23.9816
F0.1004
F0.0282
F0.0006
g11
(g15
S'\x00\x00\x00\x00\x00``@'
p193
tp194
Rp195
tp196
a(S'bvert_4MeV_0tilt_15rot_det10.npy'
p197
F0.0656
F0.0011
F22.1586
F0.1018
F0.0338
F0.0006
g11
(g15
S'\x00\x00\x00\x00\x00\x00a@'
p198
tp199
Rp200
tp201
a(S'bvert_4MeV_0tilt_15rot_det11.npy'
p202
F0.2017
F0.0021
F26.5964
F0.0939
F0.1096
F0.0013
g11
(g15
S'\x00\x00\x00\x00\x00\xa0b@'
p203
tp204
Rp205
tp206
a(S'bvert_4MeV_0tilt_15rot_det12.npy'
p207
F0.4156
F0.0041
F26.6429
F0.1021
F0.2392
F0.0027
g11
(g15
S'\x00\x00\x00\x00\x00\x00e@'
p208
tp209
Rp210
tp211
a(S'bvert_4MeV_0tilt_15rot_det13.npy'
p212
F0.7001
F0.0062
F31.5408
F0.1238
F0.4217
F0.0042
g11
(g15
S'\x00\x00\x00\x00\x00`b@'
p213
tp214
Rp215
tp216
a(S'bvert_4MeV_0tilt_15rot_det14.npy'
p217
F1.0123
F0.0102
F41.1229
F0.2363
F0.6321
F0.0072
g11
(g15
S'\x00\x00\x00\x00\x00\x00]@'
p218
tp219
Rp220
tp221
a(S'bvert_4MeV_0tilt_15rot_det15.npy'
p222
F1.3241
F0.0167
F64.2451
F0.6443
F0.8439
F0.0116
g11
(g15
S'\x00\x00\x00\x00\x00\xc0R@'
p223
tp224
Rp225
tp226
a(S'bvert_4MeV_0tilt_15rot_det4.npy'
p227
F1.513
F0.0174
F64.2607
F0.6355
F0.9716
F0.0127
g11
(g15
S'\x00\x00\x00\x00\x00\x00W@'
p228
tp229
Rp230
tp231
a(S'bvert_4MeV_0tilt_15rot_det5.npy'
p232
F1.2343
F0.0133
F39.6344
F0.2451
F0.7727
F0.0094
g11
(g15
S'\x00\x00\x00\x00\x00@Y@'
p233
tp234
Rp235
tp236
a(S'bvert_4MeV_0tilt_15rot_det6.npy'
p237
F0.8832
F0.0081
F29.3432
F0.1477
F0.5394
F0.0053
g11
(g15
S'\x00\x00\x00\x00\x00@b@'
p238
tp239
Rp240
tp241
a(S'bvert_4MeV_0tilt_15rot_det7.npy'
p242
F0.5425
F0.0058
F25.637
F0.1247
F0.3107
F0.0037
g11
(g15
S'\x00\x00\x00\x00\x00@a@'
p243
tp244
Rp245
tp246
a(S'bvert_4MeV_0tilt_15rot_det8.npy'
p247
F0.2598
F0.0034
F25.6523
F0.095
F0.1398
F0.0022
g11
(g15
S'\x00\x00\x00\x00\x00\xe0a@'
p248
tp249
Rp250
tp251
a(S'bvert_4MeV_0tilt_15rot_det9.npy'
p252
F0.0795
F0.0013
F23.6909
F0.0836
F0.0413
F0.0007
g11
(g15
S'\x00\x00\x00\x00\x00\xa0c@'
p253
tp254
Rp255
tp256
a(S'bvert_4MeV_0tilt_25rot_det10.npy'
p257
F0.0688
F0.0013
F22.0403
F0.0967
F0.0351
F0.0007
g11
(g15
S'\x00\x00\x00\x00\x00\x00`@'
p258
tp259
Rp260
tp261
a(S'bvert_4MeV_0tilt_25rot_det11.npy'
p262
F0.2073
F0.0027
F26.931
F0.0998
F0.1124
F0.0015
g11
(g15
S'\x00\x00\x00\x00\x00`c@'
p263
tp264
Rp265
tp266
a(S'bvert_4MeV_0tilt_25rot_det12.npy'
p267
F0.4407
F0.0041
F26.6952
F0.092
F0.2548
F0.0027
g11
(g15
S'\x00\x00\x00\x00\x00 e@'
p268
tp269
Rp270
tp271
a(S'bvert_4MeV_0tilt_25rot_det13.npy'
p272
F0.7126
F0.0067
F31.3631
F0.1358
F0.4309
F0.0045
g11
(g15
S'\x00\x00\x00\x00\x00``@'
p273
tp274
Rp275
tp276
a(S'bvert_4MeV_0tilt_25rot_det14.npy'
p277
F0.998
F0.0097
F40.9252
F0.2057
F0.625
F0.0067
g11
(g15
S'\x00\x00\x00\x00\x00@a@'
p278
tp279
Rp280
tp281
a(S'bvert_4MeV_0tilt_25rot_det15.npy'
p282
F1.2874
F0.0141
F64.7231
F0.4765
F0.8167
F0.0098
g11
(g15
S'\x00\x00\x00\x00\x00\x80S@'
p283
tp284
Rp285
tp286
a(S'bvert_4MeV_0tilt_25rot_det4.npy'
p287
F1.4653
F0.0199
F64.7184
F0.6118
F0.9445
F0.014
g11
(g15
S'\x00\x00\x00\x00\x00\x00R@'
p288
tp289
Rp290
tp291
a(S'bvert_4MeV_0tilt_25rot_det5.npy'
p292
F1.1975
F0.0119
F38.523
F0.2673
F0.7571
F0.0082
g11
(g15
S'\x00\x00\x00\x00\x00\x80T@'
p293
tp294
Rp295
tp296
a(S'bvert_4MeV_0tilt_25rot_det6.npy'
p297
F0.8646
F0.0069
F29.3146
F0.1413
F0.5273
F0.0047
g11
(g15
S'\x00\x00\x00\x00\x00`c@'
p298
tp299
Rp300
tp301
a(S'bvert_4MeV_0tilt_25rot_det7.npy'
p302
F0.5353
F0.0047
F25.5316
F0.0975
F0.3111
F0.0031
g11
(g15
S'\x00\x00\x00\x00\x00`d@'
p303
tp304
Rp305
tp306
a(S'bvert_4MeV_0tilt_25rot_det8.npy'
p307
F0.2574
F0.0033
F25.9789
F0.1074
F0.1402
F0.002
g11
(g15
S'\x00\x00\x00\x00\x00@`@'
p308
tp309
Rp310
tp311
a(S'bvert_4MeV_0tilt_25rot_det9.npy'
p312
F0.0833
F0.0015
F23.7994
F0.1057
F0.0428
F0.0008
g11
(g15
S'\x00\x00\x00\x00\x00\xc0_@'
p313
tp314
Rp315
tp316
a(S'bvert_4MeV_0tilt_315rot_det10.npy'
p317
F0.0673
F0.0011
F22.2653
F0.0805
F0.0344
F0.0006
g11
(g15
S'\x00\x00\x00\x00\x00\xc0b@'
p318
tp319
Rp320
tp321
a(S'bvert_4MeV_0tilt_315rot_det11.npy'
p322
F0.2168
F0.0025
F26.7072
F0.0931
F0.1192
F0.0015
g11
(g15
S'\x00\x00\x00\x00\x00\xc0d@'
p323
tp324
Rp325
tp326
a(S'bvert_4MeV_0tilt_315rot_det12.npy'
p327
F0.4853
F0.0049
F26.6951
F0.1128
F0.2835
F0.0031
g11
(g15
S'\x00\x00\x00\x00\x00 b@'
p328
tp329
Rp330
tp331
a(S'bvert_4MeV_0tilt_315rot_det13.npy'
p332
F0.8381
F0.0087
F31.4123
F0.1381
F0.5145
F0.0059
g11
(g15
S'\x00\x00\x00\x00\x00\xe0`@'
p333
tp334
Rp335
tp336
a(S'bvert_4MeV_0tilt_315rot_det14.npy'
p337
F1.2545
F0.0141
F41.6786
F0.2353
F0.7903
F0.0098
g11
(g15
S'\x00\x00\x00\x00\x00@\\@'
p338
tp339
Rp340
tp341
a(S'bvert_4MeV_0tilt_315rot_det15.npy'
p342
F1.6054
F0.0191
F66.0926
F0.5242
F1.0252
F0.013
g11
(g15
S'\x00\x00\x00\x00\x00\x00U@'
p343
tp344
Rp345
tp346
a(S'bvert_4MeV_0tilt_315rot_det4.npy'
p347
F1.5993
F0.0168
F64.5342
F0.6177
F1.01
F0.0116
g11
(g15
S'\x00\x00\x00\x00\x00\xc0W@'
p348
tp349
Rp350
tp351
a(S'bvert_4MeV_0tilt_315rot_det5.npy'
p352
F1.2162
F0.011
F38.955
F0.1963
F0.7584
F0.0074
g11
(g15
S'\x00\x00\x00\x00\x00\xc0^@'
p353
tp354
Rp355
tp356
a(S'bvert_4MeV_0tilt_315rot_det6.npy'
p357
F0.8118
F0.0077
F29.0202
F0.1372
F0.4947
F0.0055
g11
(g15
S'\x00\x00\x00\x00\x00\x80a@'
p358
tp359
Rp360
tp361
a(S'bvert_4MeV_0tilt_315rot_det7.npy'
p362
F0.452
F0.0045
F25.4503
F0.1073
F0.2629
F0.0028
g11
(g15
S'\x00\x00\x00\x00\x00\xa0d@'
p363
tp364
Rp365
tp366
a(S'bvert_4MeV_0tilt_315rot_det8.npy'
p367
F0.2083
F0.003
F25.8254
F0.1004
F0.113
F0.0018
g11
(g15
S'\x00\x00\x00\x00\x00\x00a@'
p368
tp369
Rp370
tp371
a(S'bvert_4MeV_0tilt_315rot_det9.npy'
p372
F0.0638
F0.0011
F23.9048
F0.0994
F0.0322
F0.0006
g11
(g15
S'\x00\x00\x00\x00\x00@a@'
p373
tp374
Rp375
tp376
a(S'bvert_4MeV_0tilt_335rot_det10.npy'
p377
F0.0625
F0.0012
F22.2419
F0.1031
F0.0314
F0.0006
g11
(g15
S'\x00\x00\x00\x00\x00 a@'
p378
tp379
Rp380
tp381
a(S'bvert_4MeV_0tilt_335rot_det11.npy'
p382
F0.1934
F0.0027
F26.6865
F0.1023
F0.1044
F0.0016
g11
(g15
S'\x00\x00\x00\x00\x00\x80a@'
p383
tp384
Rp385
tp386
a(S'bvert_4MeV_0tilt_335rot_det12.npy'
p387
F0.437
F0.0045
F26.7099
F0.1149
F0.2528
F0.0029
g11
(g15
S'\x00\x00\x00\x00\x00\xc0b@'
p388
tp389
Rp390
tp391
a(S'bvert_4MeV_0tilt_335rot_det13.npy'
p392
F0.7745
F0.0073
F31.5154
F0.1288
F0.4733
F0.005
g11
(g15
S'\x00\x00\x00\x00\x00\x00a@'
p393
tp394
Rp395
tp396
a(S'bvert_4MeV_0tilt_335rot_det14.npy'
p397
F1.1698
F0.0128
F40.8996
F0.2414
F0.7359
F0.0091
g11
(g15
S'\x00\x00\x00\x00\x00\x00Y@'
p398
tp399
Rp400
tp401
a(S'bvert_4MeV_0tilt_335rot_det15.npy'
p402
F1.5258
F0.0186
F65.4122
F0.7069
F0.9778
F0.0132
g11
(g15
S'\x00\x00\x00\x00\x00\x00U@'
p403
tp404
Rp405
tp406
a(S'bvert_4MeV_0tilt_335rot_det4.npy'
p407
F1.6501
F0.0197
F64.9452
F0.5755
F1.0271
F0.0133
g11
(g15
S'\x00\x00\x00\x00\x00\x80T@'
p408
tp409
Rp410
tp411
a(S'bvert_4MeV_0tilt_335rot_det5.npy'
p412
F1.311
F0.0117
F39.0175
F0.205
F0.8096
F0.008
g11
(g15
S'\x00\x00\x00\x00\x00 `@'
p413
tp414
Rp415
tp416
a(S'bvert_4MeV_0tilt_335rot_det6.npy'
p417
F0.889
F0.0077
F29.0394
F0.135
F0.537
F0.0049
g11
(g15
S'\x00\x00\x00\x00\x00 c@'
p418
tp419
Rp420
tp421
a(S'bvert_4MeV_0tilt_335rot_det7.npy'
p422
F0.4976
F0.0056
F25.4558
F0.1077
F0.2894
F0.0036
g11
(g15
S'\x00\x00\x00\x00\x00\xe0c@'
p423
tp424
Rp425
tp426
a(S'bvert_4MeV_0tilt_335rot_det8.npy'
p427
F0.2252
F0.003
F25.8586
F0.0918
F0.1242
F0.0018
g11
(g15
S'\x00\x00\x00\x00\x00\x80a@'
p428
tp429
Rp430
tp431
a(S'bvert_4MeV_0tilt_335rot_det9.npy'
p432
F0.0683
F0.0013
F23.8509
F0.1
F0.0357
F0.0007
g11
(g15
S'\x00\x00\x00\x00\x00\xa0a@'
p433
tp434
Rp435
tp436
a(S'bvert_4MeV_0tilt_345rot_det10.npy'
p437
F0.0629
F0.0011
F22.297
F0.0959
F0.0317
F0.0006
g11
(g15
S'\x00\x00\x00\x00\x00@`@'
p438
tp439
Rp440
tp441
a(S'bvert_4MeV_0tilt_345rot_det11.npy'
p442
F0.1935
F0.0024
F26.8552
F0.0934
F0.104
F0.0014
g11
(g15
S'\x00\x00\x00\x00\x00`c@'
p443
tp444
Rp445
tp446
a(S'bvert_4MeV_0tilt_345rot_det12.npy'
p447
F0.4297
F0.0045
F26.7224
F0.0953
F0.2477
F0.0028
g11
(g15
S'\x00\x00\x00\x00\x00\xe0e@'
p448
tp449
Rp450
tp451
a(S'bvert_4MeV_0tilt_345rot_det13.npy'
p452
F0.7573
F0.0071
F31.4357
F0.13
F0.4612
F0.0048
g11
(g15
S'\x00\x00\x00\x00\x00 a@'
p453
tp454
Rp455
tp456
a(S'bvert_4MeV_0tilt_345rot_det14.npy'
p457
F1.1178
F0.0107
F41.3138
F0.2234
F0.7071
F0.0075
g11
(g15
S'\x00\x00\x00\x00\x00\x80[@'
p458
tp459
Rp460
tp461
a(S'bvert_4MeV_0tilt_345rot_det15.npy'
p462
F1.4772
F0.0207
F64.2892
F0.6038
F0.9492
F0.0147
g11
(g15
S'\x00\x00\x00\x00\x00\x00O@'
p463
tp464
Rp465
tp466
a(S'bvert_4MeV_0tilt_345rot_det4.npy'
p467
F1.6572
F0.0179
F63.5666
F0.727
F1.0434
F0.0125
g11
(g15
S'\x00\x00\x00\x00\x00\x00R@'
p468
tp469
Rp470
tp471
a(S'bvert_4MeV_0tilt_345rot_det5.npy'
p472
F1.3238
F0.0123
F39.0498
F0.2434
F0.8151
F0.0083
g11
(g15
S'\x00\x00\x00\x00\x00\xc0X@'
p473
tp474
Rp475
tp476
a(S'bvert_4MeV_0tilt_345rot_det6.npy'
p477
F0.8985
F0.0085
F29.1833
F0.1509
F0.5378
F0.0053
g11
(g15
S'\x00\x00\x00\x00\x00\xa0a@'
p478
tp479
Rp480
tp481
a(S'bvert_4MeV_0tilt_345rot_det7.npy'
p482
F0.5192
F0.005
F25.5642
F0.1118
F0.3001
F0.0032
g11
(g15
S'\x00\x00\x00\x00\x00@c@'
p483
tp484
Rp485
tp486
a(S'bvert_4MeV_0tilt_345rot_det8.npy'
p487
F0.2329
F0.0029
F25.9069
F0.0981
F0.1278
F0.0017
g11
(g15
S'\x00\x00\x00\x00\x00 b@'
p488
tp489
Rp490
tp491
a(S'bvert_4MeV_0tilt_345rot_det9.npy'
p492
F0.0725
F0.0012
F23.8317
F0.0956
F0.0377
F0.0007
g11
(g15
S'\x00\x00\x00\x00\x00\x80a@'
p493
tp494
Rp495
tp496
a(S'bvert_4MeV_0tilt_355rot_det10.npy'
p497
F0.0629
F0.0011
F22.1348
F0.0868
F0.0317
F0.0006
g11
(g15
S'\x00\x00\x00\x00\x00 c@'
p498
tp499
Rp500
tp501
a(S'bvert_4MeV_0tilt_355rot_det11.npy'
p502
F0.1903
F0.0024
F26.8123
F0.0925
F0.1025
F0.0014
g11
(g15
S'\x00\x00\x00\x00\x00\x80f@'
p503
tp504
Rp505
tp506
a(S'bvert_4MeV_0tilt_355rot_det12.npy'
p507
F0.4188
F0.0049
F26.5495
F0.1206
F0.2428
F0.0031
g11
(g15
S'\x00\x00\x00\x00\x00\x80b@'
p508
tp509
Rp510
tp511
a(S'bvert_4MeV_0tilt_355rot_det13.npy'
p512
F0.7289
F0.0068
F31.556
F0.1278
F0.4404
F0.0046
g11
(g15
S'\x00\x00\x00\x00\x00\x80a@'
p513
tp514
Rp515
tp516
a(S'bvert_4MeV_0tilt_355rot_det14.npy'
p517
F1.067
F0.0094
F40.9718
F0.2086
F0.6678
F0.0065
g11
(g15
S'\x00\x00\x00\x00\x00\x80^@'
p518
tp519
Rp520
tp521
a(S'bvert_4MeV_0tilt_355rot_det15.npy'
p522
F1.4098
F0.0195
F65.0603
F0.6746
F0.9098
F0.0135
g11
(g15
S'\x00\x00\x00\x00\x00\x00Q@'
p523
tp524
Rp525
tp526
a(S'bvert_4MeV_0tilt_355rot_det4.npy'
p527
F1.6268
F0.0199
F63.2379
F0.6093
F1.0387
F0.0133
g11
(g15
S'\x00\x00\x00\x00\x00\x80U@'
p528
tp529
Rp530
tp531
a(S'bvert_4MeV_0tilt_355rot_det5.npy'
p532
F1.3198
F0.0146
F38.8071
F0.2268
F0.819
F0.0102
g11
(g15
S'\x00\x00\x00\x00\x00@X@'
p533
tp534
Rp535
tp536
a(S'bvert_4MeV_0tilt_355rot_det6.npy'
p537
F0.931
F0.0087
F29.1989
F0.1448
F0.5589
F0.0056
g11
(g15
S'\x00\x00\x00\x00\x00\x80a@'
p538
tp539
Rp540
tp541
a(S'bvert_4MeV_0tilt_355rot_det7.npy'
p542
F0.5549
F0.0053
F25.4739
F0.1089
F0.3199
F0.0033
g11
(g15
S'\x00\x00\x00\x00\x00`c@'
p543
tp544
Rp545
tp546
a(S'bvert_4MeV_0tilt_355rot_det8.npy'
p547
F0.251
F0.0032
F25.66
F0.1098
F0.1381
F0.0019
g11
(g15
S'\x00\x00\x00\x00\x00\x80b@'
p548
tp549
Rp550
tp551
a(S'bvert_4MeV_0tilt_355rot_det9.npy'
p552
F0.0776
F0.0014
F23.8078
F0.0985
F0.0408
F0.0008
g11
(g15
S'\x00\x00\x00\x00\x00@c@'
p553
tp554
Rp555
tp556
a(S'bvert_4MeV_0tilt_35rot_det10.npy'
p557
F0.0743
F0.0015
F22.154
F0.1024
F0.0385
F0.0008
g11
(g15
S'\x00\x00\x00\x00\x00\x00]@'
p558
tp559
Rp560
tp561
a(S'bvert_4MeV_0tilt_35rot_det11.npy'
p562
F0.222
F0.0025
F26.7194
F0.1069
F0.1212
F0.0016
g11
(g15
S'\x00\x00\x00\x00\x00 a@'
p563
tp564
Rp565
tp566
a(S'bvert_4MeV_0tilt_35rot_det12.npy'
p567
F0.4537
F0.0043
F26.5133
F0.1013
F0.2622
F0.0028
g11
(g15
S'\x00\x00\x00\x00\x00\x80e@'
p568
tp569
Rp570
tp571
a(S'bvert_4MeV_0tilt_35rot_det13.npy'
p572
F0.7387
F0.0066
F31.6091
F0.1299
F0.4462
F0.0045
g11
(g15
S'\x00\x00\x00\x00\x00\x80b@'
p573
tp574
Rp575
tp576
a(S'bvert_4MeV_0tilt_35rot_det14.npy'
p577
F1.0276
F0.0114
F41.0865
F0.2592
F0.642
F0.0077
g11
(g15
S'\x00\x00\x00\x00\x00\x00Y@'
p578
tp579
Rp580
tp581
a(S'bvert_4MeV_0tilt_35rot_det15.npy'
p582
F1.2958
F0.0143
F63.4331
F0.5345
F0.8268
F0.0105
g11
(g15
S'\x00\x00\x00\x00\x00\x80T@'
p583
tp584
Rp585
tp586
a(S'bvert_4MeV_0tilt_35rot_det4.npy'
p587
F1.3777
F0.0201
F63.7729
F0.6625
F0.8825
F0.0139
g11
(g15
S'\x00\x00\x00\x00\x00\xc0R@'
p588
tp589
Rp590
tp591
a(S'bvert_4MeV_0tilt_35rot_det5.npy'
p592
F1.1584
F0.0121
F38.928
F0.2131
F0.7324
F0.0082
g11
(g15
S'\x00\x00\x00\x00\x00@_@'
p593
tp594
Rp595
tp596
a(S'bvert_4MeV_0tilt_35rot_det6.npy'
p597
F0.8194
F0.0086
F29.134
F0.1448
F0.5018
F0.0059
g11
(g15
S'\x00\x00\x00\x00\x00`a@'
p598
tp599
Rp600
tp601
a(S'bvert_4MeV_0tilt_35rot_det7.npy'
p602
F0.5115
F0.005
F25.6267
F0.0981
F0.2969
F0.0033
g11
(g15
S'\x00\x00\x00\x00\x00\xe0a@'
p603
tp604
Rp605
tp606
a(S'bvert_4MeV_0tilt_35rot_det8.npy'
p607
F0.255
F0.003
F25.6392
F0.0952
F0.1415
F0.0019
g11
(g15
S'\x00\x00\x00\x00\x00\x00a@'
p608
tp609
Rp610
tp611
a(S'bvert_4MeV_0tilt_35rot_det9.npy'
p612
F0.0803
F0.0017
F23.693
F0.113
F0.0404
F0.0009
g11
(g15
S'\x00\x00\x00\x00\x00\xc0]@'
p613
tp614
Rp615
tp616
a(S'bvert_4MeV_0tilt_45rot_det10.npy'
p617
F0.0747
F0.0014
F22.0235
F0.1015
F0.0383
F0.0008
g11
(g15
S'\x00\x00\x00\x00\x00``@'
p618
tp619
Rp620
tp621
a(S'bvert_4MeV_0tilt_45rot_det11.npy'
p622
F0.2343
F0.0026
F26.4985
F0.104
F0.1284
F0.0016
g11
(g15
S'\x00\x00\x00\x00\x00\x80^@'
p623
tp624
Rp625
tp626
a(S'bvert_4MeV_0tilt_45rot_det12.npy'
p627
F0.4776
F0.0052
F26.661
F0.1128
F0.2786
F0.0037
g11
(g15
S'\x00\x00\x00\x00\x00@a@'
p628
tp629
Rp630
tp631
a(S'bvert_4MeV_0tilt_45rot_det13.npy'
p632
F0.7633
F0.0077
F31.4911
F0.1465
F0.4617
F0.0051
g11
(g15
S'\x00\x00\x00\x00\x00@^@'
p633
tp634
Rp635
tp636
a(S'bvert_4MeV_0tilt_45rot_det14.npy'
p637
F1.0855
F0.0115
F41.2558
F0.2168
F0.6815
F0.0086
g11
(g15
S'\x00\x00\x00\x00\x00\x80X@'
p638
tp639
Rp640
tp641
a(S'bvert_4MeV_0tilt_45rot_det15.npy'
p642
F1.3337
F0.0177
F64.8136
F0.6129
F0.8514
F0.0125
g11
(g15
S'\x00\x00\x00\x00\x00\xc0P@'
p643
tp644
Rp645
tp646
a(S'bvert_4MeV_0tilt_45rot_det4.npy'
p647
F1.3653
F0.0163
F62.8032
F0.6037
F0.8781
F0.0115
g11
(g15
S'\x00\x00\x00\x00\x00\x80S@'
p648
tp649
Rp650
tp651
a(S'bvert_4MeV_0tilt_45rot_det5.npy'
p652
F1.1247
F0.0113
F39.1805
F0.2222
F0.7084
F0.0078
g11
(g15
S'\x00\x00\x00\x00\x00\xc0Y@'
p653
tp654
Rp655
tp656
a(S'bvert_4MeV_0tilt_45rot_det6.npy'
p657
F0.7968
F0.0076
F29.3028
F0.1686
F0.4866
F0.0052
g11
(g15
S'\x00\x00\x00\x00\x00\x00\\@'
p658
tp659
Rp660
tp661
a(S'bvert_4MeV_0tilt_45rot_det7.npy'
p662
F0.4885
F0.0057
F25.5182
F0.111
F0.2864
F0.0036
g11
(g15
S'\x00\x00\x00\x00\x00\x80a@'
p663
tp664
Rp665
tp666
a(S'bvert_4MeV_0tilt_45rot_det8.npy'
p667
F0.2418
F0.0029
F25.9082
F0.0896
F0.1336
F0.0018
g11
(g15
S'\x00\x00\x00\x00\x00\x80a@'
p668
tp669
Rp670
tp671
a(S'bvert_4MeV_0tilt_45rot_det9.npy'
p672
F0.0825
F0.0014
F23.6702
F0.0994
F0.0417
F0.0008
g11
(g15
S'\x00\x00\x00\x00\x00\xe0a@'
p673
tp674
Rp675
tp676
a(S'bvert_4MeV_0tilt_55rot_det10.npy'
p677
F0.0779
F0.0012
F22.1022
F0.0871
F0.0399
F0.0007
g11
(g15
S'\x00\x00\x00\x00\x00\xe0c@'
p678
tp679
Rp680
tp681
a(S'bvert_4MeV_0tilt_55rot_det11.npy'
p682
F0.2436
F0.003
F26.596
F0.102
F0.1329
F0.0018
g11
(g15
S'\x00\x00\x00\x00\x00\xa0b@'
p683
tp684
Rp685
tp686
a(S'bvert_4MeV_0tilt_55rot_det12.npy'
p687
F0.5028
F0.0046
F26.4703
F0.1228
F0.2923
F0.0031
g11
(g15
S'\x00\x00\x00\x00\x00\xa0`@'
p688
tp689
Rp690
tp691
a(S'bvert_4MeV_0tilt_55rot_det13.npy'
p692
F0.7974
F0.0077
F31.3311
F0.1398
F0.4817
F0.0051
g11
(g15
S'\x00\x00\x00\x00\x00\x80\\@'
p693
tp694
Rp695
tp696
a(S'bvert_4MeV_0tilt_55rot_det14.npy'
p697
F1.1075
F0.0119
F40.74
F0.2377
F0.6935
F0.0084
g11
(g15
S'\x00\x00\x00\x00\x00@Y@'
p698
tp699
Rp700
tp701
a(S'bvert_4MeV_0tilt_55rot_det15.npy'
p702
F1.3909
F0.0154
F64.6644
F0.7013
F0.8925
F0.0109
g11
(g15
S'\x00\x00\x00\x00\x00@P@'
p703
tp704
Rp705
tp706
a(S'bvert_4MeV_0tilt_55rot_det4.npy'
p707
F1.3052
F0.0153
F63.0229
F0.5838
F0.8324
F0.0112
g11
(g15
S'\x00\x00\x00\x00\x00\x00U@'
p708
tp709
Rp710
tp711
a(S'bvert_4MeV_0tilt_55rot_det5.npy'
p712
F1.064
F0.0093
F39.1651
F0.2196
F0.6666
F0.0067
g11
(g15
S'\x00\x00\x00\x00\x00\x00Z@'
p713
tp714
Rp715
tp716
a(S'bvert_4MeV_0tilt_55rot_det6.npy'
p717
F0.7716
F0.0074
F29.356
F0.166
F0.4699
F0.0049
g11
(g15
S'\x00\x00\x00\x00\x00\x80^@'
p718
tp719
Rp720
tp721
a(S'bvert_4MeV_0tilt_55rot_det7.npy'
p722
F0.4774
F0.005
F25.5351
F0.1079
F0.2791
F0.0033
g11
(g15
S'\x00\x00\x00\x00\x00@a@'
p723
tp724
Rp725
tp726
a(S'bvert_4MeV_0tilt_55rot_det8.npy'
p727
F0.2361
F0.0031
F25.9553
F0.0942
F0.13
F0.0018
g11
(g15
S'\x00\x00\x00\x00\x00\xa0b@'
p728
tp729
Rp730
tp731
a(S'bvert_4MeV_0tilt_55rot_det9.npy'
p732
F0.0752
F0.0015
F23.819
F0.1108
F0.0385
F0.0009
g11
(g15
S'\x00\x00\x00\x00\x00\x00]@'
p733
tp734
Rp735
tp736
a(S'bvert_4MeV_0tilt_5rot_det10.npy'
p737
F0.0644
F0.001
F22.1821
F0.095
F0.0324
F0.0005
g11
(g15
S'\x00\x00\x00\x00\x00\xe0b@'
p738
tp739
Rp740
tp741
a(S'bvert_4MeV_0tilt_5rot_det11.npy'
p742
F0.1973
F0.0026
F26.7827
F0.1016
F0.1069
F0.0016
g11
(g15
S'\x00\x00\x00\x00\x00`b@'
p743
tp744
Rp745
tp746
a(S'bvert_4MeV_0tilt_5rot_det12.npy'
p747
F0.4138
F0.0047
F26.6285
F0.1093
F0.2373
F0.003
g11
(g15
S'\x00\x00\x00\x00\x00\x00b@'
p748
tp749
Rp750
tp751
a(S'bvert_4MeV_0tilt_5rot_det13.npy'
p752
F0.6932
F0.0059
F31.638
F0.1214
F0.4168
F0.0039
g11
(g15
S'\x00\x00\x00\x00\x00\xa0c@'
p753
tp754
Rp755
tp756
a(S'bvert_4MeV_0tilt_5rot_det14.npy'
p757
F1.0344
F0.0101
F41.1077
F0.2381
F0.6446
F0.0071
g11
(g15
S'\x00\x00\x00\x00\x00\x00\\@'
p758
tp759
Rp760
tp761
a(S'bvert_4MeV_0tilt_5rot_det15.npy'
p762
F1.3574
F0.0188
F66.0431
F0.5753
F0.8717
F0.0132
g11
(g15
S'\x00\x00\x00\x00\x00\xc0R@'
p763
tp764
Rp765
tp766
a(S'bvert_4MeV_0tilt_5rot_det4.npy'
p767
F1.5788
F0.0192
F65.4623
F0.6989
F1.0138
F0.0137
g11
(g15
S'\x00\x00\x00\x00\x00\x00O@'
p768
tp769
Rp770
tp771
a(S'bvert_4MeV_0tilt_5rot_det5.npy'
p772
F1.2703
F0.0135
F38.9911
F0.2136
F0.7891
F0.0091
g11
(g15
S'\x00\x00\x00\x00\x00@^@'
p773
tp774
Rp775
tp776
a(S'bvert_4MeV_0tilt_5rot_det6.npy'
p777
F0.9328
F0.0074
F28.8085
F0.1576
F0.5626
F0.005
g11
(g15
S'\x00\x00\x00\x00\x00\x00b@'
p778
tp779
Rp780
tp781
a(S'bvert_4MeV_0tilt_5rot_det7.npy'
p782
F0.5437
F0.0048
F25.5887
F0.1178
F0.3112
F0.003
g11
(g15
S'\x00\x00\x00\x00\x00`b@'
p783
tp784
Rp785
tp786
a(S'bvert_4MeV_0tilt_5rot_det8.npy'
p787
F0.2556
F0.003
F25.5235
F0.0883
F0.1391
F0.0018
g11
(g15
S'\x00\x00\x00\x00\x00\x00b@'
p788
tp789
Rp790
tp791
a(S'bvert_4MeV_0tilt_5rot_det9.npy'
p792
F0.0772
F0.0012
F23.5614
F0.1026
F0.0408
F0.0007
g11
(g15
S'\x00\x00\x00\x00\x00\x00_@'
p793
tp794
Rp795
tp796
a(S'bvert_4MeV_0tilt_75rot_det10.npy'
p797
F0.0795
F0.0014
F22.0737
F0.0936
F0.0407
F0.0008
g11
(g15
S'\x00\x00\x00\x00\x00`c@'
p798
tp799
Rp800
tp801
a(S'bvert_4MeV_0tilt_75rot_det11.npy'
p802
F0.2641
F0.0034
F26.5317
F0.1185
F0.1446
F0.002
g11
(g15
S'\x00\x00\x00\x00\x00@`@'
p803
tp804
Rp805
tp806
a(S'bvert_4MeV_0tilt_75rot_det12.npy'
p807
F0.5512
F0.0053
F26.3654
F0.107
F0.3169
F0.0034
g11
(g15
S'\x00\x00\x00\x00\x00\xe0a@'
p808
tp809
Rp810
tp811
a(S'bvert_4MeV_0tilt_75rot_det13.npy'
p812
F0.8598
F0.0086
F31.5287
F0.1328
F0.5161
F0.0055
g11
(g15
S'\x00\x00\x00\x00\x00\xc0a@'
p813
tp814
Rp815
tp816
a(S'bvert_4MeV_0tilt_75rot_det14.npy'
p817
F1.2035
F0.0115
F41.1953
F0.2491
F0.752
F0.0081
g11
(g15
S'\x00\x00\x00\x00\x00\x80Y@'
p818
tp819
Rp820
tp821
a(S'bvert_4MeV_0tilt_75rot_det15.npy'
p822
F1.4505
F0.0221
F64.931
F0.7787
F0.9287
F0.0161
g11
(g15
S'\x00\x00\x00\x00\x00\x80H@'
p823
tp824
Rp825
tp826
a(S'bvert_4MeV_0tilt_75rot_det4.npy'
p827
F1.2732
F0.0164
F63.5629
F0.6832
F0.8053
F0.0123
g11
(g15
S'\x00\x00\x00\x00\x00@S@'
p828
tp829
Rp830
tp831
a(S'bvert_4MeV_0tilt_75rot_det5.npy'
p832
F1.008
F0.0118
F38.7747
F0.2144
F0.6294
F0.0081
g11
(g15
S'\x00\x00\x00\x00\x00\x00\\@'
p833
tp834
Rp835
tp836
a(S'bvert_4MeV_0tilt_75rot_det6.npy'
p837
F0.722
F0.0054
F28.9986
F0.1433
F0.4355
F0.0039
g11
(g15
S'\x00\x00\x00\x00\x00\xa0c@'
p838
tp839
Rp840
tp841
a(S'bvert_4MeV_0tilt_75rot_det7.npy'
p842
F0.4359
F0.0046
F25.7122
F0.1089
F0.251
F0.003
g11
(g15
S'\x00\x00\x00\x00\x00\xe0a@'
p843
tp844
Rp845
tp846
a(S'bvert_4MeV_0tilt_75rot_det8.npy'
p847
F0.2091
F0.0027
F25.7222
F0.0861
F0.1132
F0.0016
g11
(g15
S'\x00\x00\x00\x00\x00\xa0d@'
p848
tp849
Rp850
tp851
a(S'bvert_4MeV_0tilt_75rot_det9.npy'
p852
F0.0681
F0.0013
F23.9379
F0.1103
F0.0342
F0.0007
g11
(g15
S'\x00\x00\x00\x00\x00\xc0\\@'
p853
tp854
Rp855
tp856
a(S'bvert_4MeV_0tilt_95rot_det10.npy'
p857
F0.0741
F0.0014
F21.6909
F0.1056
F0.0376
F0.0007
g11
(g15
S'\x00\x00\x00\x00\x00\xa0a@'
p858
tp859
Rp860
tp861
a(S'bvert_4MeV_0tilt_95rot_det11.npy'
p862
F0.253
F0.0029
F26.602
F0.0941
F0.1386
F0.0017
g11
(g15
S'\x00\x00\x00\x00\x00\xc0c@'
p863
tp864
Rp865
tp866
a(S'bvert_4MeV_0tilt_95rot_det12.npy'
p867
F0.5553
F0.0055
F26.6078
F0.1123
F0.3195
F0.0035
g11
(g15
S'\x00\x00\x00\x00\x00\x00c@'
p868
tp869
Rp870
tp871
a(S'bvert_4MeV_0tilt_95rot_det13.npy'
p872
F0.9437
F0.0083
F31.1583
F0.1157
F0.5662
F0.0056
g11
(g15
S'\x00\x00\x00\x00\x00 b@'
p873
tp874
Rp875
tp876
a(S'bvert_4MeV_0tilt_95rot_det14.npy'
p877
F1.3058
F0.0117
F40.7757
F0.2336
F0.802
F0.0081
g11
(g15
S'\x00\x00\x00\x00\x00@[@'
p878
tp879
Rp880
tp881
a(S'bvert_4MeV_0tilt_95rot_det15.npy'
p882
F1.6057
F0.0169
F64.1523
F0.5745
F1.0134
F0.0116
g11
(g15
S'\x00\x00\x00\x00\x00\x00U@'
p883
tp884
Rp885
tp886
a(S'bvert_4MeV_0tilt_95rot_det4.npy'
p887
F1.3558
F0.0163
F62.4434
F0.6231
F0.8694
F0.0111
g11
(g15
S'\x00\x00\x00\x00\x00@R@'
p888
tp889
Rp890
tp891
a(S'bvert_4MeV_0tilt_95rot_det5.npy'
p892
F1.0343
F0.0105
F39.31
F0.2191
F0.6461
F0.007
g11
(g15
S'\x00\x00\x00\x00\x00@]@'
p893
tp894
Rp895
tp896
a(S'bvert_4MeV_0tilt_95rot_det6.npy'
p897
F0.7158
F0.006
F29.1006
F0.155
F0.4312
F0.0044
g11
(g15
S'\x00\x00\x00\x00\x00`a@'
p898
tp899
Rp900
tp901
a(S'bvert_4MeV_0tilt_95rot_det7.npy'
p902
F0.405
F0.0044
F25.5263
F0.1094
F0.2311
F0.0028
g11
(g15
S'\x00\x00\x00\x00\x00\xa0`@'
p903
tp904
Rp905
tp906
a(S'bvert_4MeV_0tilt_95rot_det8.npy'
p907
F0.1967
F0.0025
F25.9543
F0.0857
F0.1041
F0.0014
g11
(g15
S'\x00\x00\x00\x00\x00\xc0a@'
p908
tp909
Rp910
tp911
a(S'bvert_4MeV_0tilt_95rot_det9.npy'
p912
F0.0618
F0.001
F23.9092
F0.0907
F0.0303
F0.0005
g11
(g15
S'\x00\x00\x00\x00\x00\x00b@'
p913
tp914
Rp915
tp916
a(S'bvert_4MeV_15tilt_115rot_det10.npy'
p917
F0.0703
F0.0012
F22.1347
F0.0903
F0.0351
F0.0007
g11
(g15
S'\x00\x00\x00\x00\x00 e@'
p918
tp919
Rp920
tp921
a(S'bvert_4MeV_15tilt_115rot_det11.npy'
p922
F0.2352
F0.003
F26.5659
F0.0954
F0.1285
F0.0018
g11
(g15
S'\x00\x00\x00\x00\x00\xe0b@'
p923
tp924
Rp925
tp926
a(S'bvert_4MeV_15tilt_115rot_det12.npy'
p927
F0.5263
F0.0047
F26.586
F0.1026
F0.3066
F0.003
g11
(g15
S'\x00\x00\x00\x00\x00@a@'
p928
tp929
Rp930
tp931
a(S'bvert_4MeV_15tilt_115rot_det13.npy'
p932
F0.9067
F0.0073
F31.7379
F0.144
F0.5482
F0.0047
g11
(g15
S'\x00\x00\x00\x00\x00 `@'
p933
tp934
Rp935
tp936
a(S'bvert_4MeV_15tilt_115rot_det14.npy'
p937
F1.3285
F0.0096
F41.3712
F0.2063
F0.8227
F0.0065
g11
(g15
S'\x00\x00\x00\x00\x00\xa0b@'
p938
tp939
Rp940
tp941
a(S'bvert_4MeV_15tilt_115rot_det15.npy'
p942
F1.6883
F0.019
F64.8472
F0.5928
F1.0598
F0.0136
g11
(g15
S'\x00\x00\x00\x00\x00@Q@'
p943
tp944
Rp945
tp946
a(S'bvert_4MeV_15tilt_115rot_det4.npy'
p947
F1.4963
F0.0202
F62.193
F0.485
F0.9615
F0.0141
g11
(g15
S'\x00\x00\x00\x00\x00\x00U@'
p948
tp949
Rp950
tp951
a(S'bvert_4MeV_15tilt_115rot_det5.npy'
p952
F1.1573
F0.01
F38.8199
F0.2198
F0.7265
F0.007
g11
(g15
S'\x00\x00\x00\x00\x00\x80]@'
p953
tp954
Rp955
tp956
a(S'bvert_4MeV_15tilt_115rot_det6.npy'
p957
F0.738
F0.007
F28.9587
F0.1365
F0.4468
F0.0047
g11
(g15
S'\x00\x00\x00\x00\x00@b@'
p958
tp959
Rp960
tp961
a(S'bvert_4MeV_15tilt_115rot_det7.npy'
p962
F0.4261
F0.0045
F25.6145
F0.0974
F0.2444
F0.0028
g11
(g15
S'\x00\x00\x00\x00\x00\xc0d@'
p963
tp964
Rp965
tp966
a(S'bvert_4MeV_15tilt_115rot_det8.npy'
p967
F0.1888
F0.0024
F25.7632
F0.1038
F0.0999
F0.0015
g11
(g15
S'\x00\x00\x00\x00\x00\xc0_@'
p968
tp969
Rp970
tp971
a(S'bvert_4MeV_15tilt_115rot_det9.npy'
p972
F0.061
F0.0011
F23.8542
F0.0896
F0.0298
F0.0006
g11
(g15
S'\x00\x00\x00\x00\x00\xc0c@'
p973
tp974
Rp975
tp976
a(S'bvert_4MeV_15tilt_135rot_det10.npy'
p977
F0.0656
F0.0012
F22.2719
F0.0915
F0.0321
F0.0007
g11
(g15
S'\x00\x00\x00\x00\x00\xc0c@'
p978
tp979
Rp980
tp981
a(S'bvert_4MeV_15tilt_135rot_det11.npy'
p982
F0.2152
F0.0026
F26.9239
F0.0949
F0.1171
F0.0016
g11
(g15
S'\x00\x00\x00\x00\x00\xe0c@'
p983
tp984
Rp985
tp986
a(S'bvert_4MeV_15tilt_135rot_det12.npy'
p987
F0.4862
F0.0044
F26.9363
F0.1088
F0.284
F0.003
g11
(g15
S'\x00\x00\x00\x00\x00@c@'
p988
tp989
Rp990
tp991
a(S'bvert_4MeV_15tilt_135rot_det13.npy'
p992
F0.8279
F0.0087
F31.8043
F0.1563
F0.5062
F0.0059
g11
(g15
S'\x00\x00\x00\x00\x00@_@'
p993
tp994
Rp995
tp996
a(S'bvert_4MeV_15tilt_135rot_det14.npy'
p997
F1.271
F0.0111
F41.0514
F0.1966
F0.7992
F0.0078
g11
(g15
S'\x00\x00\x00\x00\x00\x00\\@'
p998
tp999
Rp1000
tp1001
a(S'bvert_4MeV_15tilt_135rot_det15.npy'
p1002
F1.6479
F0.0162
F65.0847
F0.5137
F1.0511
F0.0115
g11
(g15
S'\x00\x00\x00\x00\x00\x80S@'
p1003
tp1004
Rp1005
tp1006
a(S'bvert_4MeV_15tilt_135rot_det4.npy'
p1007
F1.639
F0.0149
F61.3521
F0.5306
F1.0404
F0.0105
g11
(g15
S'\x00\x00\x00\x00\x00\xc0R@'
p1008
tp1009
Rp1010
tp1011
a(S'bvert_4MeV_15tilt_135rot_det5.npy'
p1012
F1.2375
F0.0115
F39.1077
F0.2272
F0.7719
F0.0083
g11
(g15
S'\x00\x00\x00\x00\x00\xc0Y@'
p1013
tp1014
Rp1015
tp1016
a(S'bvert_4MeV_15tilt_135rot_det6.npy'
p1017
F0.8183
F0.007
F28.8614
F0.133
F0.4963
F0.0046
g11
(g15
S'\x00\x00\x00\x00\x00`b@'
p1018
tp1019
Rp1020
tp1021
a(S'bvert_4MeV_15tilt_135rot_det7.npy'
p1022
F0.4374
F0.0055
F25.5971
F0.1161
F0.2514
F0.0035
g11
(g15
S'\x00\x00\x00\x00\x00\xc0b@'
p1023
tp1024
Rp1025
tp1026
a(S'bvert_4MeV_15tilt_135rot_det8.npy'
p1027
F0.2014
F0.0026
F25.7276
F0.0962
F0.1081
F0.0016
g11
(g15
S'\x00\x00\x00\x00\x00\x80c@'
p1028
tp1029
Rp1030
tp1031
a(S'bvert_4MeV_15tilt_135rot_det9.npy'
p1032
F0.0604
F0.0012
F23.9389
F0.1049
F0.0291
F0.0006
g11
(g15
S'\x00\x00\x00\x00\x00\x80`@'
p1033
tp1034
Rp1035
tp1036
a(S'bvert_4MeV_15tilt_15rot_det10.npy'
p1037
F0.0646
F0.0012
F22.0765
F0.0857
F0.0323
F0.0007
g11
(g15
S'\x00\x00\x00\x00\x00@d@'
p1038
tp1039
Rp1040
tp1041
a(S'bvert_4MeV_15tilt_15rot_det11.npy'
p1042
F0.201
F0.0023
F26.5544
F0.0987
F0.1083
F0.0014
g11
(g15
S'\x00\x00\x00\x00\x00\xe0b@'
p1043
tp1044
Rp1045
tp1046
a(S'bvert_4MeV_15tilt_15rot_det12.npy'
p1047
F0.4229
F0.004
F26.4434
F0.0956
F0.2434
F0.0027
g11
(g15
S'\x00\x00\x00\x00\x00\x80f@'
p1048
tp1049
Rp1050
tp1051
a(S'bvert_4MeV_15tilt_15rot_det13.npy'
p1052
F0.7235
F0.0065
F31.5583
F0.1365
F0.4371
F0.0043
g11
(g15
S'\x00\x00\x00\x00\x00 d@'
p1053
tp1054
Rp1055
tp1056
a(S'bvert_4MeV_15tilt_15rot_det14.npy'
p1057
F1.0289
F0.0101
F40.3573
F0.2255
F0.6427
F0.007
g11
(g15
S'\x00\x00\x00\x00\x00\x80^@'
p1058
tp1059
Rp1060
tp1061
a(S'bvert_4MeV_15tilt_15rot_det15.npy'
p1062
F1.3564
F0.0142
F64.8896
F0.5508
F0.8652
F0.0099
g11
(g15
S'\x00\x00\x00\x00\x00\xc0U@'
p1063
tp1064
Rp1065
tp1066
a(S'bvert_4MeV_15tilt_15rot_det4.npy'
p1067
F1.5211
F0.0184
F63.2785
F0.4656
F0.9766
F0.0134
g11
(g15
S'\x00\x00\x00\x00\x00@S@'
p1068
tp1069
Rp1070
tp1071
a(S'bvert_4MeV_15tilt_15rot_det5.npy'
p1072
F1.294
F0.0118
F39.4485
F0.2531
F0.8168
F0.0085
g11
(g15
S'\x00\x00\x00\x00\x00\xc0V@'
p1073
tp1074
Rp1075
tp1076
a(S'bvert_4MeV_15tilt_15rot_det6.npy'
p1077
F0.9116
F0.0075
F29.1855
F0.1412
F0.5538
F0.005
g11
(g15
S'\x00\x00\x00\x00\x00\x80d@'
p1078
tp1079
Rp1080
tp1081
a(S'bvert_4MeV_15tilt_15rot_det7.npy'
p1082
F0.554
F0.005
F25.4713
F0.0988
F0.3192
F0.0033
g11
(g15
S'\x00\x00\x00\x00\x00`d@'
p1083
tp1084
Rp1085
tp1086
a(S'bvert_4MeV_15tilt_15rot_det8.npy'
p1087
F0.2645
F0.0029
F25.7804
F0.0921
F0.1447
F0.0017
g11
(g15
S'\x00\x00\x00\x00\x00\xa0f@'
p1088
tp1089
Rp1090
tp1091
a(S'bvert_4MeV_15tilt_15rot_det9.npy'
p1092
F0.0834
F0.0014
F23.6701
F0.0872
F0.0426
F0.0008
g11
(g15
S'\x00\x00\x00\x00\x00 c@'
p1093
tp1094
Rp1095
tp1096
a(S'bvert_4MeV_15tilt_25rot_det10.npy'
p1097
F0.0662
F0.0012
F22.0325
F0.0896
F0.0336
F0.0006
g11
(g15
S'\x00\x00\x00\x00\x00\xa0d@'
p1098
tp1099
Rp1100
tp1101
a(S'bvert_4MeV_15tilt_25rot_det11.npy'
p1102
F0.2154
F0.003
F26.6803
F0.1004
F0.1168
F0.0018
g11
(g15
S'\x00\x00\x00\x00\x00`c@'
p1103
tp1104
Rp1105
tp1106
a(S'bvert_4MeV_15tilt_25rot_det12.npy'
p1107
F0.436
F0.004
F26.6069
F0.1036
F0.2521
F0.0029
g11
(g15
S'\x00\x00\x00\x00\x00\xe0c@'
p1108
tp1109
Rp1110
tp1111
a(S'bvert_4MeV_15tilt_25rot_det13.npy'
p1112
F0.7232
F0.0069
F31.5661
F0.1417
F0.4345
F0.0047
g11
(g15
S'\x00\x00\x00\x00\x00\xa0e@'
p1113
tp1114
Rp1115
tp1116
a(S'bvert_4MeV_15tilt_25rot_det14.npy'
p1117
F1.0374
F0.0097
F40.8648
F0.2057
F0.6471
F0.0064
g11
(g15
S'\x00\x00\x00\x00\x00\x80a@'
p1118
tp1119
Rp1120
tp1121
a(S'bvert_4MeV_15tilt_25rot_det15.npy'
p1122
F1.3263
F0.0111
F63.7902
F0.4742
F0.8432
F0.008
g11
(g15
S'\x00\x00\x00\x00\x00@R@'
p1123
tp1124
Rp1125
tp1126
a(S'bvert_4MeV_15tilt_25rot_det4.npy'
p1127
F1.464
F0.0164
F63.0834
F0.5024
F0.94
F0.0121
g11
(g15
S'\x00\x00\x00\x00\x00@V@'
p1128
tp1129
Rp1130
tp1131
a(S'bvert_4MeV_15tilt_25rot_det5.npy'
p1132
F1.2222
F0.0102
F39.0982
F0.2217
F0.7728
F0.0073
g11
(g15
S'\x00\x00\x00\x00\x00@`@'
p1133
tp1134
Rp1135
tp1136
a(S'bvert_4MeV_15tilt_25rot_det6.npy'
p1137
F0.8837
F0.0076
F29.2958
F0.1497
F0.5404
F0.0051
g11
(g15
S'\x00\x00\x00\x00\x00\xa0`@'
p1138
tp1139
Rp1140
tp1141
a(S'bvert_4MeV_15tilt_25rot_det7.npy'
p1142
F0.5341
F0.0051
F25.4953
F0.0951
F0.3105
F0.0032
g11
(g15
S'\x00\x00\x00\x00\x00 g@'
p1143
tp1144
Rp1145
tp1146
a(S'bvert_4MeV_15tilt_25rot_det8.npy'
p1147
F0.2624
F0.0027
F25.6072
F0.0923
F0.1434
F0.0016
g11
(g15
S'\x00\x00\x00\x00\x00\x00d@'
p1148
tp1149
Rp1150
tp1151
a(S'bvert_4MeV_15tilt_25rot_det9.npy'
p1152
F0.085
F0.0015
F23.7615
F0.0966
F0.0437
F0.0008
g11
(g15
S'\x00\x00\x00\x00\x00\xe0b@'
p1153
tp1154
Rp1155
tp1156
a(S'bvert_4MeV_15tilt_315rot_det10.npy'
p1157
F0.0649
F0.0014
F22.3361
F0.0875
F0.0316
F0.0007
g11
(g15
S'\x00\x00\x00\x00\x00\xa0c@'
p1158
tp1159
Rp1160
tp1161
a(S'bvert_4MeV_15tilt_315rot_det11.npy'
p1162
F0.2151
F0.0031
F26.6348
F0.0945
F0.1167
F0.0018
g11
(g15
S'\x00\x00\x00\x00\x00 d@'
p1163
tp1164
Rp1165
tp1166
a(S'bvert_4MeV_15tilt_315rot_det12.npy'
p1167
F0.4849
F0.0048
F26.6721
F0.1078
F0.2824
F0.0031
g11
(g15
S'\x00\x00\x00\x00\x00@f@'
p1168
tp1169
Rp1170
tp1171
a(S'bvert_4MeV_15tilt_315rot_det13.npy'
p1172
F0.8627
F0.0081
F31.6004
F0.1376
F0.5288
F0.0055
g11
(g15
S'\x00\x00\x00\x00\x00\x80a@'
p1173
tp1174
Rp1175
tp1176
a(S'bvert_4MeV_15tilt_315rot_det14.npy'
p1177
F1.2679
F0.0102
F41.1385
F0.2317
F0.7995
F0.0072
g11
(g15
S'\x00\x00\x00\x00\x00\xc0Z@'
p1178
tp1179
Rp1180
tp1181
a(S'bvert_4MeV_15tilt_315rot_det15.npy'
p1182
F1.6249
F0.0172
F65.6365
F0.595
F1.0374
F0.0122
g11
(g15
S'\x00\x00\x00\x00\x00\x00P@'
p1183
tp1184
Rp1185
tp1186
a(S'bvert_4MeV_15tilt_315rot_det4.npy'
p1187
F1.6213
F0.0183
F63.9413
F0.5036
F1.0279
F0.0127
g11
(g15
S'\x00\x00\x00\x00\x00@X@'
p1188
tp1189
Rp1190
tp1191
a(S'bvert_4MeV_15tilt_315rot_det5.npy'
p1192
F1.2484
F0.011
F39.1594
F0.2238
F0.7828
F0.0077
g11
(g15
S'\x00\x00\x00\x00\x00\xa0`@'
p1193
tp1194
Rp1195
tp1196
a(S'bvert_4MeV_15tilt_315rot_det6.npy'
p1197
F0.8297
F0.0086
F29.3147
F0.1769
F0.5017
F0.0059
g11
(g15
S'\x00\x00\x00\x00\x00\xc0\\@'
p1198
tp1199
Rp1200
tp1201
a(S'bvert_4MeV_15tilt_315rot_det7.npy'
p1202
F0.4641
F0.0049
F25.5317
F0.0994
F0.2682
F0.003
g11
(g15
S'\x00\x00\x00\x00\x00\x00e@'
p1203
tp1204
Rp1205
tp1206
a(S'bvert_4MeV_15tilt_315rot_det8.npy'
p1207
F0.2089
F0.0026
F25.8258
F0.0998
F0.112
F0.0016
g11
(g15
S'\x00\x00\x00\x00\x00@c@'
p1208
tp1209
Rp1210
tp1211
a(S'bvert_4MeV_15tilt_315rot_det9.npy'
p1212
F0.0657
F0.0011
F24.0684
F0.0946
F0.0323
F0.0006
g11
(g15
S'\x00\x00\x00\x00\x00\xa0d@'
p1213
tp1214
Rp1215
tp1216
a(S'bvert_4MeV_15tilt_335rot_det10.npy'
p1217
F0.0606
F0.0013
F22.307
F0.1026
F0.0291
F0.0007
g11
(g15
S'\x00\x00\x00\x00\x00`a@'
p1218
tp1219
Rp1220
tp1221
a(S'bvert_4MeV_15tilt_335rot_det11.npy'
p1222
F0.1999
F0.0027
F26.5186
F0.099
F0.1074
F0.0016
g11
(g15
S'\x00\x00\x00\x00\x00\x80d@'
p1223
tp1224
Rp1225
tp1226
a(S'bvert_4MeV_15tilt_335rot_det12.npy'
p1227
F0.4304
F0.0045
F26.5845
F0.1023
F0.2472
F0.0028
g11
(g15
S'\x00\x00\x00\x00\x00`d@'
p1228
tp1229
Rp1230
tp1231
a(S'bvert_4MeV_15tilt_335rot_det13.npy'
p1232
F0.7871
F0.0076
F31.5058
F0.151
F0.4817
F0.0054
g11
(g15
S'\x00\x00\x00\x00\x00\x80b@'
p1233
tp1234
Rp1235
tp1236
a(S'bvert_4MeV_15tilt_335rot_det14.npy'
p1237
F1.1736
F0.0102
F40.5907
F0.2437
F0.7409
F0.0072
g11
(g15
S'\x00\x00\x00\x00\x00\x00X@'
p1238
tp1239
Rp1240
tp1241
a(S'bvert_4MeV_15tilt_335rot_det15.npy'
p1242
F1.5066
F0.0181
F64.8412
F0.4958
F0.9691
F0.0128
g11
(g15
S'\x00\x00\x00\x00\x00\xc0V@'
p1243
tp1244
Rp1245
tp1246
a(S'bvert_4MeV_15tilt_335rot_det4.npy'
p1247
F1.7237
F0.0172
F63.3573
F0.5128
F1.0833
F0.0124
g11
(g15
S'\x00\x00\x00\x00\x00\x00U@'
p1248
tp1249
Rp1250
tp1251
a(S'bvert_4MeV_15tilt_335rot_det5.npy'
p1252
F1.3202
F0.0111
F39.1892
F0.2285
F0.8105
F0.0075
g11
(g15
S'\x00\x00\x00\x00\x00@^@'
p1253
tp1254
Rp1255
tp1256
a(S'bvert_4MeV_15tilt_335rot_det6.npy'
p1257
F0.9075
F0.0071
F28.9981
F0.1533
F0.5462
F0.0047
g11
(g15
S'\x00\x00\x00\x00\x00\xc0]@'
p1258
tp1259
Rp1260
tp1261
a(S'bvert_4MeV_15tilt_335rot_det7.npy'
p1262
F0.5033
F0.0051
F25.3646
F0.1117
F0.2916
F0.0032
g11
(g15
S'\x00\x00\x00\x00\x00@c@'
p1263
tp1264
Rp1265
tp1266
a(S'bvert_4MeV_15tilt_335rot_det8.npy'
p1267
F0.2296
F0.0028
F26.0215
F0.0965
F0.1254
F0.0016
g11
(g15
S'\x00\x00\x00\x00\x00\xa0a@'
p1268
tp1269
Rp1270
tp1271
a(S'bvert_4MeV_15tilt_335rot_det9.npy'
p1272
F0.0704
F0.0012
F23.7291
F0.0883
F0.0355
F0.0007
g11
(g15
S'\x00\x00\x00\x00\x00\xa0a@'
p1273
tp1274
Rp1275
tp1276
a(S'bvert_4MeV_15tilt_345rot_det10.npy'
p1277
F0.0589
F0.0012
F22.1455
F0.1003
F0.0285
F0.0006
g11
(g15
S'\x00\x00\x00\x00\x00\x00a@'
p1278
tp1279
Rp1280
tp1281
a(S'bvert_4MeV_15tilt_345rot_det11.npy'
p1282
F0.1983
F0.0021
F26.6705
F0.0977
F0.1062
F0.0013
g11
(g15
S'\x00\x00\x00\x00\x00\x80a@'
p1283
tp1284
Rp1285
tp1286
a(S'bvert_4MeV_15tilt_345rot_det12.npy'
p1287
F0.4294
F0.0051
F26.6038
F0.1098
F0.247
F0.0033
g11
(g15
S'\x00\x00\x00\x00\x00\xe0f@'
p1288
tp1289
Rp1290
tp1291
a(S'bvert_4MeV_15tilt_345rot_det13.npy'
p1292
F0.7497
F0.0064
F31.4839
F0.13
F0.4564
F0.0044
g11
(g15
S'\x00\x00\x00\x00\x00\x80a@'
p1293
tp1294
Rp1295
tp1296
a(S'bvert_4MeV_15tilt_345rot_det14.npy'
p1297
F1.1232
F0.0102
F40.9489
F0.2109
F0.7078
F0.0073
g11
(g15
S'\x00\x00\x00\x00\x00@^@'
p1298
tp1299
Rp1300
tp1301
a(S'bvert_4MeV_15tilt_345rot_det15.npy'
p1302
F1.5013
F0.0148
F64.5363
F0.4706
F0.9688
F0.0109
g11
(g15
S'\x00\x00\x00\x00\x00@U@'
p1303
tp1304
Rp1305
tp1306
a(S'bvert_4MeV_15tilt_345rot_det4.npy'
p1307
F1.6972
F0.0169
F63.5942
F0.5471
F1.0749
F0.0119
g11
(g15
S'\x00\x00\x00\x00\x00\x00N@'
p1308
tp1309
Rp1310
tp1311
a(S'bvert_4MeV_15tilt_345rot_det5.npy'
p1312
F1.3466
F0.0114
F38.6965
F0.2251
F0.8276
F0.0077
g11
(g15
S'\x00\x00\x00\x00\x00\xc0Z@'
p1313
tp1314
Rp1315
tp1316
a(S'bvert_4MeV_15tilt_345rot_det6.npy'
p1317
F0.9235
F0.0079
F29.1821
F0.1421
F0.5537
F0.0052
g11
(g15
S'\x00\x00\x00\x00\x00\x00d@'
p1318
tp1319
Rp1320
tp1321
a(S'bvert_4MeV_15tilt_345rot_det7.npy'
p1322
F0.5284
F0.0059
F25.6521
F0.101
F0.3041
F0.0037
g11
(g15
S'\x00\x00\x00\x00\x00\xa0e@'
p1323
tp1324
Rp1325
tp1326
a(S'bvert_4MeV_15tilt_345rot_det8.npy'
p1327
F0.2431
F0.003
F25.8229
F0.0865
F0.1326
F0.0018
g11
(g15
S'\x00\x00\x00\x00\x00\xc0c@'
p1328
tp1329
Rp1330
tp1331
a(S'bvert_4MeV_15tilt_345rot_det9.npy'
p1332
F0.0732
F0.0011
F23.7222
F0.0887
F0.0374
F0.0006
g11
(g15
S'\x00\x00\x00\x00\x00@f@'
p1333
tp1334
Rp1335
tp1336
a(S'bvert_4MeV_15tilt_355rot_det10.npy'
p1337
F0.0618
F0.0011
F22.06
F0.0915
F0.0299
F0.0006
g11
(g15
S'\x00\x00\x00\x00\x00\xc0a@'
p1338
tp1339
Rp1340
tp1341
a(S'bvert_4MeV_15tilt_355rot_det11.npy'
p1342
F0.1898
F0.0027
F26.8412
F0.1041
F0.1012
F0.0016
g11
(g15
S'\x00\x00\x00\x00\x00\xe0b@'
p1343
tp1344
Rp1345
tp1346
a(S'bvert_4MeV_15tilt_355rot_det12.npy'
p1347
F0.423
F0.0036
F26.4861
F0.0936
F0.2418
F0.0023
g11
(g15
S'\x00\x00\x00\x00\x00\xe0h@'
p1348
tp1349
Rp1350
tp1351
a(S'bvert_4MeV_15tilt_355rot_det13.npy'
p1352
F0.7429
F0.0064
F31.6445
F0.1472
F0.449
F0.0042
g11
(g15
S'\x00\x00\x00\x00\x00\xa0a@'
p1353
tp1354
Rp1355
tp1356
a(S'bvert_4MeV_15tilt_355rot_det14.npy'
p1357
F1.0566
F0.0121
F40.8926
F0.2262
F0.6646
F0.0085
g11
(g15
S'\x00\x00\x00\x00\x00@\\@'
p1358
tp1359
Rp1360
tp1361
a(S'bvert_4MeV_15tilt_355rot_det15.npy'
p1362
F1.4299
F0.0171
F65.1918
F0.5815
F0.917
F0.0125
g11
(g15
S'\x00\x00\x00\x00\x00\x80P@'
p1363
tp1364
Rp1365
tp1366
a(S'bvert_4MeV_15tilt_355rot_det4.npy'
p1367
F1.6837
F0.0164
F63.8753
F0.5243
F1.0744
F0.0123
g11
(g15
S'\x00\x00\x00\x00\x00\x00Q@'
p1368
tp1369
Rp1370
tp1371
a(S'bvert_4MeV_15tilt_355rot_det5.npy'
p1372
F1.3569
F0.0117
F38.9173
F0.2186
F0.8441
F0.008
g11
(g15
S'\x00\x00\x00\x00\x00@[@'
p1373
tp1374
Rp1375
tp1376
a(S'bvert_4MeV_15tilt_355rot_det6.npy'
p1377
F0.929
F0.0086
F28.9859
F0.1608
F0.5556
F0.0055
g11
(g15
S'\x00\x00\x00\x00\x00\xc0a@'
p1378
tp1379
Rp1380
tp1381
a(S'bvert_4MeV_15tilt_355rot_det7.npy'
p1382
F0.5489
F0.0049
F25.5388
F0.1028
F0.3162
F0.0032
g11
(g15
S'\x00\x00\x00\x00\x00\xa0d@'
p1383
tp1384
Rp1385
tp1386
a(S'bvert_4MeV_15tilt_355rot_det8.npy'
p1387
F0.2501
F0.0027
F25.7551
F0.0881
F0.1367
F0.0016
g11
(g15
S'\x00\x00\x00\x00\x00 g@'
p1388
tp1389
Rp1390
tp1391
a(S'bvert_4MeV_15tilt_355rot_det9.npy'
p1392
F0.0781
F0.0015
F23.8867
F0.097
F0.0397
F0.0008
g11
(g15
S'\x00\x00\x00\x00\x00\x80b@'
p1393
tp1394
Rp1395
tp1396
a(S'bvert_4MeV_15tilt_35rot_det10.npy'
p1397
F0.0709
F0.0013
F22.1794
F0.0832
F0.0359
F0.0007
g11
(g15
S'\x00\x00\x00\x00\x00\xc0e@'
p1398
tp1399
Rp1400
tp1401
a(S'bvert_4MeV_15tilt_35rot_det11.npy'
p1402
F0.22
F0.0033
F26.4756
F0.0965
F0.1206
F0.0019
g11
(g15
S'\x00\x00\x00\x00\x00 b@'
p1403
tp1404
Rp1405
tp1406
a(S'bvert_4MeV_15tilt_35rot_det12.npy'
p1407
F0.463
F0.0044
F26.592
F0.1016
F0.267
F0.0029
g11
(g15
S'\x00\x00\x00\x00\x00\xa0e@'
p1408
tp1409
Rp1410
tp1411
a(S'bvert_4MeV_15tilt_35rot_det13.npy'
p1412
F0.749
F0.0065
F31.61
F0.1397
F0.4523
F0.0043
g11
(g15
S'\x00\x00\x00\x00\x00\x80c@'
p1413
tp1414
Rp1415
tp1416
a(S'bvert_4MeV_15tilt_35rot_det14.npy'
p1417
F1.0615
F0.0092
F41.0271
F0.2388
F0.663
F0.0065
g11
(g15
S'\x00\x00\x00\x00\x00\x00\\@'
p1418
tp1419
Rp1420
tp1421
a(S'bvert_4MeV_15tilt_35rot_det15.npy'
p1422
F1.3246
F0.0145
F65.4666
F0.5528
F0.8503
F0.0099
g11
(g15
S'\x00\x00\x00\x00\x00@Q@'
p1423
tp1424
Rp1425
tp1426
a(S'bvert_4MeV_15tilt_35rot_det4.npy'
p1427
F1.432
F0.0137
F64.2992
F0.5258
F0.9263
F0.0104
g11
(g15
S'\x00\x00\x00\x00\x00\xc0S@'
p1428
tp1429
Rp1430
tp1431
a(S'bvert_4MeV_15tilt_35rot_det5.npy'
p1432
F1.192
F0.0111
F38.8733
F0.2126
F0.7543
F0.0077
g11
(g15
S'\x00\x00\x00\x00\x00@[@'
p1433
tp1434
Rp1435
tp1436
a(S'bvert_4MeV_15tilt_35rot_det6.npy'
p1437
F0.8206
F0.0084
F29.1004
F0.1334
F0.5005
F0.0058
g11
(g15
S'\x00\x00\x00\x00\x00@a@'
p1438
tp1439
Rp1440
tp1441
a(S'bvert_4MeV_15tilt_35rot_det7.npy'
p1442
F0.5186
F0.0053
F25.6819
F0.1116
F0.302
F0.0034
g11
(g15
S'\x00\x00\x00\x00\x00\xa0b@'
p1443
tp1444
Rp1445
tp1446
a(S'bvert_4MeV_15tilt_35rot_det8.npy'
p1447
F0.2563
F0.0031
F25.7594
F0.0946
F0.1411
F0.0018
g11
(g15
S'\x00\x00\x00\x00\x00`a@'
p1448
tp1449
Rp1450
tp1451
a(S'bvert_4MeV_15tilt_35rot_det9.npy'
p1452
F0.0814
F0.0013
F23.7185
F0.0826
F0.0418
F0.0007
g11
(g15
S'\x00\x00\x00\x00\x00`d@'
p1453
tp1454
Rp1455
tp1456
a(S'bvert_4MeV_15tilt_45rot_det10.npy'
p1457
F0.0751
F0.0013
F21.8272
F0.0897
F0.0383
F0.0007
g11
(g15
S'\x00\x00\x00\x00\x00`c@'
p1458
tp1459
Rp1460
tp1461
a(S'bvert_4MeV_15tilt_45rot_det11.npy'
p1462
F0.2335
F0.0032
F26.6406
F0.097
F0.1268
F0.0019
g11
(g15
S'\x00\x00\x00\x00\x00\x00c@'
p1463
tp1464
Rp1465
tp1466
a(S'bvert_4MeV_15tilt_45rot_det12.npy'
p1467
F0.478
F0.0045
F26.4535
F0.0972
F0.2761
F0.0029
g11
(g15
S'\x00\x00\x00\x00\x00\xa0d@'
p1468
tp1469
Rp1470
tp1471
a(S'bvert_4MeV_15tilt_45rot_det13.npy'
p1472
F0.795
F0.0064
F31.1525
F0.1179
F0.4832
F0.0042
g11
(g15
S'\x00\x00\x00\x00\x00\x80c@'
p1473
tp1474
Rp1475
tp1476
a(S'bvert_4MeV_15tilt_45rot_det14.npy'
p1477
F1.0826
F0.0095
F40.4881
F0.1893
F0.6744
F0.0068
g11
(g15
S'\x00\x00\x00\x00\x00\x80a@'
p1478
tp1479
Rp1480
tp1481
a(S'bvert_4MeV_15tilt_45rot_det15.npy'
p1482
F1.3691
F0.0127
F64.6005
F0.6088
F0.8749
F0.0091
g11
(g15
S'\x00\x00\x00\x00\x00\xc0P@'
p1483
tp1484
Rp1485
tp1486
a(S'bvert_4MeV_15tilt_45rot_det4.npy'
p1487
F1.4006
F0.0151
F62.6279
F0.543
F0.9002
F0.0108
g11
(g15
S'\x00\x00\x00\x00\x00\x00T@'
p1488
tp1489
Rp1490
tp1491
a(S'bvert_4MeV_15tilt_45rot_det5.npy'
p1492
F1.1441
F0.0102
F39.1579
F0.2181
F0.7201
F0.007
g11
(g15
S'\x00\x00\x00\x00\x00\xc0[@'
p1493
tp1494
Rp1495
tp1496
a(S'bvert_4MeV_15tilt_45rot_det6.npy'
p1497
F0.8122
F0.0065
F29.3326
F0.143
F0.4962
F0.0045
g11
(g15
S'\x00\x00\x00\x00\x00\xc0b@'
p1498
tp1499
Rp1500
tp1501
a(S'bvert_4MeV_15tilt_45rot_det7.npy'
p1502
F0.502
F0.005
F25.6209
F0.1101
F0.2933
F0.0031
g11
(g15
S'\x00\x00\x00\x00\x00\x80b@'
p1503
tp1504
Rp1505
tp1506
a(S'bvert_4MeV_15tilt_45rot_det8.npy'
p1507
F0.2461
F0.0028
F25.6825
F0.0868
F0.1351
F0.0017
g11
(g15
S'\x00\x00\x00\x00\x00\x80c@'
p1508
tp1509
Rp1510
tp1511
a(S'bvert_4MeV_15tilt_45rot_det9.npy'
p1512
F0.0814
F0.0013
F23.6973
F0.0913
F0.0418
F0.0007
g11
(g15
S'\x00\x00\x00\x00\x00\x80e@'
p1513
tp1514
Rp1515
tp1516
a(S'bvert_4MeV_15tilt_55rot_det10.npy'
p1517
F0.079
F0.0012
F22.0013
F0.0954
F0.0405
F0.0007
g11
(g15
S'\x00\x00\x00\x00\x00\x80d@'
p1518
tp1519
Rp1520
tp1521
a(S'bvert_4MeV_15tilt_55rot_det11.npy'
p1522
F0.2406
F0.003
F26.562
F0.1012
F0.1311
F0.0018
g11
(g15
S'\x00\x00\x00\x00\x00\x80b@'
p1523
tp1524
Rp1525
tp1526
a(S'bvert_4MeV_15tilt_55rot_det12.npy'
p1527
F0.5042
F0.0044
F26.6875
F0.1167
F0.2921
F0.0028
g11
(g15
S'\x00\x00\x00\x00\x00 c@'
p1528
tp1529
Rp1530
tp1531
a(S'bvert_4MeV_15tilt_55rot_det13.npy'
p1532
F0.8117
F0.0076
F31.8594
F0.1369
F0.4918
F0.005
g11
(g15
S'\x00\x00\x00\x00\x00 c@'
p1533
tp1534
Rp1535
tp1536
a(S'bvert_4MeV_15tilt_55rot_det14.npy'
p1537
F1.1364
F0.0126
F40.9719
F0.2179
F0.7109
F0.0084
g11
(g15
S'\x00\x00\x00\x00\x00\xc0[@'
p1538
tp1539
Rp1540
tp1541
a(S'bvert_4MeV_15tilt_55rot_det15.npy'
p1542
F1.4
F0.0157
F64.3957
F0.5726
F0.8919
F0.0109
g11
(g15
S'\x00\x00\x00\x00\x00\x80Q@'
p1543
tp1544
Rp1545
tp1546
a(S'bvert_4MeV_15tilt_55rot_det4.npy'
p1547
F1.3515
F0.0128
F62.1662
F0.4804
F0.8657
F0.0093
g11
(g15
S'\x00\x00\x00\x00\x00@W@'
p1548
tp1549
Rp1550
tp1551
a(S'bvert_4MeV_15tilt_55rot_det5.npy'
p1552
F1.1013
F0.0087
F39.333
F0.2124
F0.6934
F0.0062
g11
(g15
S'\x00\x00\x00\x00\x00@\\@'
p1553
tp1554
Rp1555
tp1556
a(S'bvert_4MeV_15tilt_55rot_det6.npy'
p1557
F0.7806
F0.0068
F29.4477
F0.1389
F0.4775
F0.0045
g11
(g15
S'\x00\x00\x00\x00\x00 b@'
p1558
tp1559
Rp1560
tp1561
a(S'bvert_4MeV_15tilt_55rot_det7.npy'
p1562
F0.4742
F0.0047
F25.6989
F0.0999
F0.2767
F0.003
g11
(g15
S'\x00\x00\x00\x00\x00\x00e@'
p1563
tp1564
Rp1565
tp1566
a(S'bvert_4MeV_15tilt_55rot_det8.npy'
p1567
F0.237
F0.0027
F25.8395
F0.0861
F0.1309
F0.0016
g11
(g15
S'\x00\x00\x00\x00\x00\x80e@'
p1568
tp1569
Rp1570
tp1571
a(S'bvert_4MeV_15tilt_55rot_det9.npy'
p1572
F0.0781
F0.0015
F23.9993
F0.1079
F0.0402
F0.0008
g11
(g15
S'\x00\x00\x00\x00\x00@a@'
p1573
tp1574
Rp1575
tp1576
a(S'bvert_4MeV_15tilt_5rot_det10.npy'
p1577
F0.062
F0.0012
F22.0167
F0.0942
F0.0303
F0.0006
g11
(g15
S'\x00\x00\x00\x00\x00\x80b@'
p1578
tp1579
Rp1580
tp1581
a(S'bvert_4MeV_15tilt_5rot_det11.npy'
p1582
F0.1927
F0.0024
F26.475
F0.0943
F0.1033
F0.0014
g11
(g15
S'\x00\x00\x00\x00\x00@d@'
p1583
tp1584
Rp1585
tp1586
a(S'bvert_4MeV_15tilt_5rot_det12.npy'
p1587
F0.4289
F0.0044
F26.5264
F0.0972
F0.2449
F0.0029
g11
(g15
S'\x00\x00\x00\x00\x00@e@'
p1588
tp1589
Rp1590
tp1591
a(S'bvert_4MeV_15tilt_5rot_det13.npy'
p1592
F0.7227
F0.0061
F31.5016
F0.1403
F0.4354
F0.0042
g11
(g15
S'\x00\x00\x00\x00\x00\x00c@'
p1593
tp1594
Rp1595
tp1596
a(S'bvert_4MeV_15tilt_5rot_det14.npy'
p1597
F1.0739
F0.0094
F40.9305
F0.2087
F0.6743
F0.0068
g11
(g15
S'\x00\x00\x00\x00\x00\xc0[@'
p1598
tp1599
Rp1600
tp1601
a(S'bvert_4MeV_15tilt_5rot_det15.npy'
p1602
F1.4185
F0.0158
F64.283
F0.5393
F0.9102
F0.0118
g11
(g15
S'\x00\x00\x00\x00\x00\x00R@'
p1603
tp1604
Rp1605
tp1606
a(S'bvert_4MeV_15tilt_5rot_det4.npy'
p1607
F1.5978
F0.0176
F63.2734
F0.5985
F1.0256
F0.0122
g11
(g15
S'\x00\x00\x00\x00\x00\x80P@'
p1608
tp1609
Rp1610
tp1611
a(S'bvert_4MeV_15tilt_5rot_det5.npy'
p1612
F1.2992
F0.0113
F38.8313
F0.2404
F0.8107
F0.0081
g11
(g15
S'\x00\x00\x00\x00\x00\x00`@'
p1613
tp1614
Rp1615
tp1616
a(S'bvert_4MeV_15tilt_5rot_det6.npy'
p1617
F0.9271
F0.0072
F29.4082
F0.1333
F0.5557
F0.0048
g11
(g15
S'\x00\x00\x00\x00\x00\x00g@'
p1618
tp1619
Rp1620
tp1621
a(S'bvert_4MeV_15tilt_5rot_det7.npy'
p1622
F0.5607
F0.006
F25.6092
F0.1115
F0.3244
F0.0042
g11
(g15
S'\x00\x00\x00\x00\x00`d@'
p1623
tp1624
Rp1625
tp1626
a(S'bvert_4MeV_15tilt_5rot_det8.npy'
p1627
F0.2601
F0.0033
F25.6576
F0.0879
F0.1419
F0.0019
g11
(g15
S'\x00\x00\x00\x00\x00\xa0c@'
p1628
tp1629
Rp1630
tp1631
a(S'bvert_4MeV_15tilt_5rot_det9.npy'
p1632
F0.0814
F0.0016
F23.6466
F0.0944
F0.0418
F0.0009
g11
(g15
S'\x00\x00\x00\x00\x00\x00c@'
p1633
tp1634
Rp1635
tp1636
a(S'bvert_4MeV_15tilt_75rot_det10.npy'
p1637
F0.0804
F0.0013
F22.0257
F0.0981
F0.041
F0.0008
g11
(g15
S'\x00\x00\x00\x00\x00@c@'
p1638
tp1639
Rp1640
tp1641
a(S'bvert_4MeV_15tilt_75rot_det11.npy'
p1642
F0.2575
F0.0032
F26.4372
F0.1054
F0.1399
F0.0019
g11
(g15
S'\x00\x00\x00\x00\x00\xc0b@'
p1643
tp1644
Rp1645
tp1646
a(S'bvert_4MeV_15tilt_75rot_det12.npy'
p1647
F0.5378
F0.0051
F26.4369
F0.0992
F0.308
F0.0032
g11
(g15
S'\x00\x00\x00\x00\x00 c@'
p1648
tp1649
Rp1650
tp1651
a(S'bvert_4MeV_15tilt_75rot_det13.npy'
p1652
F0.8679
F0.0084
F31.4862
F0.1408
F0.5222
F0.0055
g11
(g15
S'\x00\x00\x00\x00\x00@_@'
p1653
tp1654
Rp1655
tp1656
a(S'bvert_4MeV_15tilt_75rot_det14.npy'
p1657
F1.2443
F0.0123
F40.6248
F0.2322
F0.7803
F0.0088
g11
(g15
S'\x00\x00\x00\x00\x00\x00Z@'
p1658
tp1659
Rp1660
tp1661
a(S'bvert_4MeV_15tilt_75rot_det15.npy'
p1662
F1.4909
F0.0166
F64.3205
F0.5667
F0.9521
F0.0117
g11
(g15
S'\x00\x00\x00\x00\x00@R@'
p1663
tp1664
Rp1665
tp1666
a(S'bvert_4MeV_15tilt_75rot_det4.npy'
p1667
F1.3682
F0.0119
F62.5002
F0.509
F0.879
F0.0081
g11
(g15
S'\x00\x00\x00\x00\x00@S@'
p1668
tp1669
Rp1670
tp1671
a(S'bvert_4MeV_15tilt_75rot_det5.npy'
p1672
F1.0707
F0.0097
F38.9906
F0.2405
F0.6723
F0.0068
g11
(g15
S'\x00\x00\x00\x00\x00@W@'
p1673
tp1674
Rp1675
tp1676
a(S'bvert_4MeV_15tilt_75rot_det6.npy'
p1677
F0.7248
F0.0067
F28.9894
F0.1582
F0.4385
F0.0044
g11
(g15
S'\x00\x00\x00\x00\x00\xc0[@'
p1678
tp1679
Rp1680
tp1681
a(S'bvert_4MeV_15tilt_75rot_det7.npy'
p1682
F0.4413
F0.005
F25.6843
F0.1215
F0.2552
F0.0032
g11
(g15
S'\x00\x00\x00\x00\x00\x00b@'
p1683
tp1684
Rp1685
tp1686
a(S'bvert_4MeV_15tilt_75rot_det8.npy'
p1687
F0.2111
F0.0032
F25.7422
F0.0989
F0.1136
F0.0019
g11
(g15
S'\x00\x00\x00\x00\x00\x00a@'
p1688
tp1689
Rp1690
tp1691
a(S'bvert_4MeV_15tilt_75rot_det9.npy'
p1692
F0.0708
F0.0012
F23.8236
F0.09
F0.0359
F0.0007
g11
(g15
S'\x00\x00\x00\x00\x00@c@'
p1693
tp1694
Rp1695
tp1696
a(S'bvert_4MeV_15tilt_95rot_det10.npy'
p1697
F0.0757
F0.0016
F22.1758
F0.093
F0.039
F0.0009
g11
(g15
S'\x00\x00\x00\x00\x00\xe0b@'
p1698
tp1699
Rp1700
tp1701
a(S'bvert_4MeV_15tilt_95rot_det11.npy'
p1702
F0.2588
F0.0034
F26.5063
F0.0984
F0.1423
F0.0019
g11
(g15
S'\x00\x00\x00\x00\x00\x00a@'
p1703
tp1704
Rp1705
tp1706
a(S'bvert_4MeV_15tilt_95rot_det12.npy'
p1707
F0.5471
F0.0056
F26.7095
F0.1067
F0.3157
F0.0035
g11
(g15
S'\x00\x00\x00\x00\x00 e@'
p1708
tp1709
Rp1710
tp1711
a(S'bvert_4MeV_15tilt_95rot_det13.npy'
p1712
F0.9262
F0.0077
F31.4427
F0.1457
F0.5535
F0.0051
g11
(g15
S'\x00\x00\x00\x00\x00\xc0a@'
p1713
tp1714
Rp1715
tp1716
a(S'bvert_4MeV_15tilt_95rot_det14.npy'
p1717
F1.3068
F0.0116
F40.8696
F0.2204
F0.8045
F0.0081
g11
(g15
S'\x00\x00\x00\x00\x00@_@'
p1718
tp1719
Rp1720
tp1721
a(S'bvert_4MeV_15tilt_95rot_det15.npy'
p1722
F1.6241
F0.0174
F64.7535
F0.5383
F1.0212
F0.0118
g11
(g15
S'\x00\x00\x00\x00\x00@T@'
p1723
tp1724
Rp1725
tp1726
a(S'bvert_4MeV_15tilt_95rot_det4.npy'
p1727
F1.3932
F0.0165
F62.8859
F0.5186
F0.8918
F0.0122
g11
(g15
S'\x00\x00\x00\x00\x00\x80S@'
p1728
tp1729
Rp1730
tp1731
a(S'bvert_4MeV_15tilt_95rot_det5.npy'
p1732
F1.0657
F0.0121
F38.9672
F0.2507
F0.6669
F0.0085
g11
(g15
S'\x00\x00\x00\x00\x00\x00U@'
p1733
tp1734
Rp1735
tp1736
a(S'bvert_4MeV_15tilt_95rot_det6.npy'
p1737
F0.7167
F0.0066
F29.0312
F0.1356
F0.4306
F0.0044
g11
(g15
S'\x00\x00\x00\x00\x00@c@'
p1738
tp1739
Rp1740
tp1741
a(S'bvert_4MeV_15tilt_95rot_det7.npy'
p1742
F0.4296
F0.004
F25.5112
F0.1079
F0.2467
F0.0026
g11
(g15
S'\x00\x00\x00\x00\x00\xe0b@'
p1743
tp1744
Rp1745
tp1746
a(S'bvert_4MeV_15tilt_95rot_det8.npy'
p1747
F0.1971
F0.0029
F26.0306
F0.0966
F0.1057
F0.0017
g11
(g15
S'\x00\x00\x00\x00\x00\x80`@'
p1748
tp1749
Rp1750
tp1751
a(S'bvert_4MeV_15tilt_95rot_det9.npy'
p1752
F0.0643
F0.0011
F24.0431
F0.0918
F0.0318
F0.0006
g11
(g15
S'\x00\x00\x00\x00\x00@c@'
p1753
tp1754
Rp1755
tp1756
a(S'bvert_4MeV_30tilt_115rot_det10.npy'
p1757
F0.0721
F0.0012
F22.1581
F0.0909
F0.0358
F0.0007
g11
(g15
S'\x00\x00\x00\x00\x00\xa0b@'
p1758
tp1759
Rp1760
tp1761
a(S'bvert_4MeV_30tilt_115rot_det11.npy'
p1762
F0.2433
F0.0026
F26.8311
F0.0926
F0.1319
F0.0016
g11
(g15
S'\x00\x00\x00\x00\x00\xa0g@'
p1763
tp1764
Rp1765
tp1766
a(S'bvert_4MeV_30tilt_115rot_det12.npy'
p1767
F0.5321
F0.0053
F26.6362
F0.0977
F0.31
F0.0037
g11
(g15
S'\x00\x00\x00\x00\x00`f@'
p1768
tp1769
Rp1770
tp1771
a(S'bvert_4MeV_30tilt_115rot_det13.npy'
p1772
F0.9108
F0.008
F31.7463
F0.1293
F0.5512
F0.0054
g11
(g15
S'\x00\x00\x00\x00\x00@d@'
p1773
tp1774
Rp1775
tp1776
a(S'bvert_4MeV_30tilt_115rot_det14.npy'
p1777
F1.3144
F0.0109
F41.4717
F0.2099
F0.8151
F0.0074
g11
(g15
S'\x00\x00\x00\x00\x00\xe0`@'
p1778
tp1779
Rp1780
tp1781
a(S'bvert_4MeV_30tilt_115rot_det15.npy'
p1782
F1.712
F0.0167
F64.8826
F0.4704
F1.0745
F0.0118
g11
(g15
S'\x00\x00\x00\x00\x00\x80U@'
p1783
tp1784
Rp1785
tp1786
a(S'bvert_4MeV_30tilt_115rot_det4.npy'
p1787
F1.5296
F0.0141
F60.9298
F0.4701
F0.9786
F0.0097
g11
(g15
S'\x00\x00\x00\x00\x00\xc0U@'
p1788
tp1789
Rp1790
tp1791
a(S'bvert_4MeV_30tilt_115rot_det5.npy'
p1792
F1.1609
F0.0114
F38.9113
F0.2528
F0.7284
F0.008
g11
(g15
S'\x00\x00\x00\x00\x00\x00Y@'
p1793
tp1794
Rp1795
tp1796
a(S'bvert_4MeV_30tilt_115rot_det6.npy'
p1797
F0.7645
F0.0078
F29.129
F0.1283
F0.4605
F0.0052
g11
(g15
S'\x00\x00\x00\x00\x00@e@'
p1798
tp1799
Rp1800
tp1801
a(S'bvert_4MeV_30tilt_115rot_det7.npy'
p1802
F0.4409
F0.0045
F25.4045
F0.0957
F0.2529
F0.003
g11
(g15
S'\x00\x00\x00\x00\x00`f@'
p1803
tp1804
Rp1805
tp1806
a(S'bvert_4MeV_30tilt_115rot_det8.npy'
p1807
F0.2014
F0.0026
F25.8155
F0.0906
F0.1065
F0.0016
g11
(g15
S'\x00\x00\x00\x00\x00`e@'
p1808
tp1809
Rp1810
tp1811
a(S'bvert_4MeV_30tilt_115rot_det9.npy'
p1812
F0.0608
F0.0011
F23.8166
F0.0917
F0.0284
F0.0006
g11
(g15
S'\x00\x00\x00\x00\x00\x80f@'
p1813
tp1814
Rp1815
tp1816
a(S'bvert_4MeV_30tilt_135rot_det10.npy'
p1817
F0.0683
F0.0011
F22.3953
F0.0922
F0.0327
F0.0006
g11
(g15
S'\x00\x00\x00\x00\x00 d@'
p1818
tp1819
Rp1820
tp1821
a(S'bvert_4MeV_30tilt_135rot_det11.npy'
p1822
F0.2333
F0.0027
F26.8185
F0.0971
F0.1261
F0.0016
g11
(g15
S'\x00\x00\x00\x00\x00`d@'
p1823
tp1824
Rp1825
tp1826
a(S'bvert_4MeV_30tilt_135rot_det12.npy'
p1827
F0.4996
F0.0047
F26.7698
F0.0974
F0.2902
F0.0032
g11
(g15
S'\x00\x00\x00\x00\x00`f@'
p1828
tp1829
Rp1830
tp1831
a(S'bvert_4MeV_30tilt_135rot_det13.npy'
p1832
F0.8679
F0.0079
F31.828
F0.1294
F0.5274
F0.0052
g11
(g15
S'\x00\x00\x00\x00\x00`d@'
p1833
tp1834
Rp1835
tp1836
a(S'bvert_4MeV_30tilt_135rot_det14.npy'
p1837
F1.2582
F0.0135
F41.334
F0.231
F0.7833
F0.0093
g11
(g15
S'\x00\x00\x00\x00\x00\x00]@'
p1838
tp1839
Rp1840
tp1841
a(S'bvert_4MeV_30tilt_135rot_det15.npy'
p1842
F1.6525
F0.0159
F65.7226
F0.625
F1.0484
F0.012
g11
(g15
S'\x00\x00\x00\x00\x00\x80N@'
p1843
tp1844
Rp1845
tp1846
a(S'bvert_4MeV_30tilt_135rot_det4.npy'
p1847
F1.5956
F0.0197
F62.2105
F0.4646
F1.0086
F0.0134
g11
(g15
S'\x00\x00\x00\x00\x00@X@'
p1848
tp1849
Rp1850
tp1851
a(S'bvert_4MeV_30tilt_135rot_det5.npy'
p1852
F1.2429
F0.0105
F38.3541
F0.2149
F0.7742
F0.0072
g11
(g15
S'\x00\x00\x00\x00\x00 `@'
p1853
tp1854
Rp1855
tp1856
a(S'bvert_4MeV_30tilt_135rot_det6.npy'
p1857
F0.8177
F0.0091
F29.0565
F0.1525
F0.4929
F0.0061
g11
(g15
S'\x00\x00\x00\x00\x00\xe0b@'
p1858
tp1859
Rp1860
tp1861
a(S'bvert_4MeV_30tilt_135rot_det7.npy'
p1862
F0.4612
F0.0043
F25.3365
F0.093
F0.2637
F0.0027
g11
(g15
S'\x00\x00\x00\x00\x00 h@'
p1863
tp1864
Rp1865
tp1866
a(S'bvert_4MeV_30tilt_135rot_det8.npy'
p1867
F0.2097
F0.0025
F25.6308
F0.0914
F0.1131
F0.0016
g11
(g15
S'\x00\x00\x00\x00\x00`c@'
p1868
tp1869
Rp1870
tp1871
a(S'bvert_4MeV_30tilt_135rot_det9.npy'
p1872
F0.0609
F0.0013
F23.7155
F0.0898
F0.0288
F0.0007
g11
(g15
S'\x00\x00\x00\x00\x00 d@'
p1873
tp1874
Rp1875
tp1876
a(S'bvert_4MeV_30tilt_15rot_det10.npy'
p1877
F0.065
F0.0013
F22.1623
F0.1086
F0.0308
F0.0007
g11
(g15
S'\x00\x00\x00\x00\x00\x00`@'
p1878
tp1879
Rp1880
tp1881
a(S'bvert_4MeV_30tilt_15rot_det11.npy'
p1882
F0.2125
F0.0026
F26.7214
F0.0853
F0.1135
F0.0016
g11
(g15
S'\x00\x00\x00\x00\x00\x00f@'
p1883
tp1884
Rp1885
tp1886
a(S'bvert_4MeV_30tilt_15rot_det12.npy'
p1887
F0.4436
F0.0042
F26.4941
F0.107
F0.2516
F0.0027
g11
(g15
S'\x00\x00\x00\x00\x00\xc0b@'
p1888
tp1889
Rp1890
tp1891
a(S'bvert_4MeV_30tilt_15rot_det13.npy'
p1892
F0.7557
F0.007
F31.5083
F0.1243
F0.454
F0.0047
g11
(g15
S'\x00\x00\x00\x00\x00\xe0b@'
p1893
tp1894
Rp1895
tp1896
a(S'bvert_4MeV_30tilt_15rot_det14.npy'
p1897
F1.1014
F0.0119
F40.4943
F0.2247
F0.6859
F0.0085
g11
(g15
S'\x00\x00\x00\x00\x00\x80X@'
p1898
tp1899
Rp1900
tp1901
a(S'bvert_4MeV_30tilt_15rot_det15.npy'
p1902
F1.4191
F0.0151
F64.93
F0.5289
F0.9123
F0.0106
g11
(g15
S'\x00\x00\x00\x00\x00@S@'
p1903
tp1904
Rp1905
tp1906
a(S'bvert_4MeV_30tilt_15rot_det4.npy'
p1907
F1.5517
F0.0173
F63.9575
F0.6032
F0.9958
F0.0126
g11
(g15
S'\x00\x00\x00\x00\x00\x80M@'
p1908
tp1909
Rp1910
tp1911
a(S'bvert_4MeV_30tilt_15rot_det5.npy'
p1912
F1.2696
F0.0099
F39.2722
F0.2235
F0.7974
F0.007
g11
(g15
S'\x00\x00\x00\x00\x00@^@'
p1913
tp1914
Rp1915
tp1916
a(S'bvert_4MeV_30tilt_15rot_det6.npy'
p1917
F0.9188
F0.0073
F29.4201
F0.1525
F0.5547
F0.0048
g11
(g15
S'\x00\x00\x00\x00\x00@a@'
p1918
tp1919
Rp1920
tp1921
a(S'bvert_4MeV_30tilt_15rot_det7.npy'
p1922
F0.5588
F0.0054
F25.5912
F0.1242
F0.321
F0.0035
g11
(g15
S'\x00\x00\x00\x00\x00\x80^@'
p1923
tp1924
Rp1925
tp1926
a(S'bvert_4MeV_30tilt_15rot_det8.npy'
p1927
F0.262
F0.0037
F25.7057
F0.114
F0.1426
F0.0023
g11
(g15
S'\x00\x00\x00\x00\x00\x00\\@'
p1928
tp1929
Rp1930
tp1931
a(S'bvert_4MeV_30tilt_15rot_det9.npy'
p1932
F0.0814
F0.0018
F23.7681
F0.1083
F0.0412
F0.001
g11
(g15
S'\x00\x00\x00\x00\x00@_@'
p1933
tp1934
Rp1935
tp1936
a(S'bvert_4MeV_30tilt_25rot_det10.npy'
p1937
F0.0679
F0.0012
F22.1414
F0.1029
F0.0331
F0.0007
g11
(g15
S'\x00\x00\x00\x00\x00\x80`@'
p1938
tp1939
Rp1940
tp1941
a(S'bvert_4MeV_30tilt_25rot_det11.npy'
p1942
F0.2185
F0.0031
F26.5674
F0.0951
F0.1175
F0.0018
g11
(g15
S'\x00\x00\x00\x00\x00\xc0`@'
p1943
tp1944
Rp1945
tp1946
a(S'bvert_4MeV_30tilt_25rot_det12.npy'
p1947
F0.4578
F0.0048
F26.4922
F0.0959
F0.2613
F0.0031
g11
(g15
S'\x00\x00\x00\x00\x00\xc0b@'
p1948
tp1949
Rp1950
tp1951
a(S'bvert_4MeV_30tilt_25rot_det13.npy'
p1952
F0.7549
F0.0069
F31.4888
F0.1356
F0.4549
F0.0046
g11
(g15
S'\x00\x00\x00\x00\x00\xe0c@'
p1953
tp1954
Rp1955
tp1956
a(S'bvert_4MeV_30tilt_25rot_det14.npy'
p1957
F1.0983
F0.0107
F40.7958
F0.214
F0.6843
F0.0074
g11
(g15
S'\x00\x00\x00\x00\x00\xc0[@'
p1958
tp1959
Rp1960
tp1961
a(S'bvert_4MeV_30tilt_25rot_det15.npy'
p1962
F1.3848
F0.0161
F64.6957
F0.531
F0.8829
F0.0108
g11
(g15
S'\x00\x00\x00\x00\x00@T@'
p1963
tp1964
Rp1965
tp1966
a(S'bvert_4MeV_30tilt_25rot_det4.npy'
p1967
F1.5511
F0.0135
F63.0619
F0.5497
F1.0003
F0.0096
g11
(g15
S'\x00\x00\x00\x00\x00\x00Q@'
p1968
tp1969
Rp1970
tp1971
a(S'bvert_4MeV_30tilt_25rot_det5.npy'
p1972
F1.2147
F0.0148
F39.4553
F0.2434
F0.7693
F0.0104
g11
(g15
S'\x00\x00\x00\x00\x00@[@'
p1973
tp1974
Rp1975
tp1976
a(S'bvert_4MeV_30tilt_25rot_det6.npy'
p1977
F0.8806
F0.0075
F29.0162
F0.1381
F0.5352
F0.0051
g11
(g15
S'\x00\x00\x00\x00\x00@_@'
p1978
tp1979
Rp1980
tp1981
a(S'bvert_4MeV_30tilt_25rot_det7.npy'
p1982
F0.5392
F0.0054
F25.5586
F0.1033
F0.3116
F0.0035
g11
(g15
S'\x00\x00\x00\x00\x00\x80c@'
p1983
tp1984
Rp1985
tp1986
a(S'bvert_4MeV_30tilt_25rot_det8.npy'
p1987
F0.2562
F0.0031
F25.6744
F0.0941
F0.1382
F0.0018
g11
(g15
S'\x00\x00\x00\x00\x00\xa0c@'
p1988
tp1989
Rp1990
tp1991
a(S'bvert_4MeV_30tilt_25rot_det9.npy'
p1992
F0.082
F0.0016
F23.8405
F0.0916
F0.0412
F0.0009
g11
(g15
S'\x00\x00\x00\x00\x00`a@'
p1993
tp1994
Rp1995
tp1996
a(S'bvert_4MeV_30tilt_315rot_det10.npy'
p1997
F0.0654
F0.0013
F22.0884
F0.0952
F0.0308
F0.0007
g11
(g15
S'\x00\x00\x00\x00\x00\xe0a@'
p1998
tp1999
Rp2000
tp2001
a(S'bvert_4MeV_30tilt_315rot_det11.npy'
p2002
F0.2173
F0.0032
F26.4988
F0.0939
F0.116
F0.0019
g11
(g15
S'\x00\x00\x00\x00\x00`d@'
p2003
tp2004
Rp2005
tp2006
a(S'bvert_4MeV_30tilt_315rot_det12.npy'
p2007
F0.4883
F0.005
F26.2734
F0.0977
F0.2836
F0.0032
g11
(g15
S'\x00\x00\x00\x00\x00 d@'
p2008
tp2009
Rp2010
tp2011
a(S'bvert_4MeV_30tilt_315rot_det13.npy'
p2012
F0.8794
F0.0068
F31.4452
F0.1267
F0.5365
F0.0046
g11
(g15
S'\x00\x00\x00\x00\x00 b@'
p2013
tp2014
Rp2015
tp2016
a(S'bvert_4MeV_30tilt_315rot_det14.npy'
p2017
F1.2733
F0.0121
F40.8824
F0.2175
F0.799
F0.0086
g11
(g15
S'\x00\x00\x00\x00\x00@^@'
p2018
tp2019
Rp2020
tp2021
a(S'bvert_4MeV_30tilt_315rot_det15.npy'
p2022
F1.6755
F0.0168
F65.3823
F0.4851
F1.0634
F0.0117
g11
(g15
S'\x00\x00\x00\x00\x00@T@'
p2023
tp2024
Rp2025
tp2026
a(S'bvert_4MeV_30tilt_315rot_det4.npy'
p2027
F1.6523
F0.0188
F63.5983
F0.5329
F1.0468
F0.0128
g11
(g15
S'\x00\x00\x00\x00\x00@R@'
p2028
tp2029
Rp2030
tp2031
a(S'bvert_4MeV_30tilt_315rot_det5.npy'
p2032
F1.249
F0.0125
F39.2154
F0.2082
F0.7802
F0.0085
g11
(g15
S'\x00\x00\x00\x00\x00\x80X@'
p2033
tp2034
Rp2035
tp2036
a(S'bvert_4MeV_30tilt_315rot_det6.npy'
p2037
F0.8489
F0.0079
F29.2018
F0.154
F0.5145
F0.0053
g11
(g15
S'\x00\x00\x00\x00\x00\x00]@'
p2038
tp2039
Rp2040
tp2041
a(S'bvert_4MeV_30tilt_315rot_det7.npy'
p2042
F0.4845
F0.005
F25.7083
F0.1078
F0.2789
F0.0032
g11
(g15
S'\x00\x00\x00\x00\x00\xc0c@'
p2043
tp2044
Rp2045
tp2046
a(S'bvert_4MeV_30tilt_315rot_det8.npy'
p2047
F0.228
F0.0035
F25.8164
F0.0988
F0.1232
F0.0021
g11
(g15
S'\x00\x00\x00\x00\x00\x80`@'
p2048
tp2049
Rp2050
tp2051
a(S'bvert_4MeV_30tilt_315rot_det9.npy'
p2052
F0.067
F0.0012
F23.6881
F0.0996
F0.0314
F0.0006
g11
(g15
S'\x00\x00\x00\x00\x00\x00b@'
p2053
tp2054
Rp2055
tp2056
a(S'bvert_4MeV_30tilt_335rot_det10.npy'
p2057
F0.0629
F0.0014
F22.2882
F0.1025
F0.029
F0.0008
g11
(g15
S'\x00\x00\x00\x00\x00\xc0[@'
p2058
tp2059
Rp2060
tp2061
a(S'bvert_4MeV_30tilt_335rot_det11.npy'
p2062
F0.2032
F0.003
F26.3876
F0.0985
F0.1086
F0.0018
g11
(g15
S'\x00\x00\x00\x00\x00@`@'
p2063
tp2064
Rp2065
tp2066
a(S'bvert_4MeV_30tilt_335rot_det12.npy'
p2067
F0.4556
F0.0047
F26.676
F0.1089
F0.2629
F0.0031
g11
(g15
S'\x00\x00\x00\x00\x00\x80a@'
p2068
tp2069
Rp2070
tp2071
a(S'bvert_4MeV_30tilt_335rot_det13.npy'
p2072
F0.7995
F0.0078
F31.3691
F0.1609
F0.4893
F0.0057
g11
(g15
S'\x00\x00\x00\x00\x00\xc0_@'
p2073
tp2074
Rp2075
tp2076
a(S'bvert_4MeV_30tilt_335rot_det14.npy'
p2077
F1.1886
F0.0121
F40.8005
F0.2024
F0.7453
F0.0084
g11
(g15
S'\x00\x00\x00\x00\x00\xc0[@'
p2078
tp2079
Rp2080
tp2081
a(S'bvert_4MeV_30tilt_335rot_det15.npy'
p2082
F1.5748
F0.0181
F64.4058
F0.5335
F1.0124
F0.0133
g11
(g15
S'\x00\x00\x00\x00\x00\xc0P@'
p2083
tp2084
Rp2085
tp2086
a(S'bvert_4MeV_30tilt_335rot_det4.npy'
p2087
F1.7033
F0.0223
F64.0881
F0.6049
F1.072
F0.0153
g11
(g15
S'\x00\x00\x00\x00\x00\x80J@'
p2088
tp2089
Rp2090
tp2091
a(S'bvert_4MeV_30tilt_335rot_det5.npy'
p2092
F1.3225
F0.013
F38.8475
F0.2631
F0.8133
F0.009
g11
(g15
S'\x00\x00\x00\x00\x00\x00T@'
p2093
tp2094
Rp2095
tp2096
a(S'bvert_4MeV_30tilt_335rot_det6.npy'
p2097
F0.9025
F0.0094
F29.1899
F0.1437
F0.5416
F0.0061
g11
(g15
S'\x00\x00\x00\x00\x00\xc0_@'
p2098
tp2099
Rp2100
tp2101
a(S'bvert_4MeV_30tilt_335rot_det7.npy'
p2102
F0.5268
F0.0058
F25.7075
F0.1224
F0.3035
F0.0038
g11
(g15
S'\x00\x00\x00\x00\x00\x00`@'
p2103
tp2104
Rp2105
tp2106
a(S'bvert_4MeV_30tilt_335rot_det8.npy'
p2107
F0.2309
F0.0031
F25.7928
F0.0976
F0.1244
F0.0019
g11
(g15
S'\x00\x00\x00\x00\x00 a@'
p2108
tp2109
Rp2110
tp2111
a(S'bvert_4MeV_30tilt_335rot_det9.npy'
p2112
F0.0695
F0.0014
F23.6916
F0.102
F0.0338
F0.0007
g11
(g15
S'\x00\x00\x00\x00\x00@\\@'
p2113
tp2114
Rp2115
tp2116
a(S'bvert_4MeV_30tilt_345rot_det10.npy'
p2117
F0.0597
F0.0011
F22.1571
F0.0945
F0.0284
F0.0006
g11
(g15
S'\x00\x00\x00\x00\x00\x00c@'
p2118
tp2119
Rp2120
tp2121
a(S'bvert_4MeV_30tilt_345rot_det11.npy'
p2122
F0.2
F0.0026
F26.5755
F0.1126
F0.1054
F0.0015
g11
(g15
S'\x00\x00\x00\x00\x00\x80b@'
p2123
tp2124
Rp2125
tp2126
a(S'bvert_4MeV_30tilt_345rot_det12.npy'
p2127
F0.4484
F0.0047
F26.4878
F0.1097
F0.2573
F0.003
g11
(g15
S'\x00\x00\x00\x00\x00\x00a@'
p2128
tp2129
Rp2130
tp2131
a(S'bvert_4MeV_30tilt_345rot_det13.npy'
p2132
F0.7931
F0.007
F31.1999
F0.154
F0.4818
F0.0047
g11
(g15
S'\x00\x00\x00\x00\x00\xc0^@'
p2133
tp2134
Rp2135
tp2136
a(S'bvert_4MeV_30tilt_345rot_det14.npy'
p2137
F1.1897
F0.0092
F40.6275
F0.2385
F0.7499
F0.0068
g11
(g15
S'\x00\x00\x00\x00\x00\xc0\\@'
p2138
tp2139
Rp2140
tp2141
a(S'bvert_4MeV_30tilt_345rot_det15.npy'
p2142
F1.5338
F0.0189
F64.7133
F0.4499
F0.9844
F0.013
g11
(g15
S'\x00\x00\x00\x00\x00\xc0P@'
p2143
tp2144
Rp2145
tp2146
a(S'bvert_4MeV_30tilt_345rot_det4.npy'
p2147
F1.7198
F0.0141
F63.3061
F0.5301
F1.0839
F0.0096
g11
(g15
S'\x00\x00\x00\x00\x00\xc0S@'
p2148
tp2149
Rp2150
tp2151
a(S'bvert_4MeV_30tilt_345rot_det5.npy'
p2152
F1.3508
F0.0139
F38.8287
F0.2495
F0.835
F0.0096
g11
(g15
S'\x00\x00\x00\x00\x00\xc0X@'
p2153
tp2154
Rp2155
tp2156
a(S'bvert_4MeV_30tilt_345rot_det6.npy'
p2157
F0.9377
F0.0096
F29.2914
F0.1551
F0.5602
F0.0062
g11
(g15
S'\x00\x00\x00\x00\x00``@'
p2158
tp2159
Rp2160
tp2161
a(S'bvert_4MeV_30tilt_345rot_det7.npy'
p2162
F0.5374
F0.0057
F25.6032
F0.0991
F0.3095
F0.0035
g11
(g15
S'\x00\x00\x00\x00\x00 e@'
p2163
tp2164
Rp2165
tp2166
a(S'bvert_4MeV_30tilt_345rot_det8.npy'
p2167
F0.247
F0.0028
F25.6167
F0.0909
F0.1336
F0.0016
g11
(g15
S'\x00\x00\x00\x00\x00@b@'
p2168
tp2169
Rp2170
tp2171
a(S'bvert_4MeV_30tilt_345rot_det9.npy'
p2172
F0.0744
F0.0015
F23.9554
F0.0972
F0.037
F0.0008
g11
(g15
S'\x00\x00\x00\x00\x00@c@'
p2173
tp2174
Rp2175
tp2176
a(S'bvert_4MeV_30tilt_355rot_det10.npy'
p2177
F0.0598
F0.0011
F22.0187
F0.0879
F0.0279
F0.0006
g11
(g15
S'\x00\x00\x00\x00\x00\xa0`@'
p2178
tp2179
Rp2180
tp2181
a(S'bvert_4MeV_30tilt_355rot_det11.npy'
p2182
F0.1964
F0.0025
F26.7823
F0.1034
F0.1041
F0.0016
g11
(g15
S'\x00\x00\x00\x00\x00@d@'
p2183
tp2184
Rp2185
tp2186
a(S'bvert_4MeV_30tilt_355rot_det12.npy'
p2187
F0.445
F0.0044
F26.3643
F0.0994
F0.2549
F0.0028
g11
(g15
S'\x00\x00\x00\x00\x00\xc0b@'
p2188
tp2189
Rp2190
tp2191
a(S'bvert_4MeV_30tilt_355rot_det13.npy'
p2192
F0.7734
F0.0073
F31.3077
F0.1589
F0.4676
F0.0049
g11
(g15
S'\x00\x00\x00\x00\x00\xc0^@'
p2193
tp2194
Rp2195
tp2196
a(S'bvert_4MeV_30tilt_355rot_det14.npy'
p2197
F1.1324
F0.01
F41.0408
F0.23
F0.7108
F0.007
g11
(g15
S'\x00\x00\x00\x00\x00@[@'
p2198
tp2199
Rp2200
tp2201
a(S'bvert_4MeV_30tilt_355rot_det15.npy'
p2202
F1.4828
F0.0148
F64.5562
F0.5832
F0.9486
F0.0102
g11
(g15
S'\x00\x00\x00\x00\x00\x00S@'
p2203
tp2204
Rp2205
tp2206
a(S'bvert_4MeV_30tilt_355rot_det4.npy'
p2207
F1.6522
F0.0176
F63.0279
F0.5057
F1.0508
F0.0147
g11
(g15
S'\x00\x00\x00\x00\x00\x80S@'
p2208
tp2209
Rp2210
tp2211
a(S'bvert_4MeV_30tilt_355rot_det5.npy'
p2212
F1.3116
F0.0137
F39.1017
F0.2091
F0.8118
F0.0093
g11
(g15
S'\x00\x00\x00\x00\x00\xc0[@'
p2213
tp2214
Rp2215
tp2216
a(S'bvert_4MeV_30tilt_355rot_det6.npy'
p2217
F0.9168
F0.01
F29.2345
F0.164
F0.5445
F0.0066
g11
(g15
S'\x00\x00\x00\x00\x00@a@'
p2218
tp2219
Rp2220
tp2221
a(S'bvert_4MeV_30tilt_355rot_det7.npy'
p2222
F0.5444
F0.0055
F25.743
F0.1193
F0.3103
F0.0034
g11
(g15
S'\x00\x00\x00\x00\x00@b@'
p2223
tp2224
Rp2225
tp2226
a(S'bvert_4MeV_30tilt_355rot_det8.npy'
p2227
F0.249
F0.0043
F25.7722
F0.0894
F0.1361
F0.0026
g11
(g15
S'\x00\x00\x00\x00\x00@a@'
p2228
tp2229
Rp2230
tp2231
a(S'bvert_4MeV_30tilt_355rot_det9.npy'
p2232
F0.0757
F0.0015
F23.5889
F0.0939
F0.0372
F0.0008
g11
(g15
S'\x00\x00\x00\x00\x00\x00a@'
p2233
tp2234
Rp2235
tp2236
a(S'bvert_4MeV_30tilt_35rot_det10.npy'
p2237
F0.0728
F0.0014
F22.0951
F0.1143
F0.0363
F0.0008
g11
(g15
S'\x00\x00\x00\x00\x00\xc0]@'
p2238
tp2239
Rp2240
tp2241
a(S'bvert_4MeV_30tilt_35rot_det11.npy'
p2242
F0.2227
F0.0033
F26.5293
F0.1009
F0.1195
F0.002
g11
(g15
S'\x00\x00\x00\x00\x00\xc0]@'
p2243
tp2244
Rp2245
tp2246
a(S'bvert_4MeV_30tilt_35rot_det12.npy'
p2247
F0.4624
F0.0049
F26.5273
F0.1048
F0.2646
F0.003
g11
(g15
S'\x00\x00\x00\x00\x00\x80c@'
p2248
tp2249
Rp2250
tp2251
a(S'bvert_4MeV_30tilt_35rot_det13.npy'
p2252
F0.7613
F0.0083
F31.4347
F0.1416
F0.4594
F0.0056
g11
(g15
S'\x00\x00\x00\x00\x00 a@'
p2253
tp2254
Rp2255
tp2256
a(S'bvert_4MeV_30tilt_35rot_det14.npy'
p2257
F1.0907
F0.0105
F40.5316
F0.2487
F0.6824
F0.0072
g11
(g15
S'\x00\x00\x00\x00\x00@[@'
p2258
tp2259
Rp2260
tp2261
a(S'bvert_4MeV_30tilt_35rot_det15.npy'
p2262
F1.3576
F0.018
F65.21
F0.6032
F0.8699
F0.0133
g11
(g15
S'\x00\x00\x00\x00\x00\x80Q@'
p2263
tp2264
Rp2265
tp2266
a(S'bvert_4MeV_30tilt_35rot_det4.npy'
p2267
F1.4606
F0.0171
F63.2653
F0.5774
F0.9339
F0.0121
g11
(g15
S'\x00\x00\x00\x00\x00\x00R@'
p2268
tp2269
Rp2270
tp2271
a(S'bvert_4MeV_30tilt_35rot_det5.npy'
p2272
F1.2465
F0.0083
F38.5528
F0.2848
F0.7885
F0.006
g11
(g15
S'\x00\x00\x00\x00\x00\xc0S@'
p2273
tp2274
Rp2275
tp2276
a(S'bvert_4MeV_30tilt_35rot_det6.npy'
p2277
F0.8602
F0.0075
F29.2272
F0.157
F0.523
F0.0053
g11
(g15
S'\x00\x00\x00\x00\x00\x80^@'
p2278
tp2279
Rp2280
tp2281
a(S'bvert_4MeV_30tilt_35rot_det7.npy'
p2282
F0.5232
F0.0055
F25.5409
F0.1325
F0.3026
F0.0037
g11
(g15
S'\x00\x00\x00\x00\x00\x80\\@'
p2283
tp2284
Rp2285
tp2286
a(S'bvert_4MeV_30tilt_35rot_det8.npy'
p2287
F0.2448
F0.0037
F25.8523
F0.0978
F0.1334
F0.0022
g11
(g15
S'\x00\x00\x00\x00\x00`b@'
p2288
tp2289
Rp2290
tp2291
a(S'bvert_4MeV_30tilt_35rot_det9.npy'
p2292
F0.0792
F0.0013
F23.7311
F0.1021
F0.0392
F0.0008
g11
(g15
S'\x00\x00\x00\x00\x00\x80a@'
p2293
tp2294
Rp2295
tp2296
a(S'bvert_4MeV_30tilt_45rot_det10.npy'
p2297
F0.0739
F0.0014
F22.1866
F0.0962
F0.0371
F0.0008
g11
(g15
S'\x00\x00\x00\x00\x00`a@'
p2298
tp2299
Rp2300
tp2301
a(S'bvert_4MeV_30tilt_45rot_det11.npy'
p2302
F0.2315
F0.0028
F26.6377
F0.1072
F0.1242
F0.0017
g11
(g15
S'\x00\x00\x00\x00\x00@b@'
p2303
tp2304
Rp2305
tp2306
a(S'bvert_4MeV_30tilt_45rot_det12.npy'
p2307
F0.4863
F0.0056
F26.7764
F0.1096
F0.2795
F0.0037
g11
(g15
S'\x00\x00\x00\x00\x00``@'
p2308
tp2309
Rp2310
tp2311
a(S'bvert_4MeV_30tilt_45rot_det13.npy'
p2312
F0.8078
F0.0071
F31.5664
F0.1384
F0.4881
F0.0048
g11
(g15
S'\x00\x00\x00\x00\x00\x00a@'
p2313
tp2314
Rp2315
tp2316
a(S'bvert_4MeV_30tilt_45rot_det14.npy'
p2317
F1.0986
F0.0141
F40.906
F0.2366
F0.6885
F0.0097
g11
(g15
S'\x00\x00\x00\x00\x00@Z@'
p2318
tp2319
Rp2320
tp2321
a(S'bvert_4MeV_30tilt_45rot_det15.npy'
p2322
F1.4457
F0.0145
F63.5658
F0.544
F0.9267
F0.0108
g11
(g15
S'\x00\x00\x00\x00\x00\x80L@'
p2323
tp2324
Rp2325
tp2326
a(S'bvert_4MeV_30tilt_45rot_det4.npy'
p2327
F1.445
F0.0155
F62.2775
F0.5734
F0.9299
F0.0111
g11
(g15
S'\x00\x00\x00\x00\x00\x80O@'
p2328
tp2329
Rp2330
tp2331
a(S'bvert_4MeV_30tilt_45rot_det5.npy'
p2332
F1.1558
F0.0108
F38.9018
F0.2573
F0.7277
F0.0076
g11
(g15
S'\x00\x00\x00\x00\x00\xc0X@'
p2333
tp2334
Rp2335
tp2336
a(S'bvert_4MeV_30tilt_45rot_det6.npy'
p2337
F0.823
F0.007
F29.2454
F0.1548
F0.501
F0.0047
g11
(g15
S'\x00\x00\x00\x00\x00\x80`@'
p2338
tp2339
Rp2340
tp2341
a(S'bvert_4MeV_30tilt_45rot_det7.npy'
p2342
F0.5053
F0.0048
F25.6427
F0.1005
F0.293
F0.0031
g11
(g15
S'\x00\x00\x00\x00\x00\xc0c@'
p2343
tp2344
Rp2345
tp2346
a(S'bvert_4MeV_30tilt_45rot_det8.npy'
p2347
F0.2503
F0.0035
F25.7998
F0.1101
F0.1361
F0.0021
g11
(g15
S'\x00\x00\x00\x00\x00@[@'
p2348
tp2349
Rp2350
tp2351
a(S'bvert_4MeV_30tilt_45rot_det9.npy'
p2352
F0.0764
F0.0016
F23.8234
F0.1031
F0.0382
F0.0009
g11
(g15
S'\x00\x00\x00\x00\x00\xa0`@'
p2353
tp2354
Rp2355
tp2356
a(S'bvert_4MeV_30tilt_55rot_det10.npy'
p2357
F0.0767
F0.0015
F21.9605
F0.0894
F0.0385
F0.0008
g11
(g15
S'\x00\x00\x00\x00\x00\xe0a@'
p2358
tp2359
Rp2360
tp2361
a(S'bvert_4MeV_30tilt_55rot_det11.npy'
p2362
F0.244
F0.0033
F26.725
F0.105
F0.1326
F0.0021
g11
(g15
S'\x00\x00\x00\x00\x00``@'
p2363
tp2364
Rp2365
tp2366
a(S'bvert_4MeV_30tilt_55rot_det12.npy'
p2367
F0.5076
F0.0047
F26.5042
F0.1101
F0.2923
F0.0031
g11
(g15
S'\x00\x00\x00\x00\x00\xa0a@'
p2368
tp2369
Rp2370
tp2371
a(S'bvert_4MeV_30tilt_55rot_det13.npy'
p2372
F0.8092
F0.0079
F31.5025
F0.1567
F0.4884
F0.0052
g11
(g15
S'\x00\x00\x00\x00\x00\xa0`@'
p2373
tp2374
Rp2375
tp2376
a(S'bvert_4MeV_30tilt_55rot_det14.npy'
p2377
F1.1436
F0.0143
F41.232
F0.2518
F0.7112
F0.0093
g11
(g15
S'\x00\x00\x00\x00\x00\x00W@'
p2378
tp2379
Rp2380
tp2381
a(S'bvert_4MeV_30tilt_55rot_det15.npy'
p2382
F1.4495
F0.0201
F64.3545
F0.6311
F0.9285
F0.0142
g11
(g15
S'\x00\x00\x00\x00\x00\x80K@'
p2383
tp2384
Rp2385
tp2386
a(S'bvert_4MeV_30tilt_55rot_det4.npy'
p2387
F1.4343
F0.0179
F62.7298
F0.5282
F0.9206
F0.0122
g11
(g15
S'\x00\x00\x00\x00\x00\x80J@'
p2388
tp2389
Rp2390
tp2391
a(S'bvert_4MeV_30tilt_55rot_det5.npy'
p2392
F1.133
F0.011
F38.8261
F0.2297
F0.7121
F0.0079
g11
(g15
S'\x00\x00\x00\x00\x00\xc0X@'
p2393
tp2394
Rp2395
tp2396
a(S'bvert_4MeV_30tilt_55rot_det6.npy'
p2397
F0.7912
F0.0076
F29.2428
F0.1555
F0.4801
F0.005
g11
(g15
S'\x00\x00\x00\x00\x00\xc0`@'
p2398
tp2399
Rp2400
tp2401
a(S'bvert_4MeV_30tilt_55rot_det7.npy'
p2402
F0.4854
F0.0051
F25.4672
F0.1188
F0.2823
F0.0033
g11
(g15
S'\x00\x00\x00\x00\x00\x00`@'
p2403
tp2404
Rp2405
tp2406
a(S'bvert_4MeV_30tilt_55rot_det8.npy'
p2407
F0.2349
F0.0027
F25.81
F0.0946
F0.1282
F0.0017
g11
(g15
S'\x00\x00\x00\x00\x00\x00`@'
p2408
tp2409
Rp2410
tp2411
a(S'bvert_4MeV_30tilt_55rot_det9.npy'
p2412
F0.0736
F0.0014
F23.8016
F0.1065
F0.0369
F0.0008
g11
(g15
S'\x00\x00\x00\x00\x00\xc0_@'
p2413
tp2414
Rp2415
tp2416
a(S'bvert_4MeV_30tilt_5rot_det10.npy'
p2417
F0.0629
F0.0012
F22.0734
F0.1051
F0.0296
F0.0007
g11
(g15
S'\x00\x00\x00\x00\x00\x80`@'
p2418
tp2419
Rp2420
tp2421
a(S'bvert_4MeV_30tilt_5rot_det11.npy'
p2422
F0.2041
F0.0026
F26.6178
F0.108
F0.1089
F0.0016
g11
(g15
S'\x00\x00\x00\x00\x00``@'
p2423
tp2424
Rp2425
tp2426
a(S'bvert_4MeV_30tilt_5rot_det12.npy'
p2427
F0.4396
F0.0047
F26.7208
F0.0951
F0.2498
F0.003
g11
(g15
S'\x00\x00\x00\x00\x00@d@'
p2428
tp2429
Rp2430
tp2431
a(S'bvert_4MeV_30tilt_5rot_det13.npy'
p2432
F0.7608
F0.0072
F31.5156
F0.1242
F0.4587
F0.0049
g11
(g15
S'\x00\x00\x00\x00\x00\x00b@'
p2433
tp2434
Rp2435
tp2436
a(S'bvert_4MeV_30tilt_5rot_det14.npy'
p2437
F1.1215
F0.0108
F40.6527
F0.2241
F0.7035
F0.0073
g11
(g15
S'\x00\x00\x00\x00\x00\x00_@'
p2438
tp2439
Rp2440
tp2441
a(S'bvert_4MeV_30tilt_5rot_det15.npy'
p2442
F1.4208
F0.0183
F64.4132
F0.6644
F0.9143
F0.013
g11
(g15
S'\x00\x00\x00\x00\x00\x00Q@'
p2443
tp2444
Rp2445
tp2446
a(S'bvert_4MeV_30tilt_5rot_det4.npy'
p2447
F1.6076
F0.0197
F62.9571
F0.5299
F1.0227
F0.0139
g11
(g15
S'\x00\x00\x00\x00\x00\x00Q@'
p2448
tp2449
Rp2450
tp2451
a(S'bvert_4MeV_30tilt_5rot_det5.npy'
p2452
F1.3127
F0.014
F39.154
F0.246
F0.8135
F0.0095
g11
(g15
S'\x00\x00\x00\x00\x00\xc0T@'
p2453
tp2454
Rp2455
tp2456
a(S'bvert_4MeV_30tilt_5rot_det6.npy'
p2457
F0.9479
F0.0088
F28.9962
F0.1384
F0.5719
F0.0058
g11
(g15
S'\x00\x00\x00\x00\x00\x00`@'
p2458
tp2459
Rp2460
tp2461
a(S'bvert_4MeV_30tilt_5rot_det7.npy'
p2462
F0.5444
F0.0058
F25.8349
F0.1035
F0.3101
F0.0037
g11
(g15
S'\x00\x00\x00\x00\x00\xe0a@'
p2463
tp2464
Rp2465
tp2466
a(S'bvert_4MeV_30tilt_5rot_det8.npy'
p2467
F0.251
F0.0039
F25.8399
F0.088
F0.1359
F0.0022
g11
(g15
S'\x00\x00\x00\x00\x00@^@'
p2468
tp2469
Rp2470
tp2471
a(S'bvert_4MeV_30tilt_5rot_det9.npy'
p2472
F0.0789
F0.0014
F23.846
F0.0997
F0.0392
F0.0008
g11
(g15
S'\x00\x00\x00\x00\x00\x80a@'
p2473
tp2474
Rp2475
tp2476
a(S'bvert_4MeV_30tilt_75rot_det10.npy'
p2477
F0.0775
F0.0014
F22.2618
F0.0785
F0.0387
F0.0008
g11
(g15
S'\x00\x00\x00\x00\x00\xa0b@'
p2478
tp2479
Rp2480
tp2481
a(S'bvert_4MeV_30tilt_75rot_det11.npy'
p2482
F0.2538
F0.0032
F26.5819
F0.1014
F0.1373
F0.0019
g11
(g15
S'\x00\x00\x00\x00\x00\xc0c@'
p2483
tp2484
Rp2485
tp2486
a(S'bvert_4MeV_30tilt_75rot_det12.npy'
p2487
F0.5432
F0.005
F26.5585
F0.1045
F0.3105
F0.0032
g11
(g15
S'\x00\x00\x00\x00\x00\x80d@'
p2488
tp2489
Rp2490
tp2491
a(S'bvert_4MeV_30tilt_75rot_det13.npy'
p2492
F0.8842
F0.0088
F31.6155
F0.1427
F0.5304
F0.0058
g11
(g15
S'\x00\x00\x00\x00\x00\xa0`@'
p2493
tp2494
Rp2495
tp2496
a(S'bvert_4MeV_30tilt_75rot_det14.npy'
p2497
F1.2296
F0.0119
F41.3131
F0.2386
F0.7645
F0.0085
g11
(g15
S'\x00\x00\x00\x00\x00\x80X@'
p2498
tp2499
Rp2500
tp2501
a(S'bvert_4MeV_30tilt_75rot_det15.npy'
p2502
F1.512
F0.0162
F64.636
F0.5112
F0.964
F0.0117
g11
(g15
S'\x00\x00\x00\x00\x00\xc0R@'
p2503
tp2504
Rp2505
tp2506
a(S'bvert_4MeV_30tilt_75rot_det4.npy'
p2507
F1.3748
F0.0162
F63.1283
F0.5285
F0.8808
F0.0112
g11
(g15
S'\x00\x00\x00\x00\x00\x80Q@'
p2508
tp2509
Rp2510
tp2511
a(S'bvert_4MeV_30tilt_75rot_det5.npy'
p2512
F1.086
F0.0118
F38.7824
F0.2367
F0.6812
F0.0084
g11
(g15
S'\x00\x00\x00\x00\x00@[@'
p2513
tp2514
Rp2515
tp2516
a(S'bvert_4MeV_30tilt_75rot_det6.npy'
p2517
F0.7552
F0.0069
F29.0695
F0.1457
F0.4555
F0.0046
g11
(g15
S'\x00\x00\x00\x00\x00 a@'
p2518
tp2519
Rp2520
tp2521
a(S'bvert_4MeV_30tilt_75rot_det7.npy'
p2522
F0.4546
F0.0043
F25.72
F0.1132
F0.2613
F0.0026
g11
(g15
S'\x00\x00\x00\x00\x00@c@'
p2523
tp2524
Rp2525
tp2526
a(S'bvert_4MeV_30tilt_75rot_det8.npy'
p2527
F0.2113
F0.003
F25.8193
F0.0947
F0.1131
F0.0018
g11
(g15
S'\x00\x00\x00\x00\x00\xa0a@'
p2528
tp2529
Rp2530
tp2531
a(S'bvert_4MeV_30tilt_75rot_det9.npy'
p2532
F0.0705
F0.0013
F23.854
F0.1023
F0.0344
F0.0007
g11
(g15
S'\x00\x00\x00\x00\x00``@'
p2533
tp2534
Rp2535
tp2536
a(S'bvert_4MeV_30tilt_95rot_det10.npy'
p2537
F0.0752
F0.0015
F22.2547
F0.0997
F0.0375
F0.0008
g11
(g15
S'\x00\x00\x00\x00\x00\xc0a@'
p2538
tp2539
Rp2540
tp2541
a(S'bvert_4MeV_30tilt_95rot_det11.npy'
p2542
F0.2523
F0.0032
F26.4278
F0.098
F0.1374
F0.0019
g11
(g15
S'\x00\x00\x00\x00\x00\x00b@'
p2543
tp2544
Rp2545
tp2546
a(S'bvert_4MeV_30tilt_95rot_det12.npy'
p2547
F0.5491
F0.0048
F26.5833
F0.0963
F0.3161
F0.0031
g11
(g15
S'\x00\x00\x00\x00\x00\xc0e@'
p2548
tp2549
Rp2550
tp2551
a(S'bvert_4MeV_30tilt_95rot_det13.npy'
p2552
F0.9239
F0.0087
F31.9571
F0.1523
F0.5524
F0.0059
g11
(g15
S'\x00\x00\x00\x00\x00\x00`@'
p2553
tp2554
Rp2555
tp2556
a(S'bvert_4MeV_30tilt_95rot_det14.npy'
p2557
F1.3429
F0.0121
F41.0072
F0.2503
F0.8265
F0.0088
g11
(g15
S'\x00\x00\x00\x00\x00@Y@'
p2558
tp2559
Rp2560
tp2561
a(S'bvert_4MeV_30tilt_95rot_det15.npy'
p2562
F1.6336
F0.019
F64.0298
F0.5796
F1.0347
F0.0132
g11
(g15
S'\x00\x00\x00\x00\x00\x80P@'
p2563
tp2564
Rp2565
tp2566
a(S'bvert_4MeV_30tilt_95rot_det4.npy'
p2567
F1.4543
F0.0152
F62.7284
F0.6045
F0.9328
F0.0117
g11
(g15
S'\x00\x00\x00\x00\x00\x80O@'
p2568
tp2569
Rp2570
tp2571
a(S'bvert_4MeV_30tilt_95rot_det5.npy'
p2572
F1.0866
F0.0094
F38.862
F0.2345
F0.6759
F0.0067
g11
(g15
S'\x00\x00\x00\x00\x00\xc0^@'
p2573
tp2574
Rp2575
tp2576
a(S'bvert_4MeV_30tilt_95rot_det6.npy'
p2577
F0.7432
F0.0075
F29.2621
F0.1442
F0.4459
F0.005
g11
(g15
S'\x00\x00\x00\x00\x00`b@'
p2578
tp2579
Rp2580
tp2581
a(S'bvert_4MeV_30tilt_95rot_det7.npy'
p2582
F0.4462
F0.0049
F25.46
F0.1068
F0.2557
F0.0031
g11
(g15
S'\x00\x00\x00\x00\x00\xe0b@'
p2583
tp2584
Rp2585
tp2586
a(S'bvert_4MeV_30tilt_95rot_det8.npy'
p2587
F0.2042
F0.0026
F25.7453
F0.1
F0.1094
F0.0015
g11
(g15
S'\x00\x00\x00\x00\x00`d@'
p2588
tp2589
Rp2590
tp2591
a(S'bvert_4MeV_30tilt_95rot_det9.npy'
p2592
F0.0642
F0.0013
F23.8521
F0.1074
F0.0309
F0.0007
g11
(g15
S'\x00\x00\x00\x00\x00@b@'
p2593
tp2594
Rp2595
tp2596
a(S'bvert_4MeV_45tilt_115rot_det10.npy'
p2597
F0.0803
F0.0013
F22.2971
F0.0935
F0.04
F0.0007
g11
(g15
S'\x00\x00\x00\x00\x00\xe0b@'
p2598
tp2599
Rp2600
tp2601
a(S'bvert_4MeV_45tilt_115rot_det11.npy'
p2602
F0.2482
F0.0028
F26.851
F0.091
F0.1353
F0.0017
g11
(g15
S'\x00\x00\x00\x00\x00\x80b@'
p2603
tp2604
Rp2605
tp2606
a(S'bvert_4MeV_45tilt_115rot_det12.npy'
p2607
F0.544
F0.0052
F26.7316
F0.0953
F0.3158
F0.0033
g11
(g15
S'\x00\x00\x00\x00\x00\x80c@'
p2608
tp2609
Rp2610
tp2611
a(S'bvert_4MeV_45tilt_115rot_det13.npy'
p2612
F0.9227
F0.0069
F31.775
F0.1386
F0.556
F0.0047
g11
(g15
S'\x00\x00\x00\x00\x00@a@'
p2613
tp2614
Rp2615
tp2616
a(S'bvert_4MeV_45tilt_115rot_det14.npy'
p2617
F1.3257
F0.0138
F41.2299
F0.2307
F0.8249
F0.0094
g11
(g15
S'\x00\x00\x00\x00\x00\x00]@'
p2618
tp2619
Rp2620
tp2621
a(S'bvert_4MeV_45tilt_115rot_det15.npy'
p2622
F1.7114
F0.0194
F65.3988
F0.568
F1.0793
F0.0132
g11
(g15
S'\x00\x00\x00\x00\x00\xc0R@'
p2623
tp2624
Rp2625
tp2626
a(S'bvert_4MeV_45tilt_115rot_det4.npy'
p2627
F1.5909
F0.0125
F60.809
F0.4405
F1.0142
F0.0089
g11
(g15
S'\x00\x00\x00\x00\x00\x80S@'
p2628
tp2629
Rp2630
tp2631
a(S'bvert_4MeV_45tilt_115rot_det5.npy'
p2632
F1.1999
F0.011
F38.4652
F0.1966
F0.7476
F0.0075
g11
(g15
S'\x00\x00\x00\x00\x00\xc0^@'
p2633
tp2634
Rp2635
tp2636
a(S'bvert_4MeV_45tilt_115rot_det6.npy'
p2637
F0.7767
F0.0092
F28.9873
F0.128
F0.4669
F0.006
g11
(g15
S'\x00\x00\x00\x00\x00`g@'
p2638
tp2639
Rp2640
tp2641
a(S'bvert_4MeV_45tilt_115rot_det7.npy'
p2642
F0.4638
F0.0046
F25.3479
F0.0871
F0.2657
F0.0029
g11
(g15
S'\x00\x00\x00\x00\x00\xc0f@'
p2643
tp2644
Rp2645
tp2646
a(S'bvert_4MeV_45tilt_115rot_det8.npy'
p2647
F0.2148
F0.0028
F25.6089
F0.0875
F0.1145
F0.0016
g11
(g15
S'\x00\x00\x00\x00\x00\xa0d@'
p2648
tp2649
Rp2650
tp2651
a(S'bvert_4MeV_45tilt_115rot_det9.npy'
p2652
F0.0661
F0.0014
F23.7286
F0.0917
F0.0317
F0.0007
g11
(g15
S'\x00\x00\x00\x00\x00@c@'
p2653
tp2654
Rp2655
tp2656
a(S'bvert_4MeV_45tilt_135rot_det10.npy'
p2657
F0.0772
F0.0015
F22.4697
F0.0883
F0.0379
F0.0008
g11
(g15
S'\x00\x00\x00\x00\x00\x80b@'
p2658
tp2659
Rp2660
tp2661
a(S'bvert_4MeV_45tilt_135rot_det11.npy'
p2662
F0.2447
F0.0031
F26.7903
F0.0925
F0.1323
F0.0018
g11
(g15
S'\x00\x00\x00\x00\x00\x80b@'
p2663
tp2664
Rp2665
tp2666
a(S'bvert_4MeV_45tilt_135rot_det12.npy'
p2667
F0.5287
F0.0048
F26.797
F0.0908
F0.3082
F0.0034
g11
(g15
S'\x00\x00\x00\x00\x00`e@'
p2668
tp2669
Rp2670
tp2671
a(S'bvert_4MeV_45tilt_135rot_det13.npy'
p2672
F0.8906
F0.0085
F31.68
F0.1138
F0.5427
F0.0057
g11
(g15
S'\x00\x00\x00\x00\x00@a@'
p2673
tp2674
Rp2675
tp2676
a(S'bvert_4MeV_45tilt_135rot_det14.npy'
p2677
F1.2935
F0.0107
F41.3384
F0.2281
F0.81
F0.0074
g11
(g15
S'\x00\x00\x00\x00\x00\x80^@'
p2678
tp2679
Rp2680
tp2681
a(S'bvert_4MeV_45tilt_135rot_det15.npy'
p2682
F1.7021
F0.0171
F66.2148
F0.4837
F1.0799
F0.012
g11
(g15
S'\x00\x00\x00\x00\x00\x80P@'
p2683
tp2684
Rp2685
tp2686
a(S'bvert_4MeV_45tilt_135rot_det4.npy'
p2687
F1.621
F0.0193
F61.6888
F0.5058
F1.0203
F0.0132
g11
(g15
S'\x00\x00\x00\x00\x00\x00R@'
p2688
tp2689
Rp2690
tp2691
a(S'bvert_4MeV_45tilt_135rot_det5.npy'
p2692
F1.2396
F0.012
F38.5703
F0.2063
F0.7673
F0.0081
g11
(g15
S'\x00\x00\x00\x00\x00\xc0]@'
p2693
tp2694
Rp2695
tp2696
a(S'bvert_4MeV_45tilt_135rot_det6.npy'
p2697
F0.8529
F0.0079
F28.6573
F0.1285
F0.5133
F0.0053
g11
(g15
S'\x00\x00\x00\x00\x00`c@'
p2698
tp2699
Rp2700
tp2701
a(S'bvert_4MeV_45tilt_135rot_det7.npy'
p2702
F0.4774
F0.0042
F25.3133
F0.0937
F0.2739
F0.0026
g11
(g15
S'\x00\x00\x00\x00\x00\x00f@'
p2703
tp2704
Rp2705
tp2706
a(S'bvert_4MeV_45tilt_135rot_det8.npy'
p2707
F0.2212
F0.003
F25.7798
F0.0967
F0.1178
F0.0018
g11
(g15
S'\x00\x00\x00\x00\x00`d@'
p2708
tp2709
Rp2710
tp2711
a(S'bvert_4MeV_45tilt_135rot_det9.npy'
p2712
F0.067
F0.0012
F23.7542
F0.0961
F0.0323
F0.0007
g11
(g15
S'\x00\x00\x00\x00\x00 b@'
p2713
tp2714
Rp2715
tp2716
a(S'bvert_4MeV_45tilt_15rot_det10.npy'
p2717
F0.0706
F0.0013
F22.0847
F0.0877
F0.035
F0.0007
g11
(g15
S'\x00\x00\x00\x00\x00`f@'
p2718
tp2719
Rp2720
tp2721
a(S'bvert_4MeV_45tilt_15rot_det11.npy'
p2722
F0.2136
F0.0025
F26.5052
F0.0969
F0.1147
F0.0015
g11
(g15
S'\x00\x00\x00\x00\x00\x80f@'
p2723
tp2724
Rp2725
tp2726
a(S'bvert_4MeV_45tilt_15rot_det12.npy'
p2727
F0.4761
F0.004
F26.5491
F0.0994
F0.2718
F0.0025
g11
(g15
S'\x00\x00\x00\x00\x00`g@'
p2728
tp2729
Rp2730
tp2731
a(S'bvert_4MeV_45tilt_15rot_det13.npy'
p2732
F0.8006
F0.0063
F31.3137
F0.1213
F0.4824
F0.0043
g11
(g15
S'\x00\x00\x00\x00\x00\x80d@'
p2733
tp2734
Rp2735
tp2736
a(S'bvert_4MeV_45tilt_15rot_det14.npy'
p2737
F1.1362
F0.0089
F40.6006
F0.2015
F0.7124
F0.0061
g11
(g15
S'\x00\x00\x00\x00\x00\xe0b@'
p2738
tp2739
Rp2740
tp2741
a(S'bvert_4MeV_45tilt_15rot_det15.npy'
p2742
F1.527
F0.0155
F64.6032
F0.5209
F0.9822
F0.0109
g11
(g15
S'\x00\x00\x00\x00\x00\xc0W@'
p2743
tp2744
Rp2745
tp2746
a(S'bvert_4MeV_45tilt_15rot_det4.npy'
p2747
F1.6298
F0.0157
F61.9734
F0.4979
F1.0452
F0.0116
g11
(g15
S'\x00\x00\x00\x00\x00\x80R@'
p2748
tp2749
Rp2750
tp2751
a(S'bvert_4MeV_45tilt_15rot_det5.npy'
p2752
F1.3085
F0.0127
F39.0882
F0.2473
F0.817
F0.0088
g11
(g15
S'\x00\x00\x00\x00\x00\x00Y@'
p2753
tp2754
Rp2755
tp2756
a(S'bvert_4MeV_45tilt_15rot_det6.npy'
p2757
F0.9261
F0.0077
F29.0763
F0.1421
F0.5583
F0.0052
g11
(g15
S'\x00\x00\x00\x00\x00\xe0a@'
p2758
tp2759
Rp2760
tp2761
a(S'bvert_4MeV_45tilt_15rot_det7.npy'
p2762
F0.5495
F0.0051
F25.6207
F0.1061
F0.3157
F0.0033
g11
(g15
S'\x00\x00\x00\x00\x00\x00c@'
p2763
tp2764
Rp2765
tp2766
a(S'bvert_4MeV_45tilt_15rot_det8.npy'
p2767
F0.2646
F0.003
F25.7774
F0.0831
F0.1437
F0.0017
g11
(g15
S'\x00\x00\x00\x00\x00 f@'
p2768
tp2769
Rp2770
tp2771
a(S'bvert_4MeV_45tilt_15rot_det9.npy'
p2772
F0.0834
F0.0014
F23.7354
F0.0867
F0.0422
F0.0008
g11
(g15
S'\x00\x00\x00\x00\x00\xa0d@'
p2773
tp2774
Rp2775
tp2776
a(S'bvert_4MeV_45tilt_25rot_det10.npy'
p2777
F0.0707
F0.0013
F22.1515
F0.0896
F0.0346
F0.0007
g11
(g15
S'\x00\x00\x00\x00\x00 a@'
p2778
tp2779
Rp2780
tp2781
a(S'bvert_4MeV_45tilt_25rot_det11.npy'
p2782
F0.2249
F0.0026
F26.6349
F0.1017
F0.1217
F0.0015
g11
(g15
S'\x00\x00\x00\x00\x00\xe0b@'
p2783
tp2784
Rp2785
tp2786
a(S'bvert_4MeV_45tilt_25rot_det12.npy'
p2787
F0.4832
F0.0045
F26.5551
F0.0966
F0.2778
F0.0028
g11
(g15
S'\x00\x00\x00\x00\x00 g@'
p2788
tp2789
Rp2790
tp2791
a(S'bvert_4MeV_45tilt_25rot_det13.npy'
p2792
F0.8071
F0.0063
F31.1277
F0.1194
F0.4888
F0.0044
g11
(g15
S'\x00\x00\x00\x00\x00@b@'
p2793
tp2794
Rp2795
tp2796
a(S'bvert_4MeV_45tilt_25rot_det14.npy'
p2797
F1.1413
F0.0111
F40.5123
F0.1826
F0.7108
F0.0077
g11
(g15
S'\x00\x00\x00\x00\x00\xa0a@'
p2798
tp2799
Rp2800
tp2801
a(S'bvert_4MeV_45tilt_25rot_det15.npy'
p2802
F1.4747
F0.018
F63.8039
F0.5458
F0.9447
F0.0127
g11
(g15
S'\x00\x00\x00\x00\x00\xc0P@'
p2803
tp2804
Rp2805
tp2806
a(S'bvert_4MeV_45tilt_25rot_det4.npy'
p2807
F1.5717
F0.0177
F62.5058
F0.5656
F1.0051
F0.0124
g11
(g15
S'\x00\x00\x00\x00\x00\xc0S@'
p2808
tp2809
Rp2810
tp2811
a(S'bvert_4MeV_45tilt_25rot_det5.npy'
p2812
F1.2744
F0.0143
F39.2673
F0.2267
F0.7988
F0.0099
g11
(g15
S'\x00\x00\x00\x00\x00\x80\\@'
p2813
tp2814
Rp2815
tp2816
a(S'bvert_4MeV_45tilt_25rot_det6.npy'
p2817
F0.905
F0.0084
F28.9522
F0.1351
F0.5465
F0.0056
g11
(g15
S'\x00\x00\x00\x00\x00`c@'
p2818
tp2819
Rp2820
tp2821
a(S'bvert_4MeV_45tilt_25rot_det7.npy'
p2822
F0.5349
F0.0054
F25.7647
F0.1009
F0.3087
F0.0034
g11
(g15
S'\x00\x00\x00\x00\x00\xc0e@'
p2823
tp2824
Rp2825
tp2826
a(S'bvert_4MeV_45tilt_25rot_det8.npy'
p2827
F0.2581
F0.0028
F25.7473
F0.078
F0.1405
F0.0017
g11
(g15
S'\x00\x00\x00\x00\x00\xa0c@'
p2828
tp2829
Rp2830
tp2831
a(S'bvert_4MeV_45tilt_25rot_det9.npy'
p2832
F0.0812
F0.0015
F23.8244
F0.0913
F0.0413
F0.0008
g11
(g15
S'\x00\x00\x00\x00\x00`a@'
p2833
tp2834
Rp2835
tp2836
a(S'bvert_4MeV_45tilt_315rot_det10.npy'
p2837
F0.0683
F0.0013
F22.021
F0.0877
F0.033
F0.0007
g11
(g15
S'\x00\x00\x00\x00\x00\xe0f@'
p2838
tp2839
Rp2840
tp2841
a(S'bvert_4MeV_45tilt_315rot_det11.npy'
p2842
F0.2275
F0.0026
F26.5201
F0.0812
F0.1228
F0.0015
g11
(g15
S'\x00\x00\x00\x00\x00\x00i@'
p2843
tp2844
Rp2845
tp2846
a(S'bvert_4MeV_45tilt_315rot_det12.npy'
p2847
F0.5076
F0.0046
F26.272
F0.0954
F0.2966
F0.0029
g11
(g15
S'\x00\x00\x00\x00\x00\xa0i@'
p2848
tp2849
Rp2850
tp2851
a(S'bvert_4MeV_45tilt_315rot_det13.npy'
p2852
F0.8577
F0.0083
F31.3175
F0.1236
F0.5213
F0.0057
g11
(g15
S'\x00\x00\x00\x00\x00`d@'
p2853
tp2854
Rp2855
tp2856
a(S'bvert_4MeV_45tilt_315rot_det14.npy'
p2857
F1.2665
F0.0113
F40.9533
F0.2015
F0.7888
F0.0077
g11
(g15
S'\x00\x00\x00\x00\x00`a@'
p2858
tp2859
Rp2860
tp2861
a(S'bvert_4MeV_45tilt_315rot_det15.npy'
p2862
F1.6524
F0.0167
F64.8594
F0.469
F1.048
F0.0115
g11
(g15
S'\x00\x00\x00\x00\x00\x80U@'
p2863
tp2864
Rp2865
tp2866
a(S'bvert_4MeV_45tilt_315rot_det4.npy'
p2867
F1.6414
F0.0187
F63.3227
F0.5687
F1.0363
F0.0125
g11
(g15
S'\x00\x00\x00\x00\x00@S@'
p2868
tp2869
Rp2870
tp2871
a(S'bvert_4MeV_45tilt_315rot_det5.npy'
p2872
F1.2895
F0.0129
F39.6016
F0.1882
F0.7982
F0.0084
g11
(g15
S'\x00\x00\x00\x00\x00\xa0a@'
p2873
tp2874
Rp2875
tp2876
a(S'bvert_4MeV_45tilt_315rot_det6.npy'
p2877
F0.8807
F0.0071
F29.4161
F0.1311
F0.5302
F0.0047
g11
(g15
S'\x00\x00\x00\x00\x00\xa0e@'
p2878
tp2879
Rp2880
tp2881
a(S'bvert_4MeV_45tilt_315rot_det7.npy'
p2882
F0.5033
F0.005
F25.7019
F0.0982
F0.2911
F0.0033
g11
(g15
S'\x00\x00\x00\x00\x00\x80e@'
p2883
tp2884
Rp2885
tp2886
a(S'bvert_4MeV_45tilt_315rot_det8.npy'
p2887
F0.2422
F0.0027
F25.6687
F0.0823
F0.131
F0.0016
g11
(g15
S'\x00\x00\x00\x00\x00\x00e@'
p2888
tp2889
Rp2890
tp2891
a(S'bvert_4MeV_45tilt_315rot_det9.npy'
p2892
F0.0771
F0.0015
F23.9857
F0.0902
F0.0376
F0.0008
g11
(g15
S'\x00\x00\x00\x00\x00@e@'
p2893
tp2894
Rp2895
tp2896
a(S'bvert_4MeV_45tilt_335rot_det10.npy'
p2897
F0.0671
F0.0015
F21.8838
F0.0945
F0.0323
F0.0008
g11
(g15
S'\x00\x00\x00\x00\x00@`@'
p2898
tp2899
Rp2900
tp2901
a(S'bvert_4MeV_45tilt_335rot_det11.npy'
p2902
F0.22
F0.0027
F26.5607
F0.1012
F0.1179
F0.0016
g11
(g15
S'\x00\x00\x00\x00\x00\x00e@'
p2903
tp2904
Rp2905
tp2906
a(S'bvert_4MeV_45tilt_335rot_det12.npy'
p2907
F0.4747
F0.0053
F26.588
F0.1101
F0.2727
F0.0034
g11
(g15
S'\x00\x00\x00\x00\x00`c@'
p2908
tp2909
Rp2910
tp2911
a(S'bvert_4MeV_45tilt_335rot_det13.npy'
p2912
F0.8455
F0.0078
F31.1646
F0.1468
F0.5145
F0.0053
g11
(g15
S'\x00\x00\x00\x00\x00\x80[@'
p2913
tp2914
Rp2915
tp2916
a(S'bvert_4MeV_45tilt_335rot_det14.npy'
p2917
F1.2115
F0.011
F40.7824
F0.2451
F0.7617
F0.0076
g11
(g15
S'\x00\x00\x00\x00\x00\x00^@'
p2918
tp2919
Rp2920
tp2921
a(S'bvert_4MeV_45tilt_335rot_det15.npy'
p2922
F1.6091
F0.0163
F64.4179
F0.5406
F1.0347
F0.0115
g11
(g15
S'\x00\x00\x00\x00\x00\x00Q@'
p2923
tp2924
Rp2925
tp2926
a(S'bvert_4MeV_45tilt_335rot_det4.npy'
p2927
F1.6885
F0.0187
F63.2101
F0.5589
F1.0561
F0.0125
g11
(g15
S'\x00\x00\x00\x00\x00\x80Q@'
p2928
tp2929
Rp2930
tp2931
a(S'bvert_4MeV_45tilt_335rot_det5.npy'
p2932
F1.3458
F0.0123
F39.2936
F0.2492
F0.8318
F0.0081
g11
(g15
S'\x00\x00\x00\x00\x00\xc0[@'
p2933
tp2934
Rp2935
tp2936
a(S'bvert_4MeV_45tilt_335rot_det6.npy'
p2937
F0.9092
F0.0103
F29.6457
F0.1437
F0.5465
F0.0067
g11
(g15
S'\x00\x00\x00\x00\x00\xc0^@'
p2938
tp2939
Rp2940
tp2941
a(S'bvert_4MeV_45tilt_335rot_det7.npy'
p2942
F0.5323
F0.0057
F25.6618
F0.1133
F0.3068
F0.0036
g11
(g15
S'\x00\x00\x00\x00\x00\xe0c@'
p2943
tp2944
Rp2945
tp2946
a(S'bvert_4MeV_45tilt_335rot_det8.npy'
p2947
F0.2465
F0.003
F25.9291
F0.0959
F0.135
F0.0018
g11
(g15
S'\x00\x00\x00\x00\x00 a@'
p2948
tp2949
Rp2950
tp2951
a(S'bvert_4MeV_45tilt_335rot_det9.npy'
p2952
F0.0769
F0.0014
F23.7063
F0.1003
F0.0385
F0.0007
g11
(g15
S'\x00\x00\x00\x00\x00\xc0_@'
p2953
tp2954
Rp2955
tp2956
a(S'bvert_4MeV_45tilt_345rot_det10.npy'
p2957
F0.0686
F0.0012
F22.108
F0.0772
F0.0332
F0.0006
g11
(g15
S'\x00\x00\x00\x00\x00\x00e@'
p2958
tp2959
Rp2960
tp2961
a(S'bvert_4MeV_45tilt_345rot_det11.npy'
p2962
F0.2141
F0.0025
F26.6099
F0.0926
F0.1142
F0.0015
g11
(g15
S'\x00\x00\x00\x00\x00\x80h@'
p2963
tp2964
Rp2965
tp2966
a(S'bvert_4MeV_45tilt_345rot_det12.npy'
p2967
F0.4746
F0.0047
F26.2322
F0.1035
F0.2714
F0.003
g11
(g15
S'\x00\x00\x00\x00\x00@e@'
p2968
tp2969
Rp2970
tp2971
a(S'bvert_4MeV_45tilt_345rot_det13.npy'
p2972
F0.8095
F0.0071
F31.2693
F0.1212
F0.4915
F0.0049
g11
(g15
S'\x00\x00\x00\x00\x00 f@'
p2973
tp2974
Rp2975
tp2976
a(S'bvert_4MeV_45tilt_345rot_det14.npy'
p2977
F1.1705
F0.0127
F40.451
F0.2369
F0.7323
F0.0088
g11
(g15
S'\x00\x00\x00\x00\x00\xc0\\@'
p2978
tp2979
Rp2980
tp2981
a(S'bvert_4MeV_45tilt_345rot_det15.npy'
p2982
F1.6039
F0.0158
F64.8656
F0.5194
F1.0334
F0.0113
g11
(g15
S'\x00\x00\x00\x00\x00\x00O@'
p2983
tp2984
Rp2985
tp2986
a(S'bvert_4MeV_45tilt_345rot_det4.npy'
p2987
F1.6912
F0.0157
F63.2621
F0.4643
F1.0684
F0.011
g11
(g15
S'\x00\x00\x00\x00\x00\xc0S@'
p2988
tp2989
Rp2990
tp2991
a(S'bvert_4MeV_45tilt_345rot_det5.npy'
p2992
F1.3534
F0.0115
F39.5114
F0.2263
F0.833
F0.008
g11
(g15
S'\x00\x00\x00\x00\x00@^@'
p2993
tp2994
Rp2995
tp2996
a(S'bvert_4MeV_45tilt_345rot_det6.npy'
p2997
F0.9403
F0.0077
F29.1517
F0.1509
F0.564
F0.0053
g11
(g15
S'\x00\x00\x00\x00\x00\xe0a@'
p2998
tp2999
Rp3000
tp3001
a(S'bvert_4MeV_45tilt_345rot_det7.npy'
p3002
F0.5494
F0.0051
F25.5443
F0.1021
F0.3167
F0.0033
g11
(g15
S'\x00\x00\x00\x00\x00\xa0d@'
p3003
tp3004
Rp3005
tp3006
a(S'bvert_4MeV_45tilt_345rot_det8.npy'
p3007
F0.2525
F0.0026
F25.8742
F0.0877
F0.1377
F0.0016
g11
(g15
S'\x00\x00\x00\x00\x00\xa0d@'
p3008
tp3009
Rp3010
tp3011
a(S'bvert_4MeV_45tilt_345rot_det9.npy'
p3012
F0.0802
F0.0014
F23.8562
F0.0946
F0.04
F0.0007
g11
(g15
S'\x00\x00\x00\x00\x00\xc0f@'
p3013
tp3014
Rp3015
tp3016
a(S'bvert_4MeV_45tilt_355rot_det10.npy'
p3017
F0.0666
F0.0011
F22.1163
F0.0888
F0.0321
F0.0006
g11
(g15
S'\x00\x00\x00\x00\x00\x00f@'
p3018
tp3019
Rp3020
tp3021
a(S'bvert_4MeV_45tilt_355rot_det11.npy'
p3022
F0.2144
F0.0028
F26.6284
F0.1105
F0.1147
F0.0016
g11
(g15
S'\x00\x00\x00\x00\x00\xc0`@'
p3023
tp3024
Rp3025
tp3026
a(S'bvert_4MeV_45tilt_355rot_det12.npy'
p3027
F0.465
F0.0047
F26.5317
F0.0997
F0.2656
F0.003
g11
(g15
S'\x00\x00\x00\x00\x00\xa0d@'
p3028
tp3029
Rp3030
tp3031
a(S'bvert_4MeV_45tilt_355rot_det13.npy'
p3032
F0.808
F0.0067
F31.2564
F0.1279
F0.4906
F0.0044
g11
(g15
S'\x00\x00\x00\x00\x00\xa0c@'
p3033
tp3034
Rp3035
tp3036
a(S'bvert_4MeV_45tilt_355rot_det14.npy'
p3037
F1.1533
F0.0102
F40.3538
F0.1991
F0.7206
F0.007
g11
(g15
S'\x00\x00\x00\x00\x00 b@'
p3038
tp3039
Rp3040
tp3041
a(S'bvert_4MeV_45tilt_355rot_det15.npy'
p3042
F1.5617
F0.0147
F63.3219
F0.505
F0.9982
F0.0108
g11
(g15
S'\x00\x00\x00\x00\x00\x00O@'
p3043
tp3044
Rp3045
tp3046
a(S'bvert_4MeV_45tilt_355rot_det4.npy'
p3047
F1.6607
F0.0192
F63.5757
F0.5794
F1.0475
F0.0134
g11
(g15
S'\x00\x00\x00\x00\x00\x00Q@'
p3048
tp3049
Rp3050
tp3051
a(S'bvert_4MeV_45tilt_355rot_det5.npy'
p3052
F1.3411
F0.0115
F39.0713
F0.2262
F0.8245
F0.0079
g11
(g15
S'\x00\x00\x00\x00\x00@]@'
p3053
tp3054
Rp3055
tp3056
a(S'bvert_4MeV_45tilt_355rot_det6.npy'
p3057
F0.9476
F0.009
F29.6361
F0.1742
F0.5694
F0.006
g11
(g15
S'\x00\x00\x00\x00\x00\x00^@'
p3058
tp3059
Rp3060
tp3061
a(S'bvert_4MeV_45tilt_355rot_det7.npy'
p3062
F0.5586
F0.0048
F25.6803
F0.098
F0.321
F0.0032
g11
(g15
S'\x00\x00\x00\x00\x00\xc0d@'
p3063
tp3064
Rp3065
tp3066
a(S'bvert_4MeV_45tilt_355rot_det8.npy'
p3067
F0.2523
F0.0031
F25.7631
F0.0986
F0.137
F0.0018
g11
(g15
S'\x00\x00\x00\x00\x00 a@'
p3068
tp3069
Rp3070
tp3071
a(S'bvert_4MeV_45tilt_355rot_det9.npy'
p3072
F0.0819
F0.0018
F23.8271
F0.0971
F0.041
F0.001
g11
(g15
S'\x00\x00\x00\x00\x00\x00_@'
p3073
tp3074
Rp3075
tp3076
a(S'bvert_4MeV_45tilt_35rot_det10.npy'
p3077
F0.0727
F0.0015
F22.1645
F0.11
F0.0369
F0.0008
g11
(g15
S'\x00\x00\x00\x00\x00\x80`@'
p3078
tp3079
Rp3080
tp3081
a(S'bvert_4MeV_45tilt_35rot_det11.npy'
p3082
F0.2303
F0.003
F26.5918
F0.1075
F0.1242
F0.0017
g11
(g15
S'\x00\x00\x00\x00\x00 b@'
p3083
tp3084
Rp3085
tp3086
a(S'bvert_4MeV_45tilt_35rot_det12.npy'
p3087
F0.4825
F0.0049
F26.4536
F0.1089
F0.2759
F0.003
g11
(g15
S'\x00\x00\x00\x00\x00\xe0c@'
p3088
tp3089
Rp3090
tp3091
a(S'bvert_4MeV_45tilt_35rot_det13.npy'
p3092
F0.8095
F0.0079
F31.2567
F0.1265
F0.4883
F0.0052
g11
(g15
S'\x00\x00\x00\x00\x00\xc0c@'
p3093
tp3094
Rp3095
tp3096
a(S'bvert_4MeV_45tilt_35rot_det14.npy'
p3097
F1.1647
F0.0119
F40.7472
F0.2213
F0.7302
F0.0082
g11
(g15
S'\x00\x00\x00\x00\x00\x80^@'
p3098
tp3099
Rp3100
tp3101
a(S'bvert_4MeV_45tilt_35rot_det15.npy'
p3102
F1.4898
F0.0151
F64.5433
F0.5454
F0.953
F0.0113
g11
(g15
S'\x00\x00\x00\x00\x00\xc0P@'
p3103
tp3104
Rp3105
tp3106
a(S'bvert_4MeV_45tilt_35rot_det4.npy'
p3107
F1.538
F0.0188
F62.8243
F0.5561
F0.9871
F0.0133
g11
(g15
S'\x00\x00\x00\x00\x00\x80Q@'
p3108
tp3109
Rp3110
tp3111
a(S'bvert_4MeV_45tilt_35rot_det5.npy'
p3112
F1.2381
F0.0118
F38.878
F0.2219
F0.7793
F0.0081
g11
(g15
S'\x00\x00\x00\x00\x00\x00Y@'
p3113
tp3114
Rp3115
tp3116
a(S'bvert_4MeV_45tilt_35rot_det6.npy'
p3117
F0.8876
F0.0079
F29.2827
F0.1391
F0.5382
F0.0054
g11
(g15
S'\x00\x00\x00\x00\x00\x00_@'
p3118
tp3119
Rp3120
tp3121
a(S'bvert_4MeV_45tilt_35rot_det7.npy'
p3122
F0.5266
F0.0053
F25.5403
F0.1114
F0.3038
F0.0034
g11
(g15
S'\x00\x00\x00\x00\x00@a@'
p3123
tp3124
Rp3125
tp3126
a(S'bvert_4MeV_45tilt_35rot_det8.npy'
p3127
F0.2548
F0.0031
F25.559
F0.1048
F0.1385
F0.0019
g11
(g15
S'\x00\x00\x00\x00\x00@`@'
p3128
tp3129
Rp3130
tp3131
a(S'bvert_4MeV_45tilt_35rot_det9.npy'
p3132
F0.0801
F0.0018
F24.0169
F0.1117
F0.0406
F0.0009
g11
(g15
S'\x00\x00\x00\x00\x00\x00]@'
p3133
tp3134
Rp3135
tp3136
a(S'bvert_4MeV_45tilt_45rot_det10.npy'
p3137
F0.0771
F0.0015
F22.0449
F0.0905
F0.0388
F0.0008
g11
(g15
S'\x00\x00\x00\x00\x00`b@'
p3138
tp3139
Rp3140
tp3141
a(S'bvert_4MeV_45tilt_45rot_det11.npy'
p3142
F0.244
F0.0034
F26.7776
F0.1181
F0.1316
F0.0021
g11
(g15
S'\x00\x00\x00\x00\x00\xe0`@'
p3143
tp3144
Rp3145
tp3146
a(S'bvert_4MeV_45tilt_45rot_det12.npy'
p3147
F0.5042
F0.0052
F26.6209
F0.1067
F0.2908
F0.0033
g11
(g15
S'\x00\x00\x00\x00\x00\x80b@'
p3148
tp3149
Rp3150
tp3151
a(S'bvert_4MeV_45tilt_45rot_det13.npy'
p3152
F0.8451
F0.0067
F31.24
F0.1266
F0.5102
F0.0046
g11
(g15
S'\x00\x00\x00\x00\x00\x00a@'
p3153
tp3154
Rp3155
tp3156
a(S'bvert_4MeV_45tilt_45rot_det14.npy'
p3157
F1.1684
F0.0139
F40.1898
F0.2502
F0.7315
F0.01
g11
(g15
S'\x00\x00\x00\x00\x00\xc0U@'
p3158
tp3159
Rp3160
tp3161
a(S'bvert_4MeV_45tilt_45rot_det15.npy'
p3162
F1.4998
F0.0161
F63.884
F0.5648
F0.9585
F0.0112
g11
(g15
S'\x00\x00\x00\x00\x00\x00O@'
p3163
tp3164
Rp3165
tp3166
a(S'bvert_4MeV_45tilt_45rot_det4.npy'
p3167
F1.4895
F0.0143
F63.5155
F0.5587
F0.9565
F0.0103
g11
(g15
S'\x00\x00\x00\x00\x00@S@'
p3168
tp3169
Rp3170
tp3171
a(S'bvert_4MeV_45tilt_45rot_det5.npy'
p3172
F1.2277
F0.0122
F38.8244
F0.2221
F0.774
F0.0086
g11
(g15
S'\x00\x00\x00\x00\x00\x00Z@'
p3173
tp3174
Rp3175
tp3176
a(S'bvert_4MeV_45tilt_45rot_det6.npy'
p3177
F0.8502
F0.0082
F29.0873
F0.1326
F0.5163
F0.0056
g11
(g15
S'\x00\x00\x00\x00\x00 `@'
p3178
tp3179
Rp3180
tp3181
a(S'bvert_4MeV_45tilt_45rot_det7.npy'
p3182
F0.4994
F0.0055
F25.421
F0.118
F0.289
F0.0036
g11
(g15
S'\x00\x00\x00\x00\x00\x00c@'
p3183
tp3184
Rp3185
tp3186
a(S'bvert_4MeV_45tilt_45rot_det8.npy'
p3187
F0.2472
F0.0029
F25.6163
F0.1037
F0.134
F0.0018
g11
(g15
S'\x00\x00\x00\x00\x00@a@'
p3188
tp3189
Rp3190
tp3191
a(S'bvert_4MeV_45tilt_45rot_det9.npy'
p3192
F0.0784
F0.0014
F23.743
F0.101
F0.039
F0.0007
g11
(g15
S'\x00\x00\x00\x00\x00\xc0c@'
p3193
tp3194
Rp3195
tp3196
a(S'bvert_4MeV_45tilt_55rot_det10.npy'
p3197
F0.0799
F0.0016
F22.2193
F0.0895
F0.0406
F0.0009
g11
(g15
S'\x00\x00\x00\x00\x00@c@'
p3198
tp3199
Rp3200
tp3201
a(S'bvert_4MeV_45tilt_55rot_det11.npy'
p3202
F0.2496
F0.0029
F26.4116
F0.1033
F0.1361
F0.0018
g11
(g15
S'\x00\x00\x00\x00\x00 c@'
p3203
tp3204
Rp3205
tp3206
a(S'bvert_4MeV_45tilt_55rot_det12.npy'
p3207
F0.5193
F0.0048
F26.6285
F0.1021
F0.2985
F0.003
g11
(g15
S'\x00\x00\x00\x00\x00\x80d@'
p3208
tp3209
Rp3210
tp3211
a(S'bvert_4MeV_45tilt_55rot_det13.npy'
p3212
F0.858
F0.0068
F31.4098
F0.1207
F0.517
F0.0045
g11
(g15
S'\x00\x00\x00\x00\x00\x00b@'
p3213
tp3214
Rp3215
tp3216
a(S'bvert_4MeV_45tilt_55rot_det14.npy'
p3217
F1.1841
F0.0122
F40.8271
F0.2129
F0.7362
F0.0082
g11
(g15
S'\x00\x00\x00\x00\x00\x00_@'
p3218
tp3219
Rp3220
tp3221
a(S'bvert_4MeV_45tilt_55rot_det15.npy'
p3222
F1.4895
F0.015
F64.5839
F0.5963
F0.953
F0.0106
g11
(g15
S'\x00\x00\x00\x00\x00\x80Q@'
p3223
tp3224
Rp3225
tp3226
a(S'bvert_4MeV_45tilt_55rot_det4.npy'
p3227
F1.5121
F0.0144
F62.6211
F0.496
F0.9642
F0.0102
g11
(g15
S'\x00\x00\x00\x00\x00\xc0P@'
p3228
tp3229
Rp3230
tp3231
a(S'bvert_4MeV_45tilt_55rot_det5.npy'
p3232
F1.177
F0.0104
F38.6804
F0.1979
F0.7366
F0.0073
g11
(g15
S'\x00\x00\x00\x00\x00\x80_@'
p3233
tp3234
Rp3235
tp3236
a(S'bvert_4MeV_45tilt_55rot_det6.npy'
p3237
F0.8373
F0.0069
F28.9619
F0.1409
F0.509
F0.0048
g11
(g15
S'\x00\x00\x00\x00\x00 d@'
p3238
tp3239
Rp3240
tp3241
a(S'bvert_4MeV_45tilt_55rot_det7.npy'
p3242
F0.4882
F0.0054
F25.7125
F0.1211
F0.2812
F0.0035
g11
(g15
S'\x00\x00\x00\x00\x00\xe0a@'
p3243
tp3244
Rp3245
tp3246
a(S'bvert_4MeV_45tilt_55rot_det8.npy'
p3247
F0.2392
F0.0029
F25.8877
F0.0902
F0.1303
F0.0017
g11
(g15
S'\x00\x00\x00\x00\x00\xc0b@'
p3248
tp3249
Rp3250
tp3251
a(S'bvert_4MeV_45tilt_55rot_det9.npy'
p3252
F0.0728
F0.0016
F23.8491
F0.1045
F0.0371
F0.0008
g11
(g15
S'\x00\x00\x00\x00\x00\xc0`@'
p3253
tp3254
Rp3255
tp3256
a(S'bvert_4MeV_45tilt_5rot_det10.npy'
p3257
F0.068
F0.0013
F22.19
F0.0922
F0.0333
F0.0007
g11
(g15
S'\x00\x00\x00\x00\x00@e@'
p3258
tp3259
Rp3260
tp3261
a(S'bvert_4MeV_45tilt_5rot_det11.npy'
p3262
F0.2127
F0.0034
F26.6758
F0.0933
F0.1135
F0.0019
g11
(g15
S'\x00\x00\x00\x00\x00@f@'
p3263
tp3264
Rp3265
tp3266
a(S'bvert_4MeV_45tilt_5rot_det12.npy'
p3267
F0.4622
F0.0045
F26.57
F0.1026
F0.2655
F0.0029
g11
(g15
S'\x00\x00\x00\x00\x00\xa0f@'
p3268
tp3269
Rp3270
tp3271
a(S'bvert_4MeV_45tilt_5rot_det13.npy'
p3272
F0.8122
F0.0071
F31.1033
F0.1244
F0.4908
F0.0048
g11
(g15
S'\x00\x00\x00\x00\x00\xc0b@'
p3273
tp3274
Rp3275
tp3276
a(S'bvert_4MeV_45tilt_5rot_det14.npy'
p3277
F1.1378
F0.0132
F40.53
F0.2201
F0.7111
F0.0092
g11
(g15
S'\x00\x00\x00\x00\x00\xc0^@'
p3278
tp3279
Rp3280
tp3281
a(S'bvert_4MeV_45tilt_5rot_det15.npy'
p3282
F1.4755
F0.0164
F63.6576
F0.4859
F0.9473
F0.0115
g11
(g15
S'\x00\x00\x00\x00\x00\xc0V@'
p3283
tp3284
Rp3285
tp3286
a(S'bvert_4MeV_45tilt_5rot_det4.npy'
p3287
F1.6495
F0.0148
F62.4914
F0.6633
F1.0504
F0.0106
g11
(g15
S'\x00\x00\x00\x00\x00\x00M@'
p3288
tp3289
Rp3290
tp3291
a(S'bvert_4MeV_45tilt_5rot_det5.npy'
p3292
F1.3111
F0.0129
F39.3372
F0.2243
F0.8112
F0.0093
g11
(g15
S'\x00\x00\x00\x00\x00\x80[@'
p3293
tp3294
Rp3295
tp3296
a(S'bvert_4MeV_45tilt_5rot_det6.npy'
p3297
F0.936
F0.007
F29.1408
F0.1521
F0.5622
F0.0048
g11
(g15
S'\x00\x00\x00\x00\x00@a@'
p3298
tp3299
Rp3300
tp3301
a(S'bvert_4MeV_45tilt_5rot_det7.npy'
p3302
F0.5632
F0.0055
F25.673
F0.1074
F0.3248
F0.0034
g11
(g15
S'\x00\x00\x00\x00\x00\xe0b@'
p3303
tp3304
Rp3305
tp3306
a(S'bvert_4MeV_45tilt_5rot_det8.npy'
p3307
F0.2662
F0.0031
F25.6235
F0.0857
F0.1465
F0.0019
g11
(g15
S'\x00\x00\x00\x00\x00 d@'
p3308
tp3309
Rp3310
tp3311
a(S'bvert_4MeV_45tilt_5rot_det9.npy'
p3312
F0.0807
F0.0015
F23.8894
F0.0951
F0.0409
F0.0008
g11
(g15
S'\x00\x00\x00\x00\x00\xe0b@'
p3313
tp3314
Rp3315
tp3316
a(S'bvert_4MeV_45tilt_75rot_det10.npy'
p3317
F0.0811
F0.0013
F22.0531
F0.0859
F0.0412
F0.0007
g11
(g15
S'\x00\x00\x00\x00\x00 d@'
p3318
tp3319
Rp3320
tp3321
a(S'bvert_4MeV_45tilt_75rot_det11.npy'
p3322
F0.2588
F0.003
F26.6594
F0.0863
F0.1406
F0.0017
g11
(g15
S'\x00\x00\x00\x00\x00\xa0e@'
p3323
tp3324
Rp3325
tp3326
a(S'bvert_4MeV_45tilt_75rot_det12.npy'
p3327
F0.5472
F0.0053
F26.4415
F0.1073
F0.3138
F0.0036
g11
(g15
S'\x00\x00\x00\x00\x00`c@'
p3328
tp3329
Rp3330
tp3331
a(S'bvert_4MeV_45tilt_75rot_det13.npy'
p3332
F0.9069
F0.008
F31.2616
F0.1347
F0.5462
F0.006
g11
(g15
S'\x00\x00\x00\x00\x00\xc0a@'
p3333
tp3334
Rp3335
tp3336
a(S'bvert_4MeV_45tilt_75rot_det14.npy'
p3337
F1.2596
F0.0108
F40.888
F0.2205
F0.7802
F0.0073
g11
(g15
S'\x00\x00\x00\x00\x00 `@'
p3338
tp3339
Rp3340
tp3341
a(S'bvert_4MeV_45tilt_75rot_det15.npy'
p3342
F1.5433
F0.0195
F64.8109
F0.59
F0.9815
F0.0136
g11
(g15
S'\x00\x00\x00\x00\x00\x00Q@'
p3343
tp3344
Rp3345
tp3346
a(S'bvert_4MeV_45tilt_75rot_det4.npy'
p3347
F1.4766
F0.0138
F61.8894
F0.5271
F0.9449
F0.0101
g11
(g15
S'\x00\x00\x00\x00\x00\x80T@'
p3348
tp3349
Rp3350
tp3351
a(S'bvert_4MeV_45tilt_75rot_det5.npy'
p3352
F1.1834
F0.0101
F38.3763
F0.2126
F0.7421
F0.0072
g11
(g15
S'\x00\x00\x00\x00\x00\xc0Z@'
p3353
tp3354
Rp3355
tp3356
a(S'bvert_4MeV_45tilt_75rot_det6.npy'
p3357
F0.7948
F0.0071
F29.0062
F0.1321
F0.4799
F0.0049
g11
(g15
S'\x00\x00\x00\x00\x00\x00e@'
p3358
tp3359
Rp3360
tp3361
a(S'bvert_4MeV_45tilt_75rot_det7.npy'
p3362
F0.467
F0.0046
F25.4839
F0.1054
F0.2688
F0.0029
g11
(g15
S'\x00\x00\x00\x00\x00\x80`@'
p3363
tp3364
Rp3365
tp3366
a(S'bvert_4MeV_45tilt_75rot_det8.npy'
p3367
F0.229
F0.0024
F25.6805
F0.0858
F0.1233
F0.0016
g11
(g15
S'\x00\x00\x00\x00\x00\xc0c@'
p3368
tp3369
Rp3370
tp3371
a(S'bvert_4MeV_45tilt_75rot_det9.npy'
p3372
F0.0697
F0.0013
F23.9041
F0.0909
F0.0345
F0.0007
g11
(g15
S'\x00\x00\x00\x00\x00\xc0f@'
p3373
tp3374
Rp3375
tp3376
a(S'bvert_4MeV_45tilt_95rot_det10.npy'
p3377
F0.0819
F0.0013
F22.101
F0.0861
F0.0414
F0.0007
g11
(g15
S'\x00\x00\x00\x00\x00\xa0d@'
p3378
tp3379
Rp3380
tp3381
a(S'bvert_4MeV_45tilt_95rot_det11.npy'
p3382
F0.2535
F0.0034
F26.8722
F0.0915
F0.1388
F0.0022
g11
(g15
S'\x00\x00\x00\x00\x00\xe0g@'
p3383
tp3384
Rp3385
tp3386
a(S'bvert_4MeV_45tilt_95rot_det12.npy'
p3387
F0.5505
F0.0057
F26.6572
F0.1018
F0.3163
F0.0036
g11
(g15
S'\x00\x00\x00\x00\x00 c@'
p3388
tp3389
Rp3390
tp3391
a(S'bvert_4MeV_45tilt_95rot_det13.npy'
p3392
F0.9329
F0.0083
F31.662
F0.1181
F0.5568
F0.0054
g11
(g15
S'\x00\x00\x00\x00\x00\xa0b@'
p3393
tp3394
Rp3395
tp3396
a(S'bvert_4MeV_45tilt_95rot_det14.npy'
p3397
F1.3027
F0.0146
F41.3385
F0.1993
F0.8038
F0.0097
g11
(g15
S'\x00\x00\x00\x00\x00@\\@'
p3398
tp3399
Rp3400
tp3401
a(S'bvert_4MeV_45tilt_95rot_det15.npy'
p3402
F1.6632
F0.0147
F64.598
F0.5488
F1.0471
F0.0101
g11
(g15
S'\x00\x00\x00\x00\x00\x80U@'
p3403
tp3404
Rp3405
tp3406
a(S'bvert_4MeV_45tilt_95rot_det4.npy'
p3407
F1.4725
F0.0164
F61.8003
F0.5004
F0.9354
F0.0111
g11
(g15
S'\x00\x00\x00\x00\x00\x00X@'
p3408
tp3409
Rp3410
tp3411
a(S'bvert_4MeV_45tilt_95rot_det5.npy'
p3412
F1.154
F0.0104
F38.6002
F0.2017
F0.7192
F0.0074
g11
(g15
S'\x00\x00\x00\x00\x00 b@'
p3413
tp3414
Rp3415
tp3416
a(S'bvert_4MeV_45tilt_95rot_det6.npy'
p3417
F0.7877
F0.007
F28.7399
F0.1224
F0.474
F0.0047
g11
(g15
S'\x00\x00\x00\x00\x00@f@'
p3418
tp3419
Rp3420
tp3421
a(S'bvert_4MeV_45tilt_95rot_det7.npy'
p3422
F0.4625
F0.0041
F25.4096
F0.0995
F0.2643
F0.0027
g11
(g15
S'\x00\x00\x00\x00\x00\xc0e@'
p3423
tp3424
Rp3425
tp3426
a(S'bvert_4MeV_45tilt_95rot_det8.npy'
p3427
F0.2209
F0.0026
F25.5876
F0.0959
F0.1176
F0.0015
g11
(g15
S'\x00\x00\x00\x00\x00 c@'
p3428
tp3429
Rp3430
tp3431
a(S'bvert_4MeV_45tilt_95rot_det9.npy'
p3432
F0.0683
F0.0013
F23.8425
F0.1093
F0.0334
F0.0007
g11
(g15
S'\x00\x00\x00\x00\x00``@'
p3433
tp3434
Rp3435
tp3436
a(S'bvert_4MeV_neg15tilt_115rot_det10.npy'
p3437
F0.071
F0.0012
F22.2028
F0.0867
F0.0352
F0.0006
g11
(g15
S'\x00\x00\x00\x00\x00\xe0d@'
p3438
tp3439
Rp3440
tp3441
a(S'bvert_4MeV_neg15tilt_115rot_det11.npy'
p3442
F0.2341
F0.0028
F26.7942
F0.0814
F0.1283
F0.0016
g11
(g15
S'\x00\x00\x00\x00\x00\x00h@'
p3443
tp3444
Rp3445
tp3446
a(S'bvert_4MeV_neg15tilt_115rot_det12.npy'
p3447
F0.5229
F0.0052
F26.5449
F0.0907
F0.3049
F0.0033
g11
(g15
S'\x00\x00\x00\x00\x00\x80e@'
p3448
tp3449
Rp3450
tp3451
a(S'bvert_4MeV_neg15tilt_115rot_det13.npy'
p3452
F0.9165
F0.0073
F31.4921
F0.1242
F0.556
F0.005
g11
(g15
S'\x00\x00\x00\x00\x00\xc0d@'
p3453
tp3454
Rp3455
tp3456
a(S'bvert_4MeV_neg15tilt_115rot_det14.npy'
p3457
F1.3192
F0.011
F41.0577
F0.193
F0.8155
F0.0074
g11
(g15
S'\x00\x00\x00\x00\x00\xe0b@'
p3458
tp3459
Rp3460
tp3461
a(S'bvert_4MeV_neg15tilt_115rot_det15.npy'
p3462
F1.7391
F0.0146
F64.5593
F0.5468
F1.0969
F0.0103
g11
(g15
S'\x00\x00\x00\x00\x00\x80R@'
p3463
tp3464
Rp3465
tp3466
a(S'bvert_4MeV_neg15tilt_115rot_det4.npy'
p3467
F1.4906
F0.0144
F62.9324
F0.5202
F0.955
F0.0102
g11
(g15
S'\x00\x00\x00\x00\x00\x00V@'
p3468
tp3469
Rp3470
tp3471
a(S'bvert_4MeV_neg15tilt_115rot_det5.npy'
p3472
F1.1479
F0.0104
F38.6826
F0.228
F0.7185
F0.0072
g11
(g15
S'\x00\x00\x00\x00\x00\x80Y@'
p3473
tp3474
Rp3475
tp3476
a(S'bvert_4MeV_neg15tilt_115rot_det6.npy'
p3477
F0.7394
F0.0073
F29.1544
F0.1487
F0.4472
F0.0048
g11
(g15
S'\x00\x00\x00\x00\x00`b@'
p3478
tp3479
Rp3480
tp3481
a(S'bvert_4MeV_neg15tilt_115rot_det7.npy'
p3482
F0.4221
F0.0047
F25.4424
F0.1018
F0.2416
F0.0029
g11
(g15
S'\x00\x00\x00\x00\x00\xe0f@'
p3483
tp3484
Rp3485
tp3486
a(S'bvert_4MeV_neg15tilt_115rot_det8.npy'
p3487
F0.1975
F0.0022
F25.5411
F0.0764
F0.1052
F0.0013
g11
(g15
S'\x00\x00\x00\x00\x00`e@'
p3488
tp3489
Rp3490
tp3491
a(S'bvert_4MeV_neg15tilt_115rot_det9.npy'
p3492
F0.0596
F0.001
F23.8897
F0.1008
F0.0287
F0.0005
g11
(g15
S'\x00\x00\x00\x00\x00\xc0d@'
p3493
tp3494
Rp3495
tp3496
a(S'bvert_4MeV_neg15tilt_135rot_det10.npy'
p3497
F0.0682
F0.0016
F22.2441
F0.0892
F0.0339
F0.0009
g11
(g15
S'\x00\x00\x00\x00\x00@d@'
p3498
tp3499
Rp3500
tp3501
a(S'bvert_4MeV_neg15tilt_135rot_det11.npy'
p3502
F0.2158
F0.003
F26.7
F0.0933
F0.1168
F0.0018
g11
(g15
S'\x00\x00\x00\x00\x00\xa0e@'
p3503
tp3504
Rp3505
tp3506
a(S'bvert_4MeV_neg15tilt_135rot_det12.npy'
p3507
F0.4839
F0.0047
F26.6137
F0.1035
F0.2821
F0.003
g11
(g15
S'\x00\x00\x00\x00\x00@c@'
p3508
tp3509
Rp3510
tp3511
a(S'bvert_4MeV_neg15tilt_135rot_det13.npy'
p3512
F0.8458
F0.0065
F31.7129
F0.1183
F0.5174
F0.0044
g11
(g15
S'\x00\x00\x00\x00\x00\xc0d@'
p3513
tp3514
Rp3515
tp3516
a(S'bvert_4MeV_neg15tilt_135rot_det14.npy'
p3517
F1.2865
F0.0123
F41.1635
F0.2399
F0.8083
F0.009
g11
(g15
S'\x00\x00\x00\x00\x00\x00Z@'
p3518
tp3519
Rp3520
tp3521
a(S'bvert_4MeV_neg15tilt_135rot_det15.npy'
p3522
F1.6047
F0.0204
F65.515
F0.4803
F1.021
F0.0136
g11
(g15
S'\x00\x00\x00\x00\x00@T@'
p3523
tp3524
Rp3525
tp3526
a(S'bvert_4MeV_neg15tilt_135rot_det4.npy'
p3527
F1.6388
F0.0137
F62.8603
F0.4426
F1.0329
F0.0093
g11
(g15
S'\x00\x00\x00\x00\x00@X@'
p3528
tp3529
Rp3530
tp3531
a(S'bvert_4MeV_neg15tilt_135rot_det5.npy'
p3532
F1.2206
F0.0102
F39.0987
F0.2125
F0.7642
F0.0071
g11
(g15
S'\x00\x00\x00\x00\x00\x80a@'
p3533
tp3534
Rp3535
tp3536
a(S'bvert_4MeV_neg15tilt_135rot_det6.npy'
p3537
F0.8263
F0.0063
F28.925
F0.131
F0.4997
F0.0044
g11
(g15
S'\x00\x00\x00\x00\x00\x00e@'
p3538
tp3539
Rp3540
tp3541
a(S'bvert_4MeV_neg15tilt_135rot_det7.npy'
p3542
F0.4556
F0.0043
F25.5088
F0.0932
F0.2622
F0.0027
g11
(g15
S'\x00\x00\x00\x00\x00\xa0h@'
p3543
tp3544
Rp3545
tp3546
a(S'bvert_4MeV_neg15tilt_135rot_det8.npy'
p3547
F0.204
F0.0026
F25.7354
F0.081
F0.1105
F0.0016
g11
(g15
S'\x00\x00\x00\x00\x00@f@'
p3548
tp3549
Rp3550
tp3551
a(S'bvert_4MeV_neg15tilt_135rot_det9.npy'
p3552
F0.0596
F0.0011
F24.0242
F0.0943
F0.0288
F0.0006
g11
(g15
S'\x00\x00\x00\x00\x00\xa0d@'
p3553
tp3554
Rp3555
tp3556
a(S'bvert_4MeV_neg15tilt_15rot_det10.npy'
p3557
F0.0648
F0.0012
F22.171
F0.1045
F0.0319
F0.0007
g11
(g15
S'\x00\x00\x00\x00\x00`b@'
p3558
tp3559
Rp3560
tp3561
a(S'bvert_4MeV_neg15tilt_15rot_det11.npy'
p3562
F0.2059
F0.0024
F26.6476
F0.0905
F0.1108
F0.0014
g11
(g15
S'\x00\x00\x00\x00\x00\x80d@'
p3563
tp3564
Rp3565
tp3566
a(S'bvert_4MeV_neg15tilt_15rot_det12.npy'
p3567
F0.4328
F0.0039
F26.4421
F0.097
F0.2478
F0.0024
g11
(g15
S'\x00\x00\x00\x00\x00\xe0e@'
p3568
tp3569
Rp3570
tp3571
a(S'bvert_4MeV_neg15tilt_15rot_det13.npy'
p3572
F0.7131
F0.0057
F31.7675
F0.1131
F0.4318
F0.0039
g11
(g15
S'\x00\x00\x00\x00\x00@h@'
p3573
tp3574
Rp3575
tp3576
a(S'bvert_4MeV_neg15tilt_15rot_det14.npy'
p3577
F1.0409
F0.0085
F41.1678
F0.2117
F0.6504
F0.0058
g11
(g15
S'\x00\x00\x00\x00\x00\x80b@'
p3578
tp3579
Rp3580
tp3581
a(S'bvert_4MeV_neg15tilt_15rot_det15.npy'
p3582
F1.336
F0.0182
F65.1004
F0.5814
F0.8584
F0.0132
g11
(g15
S'\x00\x00\x00\x00\x00@R@'
p3583
tp3584
Rp3585
tp3586
a(S'bvert_4MeV_neg15tilt_15rot_det4.npy'
p3587
F1.5213
F0.0182
F63.4198
F0.4678
F0.9816
F0.0131
g11
(g15
S'\x00\x00\x00\x00\x00\x80V@'
p3588
tp3589
Rp3590
tp3591
a(S'bvert_4MeV_neg15tilt_15rot_det5.npy'
p3592
F1.2533
F0.0113
F39.086
F0.2054
F0.7908
F0.008
g11
(g15
S'\x00\x00\x00\x00\x00@_@'
p3593
tp3594
Rp3595
tp3596
a(S'bvert_4MeV_neg15tilt_15rot_det6.npy'
p3597
F0.9162
F0.0069
F28.9376
F0.1389
F0.5548
F0.0045
g11
(g15
S'\x00\x00\x00\x00\x00\x00e@'
p3598
tp3599
Rp3600
tp3601
a(S'bvert_4MeV_neg15tilt_15rot_det7.npy'
p3602
F0.5431
F0.0045
F25.3225
F0.0986
F0.3135
F0.003
g11
(g15
S'\x00\x00\x00\x00\x00\xc0g@'
p3603
tp3604
Rp3605
tp3606
a(S'bvert_4MeV_neg15tilt_15rot_det8.npy'
p3607
F0.2634
F0.0029
F25.544
F0.0853
F0.1443
F0.0017
g11
(g15
S'\x00\x00\x00\x00\x00 e@'
p3608
tp3609
Rp3610
tp3611
a(S'bvert_4MeV_neg15tilt_15rot_det9.npy'
p3612
F0.0789
F0.0015
F23.6656
F0.0981
F0.0406
F0.0008
g11
(g15
S'\x00\x00\x00\x00\x00 d@'
p3613
tp3614
Rp3615
tp3616
a(S'bvert_4MeV_neg15tilt_25rot_det10.npy'
p3617
F0.0682
F0.0012
F22.1204
F0.087
F0.0343
F0.0006
g11
(g15
S'\x00\x00\x00\x00\x00 c@'
p3618
tp3619
Rp3620
tp3621
a(S'bvert_4MeV_neg15tilt_25rot_det11.npy'
p3622
F0.216
F0.0026
F26.6448
F0.0982
F0.1177
F0.0015
g11
(g15
S'\x00\x00\x00\x00\x00\x00d@'
p3623
tp3624
Rp3625
tp3626
a(S'bvert_4MeV_neg15tilt_25rot_det12.npy'
p3627
F0.4406
F0.0046
F26.639
F0.1088
F0.255
F0.003
g11
(g15
S'\x00\x00\x00\x00\x00`d@'
p3628
tp3629
Rp3630
tp3631
a(S'bvert_4MeV_neg15tilt_25rot_det13.npy'
p3632
F0.7277
F0.0058
F31.6568
F0.1106
F0.4394
F0.0039
g11
(g15
S'\x00\x00\x00\x00\x00\xe0f@'
p3633
tp3634
Rp3635
tp3636
a(S'bvert_4MeV_neg15tilt_25rot_det14.npy'
p3637
F1.0312
F0.0087
F41.0839
F0.1848
F0.6423
F0.006
g11
(g15
S'\x00\x00\x00\x00\x00\x00b@'
p3638
tp3639
Rp3640
tp3641
a(S'bvert_4MeV_neg15tilt_25rot_det15.npy'
p3642
F1.3049
F0.0149
F65.3971
F0.5232
F0.8339
F0.0106
g11
(g15
S'\x00\x00\x00\x00\x00\x00V@'
p3643
tp3644
Rp3645
tp3646
a(S'bvert_4MeV_neg15tilt_25rot_det4.npy'
p3647
F1.5021
F0.0157
F61.9895
F0.5062
F0.9724
F0.0111
g11
(g15
S'\x00\x00\x00\x00\x00\x80Q@'
p3648
tp3649
Rp3650
tp3651
a(S'bvert_4MeV_neg15tilt_25rot_det5.npy'
p3652
F1.2068
F0.0116
F38.8688
F0.1974
F0.7626
F0.0082
g11
(g15
S'\x00\x00\x00\x00\x00 `@'
p3653
tp3654
Rp3655
tp3656
a(S'bvert_4MeV_neg15tilt_25rot_det6.npy'
p3657
F0.8674
F0.0079
F28.9059
F0.1597
F0.5277
F0.0054
g11
(g15
S'\x00\x00\x00\x00\x00`a@'
p3658
tp3659
Rp3660
tp3661
a(S'bvert_4MeV_neg15tilt_25rot_det7.npy'
p3662
F0.524
F0.0051
F25.526
F0.0986
F0.3048
F0.0032
g11
(g15
S'\x00\x00\x00\x00\x00\x00h@'
p3663
tp3664
Rp3665
tp3666
a(S'bvert_4MeV_neg15tilt_25rot_det8.npy'
p3667
F0.2558
F0.0029
F25.6286
F0.0919
F0.14
F0.0017
g11
(g15
S'\x00\x00\x00\x00\x00\x80e@'
p3668
tp3669
Rp3670
tp3671
a(S'bvert_4MeV_neg15tilt_25rot_det9.npy'
p3672
F0.0809
F0.0014
F23.6881
F0.0928
F0.0413
F0.0008
g11
(g15
S'\x00\x00\x00\x00\x00\x00d@'
p3673
tp3674
Rp3675
tp3676
a(S'bvert_4MeV_neg15tilt_315rot_det10.npy'
p3677
F0.0651
F0.0012
F22.3429
F0.0847
F0.0323
F0.0007
g11
(g15
S'\x00\x00\x00\x00\x00@a@'
p3678
tp3679
Rp3680
tp3681
a(S'bvert_4MeV_neg15tilt_315rot_det11.npy'
p3682
F0.2163
F0.0029
F26.6535
F0.1049
F0.1176
F0.0017
g11
(g15
S'\x00\x00\x00\x00\x00`f@'
p3683
tp3684
Rp3685
tp3686
a(S'bvert_4MeV_neg15tilt_315rot_det12.npy'
p3687
F0.4857
F0.0047
F26.493
F0.0982
F0.2847
F0.0031
g11
(g15
S'\x00\x00\x00\x00\x00\xa0d@'
p3688
tp3689
Rp3690
tp3691
a(S'bvert_4MeV_neg15tilt_315rot_det13.npy'
p3692
F0.8371
F0.0068
F31.7536
F0.1319
F0.5088
F0.0047
g11
(g15
S'\x00\x00\x00\x00\x00\x80a@'
p3693
tp3694
Rp3695
tp3696
a(S'bvert_4MeV_neg15tilt_315rot_det14.npy'
p3697
F1.2701
F0.0104
F41.374
F0.2185
F0.7964
F0.0073
g11
(g15
S'\x00\x00\x00\x00\x00\xc0]@'
p3698
tp3699
Rp3700
tp3701
a(S'bvert_4MeV_neg15tilt_315rot_det15.npy'
p3702
F1.6536
F0.0184
F64.9731
F0.5475
F1.049
F0.0128
g11
(g15
S'\x00\x00\x00\x00\x00\xc0P@'
p3703
tp3704
Rp3705
tp3706
a(S'bvert_4MeV_neg15tilt_315rot_det4.npy'
p3707
F1.6366
F0.0168
F63.336
F0.5593
F1.0323
F0.0122
g11
(g15
S'\x00\x00\x00\x00\x00\xc0R@'
p3708
tp3709
Rp3710
tp3711
a(S'bvert_4MeV_neg15tilt_315rot_det5.npy'
p3712
F1.2353
F0.0126
F39.1273
F0.2108
F0.7669
F0.0087
g11
(g15
S'\x00\x00\x00\x00\x00\x00_@'
p3713
tp3714
Rp3715
tp3716
a(S'bvert_4MeV_neg15tilt_315rot_det6.npy'
p3717
F0.8245
F0.0072
F29.1297
F0.1461
F0.5008
F0.0048
g11
(g15
S'\x00\x00\x00\x00\x00`a@'
p3718
tp3719
Rp3720
tp3721
a(S'bvert_4MeV_neg15tilt_315rot_det7.npy'
p3722
F0.4675
F0.004
F25.4419
F0.0971
F0.2698
F0.0026
g11
(g15
S'\x00\x00\x00\x00\x00\xc0f@'
p3723
tp3724
Rp3725
tp3726
a(S'bvert_4MeV_neg15tilt_315rot_det8.npy'
p3727
F0.2068
F0.0027
F25.8144
F0.0979
F0.1119
F0.0016
g11
(g15
S'\x00\x00\x00\x00\x00`c@'
p3728
tp3729
Rp3730
tp3731
a(S'bvert_4MeV_neg15tilt_315rot_det9.npy'
p3732
F0.0639
F0.0011
F23.6704
F0.0879
F0.031
F0.0006
g11
(g15
S'\x00\x00\x00\x00\x00\xc0d@'
p3733
tp3734
Rp3735
tp3736
a(S'bvert_4MeV_neg15tilt_335rot_det10.npy'
p3737
F0.0629
F0.0009
F22.2139
F0.0738
F0.0303
F0.0005
g11
(g15
S'\x00\x00\x00\x00\x00\xc0i@'
p3738
tp3739
Rp3740
tp3741
a(S'bvert_4MeV_neg15tilt_335rot_det11.npy'
p3742
F0.1989
F0.0027
F26.572
F0.0795
F0.107
F0.0016
g11
(g15
S'\x00\x00\x00\x00\x00\xe0j@'
p3743
tp3744
Rp3745
tp3746
a(S'bvert_4MeV_neg15tilt_335rot_det12.npy'
p3747
F0.4481
F0.0037
F26.7774
F0.0888
F0.2586
F0.0024
g11
(g15
S'\x00\x00\x00\x00\x00\xe0m@'
p3748
tp3749
Rp3750
tp3751
a(S'bvert_4MeV_neg15tilt_335rot_det13.npy'
p3752
F0.7904
F0.0055
F31.5922
F0.1134
F0.4823
F0.0036
g11
(g15
S'\x00\x00\x00\x00\x00\xe0i@'
p3753
tp3754
Rp3755
tp3756
a(S'bvert_4MeV_neg15tilt_335rot_det14.npy'
p3757
F1.1661
F0.0104
F41.1857
F0.1972
F0.735
F0.0074
g11
(g15
S'\x00\x00\x00\x00\x00\xc0c@'
p3758
tp3759
Rp3760
tp3761
a(S'bvert_4MeV_neg15tilt_335rot_det15.npy'
p3762
F1.5235
F0.0174
F64.7962
F0.531
F0.9768
F0.0118
g11
(g15
S'\x00\x00\x00\x00\x00\x80T@'
p3763
tp3764
Rp3765
tp3766
a(S'bvert_4MeV_neg15tilt_335rot_det4.npy'
p3767
F1.6818
F0.0166
F63.6666
F0.4493
F1.0523
F0.0117
g11
(g15
S'\x00\x00\x00\x00\x00\x80[@'
p3768
tp3769
Rp3770
tp3771
a(S'bvert_4MeV_neg15tilt_335rot_det5.npy'
p3772
F1.3071
F0.0109
F38.977
F0.1827
F0.8044
F0.0077
g11
(g15
S'\x00\x00\x00\x00\x00 b@'
p3773
tp3774
Rp3775
tp3776
a(S'bvert_4MeV_neg15tilt_335rot_det6.npy'
p3777
F0.8882
F0.0072
F29.0717
F0.1171
F0.5361
F0.005
g11
(g15
S'\x00\x00\x00\x00\x00\xc0i@'
p3778
tp3779
Rp3780
tp3781
a(S'bvert_4MeV_neg15tilt_335rot_det7.npy'
p3782
F0.5011
F0.0049
F25.5784
F0.0954
F0.2909
F0.0031
g11
(g15
S'\x00\x00\x00\x00\x00@j@'
p3783
tp3784
Rp3785
tp3786
a(S'bvert_4MeV_neg15tilt_335rot_det8.npy'
p3787
F0.2283
F0.0028
F25.7742
F0.0845
F0.1247
F0.0016
g11
(g15
S'\x00\x00\x00\x00\x00 h@'
p3788
tp3789
Rp3790
tp3791
a(S'bvert_4MeV_neg15tilt_335rot_det9.npy'
p3792
F0.0666
F0.0012
F23.7562
F0.0801
F0.0338
F0.0006
g11
(g15
S'\x00\x00\x00\x00\x00\x80j@'
p3793
tp3794
Rp3795
tp3796
a(S'bvert_4MeV_neg15tilt_345rot_det10.npy'
p3797
F0.0622
F0.0012
F22.3088
F0.0807
F0.0303
F0.0006
g11
(g15
S'\x00\x00\x00\x00\x00@d@'
p3798
tp3799
Rp3800
tp3801
a(S'bvert_4MeV_neg15tilt_345rot_det11.npy'
p3802
F0.1941
F0.0024
F26.7213
F0.0868
F0.1032
F0.0014
g11
(g15
S'\x00\x00\x00\x00\x00\xa0h@'
p3803
tp3804
Rp3805
tp3806
a(S'bvert_4MeV_neg15tilt_345rot_det12.npy'
p3807
F0.437
F0.0041
F26.6266
F0.0875
F0.2514
F0.0027
g11
(g15
S'\x00\x00\x00\x00\x00 g@'
p3808
tp3809
Rp3810
tp3811
a(S'bvert_4MeV_neg15tilt_345rot_det13.npy'
p3812
F0.7626
F0.0062
F31.485
F0.1135
F0.4625
F0.0043
g11
(g15
S'\x00\x00\x00\x00\x00\x80g@'
p3813
tp3814
Rp3815
tp3816
a(S'bvert_4MeV_neg15tilt_345rot_det14.npy'
p3817
F1.1386
F0.009
F41.0024
F0.2133
F0.7185
F0.0066
g11
(g15
S'\x00\x00\x00\x00\x00 `@'
p3818
tp3819
Rp3820
tp3821
a(S'bvert_4MeV_neg15tilt_345rot_det15.npy'
p3822
F1.4614
F0.0184
F65.4953
F0.4733
F0.9354
F0.0128
g11
(g15
S'\x00\x00\x00\x00\x00@V@'
p3823
tp3824
Rp3825
tp3826
a(S'bvert_4MeV_neg15tilt_345rot_det4.npy'
p3827
F1.6667
F0.0175
F63.6771
F0.4859
F1.0506
F0.0118
g11
(g15
S'\x00\x00\x00\x00\x00\x00U@'
p3828
tp3829
Rp3830
tp3831
a(S'bvert_4MeV_neg15tilt_345rot_det5.npy'
p3832
F1.3677
F0.0104
F38.7898
F0.1938
F0.8444
F0.0071
g11
(g15
S'\x00\x00\x00\x00\x00\xe0a@'
p3833
tp3834
Rp3835
tp3836
a(S'bvert_4MeV_neg15tilt_345rot_det6.npy'
p3837
F0.9276
F0.0064
F28.9167
F0.1389
F0.5524
F0.0042
g11
(g15
S'\x00\x00\x00\x00\x00\x00b@'
p3838
tp3839
Rp3840
tp3841
a(S'bvert_4MeV_neg15tilt_345rot_det7.npy'
p3842
F0.5296
F0.0049
F25.2903
F0.0896
F0.3042
F0.0031
g11
(g15
S'\x00\x00\x00\x00\x00\x80g@'
p3843
tp3844
Rp3845
tp3846
a(S'bvert_4MeV_neg15tilt_345rot_det8.npy'
p3847
F0.2435
F0.0029
F25.7669
F0.0866
F0.1324
F0.0017
g11
(g15
S'\x00\x00\x00\x00\x00\x00d@'
p3848
tp3849
Rp3850
tp3851
a(S'bvert_4MeV_neg15tilt_345rot_det9.npy'
p3852
F0.0707
F0.0014
F23.7547
F0.0896
F0.0359
F0.0007
g11
(g15
S'\x00\x00\x00\x00\x00\xa0c@'
p3853
tp3854
Rp3855
tp3856
a(S'bvert_4MeV_neg15tilt_355rot_det10.npy'
p3857
F0.0647
F0.001
F22.3276
F0.0844
F0.0316
F0.0005
g11
(g15
S'\x00\x00\x00\x00\x00\xa0e@'
p3858
tp3859
Rp3860
tp3861
a(S'bvert_4MeV_neg15tilt_355rot_det11.npy'
p3862
F0.196
F0.0022
F26.7651
F0.0935
F0.1049
F0.0013
g11
(g15
S'\x00\x00\x00\x00\x00`f@'
p3863
tp3864
Rp3865
tp3866
a(S'bvert_4MeV_neg15tilt_355rot_det12.npy'
p3867
F0.4251
F0.0043
F26.831
F0.0991
F0.2431
F0.0028
g11
(g15
S'\x00\x00\x00\x00\x00\xc0d@'
p3868
tp3869
Rp3870
tp3871
a(S'bvert_4MeV_neg15tilt_355rot_det13.npy'
p3872
F0.7309
F0.0059
F31.5741
F0.1205
F0.4412
F0.004
g11
(g15
S'\x00\x00\x00\x00\x00\xe0e@'
p3873
tp3874
Rp3875
tp3876
a(S'bvert_4MeV_neg15tilt_355rot_det14.npy'
p3877
F1.1291
F0.0089
F41.1633
F0.2224
F0.7127
F0.0066
g11
(g15
S'\x00\x00\x00\x00\x00\x80\\@'
p3878
tp3879
Rp3880
tp3881
a(S'bvert_4MeV_neg15tilt_355rot_det15.npy'
p3882
F1.4456
F0.014
F65.5943
F0.5477
F0.932
F0.01
g11
(g15
S'\x00\x00\x00\x00\x00\x80T@'
p3883
tp3884
Rp3885
tp3886
a(S'bvert_4MeV_neg15tilt_355rot_det4.npy'
p3887
F1.6823
F0.0151
F62.5235
F0.5106
F1.0722
F0.0115
g11
(g15
S'\x00\x00\x00\x00\x00\xc0P@'
p3888
tp3889
Rp3890
tp3891
a(S'bvert_4MeV_neg15tilt_355rot_det5.npy'
p3892
F1.3193
F0.0104
F38.7444
F0.2034
F0.8193
F0.0072
g11
(g15
S'\x00\x00\x00\x00\x00\xe0a@'
p3893
tp3894
Rp3895
tp3896
a(S'bvert_4MeV_neg15tilt_355rot_det6.npy'
p3897
F0.9317
F0.0089
F29.0897
F0.149
F0.5566
F0.0061
g11
(g15
S'\x00\x00\x00\x00\x00\xc0b@'
p3898
tp3899
Rp3900
tp3901
a(S'bvert_4MeV_neg15tilt_355rot_det7.npy'
p3902
F0.5465
F0.0054
F25.3789
F0.0938
F0.3139
F0.0034
g11
(g15
S'\x00\x00\x00\x00\x00@d@'
p3903
tp3904
Rp3905
tp3906
a(S'bvert_4MeV_neg15tilt_355rot_det8.npy'
p3907
F0.2508
F0.0032
F25.6
F0.0936
F0.1371
F0.0019
g11
(g15
S'\x00\x00\x00\x00\x00\x00c@'
p3908
tp3909
Rp3910
tp3911
a(S'bvert_4MeV_neg15tilt_355rot_det9.npy'
p3912
F0.0735
F0.0012
F23.6977
F0.0953
F0.038
F0.0007
g11
(g15
S'\x00\x00\x00\x00\x00\x00d@'
p3913
tp3914
Rp3915
tp3916
a(S'bvert_4MeV_neg15tilt_35rot_det10.npy'
p3917
F0.0727
F0.0013
F22.1966
F0.0846
F0.0372
F0.0007
g11
(g15
S'\x00\x00\x00\x00\x00 d@'
p3918
tp3919
Rp3920
tp3921
a(S'bvert_4MeV_neg15tilt_35rot_det11.npy'
p3922
F0.2231
F0.0027
F26.5419
F0.0986
F0.1222
F0.0016
g11
(g15
S'\x00\x00\x00\x00\x00\xe0e@'
p3923
tp3924
Rp3925
tp3926
a(S'bvert_4MeV_neg15tilt_35rot_det12.npy'
p3927
F0.4715
F0.0042
F26.5632
F0.0975
F0.2732
F0.0027
g11
(g15
S'\x00\x00\x00\x00\x00@g@'
p3928
tp3929
Rp3930
tp3931
a(S'bvert_4MeV_neg15tilt_35rot_det13.npy'
p3932
F0.7528
F0.0065
F31.4421
F0.1274
F0.4557
F0.0044
g11
(g15
S'\x00\x00\x00\x00\x00 e@'
p3933
tp3934
Rp3935
tp3936
a(S'bvert_4MeV_neg15tilt_35rot_det14.npy'
p3937
F1.0508
F0.0088
F41.2963
F0.2006
F0.6572
F0.0062
g11
(g15
S'\x00\x00\x00\x00\x00\x00c@'
p3938
tp3939
Rp3940
tp3941
a(S'bvert_4MeV_neg15tilt_35rot_det15.npy'
p3942
F1.3403
F0.0135
F64.9073
F0.5343
F0.8529
F0.0096
g11
(g15
S'\x00\x00\x00\x00\x00\x00V@'
p3943
tp3944
Rp3945
tp3946
a(S'bvert_4MeV_neg15tilt_35rot_det4.npy'
p3947
F1.4709
F0.014
F63.0247
F0.556
F0.955
F0.01
g11
(g15
S'\x00\x00\x00\x00\x00@R@'
p3948
tp3949
Rp3950
tp3951
a(S'bvert_4MeV_neg15tilt_35rot_det5.npy'
p3952
F1.1885
F0.0089
F38.8765
F0.2073
F0.7538
F0.0065
g11
(g15
S'\x00\x00\x00\x00\x00\x00^@'
p3953
tp3954
Rp3955
tp3956
a(S'bvert_4MeV_neg15tilt_35rot_det6.npy'
p3957
F0.8554
F0.0061
F28.9587
F0.1454
F0.5243
F0.0043
g11
(g15
S'\x00\x00\x00\x00\x00\x80b@'
p3958
tp3959
Rp3960
tp3961
a(S'bvert_4MeV_neg15tilt_35rot_det7.npy'
p3962
F0.5171
F0.0043
F25.4076
F0.1029
F0.3013
F0.0029
g11
(g15
S'\x00\x00\x00\x00\x00@f@'
p3963
tp3964
Rp3965
tp3966
a(S'bvert_4MeV_neg15tilt_35rot_det8.npy'
p3967
F0.2494
F0.0031
F25.7485
F0.0953
F0.1364
F0.0019
g11
(g15
S'\x00\x00\x00\x00\x00\xa0`@'
p3968
tp3969
Rp3970
tp3971
a(S'bvert_4MeV_neg15tilt_35rot_det9.npy'
p3972
F0.0809
F0.0012
F23.6226
F0.0806
F0.0414
F0.0007
g11
(g15
S'\x00\x00\x00\x00\x00\xe0f@'
p3973
tp3974
Rp3975
tp3976
a(S'bvert_4MeV_neg15tilt_45rot_det10.npy'
p3977
F0.0779
F0.0013
F21.9719
F0.0908
F0.04
F0.0007
g11
(g15
S'\x00\x00\x00\x00\x00\xe0b@'
p3978
tp3979
Rp3980
tp3981
a(S'bvert_4MeV_neg15tilt_45rot_det11.npy'
p3982
F0.2362
F0.0026
F26.6328
F0.0856
F0.1288
F0.0016
g11
(g15
S'\x00\x00\x00\x00\x00\x80e@'
p3983
tp3984
Rp3985
tp3986
a(S'bvert_4MeV_neg15tilt_45rot_det12.npy'
p3987
F0.4879
F0.0042
F26.6336
F0.0951
F0.2842
F0.0028
g11
(g15
S'\x00\x00\x00\x00\x00 g@'
p3988
tp3989
Rp3990
tp3991
a(S'bvert_4MeV_neg15tilt_45rot_det13.npy'
p3992
F0.8077
F0.0059
F31.2155
F0.1277
F0.4919
F0.0041
g11
(g15
S'\x00\x00\x00\x00\x00\x80b@'
p3993
tp3994
Rp3995
tp3996
a(S'bvert_4MeV_neg15tilt_45rot_det14.npy'
p3997
F1.0905
F0.0097
F41.4281
F0.2339
F0.6809
F0.0068
g11
(g15
S'\x00\x00\x00\x00\x00\x80Z@'
p3998
tp3999
Rp4000
tp4001
a(S'bvert_4MeV_neg15tilt_45rot_det15.npy'
p4002
F1.3488
F0.0138
F65.2281
F0.5529
F0.863
F0.01
g11
(g15
S'\x00\x00\x00\x00\x00@T@'
p4003
tp4004
Rp4005
tp4006
a(S'bvert_4MeV_neg15tilt_45rot_det4.npy'
p4007
F1.404
F0.014
F62.5573
F0.4348
F0.9015
F0.0102
g11
(g15
S'\x00\x00\x00\x00\x00\x00Y@'
p4008
tp4009
Rp4010
tp4011
a(S'bvert_4MeV_neg15tilt_45rot_det5.npy'
p4012
F1.1483
F0.0095
F38.6532
F0.2208
F0.7253
F0.0065
g11
(g15
S'\x00\x00\x00\x00\x00\xc0^@'
p4013
tp4014
Rp4015
tp4016
a(S'bvert_4MeV_neg15tilt_45rot_det6.npy'
p4017
F0.8079
F0.0075
F29.1244
F0.1484
F0.494
F0.0053
g11
(g15
S'\x00\x00\x00\x00\x00 c@'
p4018
tp4019
Rp4020
tp4021
a(S'bvert_4MeV_neg15tilt_45rot_det7.npy'
p4022
F0.4953
F0.0051
F25.5854
F0.1057
F0.2883
F0.0033
g11
(g15
S'\x00\x00\x00\x00\x00 f@'
p4023
tp4024
Rp4025
tp4026
a(S'bvert_4MeV_neg15tilt_45rot_det8.npy'
p4027
F0.2463
F0.0025
F25.6698
F0.082
F0.1357
F0.0015
g11
(g15
S'\x00\x00\x00\x00\x00@e@'
p4028
tp4029
Rp4030
tp4031
a(S'bvert_4MeV_neg15tilt_45rot_det9.npy'
p4032
F0.0785
F0.0013
F23.5996
F0.0812
F0.0406
F0.0007
g11
(g15
S'\x00\x00\x00\x00\x00\x00e@'
p4033
tp4034
Rp4035
tp4036
a(S'bvert_4MeV_neg15tilt_55rot_det10.npy'
p4037
F0.0816
F0.0013
F21.9649
F0.0877
F0.042
F0.0007
g11
(g15
S'\x00\x00\x00\x00\x00 d@'
p4038
tp4039
Rp4040
tp4041
a(S'bvert_4MeV_neg15tilt_55rot_det11.npy'
p4042
F0.2436
F0.0027
F26.6035
F0.0949
F0.1336
F0.0017
g11
(g15
S'\x00\x00\x00\x00\x00\x80e@'
p4043
tp4044
Rp4045
tp4046
a(S'bvert_4MeV_neg15tilt_55rot_det12.npy'
p4047
F0.5123
F0.0041
F26.4955
F0.0987
F0.2983
F0.0027
g11
(g15
S'\x00\x00\x00\x00\x00`g@'
p4048
tp4049
Rp4050
tp4051
a(S'bvert_4MeV_neg15tilt_55rot_det13.npy'
p4052
F0.8184
F0.0064
F31.7694
F0.1257
F0.4971
F0.0044
g11
(g15
S'\x00\x00\x00\x00\x00\x80f@'
p4053
tp4054
Rp4055
tp4056
a(S'bvert_4MeV_neg15tilt_55rot_det14.npy'
p4057
F1.1218
F0.0119
F41.3269
F0.2274
F0.7019
F0.0084
g11
(g15
S'\x00\x00\x00\x00\x00\xc0[@'
p4058
tp4059
Rp4060
tp4061
a(S'bvert_4MeV_neg15tilt_55rot_det15.npy'
p4062
F1.3852
F0.0144
F64.3049
F0.461
F0.8849
F0.0098
g11
(g15
S'\x00\x00\x00\x00\x00@T@'
p4063
tp4064
Rp4065
tp4066
a(S'bvert_4MeV_neg15tilt_55rot_det4.npy'
p4067
F1.3294
F0.0163
F63.4613
F0.583
F0.8505
F0.0118
g11
(g15
S'\x00\x00\x00\x00\x00\x80S@'
p4068
tp4069
Rp4070
tp4071
a(S'bvert_4MeV_neg15tilt_55rot_det5.npy'
p4072
F1.0805
F0.011
F38.9521
F0.227
F0.6768
F0.0077
g11
(g15
S'\x00\x00\x00\x00\x00\x00X@'
p4073
tp4074
Rp4075
tp4076
a(S'bvert_4MeV_neg15tilt_55rot_det6.npy'
p4077
F0.7941
F0.0064
F29.1527
F0.1295
F0.4852
F0.0045
g11
(g15
S'\x00\x00\x00\x00\x00\xe0c@'
p4078
tp4079
Rp4080
tp4081
a(S'bvert_4MeV_neg15tilt_55rot_det7.npy'
p4082
F0.4565
F0.0054
F25.5339
F0.1082
F0.2668
F0.0035
g11
(g15
S'\x00\x00\x00\x00\x00`d@'
p4083
tp4084
Rp4085
tp4086
a(S'bvert_4MeV_neg15tilt_55rot_det8.npy'
p4087
F0.2389
F0.0025
F25.4816
F0.089
F0.1313
F0.0015
g11
(g15
S'\x00\x00\x00\x00\x00`d@'
p4088
tp4089
Rp4090
tp4091
a(S'bvert_4MeV_neg15tilt_55rot_det9.npy'
p4092
F0.0739
F0.0012
F23.7511
F0.0868
F0.0377
F0.0007
g11
(g15
S'\x00\x00\x00\x00\x00\xa0d@'
p4093
tp4094
Rp4095
tp4096
a(S'bvert_4MeV_neg15tilt_5rot_det10.npy'
p4097
F0.0675
F0.0012
F22.2336
F0.0895
F0.0335
F0.0007
g11
(g15
S'\x00\x00\x00\x00\x00\x00e@'
p4098
tp4099
Rp4100
tp4101
a(S'bvert_4MeV_neg15tilt_5rot_det11.npy'
p4102
F0.1968
F0.0022
F26.8092
F0.0926
F0.1052
F0.0013
g11
(g15
S'\x00\x00\x00\x00\x00\xc0e@'
p4103
tp4104
Rp4105
tp4106
a(S'bvert_4MeV_neg15tilt_5rot_det12.npy'
p4107
F0.4273
F0.0041
F26.8292
F0.1001
F0.2447
F0.0026
g11
(g15
S'\x00\x00\x00\x00\x00\x00e@'
p4108
tp4109
Rp4110
tp4111
a(S'bvert_4MeV_neg15tilt_5rot_det13.npy'
p4112
F0.7316
F0.006
F31.624
F0.1344
F0.4413
F0.0041
g11
(g15
S'\x00\x00\x00\x00\x00\xc0a@'
p4113
tp4114
Rp4115
tp4116
a(S'bvert_4MeV_neg15tilt_5rot_det14.npy'
p4117
F1.0926
F0.0087
F40.7993
F0.2204
F0.6875
F0.0063
g11
(g15
S'\x00\x00\x00\x00\x00\x00[@'
p4118
tp4119
Rp4120
tp4121
a(S'bvert_4MeV_neg15tilt_5rot_det15.npy'
p4122
F1.4074
F0.0145
F65.9478
F0.6753
F0.9088
F0.0112
g11
(g15
S'\x00\x00\x00\x00\x00\x80N@'
p4123
tp4124
Rp4125
tp4126
a(S'bvert_4MeV_neg15tilt_5rot_det4.npy'
p4127
F1.6156
F0.0172
F64.4193
F0.5516
F1.0378
F0.0122
g11
(g15
S'\x00\x00\x00\x00\x00\x00T@'
p4128
tp4129
Rp4130
tp4131
a(S'bvert_4MeV_neg15tilt_5rot_det5.npy'
p4132
F1.2794
F0.0125
F38.9221
F0.2004
F0.8009
F0.0089
g11
(g15
S'\x00\x00\x00\x00\x00 `@'
p4133
tp4134
Rp4135
tp4136
a(S'bvert_4MeV_neg15tilt_5rot_det6.npy'
p4137
F0.9371
F0.0076
F28.9747
F0.1347
F0.5623
F0.0051
g11
(g15
S'\x00\x00\x00\x00\x00\xe0b@'
p4138
tp4139
Rp4140
tp4141
a(S'bvert_4MeV_neg15tilt_5rot_det7.npy'
p4142
F0.5645
F0.0044
F25.2638
F0.1004
F0.3245
F0.0028
g11
(g15
S'\x00\x00\x00\x00\x00`f@'
p4143
tp4144
Rp4145
tp4146
a(S'bvert_4MeV_neg15tilt_5rot_det8.npy'
p4147
F0.2543
F0.0034
F25.6434
F0.0915
F0.1386
F0.002
g11
(g15
S'\x00\x00\x00\x00\x00@b@'
p4148
tp4149
Rp4150
tp4151
a(S'bvert_4MeV_neg15tilt_5rot_det9.npy'
p4152
F0.0786
F0.0013
F23.8172
F0.0883
F0.0403
F0.0007
g11
(g15
S'\x00\x00\x00\x00\x00\x80e@'
p4153
tp4154
Rp4155
tp4156
a(S'bvert_4MeV_neg15tilt_75rot_det10.npy'
p4157
F0.081
F0.0014
F22.1232
F0.0866
F0.0413
F0.0008
g11
(g15
S'\x00\x00\x00\x00\x00`b@'
p4158
tp4159
Rp4160
tp4161
a(S'bvert_4MeV_neg15tilt_75rot_det11.npy'
p4162
F0.2588
F0.0034
F26.4919
F0.093
F0.1413
F0.0021
g11
(g15
S'\x00\x00\x00\x00\x00`c@'
p4163
tp4164
Rp4165
tp4166
a(S'bvert_4MeV_neg15tilt_75rot_det12.npy'
p4167
F0.5453
F0.0051
F26.6264
F0.1119
F0.3154
F0.0031
g11
(g15
S'\x00\x00\x00\x00\x00\xa0b@'
p4168
tp4169
Rp4170
tp4171
a(S'bvert_4MeV_neg15tilt_75rot_det13.npy'
p4172
F0.8922
F0.0074
F31.5362
F0.1258
F0.5347
F0.005
g11
(g15
S'\x00\x00\x00\x00\x00`e@'
p4173
tp4174
Rp4175
tp4176
a(S'bvert_4MeV_neg15tilt_75rot_det14.npy'
p4177
F1.2636
F0.0096
F41.0426
F0.2098
F0.7907
F0.0066
g11
(g15
S'\x00\x00\x00\x00\x00\xc0]@'
p4178
tp4179
Rp4180
tp4181
a(S'bvert_4MeV_neg15tilt_75rot_det15.npy'
p4182
F1.4741
F0.0151
F66.0735
F0.4826
F0.9462
F0.0105
g11
(g15
S'\x00\x00\x00\x00\x00\x80V@'
p4183
tp4184
Rp4185
tp4186
a(S'bvert_4MeV_neg15tilt_75rot_det4.npy'
p4187
F1.3161
F0.0141
F63.7347
F0.5235
F0.8404
F0.0096
g11
(g15
S'\x00\x00\x00\x00\x00\x80W@'
p4188
tp4189
Rp4190
tp4191
a(S'bvert_4MeV_neg15tilt_75rot_det5.npy'
p4192
F1.0391
F0.0097
F38.6207
F0.2189
F0.6499
F0.0071
g11
(g15
S'\x00\x00\x00\x00\x00\xc0\\@'
p4193
tp4194
Rp4195
tp4196
a(S'bvert_4MeV_neg15tilt_75rot_det6.npy'
p4197
F0.7331
F0.0064
F29.0721
F0.1381
F0.4411
F0.0044
g11
(g15
S'\x00\x00\x00\x00\x00\x80b@'
p4198
tp4199
Rp4200
tp4201
a(S'bvert_4MeV_neg15tilt_75rot_det7.npy'
p4202
F0.4475
F0.0042
F25.5414
F0.0995
F0.2586
F0.0027
g11
(g15
S'\x00\x00\x00\x00\x00\x80e@'
p4203
tp4204
Rp4205
tp4206
a(S'bvert_4MeV_neg15tilt_75rot_det8.npy'
p4207
F0.2144
F0.0021
F25.65
F0.0876
F0.1161
F0.0013
g11
(g15
S'\x00\x00\x00\x00\x00\xe0e@'
p4208
tp4209
Rp4210
tp4211
a(S'bvert_4MeV_neg15tilt_75rot_det9.npy'
p4212
F0.0699
F0.0011
F23.5748
F0.0781
F0.0354
F0.0006
g11
(g15
S'\x00\x00\x00\x00\x00\x80f@'
p4213
tp4214
Rp4215
tp4216
a(S'bvert_4MeV_neg15tilt_95rot_det10.npy'
p4217
F0.0779
F0.0012
F21.9635
F0.0834
F0.0399
F0.0007
g11
(g15
S'\x00\x00\x00\x00\x00`f@'
p4218
tp4219
Rp4220
tp4221
a(S'bvert_4MeV_neg15tilt_95rot_det11.npy'
p4222
F0.2506
F0.0026
F26.5929
F0.0904
F0.1372
F0.0015
g11
(g15
S'\x00\x00\x00\x00\x00\xe0f@'
p4223
tp4224
Rp4225
tp4226
a(S'bvert_4MeV_neg15tilt_95rot_det12.npy'
p4227
F0.5602
F0.005
F26.5634
F0.0991
F0.3223
F0.0031
g11
(g15
S'\x00\x00\x00\x00\x00@d@'
p4228
tp4229
Rp4230
tp4231
a(S'bvert_4MeV_neg15tilt_95rot_det13.npy'
p4232
F0.953
F0.0067
F31.6946
F0.1383
F0.5708
F0.0045
g11
(g15
S'\x00\x00\x00\x00\x00\x00d@'
p4233
tp4234
Rp4235
tp4236
a(S'bvert_4MeV_neg15tilt_95rot_det14.npy'
p4237
F1.3338
F0.0115
F41.2038
F0.2302
F0.826
F0.0081
g11
(g15
S'\x00\x00\x00\x00\x00\xc0Z@'
p4238
tp4239
Rp4240
tp4241
a(S'bvert_4MeV_neg15tilt_95rot_det15.npy'
p4242
F1.6361
F0.0193
F64.8224
F0.5382
F1.0378
F0.0132
g11
(g15
S'\x00\x00\x00\x00\x00@R@'
p4243
tp4244
Rp4245
tp4246
a(S'bvert_4MeV_neg15tilt_95rot_det4.npy'
p4247
F1.3628
F0.0174
F62.7842
F0.5982
F0.875
F0.0119
g11
(g15
S'\x00\x00\x00\x00\x00\x00Q@'
p4248
tp4249
Rp4250
tp4251
a(S'bvert_4MeV_neg15tilt_95rot_det5.npy'
p4252
F1.0593
F0.0103
F39.0245
F0.2187
F0.6638
F0.0074
g11
(g15
S'\x00\x00\x00\x00\x00 `@'
p4253
tp4254
Rp4255
tp4256
a(S'bvert_4MeV_neg15tilt_95rot_det6.npy'
p4257
F0.7103
F0.0057
F29.1366
F0.1432
F0.4265
F0.004
g11
(g15
S'\x00\x00\x00\x00\x00@d@'
p4258
tp4259
Rp4260
tp4261
a(S'bvert_4MeV_neg15tilt_95rot_det7.npy'
p4262
F0.4234
F0.0044
F25.5655
F0.0995
F0.2423
F0.0027
g11
(g15
S'\x00\x00\x00\x00\x00`g@'
p4263
tp4264
Rp4265
tp4266
a(S'bvert_4MeV_neg15tilt_95rot_det8.npy'
p4267
F0.1968
F0.0024
F25.8084
F0.0917
F0.1045
F0.0014
g11
(g15
S'\x00\x00\x00\x00\x00`b@'
p4268
tp4269
Rp4270
tp4271
a(S'bvert_4MeV_neg15tilt_95rot_det9.npy'
p4272
F0.0644
F0.001
F23.8241
F0.0856
F0.0319
F0.0006
g11
(g15
S'\x00\x00\x00\x00\x00\xe0h@'
p4273
tp4274
Rp4275
tp4276
a(S'bvert_4MeV_neg30tilt_115rot_det10.npy'
p4277
F0.0699
F0.0011
F22.4127
F0.0893
F0.0344
F0.0006
g11
(g15
S'\x00\x00\x00\x00\x00\xa0d@'
p4278
tp4279
Rp4280
tp4281
a(S'bvert_4MeV_neg30tilt_115rot_det11.npy'
p4282
F0.2428
F0.0031
F26.746
F0.1051
F0.1335
F0.0019
g11
(g15
S'\x00\x00\x00\x00\x00\x00`@'
p4283
tp4284
Rp4285
tp4286
a(S'bvert_4MeV_neg30tilt_115rot_det12.npy'
p4287
F0.5373
F0.0046
F26.5282
F0.0941
F0.313
F0.0029
g11
(g15
S'\x00\x00\x00\x00\x00 c@'
p4288
tp4289
Rp4290
tp4291
a(S'bvert_4MeV_neg30tilt_115rot_det13.npy'
p4292
F0.9067
F0.0076
F31.8628
F0.1356
F0.5457
F0.0051
g11
(g15
S'\x00\x00\x00\x00\x00\xe0a@'
p4293
tp4294
Rp4295
tp4296
a(S'bvert_4MeV_neg30tilt_115rot_det14.npy'
p4297
F1.3219
F0.0121
F41.2377
F0.2161
F0.8191
F0.0081
g11
(g15
S'\x00\x00\x00\x00\x00\x00^@'
p4298
tp4299
Rp4300
tp4301
a(S'bvert_4MeV_neg30tilt_115rot_det15.npy'
p4302
F1.6978
F0.0143
F64.5681
F0.5105
F1.0645
F0.0107
g11
(g15
S'\x00\x00\x00\x00\x00@S@'
p4303
tp4304
Rp4305
tp4306
a(S'bvert_4MeV_neg30tilt_115rot_det4.npy'
p4307
F1.5035
F0.0183
F62.5947
F0.5401
F0.9583
F0.0127
g11
(g15
S'\x00\x00\x00\x00\x00@T@'
p4308
tp4309
Rp4310
tp4311
a(S'bvert_4MeV_neg30tilt_115rot_det5.npy'
p4312
F1.1706
F0.0094
F38.7972
F0.2057
F0.7333
F0.0064
g11
(g15
S'\x00\x00\x00\x00\x00@`@'
p4313
tp4314
Rp4315
tp4316
a(S'bvert_4MeV_neg30tilt_115rot_det6.npy'
p4317
F0.7814
F0.0072
F29.0368
F0.1467
F0.4723
F0.0049
g11
(g15
S'\x00\x00\x00\x00\x00\xc0a@'
p4318
tp4319
Rp4320
tp4321
a(S'bvert_4MeV_neg30tilt_115rot_det7.npy'
p4322
F0.4352
F0.0046
F25.5311
F0.1086
F0.2481
F0.003
g11
(g15
S'\x00\x00\x00\x00\x00`c@'
p4323
tp4324
Rp4325
tp4326
a(S'bvert_4MeV_neg30tilt_115rot_det8.npy'
p4327
F0.2011
F0.0024
F25.7741
F0.0805
F0.1068
F0.0014
g11
(g15
S'\x00\x00\x00\x00\x00`e@'
p4328
tp4329
Rp4330
tp4331
a(S'bvert_4MeV_neg30tilt_115rot_det9.npy'
p4332
F0.0615
F0.0013
F23.9372
F0.0892
F0.0294
F0.0008
g11
(g15
S'\x00\x00\x00\x00\x00\x00^@'
p4333
tp4334
Rp4335
tp4336
a(S'bvert_4MeV_neg30tilt_135rot_det10.npy'
p4337
F0.068
F0.0012
F22.1835
F0.0933
F0.0326
F0.0007
g11
(g15
S'\x00\x00\x00\x00\x00\x80b@'
p4338
tp4339
Rp4340
tp4341
a(S'bvert_4MeV_neg30tilt_135rot_det11.npy'
p4342
F0.2232
F0.0028
F26.7037
F0.1009
F0.1207
F0.0017
g11
(g15
S'\x00\x00\x00\x00\x00\xc0c@'
p4343
tp4344
Rp4345
tp4346
a(S'bvert_4MeV_neg30tilt_135rot_det12.npy'
p4347
F0.495
F0.0052
F26.7031
F0.0874
F0.2886
F0.0034
g11
(g15
S'\x00\x00\x00\x00\x00\xa0d@'
p4348
tp4349
Rp4350
tp4351
a(S'bvert_4MeV_neg30tilt_135rot_det13.npy'
p4352
F0.8716
F0.0067
F31.6189
F0.1248
F0.5307
F0.0045
g11
(g15
S'\x00\x00\x00\x00\x00\xc0d@'
p4353
tp4354
Rp4355
tp4356
a(S'bvert_4MeV_neg30tilt_135rot_det14.npy'
p4357
F1.2898
F0.0115
F40.822
F0.2085
F0.8116
F0.008
g11
(g15
S'\x00\x00\x00\x00\x00@]@'
p4358
tp4359
Rp4360
tp4361
a(S'bvert_4MeV_neg30tilt_135rot_det15.npy'
p4362
F1.6558
F0.0206
F66.0938
F0.5513
F1.0566
F0.0139
g11
(g15
S'\x00\x00\x00\x00\x00\x80S@'
p4363
tp4364
Rp4365
tp4366
a(S'bvert_4MeV_neg30tilt_135rot_det4.npy'
p4367
F1.6216
F0.0173
F62.8464
F0.3991
F1.0155
F0.0121
g11
(g15
S'\x00\x00\x00\x00\x00@S@'
p4368
tp4369
Rp4370
tp4371
a(S'bvert_4MeV_neg30tilt_135rot_det5.npy'
p4372
F1.2143
F0.0121
F38.9546
F0.2181
F0.7529
F0.0081
g11
(g15
S'\x00\x00\x00\x00\x00``@'
p4373
tp4374
Rp4375
tp4376
a(S'bvert_4MeV_neg30tilt_135rot_det6.npy'
p4377
F0.8104
F0.0073
F29.0778
F0.1297
F0.4919
F0.0049
g11
(g15
S'\x00\x00\x00\x00\x00@g@'
p4378
tp4379
Rp4380
tp4381
a(S'bvert_4MeV_neg30tilt_135rot_det7.npy'
p4382
F0.4536
F0.006
F25.5956
F0.0973
F0.2597
F0.0038
g11
(g15
S'\x00\x00\x00\x00\x00`g@'
p4383
tp4384
Rp4385
tp4386
a(S'bvert_4MeV_neg30tilt_135rot_det8.npy'
p4387
F0.2085
F0.0031
F25.7705
F0.097
F0.1117
F0.0018
g11
(g15
S'\x00\x00\x00\x00\x00\xe0a@'
p4388
tp4389
Rp4390
tp4391
a(S'bvert_4MeV_neg30tilt_135rot_det9.npy'
p4392
F0.0629
F0.0012
F23.919
F0.0919
F0.0298
F0.0006
g11
(g15
S'\x00\x00\x00\x00\x00`a@'
p4393
tp4394
Rp4395
tp4396
a(S'bvert_4MeV_neg30tilt_15rot_det10.npy'
p4397
F0.067
F0.0012
F22.1693
F0.1013
F0.0332
F0.0007
g11
(g15
S'\x00\x00\x00\x00\x00\x80a@'
p4398
tp4399
Rp4400
tp4401
a(S'bvert_4MeV_neg30tilt_15rot_det11.npy'
p4402
F0.213
F0.003
F26.7063
F0.1022
F0.1141
F0.0018
g11
(g15
S'\x00\x00\x00\x00\x00\x80b@'
p4403
tp4404
Rp4405
tp4406
a(S'bvert_4MeV_neg30tilt_15rot_det12.npy'
p4407
F0.4503
F0.0041
F26.4148
F0.0891
F0.2579
F0.0028
g11
(g15
S'\x00\x00\x00\x00\x00 e@'
p4408
tp4409
Rp4410
tp4411
a(S'bvert_4MeV_neg30tilt_15rot_det13.npy'
p4412
F0.756
F0.0066
F31.5336
F0.1402
F0.4546
F0.0045
g11
(g15
S'\x00\x00\x00\x00\x00\xa0a@'
p4413
tp4414
Rp4415
tp4416
a(S'bvert_4MeV_neg30tilt_15rot_det14.npy'
p4417
F1.0792
F0.0094
F41.0295
F0.2285
F0.6718
F0.0066
g11
(g15
S'\x00\x00\x00\x00\x00\xc0\\@'
p4418
tp4419
Rp4420
tp4421
a(S'bvert_4MeV_neg30tilt_15rot_det15.npy'
p4422
F1.3977
F0.0159
F64.7379
F0.4805
F0.8944
F0.0111
g11
(g15
S'\x00\x00\x00\x00\x00\xc0T@'
p4423
tp4424
Rp4425
tp4426
a(S'bvert_4MeV_neg30tilt_15rot_det4.npy'
p4427
F1.6294
F0.0135
F63.2227
F0.5264
F1.0505
F0.0099
g11
(g15
S'\x00\x00\x00\x00\x00\x00R@'
p4428
tp4429
Rp4430
tp4431
a(S'bvert_4MeV_neg30tilt_15rot_det5.npy'
p4432
F1.2562
F0.0107
F39.1256
F0.2088
F0.7869
F0.0077
g11
(g15
S'\x00\x00\x00\x00\x00\x00_@'
p4433
tp4434
Rp4435
tp4436
a(S'bvert_4MeV_neg30tilt_15rot_det6.npy'
p4437
F0.8928
F0.008
F29.2835
F0.1296
F0.5388
F0.0056
g11
(g15
S'\x00\x00\x00\x00\x00\xa0c@'
p4438
tp4439
Rp4440
tp4441
a(S'bvert_4MeV_neg30tilt_15rot_det7.npy'
p4442
F0.5344
F0.0058
F25.5369
F0.1173
F0.3066
F0.0037
g11
(g15
S'\x00\x00\x00\x00\x00`b@'
p4443
tp4444
Rp4445
tp4446
a(S'bvert_4MeV_neg30tilt_15rot_det8.npy'
p4447
F0.2618
F0.0033
F25.7543
F0.0874
F0.1417
F0.002
g11
(g15
S'\x00\x00\x00\x00\x00\xe0b@'
p4448
tp4449
Rp4450
tp4451
a(S'bvert_4MeV_neg30tilt_15rot_det9.npy'
p4452
F0.081
F0.0013
F23.6233
F0.0857
F0.0408
F0.0007
g11
(g15
S'\x00\x00\x00\x00\x00`d@'
p4453
tp4454
Rp4455
tp4456
a(S'bvert_4MeV_neg30tilt_25rot_det10.npy'
p4457
F0.0673
F0.0011
F22.0145
F0.1086
F0.0332
F0.0006
g11
(g15
S'\x00\x00\x00\x00\x00\x80`@'
p4458
tp4459
Rp4460
tp4461
a(S'bvert_4MeV_neg30tilt_25rot_det11.npy'
p4462
F0.2188
F0.0029
F26.6742
F0.1095
F0.1183
F0.0017
g11
(g15
S'\x00\x00\x00\x00\x00\xc0_@'
p4463
tp4464
Rp4465
tp4466
a(S'bvert_4MeV_neg30tilt_25rot_det12.npy'
p4467
F0.4617
F0.005
F26.6164
F0.1024
F0.2666
F0.0032
g11
(g15
S'\x00\x00\x00\x00\x00\xc0`@'
p4468
tp4469
Rp4470
tp4471
a(S'bvert_4MeV_neg30tilt_25rot_det13.npy'
p4472
F0.7525
F0.0073
F31.6666
F0.1336
F0.4515
F0.0049
g11
(g15
S'\x00\x00\x00\x00\x00\x00d@'
p4473
tp4474
Rp4475
tp4476
a(S'bvert_4MeV_neg30tilt_25rot_det14.npy'
p4477
F1.0787
F0.0106
F41.2376
F0.2189
F0.6757
F0.0075
g11
(g15
S'\x00\x00\x00\x00\x00\x80]@'
p4478
tp4479
Rp4480
tp4481
a(S'bvert_4MeV_neg30tilt_25rot_det15.npy'
p4482
F1.3856
F0.0152
F64.2775
F0.4455
F0.8884
F0.0105
g11
(g15
S'\x00\x00\x00\x00\x00\xc0X@'
p4483
tp4484
Rp4485
tp4486
a(S'bvert_4MeV_neg30tilt_25rot_det4.npy'
p4487
F1.5277
F0.0185
F63.4963
F0.4598
F0.9795
F0.0129
g11
(g15
S'\x00\x00\x00\x00\x00\x00O@'
p4488
tp4489
Rp4490
tp4491
a(S'bvert_4MeV_neg30tilt_25rot_det5.npy'
p4492
F1.2073
F0.0116
F39.0511
F0.241
F0.7612
F0.0083
g11
(g15
S'\x00\x00\x00\x00\x00\x00X@'
p4493
tp4494
Rp4495
tp4496
a(S'bvert_4MeV_neg30tilt_25rot_det6.npy'
p4497
F0.882
F0.0075
F29.1966
F0.1471
F0.5348
F0.0051
g11
(g15
S'\x00\x00\x00\x00\x00 a@'
p4498
tp4499
Rp4500
tp4501
a(S'bvert_4MeV_neg30tilt_25rot_det7.npy'
p4502
F0.5291
F0.0057
F25.4794
F0.1059
F0.3061
F0.0036
g11
(g15
S'\x00\x00\x00\x00\x00\xe0b@'
p4503
tp4504
Rp4505
tp4506
a(S'bvert_4MeV_neg30tilt_25rot_det8.npy'
p4507
F0.2598
F0.003
F25.7606
F0.0898
F0.1418
F0.0018
g11
(g15
S'\x00\x00\x00\x00\x00 b@'
p4508
tp4509
Rp4510
tp4511
a(S'bvert_4MeV_neg30tilt_25rot_det9.npy'
p4512
F0.0802
F0.0015
F23.8957
F0.1021
F0.0407
F0.0008
g11
(g15
S'\x00\x00\x00\x00\x00\x00a@'
p4513
tp4514
Rp4515
tp4516
a(S'bvert_4MeV_neg30tilt_315rot_det10.npy'
p4517
F0.0655
F0.0011
F22.1885
F0.0866
F0.031
F0.0006
g11
(g15
S'\x00\x00\x00\x00\x00\xa0d@'
p4518
tp4519
Rp4520
tp4521
a(S'bvert_4MeV_neg30tilt_315rot_det11.npy'
p4522
F0.2198
F0.0029
F26.6838
F0.1004
F0.1184
F0.0017
g11
(g15
S'\x00\x00\x00\x00\x00\xa0b@'
p4523
tp4524
Rp4525
tp4526
a(S'bvert_4MeV_neg30tilt_315rot_det12.npy'
p4527
F0.4948
F0.005
F26.5496
F0.0966
F0.2876
F0.0032
g11
(g15
S'\x00\x00\x00\x00\x00\x80c@'
p4528
tp4529
Rp4530
tp4531
a(S'bvert_4MeV_neg30tilt_315rot_det13.npy'
p4532
F0.8766
F0.0078
F31.4934
F0.1321
F0.5344
F0.0054
g11
(g15
S'\x00\x00\x00\x00\x00\xa0b@'
p4533
tp4534
Rp4535
tp4536
a(S'bvert_4MeV_neg30tilt_315rot_det14.npy'
p4537
F1.2734
F0.0114
F40.737
F0.2484
F0.8001
F0.0079
g11
(g15
S'\x00\x00\x00\x00\x00\x80[@'
p4538
tp4539
Rp4540
tp4541
a(S'bvert_4MeV_neg30tilt_315rot_det15.npy'
p4542
F1.649
F0.0203
F64.4078
F0.551
F1.048
F0.0149
g11
(g15
S'\x00\x00\x00\x00\x00@Q@'
p4543
tp4544
Rp4545
tp4546
a(S'bvert_4MeV_neg30tilt_315rot_det4.npy'
p4547
F1.6487
F0.0206
F65.3434
F0.6583
F1.0388
F0.0149
g11
(g15
S'\x00\x00\x00\x00\x00\x00L@'
p4548
tp4549
Rp4550
tp4551
a(S'bvert_4MeV_neg30tilt_315rot_det5.npy'
p4552
F1.2405
F0.0119
F39.1007
F0.1914
F0.7703
F0.0082
g11
(g15
S'\x00\x00\x00\x00\x00\xc0]@'
p4553
tp4554
Rp4555
tp4556
a(S'bvert_4MeV_neg30tilt_315rot_det6.npy'
p4557
F0.8491
F0.0078
F29.2152
F0.1446
F0.5144
F0.0053
g11
(g15
S'\x00\x00\x00\x00\x00\x80a@'
p4558
tp4559
Rp4560
tp4561
a(S'bvert_4MeV_neg30tilt_315rot_det7.npy'
p4562
F0.4761
F0.0046
F25.5969
F0.1134
F0.2733
F0.0031
g11
(g15
S'\x00\x00\x00\x00\x00\x00b@'
p4563
tp4564
Rp4565
tp4566
a(S'bvert_4MeV_neg30tilt_315rot_det8.npy'
p4567
F0.2177
F0.0027
F25.8823
F0.0854
F0.1164
F0.0016
g11
(g15
S'\x00\x00\x00\x00\x00\x80b@'
p4568
tp4569
Rp4570
tp4571
a(S'bvert_4MeV_neg30tilt_315rot_det9.npy'
p4572
F0.0682
F0.0011
F23.7685
F0.0858
F0.0324
F0.0006
g11
(g15
S'\x00\x00\x00\x00\x00\xa0f@'
p4573
tp4574
Rp4575
tp4576
a(S'bvert_4MeV_neg30tilt_335rot_det10.npy'
p4577
F0.0623
F0.0011
F22.1404
F0.0841
F0.029
F0.0006
g11
(g15
S'\x00\x00\x00\x00\x00\xc0g@'
p4578
tp4579
Rp4580
tp4581
a(S'bvert_4MeV_neg30tilt_335rot_det11.npy'
p4582
F0.2018
F0.0025
F26.6951
F0.0988
F0.1066
F0.0014
g11
(g15
S'\x00\x00\x00\x00\x00\xe0d@'
p4583
tp4584
Rp4585
tp4586
a(S'bvert_4MeV_neg30tilt_335rot_det12.npy'
p4587
F0.466
F0.0047
F26.3593
F0.0959
F0.2685
F0.003
g11
(g15
S'\x00\x00\x00\x00\x00\xa0c@'
p4588
tp4589
Rp4590
tp4591
a(S'bvert_4MeV_neg30tilt_335rot_det13.npy'
p4592
F0.8006
F0.007
F31.5281
F0.1345
F0.4871
F0.0046
g11
(g15
S'\x00\x00\x00\x00\x00\xe0b@'
p4593
tp4594
Rp4595
tp4596
a(S'bvert_4MeV_neg30tilt_335rot_det14.npy'
p4597
F1.184
F0.012
F40.8607
F0.2062
F0.7478
F0.0082
g11
(g15
S'\x00\x00\x00\x00\x00\x80^@'
p4598
tp4599
Rp4600
tp4601
a(S'bvert_4MeV_neg30tilt_335rot_det15.npy'
p4602
F1.5587
F0.019
F64.6055
F0.4818
F0.9994
F0.013
g11
(g15
S'\x00\x00\x00\x00\x00\x00U@'
p4603
tp4604
Rp4605
tp4606
a(S'bvert_4MeV_neg30tilt_335rot_det4.npy'
p4607
F1.6824
F0.0155
F63.1098
F0.4993
F1.0525
F0.0108
g11
(g15
S'\x00\x00\x00\x00\x00\x00S@'
p4608
tp4609
Rp4610
tp4611
a(S'bvert_4MeV_neg30tilt_335rot_det5.npy'
p4612
F1.3225
F0.0128
F39.254
F0.2245
F0.8117
F0.0084
g11
(g15
S'\x00\x00\x00\x00\x00\xc0\\@'
p4613
tp4614
Rp4615
tp4616
a(S'bvert_4MeV_neg30tilt_335rot_det6.npy'
p4617
F0.9116
F0.0085
F29.3407
F0.1539
F0.5463
F0.0057
g11
(g15
S'\x00\x00\x00\x00\x00@a@'
p4618
tp4619
Rp4620
tp4621
a(S'bvert_4MeV_neg30tilt_335rot_det7.npy'
p4622
F0.5145
F0.0055
F25.6318
F0.0969
F0.2972
F0.0034
g11
(g15
S'\x00\x00\x00\x00\x00@d@'
p4623
tp4624
Rp4625
tp4626
a(S'bvert_4MeV_neg30tilt_335rot_det8.npy'
p4627
F0.2403
F0.0028
F25.5869
F0.0867
F0.1306
F0.0016
g11
(g15
S'\x00\x00\x00\x00\x00 e@'
p4628
tp4629
Rp4630
tp4631
a(S'bvert_4MeV_neg30tilt_335rot_det9.npy'
p4632
F0.0707
F0.0012
F23.6675
F0.0901
F0.0346
F0.0007
g11
(g15
S'\x00\x00\x00\x00\x00\xe0c@'
p4633
tp4634
Rp4635
tp4636
a(S'bvert_4MeV_neg30tilt_345rot_det10.npy'
p4637
F0.0601
F0.0011
F22.22
F0.0976
F0.0286
F0.0006
g11
(g15
S'\x00\x00\x00\x00\x00@c@'
p4638
tp4639
Rp4640
tp4641
a(S'bvert_4MeV_neg30tilt_345rot_det11.npy'
p4642
F0.2029
F0.0027
F26.7469
F0.1042
F0.1075
F0.0016
g11
(g15
S'\x00\x00\x00\x00\x00\x80e@'
p4643
tp4644
Rp4645
tp4646
a(S'bvert_4MeV_neg30tilt_345rot_det12.npy'
p4647
F0.4465
F0.0041
F26.3804
F0.0968
F0.2565
F0.0026
g11
(g15
S'\x00\x00\x00\x00\x00\xe0d@'
p4648
tp4649
Rp4650
tp4651
a(S'bvert_4MeV_neg30tilt_345rot_det13.npy'
p4652
F0.794
F0.0068
F31.6673
F0.1294
F0.4806
F0.0047
g11
(g15
S'\x00\x00\x00\x00\x00`c@'
p4653
tp4654
Rp4655
tp4656
a(S'bvert_4MeV_neg30tilt_345rot_det14.npy'
p4657
F1.139
F0.0097
F41.0618
F0.2227
F0.7182
F0.0068
g11
(g15
S'\x00\x00\x00\x00\x00\x80a@'
p4658
tp4659
Rp4660
tp4661
a(S'bvert_4MeV_neg30tilt_345rot_det15.npy'
p4662
F1.5722
F0.0143
F64.9243
F0.446
F1.015
F0.0105
g11
(g15
S'\x00\x00\x00\x00\x00@T@'
p4663
tp4664
Rp4665
tp4666
a(S'bvert_4MeV_neg30tilt_345rot_det4.npy'
p4667
F1.6691
F0.019
F63.9363
F0.4885
F1.0484
F0.0134
g11
(g15
S'\x00\x00\x00\x00\x00@U@'
p4668
tp4669
Rp4670
tp4671
a(S'bvert_4MeV_neg30tilt_345rot_det5.npy'
p4672
F1.334
F0.0122
F38.7789
F0.2253
F0.8213
F0.0081
g11
(g15
S'\x00\x00\x00\x00\x00\x00[@'
p4673
tp4674
Rp4675
tp4676
a(S'bvert_4MeV_neg30tilt_345rot_det6.npy'
p4677
F0.9272
F0.0082
F29.1095
F0.1371
F0.5531
F0.0053
g11
(g15
S'\x00\x00\x00\x00\x00\xe0d@'
p4678
tp4679
Rp4680
tp4681
a(S'bvert_4MeV_neg30tilt_345rot_det7.npy'
p4682
F0.5353
F0.005
F25.661
F0.0996
F0.3078
F0.0032
g11
(g15
S'\x00\x00\x00\x00\x00\x00e@'
p4683
tp4684
Rp4685
tp4686
a(S'bvert_4MeV_neg30tilt_345rot_det8.npy'
p4687
F0.2396
F0.0031
F25.7252
F0.0878
F0.1297
F0.0018
g11
(g15
S'\x00\x00\x00\x00\x00\x80e@'
p4688
tp4689
Rp4690
tp4691
a(S'bvert_4MeV_neg30tilt_345rot_det9.npy'
p4692
F0.0758
F0.0013
F23.8644
F0.0918
F0.0375
F0.0007
g11
(g15
S'\x00\x00\x00\x00\x00\xa0b@'
p4693
tp4694
Rp4695
tp4696
a(S'bvert_4MeV_neg30tilt_355rot_det10.npy'
p4697
F0.0654
F0.0013
F22.2024
F0.0874
F0.0311
F0.0007
g11
(g15
S'\x00\x00\x00\x00\x00`e@'
p4698
tp4699
Rp4700
tp4701
a(S'bvert_4MeV_neg30tilt_355rot_det11.npy'
p4702
F0.2045
F0.0026
F26.6146
F0.1069
F0.1092
F0.0015
g11
(g15
S'\x00\x00\x00\x00\x00\x80b@'
p4703
tp4704
Rp4705
tp4706
a(S'bvert_4MeV_neg30tilt_355rot_det12.npy'
p4707
F0.4413
F0.0045
F26.4469
F0.0863
F0.2531
F0.0029
g11
(g15
S'\x00\x00\x00\x00\x00`d@'
p4708
tp4709
Rp4710
tp4711
a(S'bvert_4MeV_neg30tilt_355rot_det13.npy'
p4712
F0.75
F0.0071
F31.7016
F0.1408
F0.4518
F0.0049
g11
(g15
S'\x00\x00\x00\x00\x00\xe0a@'
p4713
tp4714
Rp4715
tp4716
a(S'bvert_4MeV_neg30tilt_355rot_det14.npy'
p4717
F1.1303
F0.0099
F41.0959
F0.2221
F0.711
F0.007
g11
(g15
S'\x00\x00\x00\x00\x00\x80`@'
p4718
tp4719
Rp4720
tp4721
a(S'bvert_4MeV_neg30tilt_355rot_det15.npy'
p4722
F1.4591
F0.0147
F64.2897
F0.5078
F0.9401
F0.0108
g11
(g15
S'\x00\x00\x00\x00\x00@U@'
p4723
tp4724
Rp4725
tp4726
a(S'bvert_4MeV_neg30tilt_355rot_det4.npy'
p4727
F1.6725
F0.0148
F62.8638
F0.4542
F1.0613
F0.0101
g11
(g15
S'\x00\x00\x00\x00\x00\x00X@'
p4728
tp4729
Rp4730
tp4731
a(S'bvert_4MeV_neg30tilt_355rot_det5.npy'
p4732
F1.3126
F0.0151
F39.0762
F0.2188
F0.816
F0.0104
g11
(g15
S'\x00\x00\x00\x00\x00\xc0Z@'
p4733
tp4734
Rp4735
tp4736
a(S'bvert_4MeV_neg30tilt_355rot_det6.npy'
p4737
F0.9193
F0.0094
F29.2528
F0.144
F0.5486
F0.0063
g11
(g15
S'\x00\x00\x00\x00\x00 `@'
p4738
tp4739
Rp4740
tp4741
a(S'bvert_4MeV_neg30tilt_355rot_det7.npy'
p4742
F0.538
F0.0062
F25.5777
F0.1147
F0.3083
F0.004
g11
(g15
S'\x00\x00\x00\x00\x00 b@'
p4743
tp4744
Rp4745
tp4746
a(S'bvert_4MeV_neg30tilt_355rot_det8.npy'
p4747
F0.2498
F0.0028
F25.8427
F0.082
F0.1359
F0.0017
g11
(g15
S'\x00\x00\x00\x00\x00`e@'
p4748
tp4749
Rp4750
tp4751
a(S'bvert_4MeV_neg30tilt_355rot_det9.npy'
p4752
F0.0748
F0.0012
F23.647
F0.0837
F0.0376
F0.0007
g11
(g15
S'\x00\x00\x00\x00\x00\xe0`@'
p4753
tp4754
Rp4755
tp4756
a(S'bvert_4MeV_neg30tilt_35rot_det10.npy'
p4757
F0.0695
F0.0013
F22.1286
F0.0955
F0.0347
F0.0007
g11
(g15
S'\x00\x00\x00\x00\x00\x00d@'
p4758
tp4759
Rp4760
tp4761
a(S'bvert_4MeV_neg30tilt_35rot_det11.npy'
p4762
F0.2247
F0.0032
F26.4774
F0.0992
F0.1213
F0.0019
g11
(g15
S'\x00\x00\x00\x00\x00 e@'
p4763
tp4764
Rp4765
tp4766
a(S'bvert_4MeV_neg30tilt_35rot_det12.npy'
p4767
F0.4756
F0.004
F26.5487
F0.0841
F0.274
F0.0026
g11
(g15
S'\x00\x00\x00\x00\x00\xc0e@'
p4768
tp4769
Rp4770
tp4771
a(S'bvert_4MeV_neg30tilt_35rot_det13.npy'
p4772
F0.776
F0.0068
F31.5312
F0.126
F0.4679
F0.0047
g11
(g15
S'\x00\x00\x00\x00\x00\x00e@'
p4773
tp4774
Rp4775
tp4776
a(S'bvert_4MeV_neg30tilt_35rot_det14.npy'
p4777
F1.0987
F0.0093
F41.2689
F0.2067
F0.6882
F0.0066
g11
(g15
S'\x00\x00\x00\x00\x00@b@'
p4778
tp4779
Rp4780
tp4781
a(S'bvert_4MeV_neg30tilt_35rot_det15.npy'
p4782
F1.3579
F0.014
F64.8236
F0.4918
F0.8655
F0.01
g11
(g15
S'\x00\x00\x00\x00\x00@X@'
p4783
tp4784
Rp4785
tp4786
a(S'bvert_4MeV_neg30tilt_35rot_det4.npy'
p4787
F1.4591
F0.0126
F62.5689
F0.4132
F0.9392
F0.0093
g11
(g15
S'\x00\x00\x00\x00\x00\xc0\\@'
p4788
tp4789
Rp4790
tp4791
a(S'bvert_4MeV_neg30tilt_35rot_det5.npy'
p4792
F1.1822
F0.0094
F39.0044
F0.1883
F0.7436
F0.0066
g11
(g15
S'\x00\x00\x00\x00\x00@b@'
p4793
tp4794
Rp4795
tp4796
a(S'bvert_4MeV_neg30tilt_35rot_det6.npy'
p4797
F0.8491
F0.0071
F29.2905
F0.1352
F0.5189
F0.0049
g11
(g15
S'\x00\x00\x00\x00\x00\x00e@'
p4798
tp4799
Rp4800
tp4801
a(S'bvert_4MeV_neg30tilt_35rot_det7.npy'
p4802
F0.5273
F0.0051
F25.4402
F0.1026
F0.3053
F0.0032
g11
(g15
S'\x00\x00\x00\x00\x00`c@'
p4803
tp4804
Rp4805
tp4806
a(S'bvert_4MeV_neg30tilt_35rot_det8.npy'
p4807
F0.2504
F0.0031
F25.6864
F0.0977
F0.1367
F0.002
g11
(g15
S'\x00\x00\x00\x00\x00`d@'
p4808
tp4809
Rp4810
tp4811
a(S'bvert_4MeV_neg30tilt_35rot_det9.npy'
p4812
F0.0814
F0.0016
F23.723
F0.0909
F0.0409
F0.0008
g11
(g15
S'\x00\x00\x00\x00\x00\xc0d@'
p4813
tp4814
Rp4815
tp4816
a(S'bvert_4MeV_neg30tilt_45rot_det10.npy'
p4817
F0.0774
F0.0014
F22.1138
F0.099
F0.0391
F0.0007
g11
(g15
S'\x00\x00\x00\x00\x00\xa0c@'
p4818
tp4819
Rp4820
tp4821
a(S'bvert_4MeV_neg30tilt_45rot_det11.npy'
p4822
F0.235
F0.0027
F26.4945
F0.099
F0.128
F0.0017
g11
(g15
S'\x00\x00\x00\x00\x00`c@'
p4823
tp4824
Rp4825
tp4826
a(S'bvert_4MeV_neg30tilt_45rot_det12.npy'
p4827
F0.5038
F0.0042
F26.4949
F0.0988
F0.2906
F0.0028
g11
(g15
S'\x00\x00\x00\x00\x00@a@'
p4828
tp4829
Rp4830
tp4831
a(S'bvert_4MeV_neg30tilt_45rot_det13.npy'
p4832
F0.811
F0.0076
F31.5676
F0.1375
F0.4913
F0.005
g11
(g15
S'\x00\x00\x00\x00\x00\x00b@'
p4833
tp4834
Rp4835
tp4836
a(S'bvert_4MeV_neg30tilt_45rot_det14.npy'
p4837
F1.1302
F0.0103
F41.1165
F0.2171
F0.7069
F0.0072
g11
(g15
S'\x00\x00\x00\x00\x00\x80_@'
p4838
tp4839
Rp4840
tp4841
a(S'bvert_4MeV_neg30tilt_45rot_det15.npy'
p4842
F1.3966
F0.0159
F64.9298
F0.546
F0.8964
F0.0119
g11
(g15
S'\x00\x00\x00\x00\x00\x80Q@'
p4843
tp4844
Rp4845
tp4846
a(S'bvert_4MeV_neg30tilt_45rot_det4.npy'
p4847
F1.426
F0.0155
F63.2596
F0.5183
F0.9167
F0.0114
g11
(g15
S'\x00\x00\x00\x00\x00\xc0S@'
p4848
tp4849
Rp4850
tp4851
a(S'bvert_4MeV_neg30tilt_45rot_det5.npy'
p4852
F1.1592
F0.0103
F39.052
F0.2227
F0.7302
F0.0072
g11
(g15
S'\x00\x00\x00\x00\x00\x80X@'
p4853
tp4854
Rp4855
tp4856
a(S'bvert_4MeV_neg30tilt_45rot_det6.npy'
p4857
F0.8176
F0.0073
F28.8893
F0.1395
F0.4997
F0.0052
g11
(g15
S'\x00\x00\x00\x00\x00\xc0a@'
p4858
tp4859
Rp4860
tp4861
a(S'bvert_4MeV_neg30tilt_45rot_det7.npy'
p4862
F0.498
F0.005
F25.4322
F0.1031
F0.2901
F0.0033
g11
(g15
S'\x00\x00\x00\x00\x00\xa0c@'
p4863
tp4864
Rp4865
tp4866
a(S'bvert_4MeV_neg30tilt_45rot_det8.npy'
p4867
F0.2406
F0.0026
F25.8225
F0.0833
F0.1309
F0.0016
g11
(g15
S'\x00\x00\x00\x00\x00@d@'
p4868
tp4869
Rp4870
tp4871
a(S'bvert_4MeV_neg30tilt_45rot_det9.npy'
p4872
F0.0764
F0.0016
F23.7968
F0.1026
F0.0388
F0.0008
g11
(g15
S'\x00\x00\x00\x00\x00`a@'
p4873
tp4874
Rp4875
tp4876
a(S'bvert_4MeV_neg30tilt_55rot_det10.npy'
p4877
F0.0801
F0.0016
F22.2819
F0.1044
F0.0405
F0.0009
g11
(g15
S'\x00\x00\x00\x00\x00\x00]@'
p4878
tp4879
Rp4880
tp4881
a(S'bvert_4MeV_neg30tilt_55rot_det11.npy'
p4882
F0.2464
F0.0032
F26.6018
F0.0956
F0.1341
F0.0019
g11
(g15
S'\x00\x00\x00\x00\x00\x80_@'
p4883
tp4884
Rp4885
tp4886
a(S'bvert_4MeV_neg30tilt_55rot_det12.npy'
p4887
F0.5113
F0.0051
F26.4347
F0.1049
F0.295
F0.0033
g11
(g15
S'\x00\x00\x00\x00\x00\xc0^@'
p4888
tp4889
Rp4890
tp4891
a(S'bvert_4MeV_neg30tilt_55rot_det13.npy'
p4892
F0.8099
F0.0092
F31.7077
F0.1595
F0.4884
F0.0063
g11
(g15
S'\x00\x00\x00\x00\x00@\\@'
p4893
tp4894
Rp4895
tp4896
a(S'bvert_4MeV_neg30tilt_55rot_det14.npy'
p4897
F1.1425
F0.013
F40.8227
F0.2778
F0.7203
F0.0099
g11
(g15
S'\x00\x00\x00\x00\x00\xc0Q@'
p4898
tp4899
Rp4900
tp4901
a(S'bvert_4MeV_neg30tilt_55rot_det15.npy'
p4902
F1.4894
F0.0145
F65.1968
F0.6051
F0.9558
F0.0108
g11
(g15
S'\x00\x00\x00\x00\x00\x80J@'
p4903
tp4904
Rp4905
tp4906
a(S'bvert_4MeV_neg30tilt_55rot_det4.npy'
p4907
F1.3854
F0.0165
F63.2862
F0.5605
F0.8862
F0.0117
g11
(g15
S'\x00\x00\x00\x00\x00\x80O@'
p4908
tp4909
Rp4910
tp4911
a(S'bvert_4MeV_neg30tilt_55rot_det5.npy'
p4912
F1.1392
F0.0099
F39.1498
F0.2524
F0.7161
F0.007
g11
(g15
S'\x00\x00\x00\x00\x00\x00V@'
p4913
tp4914
Rp4915
tp4916
a(S'bvert_4MeV_neg30tilt_55rot_det6.npy'
p4917
F0.7809
F0.009
F29.1865
F0.1661
F0.4733
F0.006
g11
(g15
S'\x00\x00\x00\x00\x00\xc0\\@'
p4918
tp4919
Rp4920
tp4921
a(S'bvert_4MeV_neg30tilt_55rot_det7.npy'
p4922
F0.4802
F0.0045
F25.4495
F0.1161
F0.2795
F0.0029
g11
(g15
S'\x00\x00\x00\x00\x00\xc0_@'
p4923
tp4924
Rp4925
tp4926
a(S'bvert_4MeV_neg30tilt_55rot_det8.npy'
p4927
F0.2297
F0.0036
F25.7769
F0.0949
F0.1257
F0.0023
g11
(g15
S'\x00\x00\x00\x00\x00\x80[@'
p4928
tp4929
Rp4930
tp4931
a(S'bvert_4MeV_neg30tilt_55rot_det9.npy'
p4932
F0.0793
F0.0013
F23.9125
F0.1015
F0.0396
F0.0007
g11
(g15
S'\x00\x00\x00\x00\x00@^@'
p4933
tp4934
Rp4935
tp4936
a(S'bvert_4MeV_neg30tilt_5rot_det10.npy'
p4937
F0.0646
F0.0012
F22.2503
F0.0807
F0.0312
F0.0006
g11
(g15
S'\x00\x00\x00\x00\x00 d@'
p4938
tp4939
Rp4940
tp4941
a(S'bvert_4MeV_neg30tilt_5rot_det11.npy'
p4942
F0.2077
F0.0029
F26.6377
F0.0933
F0.1114
F0.0018
g11
(g15
S'\x00\x00\x00\x00\x00 d@'
p4943
tp4944
Rp4945
tp4946
a(S'bvert_4MeV_neg30tilt_5rot_det12.npy'
p4947
F0.4468
F0.0043
F26.5185
F0.093
F0.2548
F0.0027
g11
(g15
S'\x00\x00\x00\x00\x00 b@'
p4948
tp4949
Rp4950
tp4951
a(S'bvert_4MeV_neg30tilt_5rot_det13.npy'
p4952
F0.7497
F0.0068
F31.4858
F0.1301
F0.4521
F0.0046
g11
(g15
S'\x00\x00\x00\x00\x00`c@'
p4953
tp4954
Rp4955
tp4956
a(S'bvert_4MeV_neg30tilt_5rot_det14.npy'
p4957
F1.1019
F0.0105
F40.7228
F0.2169
F0.691
F0.0074
g11
(g15
S'\x00\x00\x00\x00\x00@_@'
p4958
tp4959
Rp4960
tp4961
a(S'bvert_4MeV_neg30tilt_5rot_det15.npy'
p4962
F1.4264
F0.0159
F65.8745
F0.5634
F0.9162
F0.011
g11
(g15
S'\x00\x00\x00\x00\x00@R@'
p4963
tp4964
Rp4965
tp4966
a(S'bvert_4MeV_neg30tilt_5rot_det4.npy'
p4967
F1.6159
F0.0166
F63.1017
F0.5318
F1.0363
F0.0114
g11
(g15
S'\x00\x00\x00\x00\x00\xc0Q@'
p4968
tp4969
Rp4970
tp4971
a(S'bvert_4MeV_neg30tilt_5rot_det5.npy'
p4972
F1.2887
F0.0127
F39.4439
F0.2316
F0.7997
F0.0085
g11
(g15
S'\x00\x00\x00\x00\x00\x00[@'
p4973
tp4974
Rp4975
tp4976
a(S'bvert_4MeV_neg30tilt_5rot_det6.npy'
p4977
F0.9254
F0.009
F29.3457
F0.1556
F0.5537
F0.0061
g11
(g15
S'\x00\x00\x00\x00\x00`a@'
p4978
tp4979
Rp4980
tp4981
a(S'bvert_4MeV_neg30tilt_5rot_det7.npy'
p4982
F0.5578
F0.0055
F25.5206
F0.0986
F0.3208
F0.0036
g11
(g15
S'\x00\x00\x00\x00\x00\xe0b@'
p4983
tp4984
Rp4985
tp4986
a(S'bvert_4MeV_neg30tilt_5rot_det8.npy'
p4987
F0.2508
F0.0028
F25.6977
F0.0911
F0.1361
F0.0017
g11
(g15
S'\x00\x00\x00\x00\x00\xa0b@'
p4988
tp4989
Rp4990
tp4991
a(S'bvert_4MeV_neg30tilt_5rot_det9.npy'
p4992
F0.075
F0.0015
F23.6777
F0.1029
F0.0377
F0.0009
g11
(g15
S'\x00\x00\x00\x00\x00@\\@'
p4993
tp4994
Rp4995
tp4996
a(S'bvert_4MeV_neg30tilt_75rot_det10.npy'
p4997
F0.0796
F0.0013
F22.0053
F0.0972
F0.0403
F0.0007
g11
(g15
S'\x00\x00\x00\x00\x00\xa0b@'
p4998
tp4999
Rp5000
tp5001
a(S'bvert_4MeV_neg30tilt_75rot_det11.npy'
p5002
F0.2602
F0.003
F26.5856
F0.102
F0.1407
F0.0018
g11
(g15
S'\x00\x00\x00\x00\x00\x00c@'
p5003
tp5004
Rp5005
tp5006
a(S'bvert_4MeV_neg30tilt_75rot_det12.npy'
p5007
F0.5481
F0.0047
F26.4895
F0.0954
F0.3154
F0.003
g11
(g15
S'\x00\x00\x00\x00\x00 e@'
p5008
tp5009
Rp5010
tp5011
a(S'bvert_4MeV_neg30tilt_75rot_det13.npy'
p5012
F0.9021
F0.0074
F31.5796
F0.1216
F0.5431
F0.005
g11
(g15
S'\x00\x00\x00\x00\x00@e@'
p5013
tp5014
Rp5015
tp5016
a(S'bvert_4MeV_neg30tilt_75rot_det14.npy'
p5017
F1.2656
F0.0105
F40.8532
F0.2417
F0.7895
F0.0076
g11
(g15
S'\x00\x00\x00\x00\x00\xc0X@'
p5018
tp5019
Rp5020
tp5021
a(S'bvert_4MeV_neg30tilt_75rot_det15.npy'
p5022
F1.4989
F0.018
F64.333
F0.5596
F0.9541
F0.0126
g11
(g15
S'\x00\x00\x00\x00\x00@R@'
p5023
tp5024
Rp5025
tp5026
a(S'bvert_4MeV_neg30tilt_75rot_det4.npy'
p5027
F1.4093
F0.0125
F62.854
F0.4579
F0.9024
F0.0088
g11
(g15
S'\x00\x00\x00\x00\x00@[@'
p5028
tp5029
Rp5030
tp5031
a(S'bvert_4MeV_neg30tilt_75rot_det5.npy'
p5032
F1.0852
F0.0081
F38.5922
F0.2096
F0.6768
F0.0056
g11
(g15
S'\x00\x00\x00\x00\x00@_@'
p5033
tp5034
Rp5035
tp5036
a(S'bvert_4MeV_neg30tilt_75rot_det6.npy'
p5037
F0.7638
F0.0055
F29.1005
F0.1219
F0.4615
F0.0038
g11
(g15
S'\x00\x00\x00\x00\x00\xa0g@'
p5038
tp5039
Rp5040
tp5041
a(S'bvert_4MeV_neg30tilt_75rot_det7.npy'
p5042
F0.4451
F0.0037
F25.5986
F0.1001
F0.2561
F0.0024
g11
(g15
S'\x00\x00\x00\x00\x00\xe0e@'
p5043
tp5044
Rp5045
tp5046
a(S'bvert_4MeV_neg30tilt_75rot_det8.npy'
p5047
F0.2165
F0.0025
F25.6657
F0.0932
F0.118
F0.0015
g11
(g15
S'\x00\x00\x00\x00\x00\xe0d@'
p5048
tp5049
Rp5050
tp5051
a(S'bvert_4MeV_neg30tilt_75rot_det9.npy'
p5052
F0.0703
F0.0013
F23.8683
F0.094
F0.0346
F0.0007
g11
(g15
S'\x00\x00\x00\x00\x00\xa0c@'
p5053
tp5054
Rp5055
tp5056
a(S'bvert_4MeV_neg30tilt_95rot_det10.npy'
p5057
F0.0785
F0.0013
F22.0242
F0.092
F0.0393
F0.0007
g11
(g15
S'\x00\x00\x00\x00\x00\xe0a@'
p5058
tp5059
Rp5060
tp5061
a(S'bvert_4MeV_neg30tilt_95rot_det11.npy'
p5062
F0.2463
F0.0029
F26.5911
F0.091
F0.1347
F0.0017
g11
(g15
S'\x00\x00\x00\x00\x00\x80d@'
p5063
tp5064
Rp5065
tp5066
a(S'bvert_4MeV_neg30tilt_95rot_det12.npy'
p5067
F0.5525
F0.006
F26.4087
F0.099
F0.318
F0.0038
g11
(g15
S'\x00\x00\x00\x00\x00\xa0b@'
p5068
tp5069
Rp5070
tp5071
a(S'bvert_4MeV_neg30tilt_95rot_det13.npy'
p5072
F0.9194
F0.0087
F31.6306
F0.1452
F0.5498
F0.0057
g11
(g15
S'\x00\x00\x00\x00\x00\xc0a@'
p5073
tp5074
Rp5075
tp5076
a(S'bvert_4MeV_neg30tilt_95rot_det14.npy'
p5077
F1.3269
F0.0118
F40.6514
F0.24
F0.8204
F0.008
g11
(g15
S'\x00\x00\x00\x00\x00\xc0T@'
p5078
tp5079
Rp5080
tp5081
a(S'bvert_4MeV_neg30tilt_95rot_det15.npy'
p5082
F1.6432
F0.0178
F63.5392
F0.5374
F1.0335
F0.0121
g11
(g15
S'\x00\x00\x00\x00\x00\x00S@'
p5083
tp5084
Rp5085
tp5086
a(S'bvert_4MeV_neg30tilt_95rot_det4.npy'
p5087
F1.4581
F0.0137
F62.1484
F0.5193
F0.9377
F0.0097
g11
(g15
S'\x00\x00\x00\x00\x00\x00T@'
p5088
tp5089
Rp5090
tp5091
a(S'bvert_4MeV_neg30tilt_95rot_det5.npy'
p5092
F1.0943
F0.0104
F38.7596
F0.2251
F0.6859
F0.0073
g11
(g15
S'\x00\x00\x00\x00\x00\xc0Z@'
p5093
tp5094
Rp5095
tp5096
a(S'bvert_4MeV_neg30tilt_95rot_det6.npy'
p5097
F0.7443
F0.0072
F29.1131
F0.1364
F0.448
F0.0053
g11
(g15
S'\x00\x00\x00\x00\x00@a@'
p5098
tp5099
Rp5100
tp5101
a(S'bvert_4MeV_neg30tilt_95rot_det7.npy'
p5102
F0.4316
F0.0043
F25.6594
F0.1013
F0.2468
F0.0029
g11
(g15
S'\x00\x00\x00\x00\x00`c@'
p5103
tp5104
Rp5105
tp5106
a(S'bvert_4MeV_neg30tilt_95rot_det8.npy'
p5107
F0.2033
F0.0024
F25.7797
F0.0818
F0.1093
F0.0015
g11
(g15
S'\x00\x00\x00\x00\x00\xe0d@'
p5108
tp5109
Rp5110
tp5111
a(S'bvert_4MeV_neg30tilt_95rot_det9.npy'
p5112
F0.0667
F0.0012
F23.7385
F0.0823
F0.0318
F0.0006
g11
(g15
S'\x00\x00\x00\x00\x00\xa0e@'
p5113
tp5114
Rp5115
tp5116
a(S'bvert_4MeV_neg45tilt_115rot_det10.npy'
p5117
F0.0771
F0.0014
F22.3637
F0.0887
F0.0381
F0.0007
g11
(g15
S'\x00\x00\x00\x00\x00`b@'
p5118
tp5119
Rp5120
tp5121
a(S'bvert_4MeV_neg45tilt_115rot_det11.npy'
p5122
F0.2576
F0.0034
F26.5534
F0.0934
F0.1414
F0.0021
g11
(g15
S'\x00\x00\x00\x00\x00\x80`@'
p5123
tp5124
Rp5125
tp5126
a(S'bvert_4MeV_neg45tilt_115rot_det12.npy'
p5127
F0.5329
F0.0047
F26.7998
F0.0949
F0.308
F0.0031
g11
(g15
S'\x00\x00\x00\x00\x00`e@'
p5128
tp5129
Rp5130
tp5131
a(S'bvert_4MeV_neg45tilt_115rot_det13.npy'
p5132
F0.9085
F0.0085
F32.0809
F0.1403
F0.5465
F0.0056
g11
(g15
S'\x00\x00\x00\x00\x00`a@'
p5133
tp5134
Rp5135
tp5136
a(S'bvert_4MeV_neg45tilt_115rot_det14.npy'
p5137
F1.3364
F0.0119
F41.1508
F0.2003
F0.8267
F0.0078
g11
(g15
S'\x00\x00\x00\x00\x00 `@'
p5138
tp5139
Rp5140
tp5141
a(S'bvert_4MeV_neg45tilt_115rot_det15.npy'
p5142
F1.7082
F0.016
F65.6674
F0.5136
F1.0714
F0.0101
g11
(g15
S'\x00\x00\x00\x00\x00\x80S@'
p5143
tp5144
Rp5145
tp5146
a(S'bvert_4MeV_neg45tilt_115rot_det4.npy'
p5147
F1.5397
F0.0176
F62.538
F0.484
F0.9761
F0.0121
g11
(g15
S'\x00\x00\x00\x00\x00\x80X@'
p5148
tp5149
Rp5150
tp5151
a(S'bvert_4MeV_neg45tilt_115rot_det5.npy'
p5152
F1.1894
F0.0115
F38.2488
F0.1956
F0.742
F0.0078
g11
(g15
S'\x00\x00\x00\x00\x00\x00\\@'
p5153
tp5154
Rp5155
tp5156
a(S'bvert_4MeV_neg45tilt_115rot_det6.npy'
p5157
F0.8034
F0.0078
F28.982
F0.1397
F0.4835
F0.0053
g11
(g15
S'\x00\x00\x00\x00\x00\x80`@'
p5158
tp5159
Rp5160
tp5161
a(S'bvert_4MeV_neg45tilt_115rot_det7.npy'
p5162
F0.4582
F0.0045
F25.3959
F0.0998
F0.2621
F0.0029
g11
(g15
S'\x00\x00\x00\x00\x00\x00e@'
p5163
tp5164
Rp5165
tp5166
a(S'bvert_4MeV_neg45tilt_115rot_det8.npy'
p5167
F0.2113
F0.0026
F25.7367
F0.0913
F0.1114
F0.0016
g11
(g15
S'\x00\x00\x00\x00\x00\xc0d@'
p5168
tp5169
Rp5170
tp5171
a(S'bvert_4MeV_neg45tilt_115rot_det9.npy'
p5172
F0.0643
F0.0011
F24.0045
F0.0899
F0.0301
F0.0006
g11
(g15
S'\x00\x00\x00\x00\x00\xe0e@'
p5173
tp5174
Rp5175
tp5176
a(S'bvert_4MeV_neg45tilt_135rot_det10.npy'
p5177
F0.0738
F0.0015
F22.2811
F0.0952
F0.0354
F0.0008
g11
(g15
S'\x00\x00\x00\x00\x00\xa0`@'
p5178
tp5179
Rp5180
tp5181
a(S'bvert_4MeV_neg45tilt_135rot_det11.npy'
p5182
F0.2433
F0.0024
F26.7313
F0.0928
F0.1326
F0.0015
g11
(g15
S'\x00\x00\x00\x00\x00\x80c@'
p5183
tp5184
Rp5185
tp5186
a(S'bvert_4MeV_neg45tilt_135rot_det12.npy'
p5187
F0.5151
F0.0045
F26.7415
F0.1053
F0.2997
F0.003
g11
(g15
S'\x00\x00\x00\x00\x00\xc0e@'
p5188
tp5189
Rp5190
tp5191
a(S'bvert_4MeV_neg45tilt_135rot_det13.npy'
p5192
F0.8997
F0.0077
F31.9151
F0.1181
F0.5472
F0.0051
g11
(g15
S'\x00\x00\x00\x00\x00 f@'
p5193
tp5194
Rp5195
tp5196
a(S'bvert_4MeV_neg45tilt_135rot_det14.npy'
p5197
F1.3115
F0.0108
F41.7368
F0.2252
F0.8206
F0.0074
g11
(g15
S'\x00\x00\x00\x00\x00\x00_@'
p5198
tp5199
Rp5200
tp5201
a(S'bvert_4MeV_neg45tilt_135rot_det15.npy'
p5202
F1.6702
F0.0198
F66.1959
F0.7034
F1.0607
F0.014
g11
(g15
S'\x00\x00\x00\x00\x00\x00K@'
p5203
tp5204
Rp5205
tp5206
a(S'bvert_4MeV_neg45tilt_135rot_det4.npy'
p5207
F1.6196
F0.0205
F61.7158
F0.4469
F1.0206
F0.0138
g11
(g15
S'\x00\x00\x00\x00\x00\xc0U@'
p5208
tp5209
Rp5210
tp5211
a(S'bvert_4MeV_neg45tilt_135rot_det5.npy'
p5212
F1.2713
F0.0128
F38.3063
F0.2253
F0.7875
F0.0088
g11
(g15
S'\x00\x00\x00\x00\x00\xc0[@'
p5213
tp5214
Rp5215
tp5216
a(S'bvert_4MeV_neg45tilt_135rot_det6.npy'
p5217
F0.8514
F0.0066
F28.6755
F0.1257
F0.5138
F0.0044
g11
(g15
S'\x00\x00\x00\x00\x00\x80e@'
p5218
tp5219
Rp5220
tp5221
a(S'bvert_4MeV_neg45tilt_135rot_det7.npy'
p5222
F0.4772
F0.0048
F25.4728
F0.0986
F0.2747
F0.0031
g11
(g15
S'\x00\x00\x00\x00\x00\x00f@'
p5223
tp5224
Rp5225
tp5226
a(S'bvert_4MeV_neg45tilt_135rot_det8.npy'
p5227
F0.217
F0.0026
F25.7628
F0.0919
F0.1155
F0.0016
g11
(g15
S'\x00\x00\x00\x00\x00\xa0c@'
p5228
tp5229
Rp5230
tp5231
a(S'bvert_4MeV_neg45tilt_135rot_det9.npy'
p5232
F0.0652
F0.0011
F23.7799
F0.0899
F0.0311
F0.0006
g11
(g15
S'\x00\x00\x00\x00\x00\xe0e@'
p5233
tp5234
Rp5235
tp5236
a(S'bvert_4MeV_neg45tilt_15rot_det10.npy'
p5237
F0.068
F0.0012
F22.1187
F0.1047
F0.033
F0.0007
g11
(g15
S'\x00\x00\x00\x00\x00\x00a@'
p5238
tp5239
Rp5240
tp5241
a(S'bvert_4MeV_neg45tilt_15rot_det11.npy'
p5242
F0.2176
F0.0031
F26.643
F0.1067
F0.1165
F0.0018
g11
(g15
S'\x00\x00\x00\x00\x00\xc0`@'
p5243
tp5244
Rp5245
tp5246
a(S'bvert_4MeV_neg45tilt_15rot_det12.npy'
p5247
F0.4654
F0.0056
F26.7228
F0.1074
F0.2661
F0.0035
g11
(g15
S'\x00\x00\x00\x00\x00\xe0b@'
p5248
tp5249
Rp5250
tp5251
a(S'bvert_4MeV_neg45tilt_15rot_det13.npy'
p5252
F0.7979
F0.0082
F31.5246
F0.1476
F0.482
F0.0055
g11
(g15
S'\x00\x00\x00\x00\x00\x00`@'
p5253
tp5254
Rp5255
tp5256
a(S'bvert_4MeV_neg45tilt_15rot_det14.npy'
p5257
F1.1524
F0.012
F40.6825
F0.2232
F0.7193
F0.0082
g11
(g15
S'\x00\x00\x00\x00\x00\x80Z@'
p5258
tp5259
Rp5260
tp5261
a(S'bvert_4MeV_neg45tilt_15rot_det15.npy'
p5262
F1.4898
F0.0184
F65.1564
F0.6606
F0.9556
F0.0129
g11
(g15
S'\x00\x00\x00\x00\x00\x00P@'
p5263
tp5264
Rp5265
tp5266
a(S'bvert_4MeV_neg45tilt_15rot_det4.npy'
p5267
F1.5583
F0.0214
F63.0982
F0.6763
F0.9928
F0.0147
g11
(g15
S'\x00\x00\x00\x00\x00\x00L@'
p5268
tp5269
Rp5270
tp5271
a(S'bvert_4MeV_neg45tilt_15rot_det5.npy'
p5272
F1.2641
F0.0129
F39.1925
F0.2292
F0.7881
F0.0088
g11
(g15
S'\x00\x00\x00\x00\x00\x00\\@'
p5273
tp5274
Rp5275
tp5276
a(S'bvert_4MeV_neg45tilt_15rot_det6.npy'
p5277
F0.9004
F0.0097
F29.3222
F0.1492
F0.5404
F0.0064
g11
(g15
S'\x00\x00\x00\x00\x00\xc0`@'
p5278
tp5279
Rp5280
tp5281
a(S'bvert_4MeV_neg45tilt_15rot_det7.npy'
p5282
F0.5471
F0.0061
F25.5319
F0.115
F0.3132
F0.0041
g11
(g15
S'\x00\x00\x00\x00\x00\x80b@'
p5283
tp5284
Rp5285
tp5286
a(S'bvert_4MeV_neg45tilt_15rot_det8.npy'
p5287
F0.2603
F0.0031
F25.7696
F0.0971
F0.1419
F0.0019
g11
(g15
S'\x00\x00\x00\x00\x00@c@'
p5288
tp5289
Rp5290
tp5291
a(S'bvert_4MeV_neg45tilt_15rot_det9.npy'
p5292
F0.0805
F0.0015
F23.8317
F0.0997
F0.04
F0.0008
g11
(g15
S'\x00\x00\x00\x00\x00\xa0`@'
p5293
tp5294
Rp5295
tp5296
a(S'bvert_4MeV_neg45tilt_25rot_det10.npy'
p5297
F0.0724
F0.0014
F22.3911
F0.1018
F0.0357
F0.0007
g11
(g15
S'\x00\x00\x00\x00\x00@a@'
p5298
tp5299
Rp5300
tp5301
a(S'bvert_4MeV_neg45tilt_25rot_det11.npy'
p5302
F0.2295
F0.0028
F26.6982
F0.1033
F0.1227
F0.0017
g11
(g15
S'\x00\x00\x00\x00\x00@b@'
p5303
tp5304
Rp5305
tp5306
a(S'bvert_4MeV_neg45tilt_25rot_det12.npy'
p5307
F0.4664
F0.0047
F26.5601
F0.1089
F0.2681
F0.003
g11
(g15
S'\x00\x00\x00\x00\x00\x00c@'
p5308
tp5309
Rp5310
tp5311
a(S'bvert_4MeV_neg45tilt_25rot_det13.npy'
p5312
F0.8121
F0.0064
F31.4335
F0.1387
F0.4914
F0.0044
g11
(g15
S'\x00\x00\x00\x00\x00\xa0a@'
p5313
tp5314
Rp5315
tp5316
a(S'bvert_4MeV_neg45tilt_25rot_det14.npy'
p5317
F1.1326
F0.0101
F40.7132
F0.2104
F0.7102
F0.0071
g11
(g15
S'\x00\x00\x00\x00\x00 `@'
p5318
tp5319
Rp5320
tp5321
a(S'bvert_4MeV_neg45tilt_25rot_det15.npy'
p5322
F1.4612
F0.0181
F64.9826
F0.5355
F0.9372
F0.013
g11
(g15
S'\x00\x00\x00\x00\x00\x80R@'
p5323
tp5324
Rp5325
tp5326
a(S'bvert_4MeV_neg45tilt_25rot_det4.npy'
p5327
F1.5235
F0.0196
F62.9256
F0.5177
F0.9818
F0.0134
g11
(g15
S'\x00\x00\x00\x00\x00@S@'
p5328
tp5329
Rp5330
tp5331
a(S'bvert_4MeV_neg45tilt_25rot_det5.npy'
p5332
F1.2427
F0.0116
F38.4257
F0.208
F0.781
F0.0078
g11
(g15
S'\x00\x00\x00\x00\x00\x00^@'
p5333
tp5334
Rp5335
tp5336
a(S'bvert_4MeV_neg45tilt_25rot_det6.npy'
p5337
F0.8788
F0.0086
F28.8056
F0.159
F0.5308
F0.0057
g11
(g15
S'\x00\x00\x00\x00\x00\x00_@'
p5338
tp5339
Rp5340
tp5341
a(S'bvert_4MeV_neg45tilt_25rot_det7.npy'
p5342
F0.5328
F0.0054
F25.6274
F0.1004
F0.308
F0.0034
g11
(g15
S'\x00\x00\x00\x00\x00\xc0c@'
p5343
tp5344
Rp5345
tp5346
a(S'bvert_4MeV_neg45tilt_25rot_det8.npy'
p5347
F0.2597
F0.0032
F25.6988
F0.0977
F0.1401
F0.0019
g11
(g15
S'\x00\x00\x00\x00\x00\xc0_@'
p5348
tp5349
Rp5350
tp5351
a(S'bvert_4MeV_neg45tilt_25rot_det9.npy'
p5352
F0.0768
F0.0014
F24.062
F0.1042
F0.039
F0.0007
g11
(g15
S'\x00\x00\x00\x00\x00\xc0`@'
p5353
tp5354
Rp5355
tp5356
a(S'bvert_4MeV_neg45tilt_315rot_det10.npy'
p5357
F0.0689
F0.0013
F22.0364
F0.0937
F0.0337
F0.0008
g11
(g15
S'\x00\x00\x00\x00\x00`b@'
p5358
tp5359
Rp5360
tp5361
a(S'bvert_4MeV_neg45tilt_315rot_det11.npy'
p5362
F0.2266
F0.0028
F26.5663
F0.0926
F0.1221
F0.0017
g11
(g15
S'\x00\x00\x00\x00\x00\x80e@'
p5363
tp5364
Rp5365
tp5366
a(S'bvert_4MeV_neg45tilt_315rot_det12.npy'
p5367
F0.5088
F0.005
F26.2299
F0.0941
F0.2948
F0.0033
g11
(g15
S'\x00\x00\x00\x00\x00\x80e@'
p5368
tp5369
Rp5370
tp5371
a(S'bvert_4MeV_neg45tilt_315rot_det13.npy'
p5372
F0.8631
F0.0089
F31.4602
F0.1517
F0.5252
F0.0058
g11
(g15
S'\x00\x00\x00\x00\x00@_@'
p5373
tp5374
Rp5375
tp5376
a(S'bvert_4MeV_neg45tilt_315rot_det14.npy'
p5377
F1.2575
F0.0122
F40.5836
F0.2509
F0.781
F0.0084
g11
(g15
S'\x00\x00\x00\x00\x00\x80\\@'
p5378
tp5379
Rp5380
tp5381
a(S'bvert_4MeV_neg45tilt_315rot_det15.npy'
p5382
F1.6683
F0.017
F64.5154
F0.5524
F1.0579
F0.0117
g11
(g15
S'\x00\x00\x00\x00\x00\x80S@'
p5383
tp5384
Rp5385
tp5386
a(S'bvert_4MeV_neg45tilt_315rot_det4.npy'
p5387
F1.6537
F0.017
F64.2591
F0.5291
F1.0442
F0.0115
g11
(g15
S'\x00\x00\x00\x00\x00\xc0U@'
p5388
tp5389
Rp5390
tp5391
a(S'bvert_4MeV_neg45tilt_315rot_det5.npy'
p5392
F1.2658
F0.0113
F39.0853
F0.2118
F0.7858
F0.0079
g11
(g15
S'\x00\x00\x00\x00\x00\x00\\@'
p5393
tp5394
Rp5395
tp5396
a(S'bvert_4MeV_neg45tilt_315rot_det6.npy'
p5397
F0.8696
F0.0085
F29.4766
F0.1481
F0.5227
F0.0056
g11
(g15
S'\x00\x00\x00\x00\x00`a@'
p5398
tp5399
Rp5400
tp5401
a(S'bvert_4MeV_neg45tilt_315rot_det7.npy'
p5402
F0.5083
F0.0047
F25.8054
F0.1091
F0.2939
F0.0031
g11
(g15
S'\x00\x00\x00\x00\x00\x80d@'
p5403
tp5404
Rp5405
tp5406
a(S'bvert_4MeV_neg45tilt_315rot_det8.npy'
p5407
F0.2394
F0.0027
F25.7514
F0.0854
F0.1295
F0.0016
g11
(g15
S'\x00\x00\x00\x00\x00\xe0a@'
p5408
tp5409
Rp5410
tp5411
a(S'bvert_4MeV_neg45tilt_315rot_det9.npy'
p5412
F0.0737
F0.0014
F23.9018
F0.0918
F0.0355
F0.0007
g11
(g15
S'\x00\x00\x00\x00\x00\x80d@'
p5413
tp5414
Rp5415
tp5416
a(S'bvert_4MeV_neg45tilt_335rot_det10.npy'
p5417
F0.0652
F0.0012
F22.0807
F0.084
F0.031
F0.0007
g11
(g15
S'\x00\x00\x00\x00\x00\x00e@'
p5418
tp5419
Rp5420
tp5421
a(S'bvert_4MeV_neg45tilt_335rot_det11.npy'
p5422
F0.2116
F0.003
F26.7075
F0.0964
F0.1122
F0.0017
g11
(g15
S'\x00\x00\x00\x00\x00 g@'
p5423
tp5424
Rp5425
tp5426
a(S'bvert_4MeV_neg45tilt_335rot_det12.npy'
p5427
F0.473
F0.0045
F26.4377
F0.098
F0.2719
F0.0029
g11
(g15
S'\x00\x00\x00\x00\x00\x00f@'
p5428
tp5429
Rp5430
tp5431
a(S'bvert_4MeV_neg45tilt_335rot_det13.npy'
p5432
F0.8414
F0.0073
F31.4716
F0.1335
F0.5101
F0.0051
g11
(g15
S'\x00\x00\x00\x00\x00\x00b@'
p5433
tp5434
Rp5435
tp5436
a(S'bvert_4MeV_neg45tilt_335rot_det14.npy'
p5437
F1.2161
F0.0105
F40.7754
F0.2141
F0.7643
F0.0074
g11
(g15
S'\x00\x00\x00\x00\x00@\\@'
p5438
tp5439
Rp5440
tp5441
a(S'bvert_4MeV_neg45tilt_335rot_det15.npy'
p5442
F1.5877
F0.0205
F65.648
F0.6444
F1.0131
F0.0144
g11
(g15
S'\x00\x00\x00\x00\x00\x00H@'
p5443
tp5444
Rp5445
tp5446
a(S'bvert_4MeV_neg45tilt_335rot_det4.npy'
p5447
F1.6834
F0.0239
F63.7242
F0.6294
F1.0541
F0.0161
g11
(g15
S'\x00\x00\x00\x00\x00\x00Q@'
p5448
tp5449
Rp5450
tp5451
a(S'bvert_4MeV_neg45tilt_335rot_det5.npy'
p5452
F1.3162
F0.0127
F39.2096
F0.2034
F0.8104
F0.0084
g11
(g15
S'\x00\x00\x00\x00\x00@_@'
p5453
tp5454
Rp5455
tp5456
a(S'bvert_4MeV_neg45tilt_335rot_det6.npy'
p5457
F0.9133
F0.0083
F29.5699
F0.1565
F0.5479
F0.0054
g11
(g15
S'\x00\x00\x00\x00\x00 b@'
p5458
tp5459
Rp5460
tp5461
a(S'bvert_4MeV_neg45tilt_335rot_det7.npy'
p5462
F0.5256
F0.005
F25.9209
F0.1101
F0.3035
F0.0032
g11
(g15
S'\x00\x00\x00\x00\x00`b@'
p5463
tp5464
Rp5465
tp5466
a(S'bvert_4MeV_neg45tilt_335rot_det8.npy'
p5467
F0.246
F0.0031
F25.7139
F0.0993
F0.1342
F0.0019
g11
(g15
S'\x00\x00\x00\x00\x00\x80`@'
p5468
tp5469
Rp5470
tp5471
a(S'bvert_4MeV_neg45tilt_335rot_det9.npy'
p5472
F0.0728
F0.0013
F23.9185
F0.1042
F0.036
F0.0008
g11
(g15
S'\x00\x00\x00\x00\x00\xa0`@'
p5473
tp5474
Rp5475
tp5476
a(S'bvert_4MeV_neg45tilt_345rot_det10.npy'
p5477
F0.0685
F0.0013
F22.0862
F0.0963
F0.0324
F0.0007
g11
(g15
S'\x00\x00\x00\x00\x00\xc0a@'
p5478
tp5479
Rp5480
tp5481
a(S'bvert_4MeV_neg45tilt_345rot_det11.npy'
p5482
F0.2167
F0.0027
F26.4941
F0.0972
F0.1148
F0.0016
g11
(g15
S'\x00\x00\x00\x00\x00@d@'
p5483
tp5484
Rp5485
tp5486
a(S'bvert_4MeV_neg45tilt_345rot_det12.npy'
p5487
F0.47
F0.005
F26.4206
F0.1096
F0.2687
F0.003
g11
(g15
S'\x00\x00\x00\x00\x00\xa0b@'
p5488
tp5489
Rp5490
tp5491
a(S'bvert_4MeV_neg45tilt_345rot_det13.npy'
p5492
F0.8034
F0.0079
F31.3883
F0.1518
F0.4864
F0.0053
g11
(g15
S'\x00\x00\x00\x00\x00\xc0a@'
p5493
tp5494
Rp5495
tp5496
a(S'bvert_4MeV_neg45tilt_345rot_det14.npy'
p5497
F1.191
F0.012
F41.2743
F0.247
F0.7473
F0.0085
g11
(g15
S'\x00\x00\x00\x00\x00\xc0\\@'
p5498
tp5499
Rp5500
tp5501
a(S'bvert_4MeV_neg45tilt_345rot_det15.npy'
p5502
F1.552
F0.0175
F64.7319
F0.5072
F0.9952
F0.0125
g11
(g15
S'\x00\x00\x00\x00\x00@R@'
p5503
tp5504
Rp5505
tp5506
a(S'bvert_4MeV_neg45tilt_345rot_det4.npy'
p5507
F1.6838
F0.0172
F63.5299
F0.5208
F1.0538
F0.0114
g11
(g15
S'\x00\x00\x00\x00\x00\x00V@'
p5508
tp5509
Rp5510
tp5511
a(S'bvert_4MeV_neg45tilt_345rot_det5.npy'
p5512
F1.3693
F0.0104
F39.2576
F0.2328
F0.8511
F0.0073
g11
(g15
S'\x00\x00\x00\x00\x00@[@'
p5513
tp5514
Rp5515
tp5516
a(S'bvert_4MeV_neg45tilt_345rot_det6.npy'
p5517
F0.9388
F0.009
F29.2293
F0.169
F0.5585
F0.0059
g11
(g15
S'\x00\x00\x00\x00\x00\x00]@'
p5518
tp5519
Rp5520
tp5521
a(S'bvert_4MeV_neg45tilt_345rot_det7.npy'
p5522
F0.5413
F0.0052
F25.7242
F0.1088
F0.3108
F0.0032
g11
(g15
S'\x00\x00\x00\x00\x00\xe0d@'
p5523
tp5524
Rp5525
tp5526
a(S'bvert_4MeV_neg45tilt_345rot_det8.npy'
p5527
F0.2484
F0.003
F25.7547
F0.0932
F0.1339
F0.0017
g11
(g15
S'\x00\x00\x00\x00\x00\xa0c@'
p5528
tp5529
Rp5530
tp5531
a(S'bvert_4MeV_neg45tilt_345rot_det9.npy'
p5532
F0.077
F0.0015
F23.8161
F0.0893
F0.0382
F0.0009
g11
(g15
S'\x00\x00\x00\x00\x00\xc0b@'
p5533
tp5534
Rp5535
tp5536
a(S'bvert_4MeV_neg45tilt_355rot_det10.npy'
p5537
F0.0684
F0.0013
F22.1355
F0.0867
F0.0329
F0.0007
g11
(g15
S'\x00\x00\x00\x00\x00@b@'
p5538
tp5539
Rp5540
tp5541
a(S'bvert_4MeV_neg45tilt_355rot_det11.npy'
p5542
F0.2138
F0.0028
F26.6732
F0.0949
F0.1131
F0.0016
g11
(g15
S'\x00\x00\x00\x00\x00 a@'
p5543
tp5544
Rp5545
tp5546
a(S'bvert_4MeV_neg45tilt_355rot_det12.npy'
p5547
F0.469
F0.0057
F26.4211
F0.1096
F0.2694
F0.0035
g11
(g15
S'\x00\x00\x00\x00\x00 b@'
p5548
tp5549
Rp5550
tp5551
a(S'bvert_4MeV_neg45tilt_355rot_det13.npy'
p5552
F0.7965
F0.0068
F31.3706
F0.1253
F0.4808
F0.0046
g11
(g15
S'\x00\x00\x00\x00\x00\xa0e@'
p5553
tp5554
Rp5555
tp5556
a(S'bvert_4MeV_neg45tilt_355rot_det14.npy'
p5557
F1.1666
F0.0116
F40.6437
F0.2426
F0.7287
F0.0083
g11
(g15
S'\x00\x00\x00\x00\x00@X@'
p5558
tp5559
Rp5560
tp5561
a(S'bvert_4MeV_neg45tilt_355rot_det15.npy'
p5562
F1.5328
F0.0192
F66.0102
F0.5818
F0.9847
F0.0145
g11
(g15
S'\x00\x00\x00\x00\x00\x00L@'
p5563
tp5564
Rp5565
tp5566
a(S'bvert_4MeV_neg45tilt_355rot_det4.npy'
p5567
F1.6551
F0.0178
F63.8916
F0.5824
F1.0474
F0.0126
g11
(g15
S'\x00\x00\x00\x00\x00\x00R@'
p5568
tp5569
Rp5570
tp5571
a(S'bvert_4MeV_neg45tilt_355rot_det5.npy'
p5572
F1.3369
F0.0121
F39.5895
F0.235
F0.8251
F0.0083
g11
(g15
S'\x00\x00\x00\x00\x00\x00^@'
p5573
tp5574
Rp5575
tp5576
a(S'bvert_4MeV_neg45tilt_355rot_det6.npy'
p5577
F0.9456
F0.0082
F29.4847
F0.1489
F0.565
F0.0053
g11
(g15
S'\x00\x00\x00\x00\x00\x80a@'
p5578
tp5579
Rp5580
tp5581
a(S'bvert_4MeV_neg45tilt_355rot_det7.npy'
p5582
F0.5538
F0.0051
F25.6017
F0.1083
F0.318
F0.0033
g11
(g15
S'\x00\x00\x00\x00\x00\xa0c@'
p5583
tp5584
Rp5585
tp5586
a(S'bvert_4MeV_neg45tilt_355rot_det8.npy'
p5587
F0.2535
F0.0031
F25.7784
F0.0916
F0.1372
F0.0018
g11
(g15
S'\x00\x00\x00\x00\x00 a@'
p5588
tp5589
Rp5590
tp5591
a(S'bvert_4MeV_neg45tilt_355rot_det9.npy'
p5592
F0.075
F0.0014
F23.7398
F0.0945
F0.0379
F0.0008
g11
(g15
S'\x00\x00\x00\x00\x00 d@'
p5593
tp5594
Rp5595
tp5596
a(S'bvert_4MeV_neg45tilt_35rot_det10.npy'
p5597
F0.071
F0.0013
F22.1588
F0.0992
F0.0346
F0.0007
g11
(g15
S'\x00\x00\x00\x00\x00\xa0a@'
p5598
tp5599
Rp5600
tp5601
a(S'bvert_4MeV_neg45tilt_35rot_det11.npy'
p5602
F0.2293
F0.0029
F26.7159
F0.0977
F0.1239
F0.0017
g11
(g15
S'\x00\x00\x00\x00\x00\x80a@'
p5603
tp5604
Rp5605
tp5606
a(S'bvert_4MeV_neg45tilt_35rot_det12.npy'
p5607
F0.487
F0.0056
F26.4697
F0.1312
F0.2799
F0.0035
g11
(g15
S'\x00\x00\x00\x00\x00 `@'
p5608
tp5609
Rp5610
tp5611
a(S'bvert_4MeV_neg45tilt_35rot_det13.npy'
p5612
F0.8356
F0.0066
F31.3962
F0.1358
F0.5028
F0.0045
g11
(g15
S'\x00\x00\x00\x00\x00 b@'
p5613
tp5614
Rp5615
tp5616
a(S'bvert_4MeV_neg45tilt_35rot_det14.npy'
p5617
F1.1572
F0.0107
F40.5159
F0.2529
F0.7217
F0.0071
g11
(g15
S'\x00\x00\x00\x00\x00\x80Y@'
p5618
tp5619
Rp5620
tp5621
a(S'bvert_4MeV_neg45tilt_35rot_det15.npy'
p5622
F1.4936
F0.015
F63.8528
F0.5602
F0.9582
F0.0105
g11
(g15
S'\x00\x00\x00\x00\x00@S@'
p5623
tp5624
Rp5625
tp5626
a(S'bvert_4MeV_neg45tilt_35rot_det4.npy'
p5627
F1.5305
F0.0156
F62.2155
F0.5019
F0.983
F0.0114
g11
(g15
S'\x00\x00\x00\x00\x00@P@'
p5628
tp5629
Rp5630
tp5631
a(S'bvert_4MeV_neg45tilt_35rot_det5.npy'
p5632
F1.2457
F0.0104
F38.8028
F0.2186
F0.7838
F0.0073
g11
(g15
S'\x00\x00\x00\x00\x00@\\@'
p5633
tp5634
Rp5635
tp5636
a(S'bvert_4MeV_neg45tilt_35rot_det6.npy'
p5637
F0.8525
F0.008
F28.9989
F0.1664
F0.5159
F0.0053
g11
(g15
S'\x00\x00\x00\x00\x00\x80\\@'
p5638
tp5639
Rp5640
tp5641
a(S'bvert_4MeV_neg45tilt_35rot_det7.npy'
p5642
F0.5248
F0.005
F25.6495
F0.1032
F0.3051
F0.0036
g11
(g15
S'\x00\x00\x00\x00\x00\x00c@'
p5643
tp5644
Rp5645
tp5646
a(S'bvert_4MeV_neg45tilt_35rot_det8.npy'
p5647
F0.2524
F0.0029
F25.8418
F0.0913
F0.1368
F0.0018
g11
(g15
S'\x00\x00\x00\x00\x00\x00b@'
p5648
tp5649
Rp5650
tp5651
a(S'bvert_4MeV_neg45tilt_35rot_det9.npy'
p5652
F0.08
F0.0016
F23.7634
F0.0946
F0.0402
F0.0009
g11
(g15
S'\x00\x00\x00\x00\x00\xe0`@'
p5653
tp5654
Rp5655
tp5656
a(S'bvert_4MeV_neg45tilt_45rot_det10.npy'
p5657
F0.0768
F0.0014
F22.2665
F0.1111
F0.0386
F0.0008
g11
(g15
S'\x00\x00\x00\x00\x00\x00`@'
p5658
tp5659
Rp5660
tp5661
a(S'bvert_4MeV_neg45tilt_45rot_det11.npy'
p5662
F0.231
F0.0035
F26.4792
F0.115
F0.1259
F0.0021
g11
(g15
S'\x00\x00\x00\x00\x00@_@'
p5663
tp5664
Rp5665
tp5666
a(S'bvert_4MeV_neg45tilt_45rot_det12.npy'
p5667
F0.4995
F0.006
F26.6436
F0.1245
F0.2871
F0.0039
g11
(g15
S'\x00\x00\x00\x00\x00\xc0^@'
p5668
tp5669
Rp5670
tp5671
a(S'bvert_4MeV_neg45tilt_45rot_det13.npy'
p5672
F0.832
F0.0073
F31.6669
F0.1315
F0.502
F0.005
g11
(g15
S'\x00\x00\x00\x00\x00\xe0c@'
p5673
tp5674
Rp5675
tp5676
a(S'bvert_4MeV_neg45tilt_45rot_det14.npy'
p5677
F1.1935
F0.0114
F41.1026
F0.2625
F0.7462
F0.0081
g11
(g15
S'\x00\x00\x00\x00\x00\xc0Z@'
p5678
tp5679
Rp5680
tp5681
a(S'bvert_4MeV_neg45tilt_45rot_det15.npy'
p5682
F1.4612
F0.0153
F64.9428
F0.4475
F0.9272
F0.0109
g11
(g15
S'\x00\x00\x00\x00\x00\x80U@'
p5683
tp5684
Rp5685
tp5686
a(S'bvert_4MeV_neg45tilt_45rot_det4.npy'
p5687
F1.4667
F0.021
F63.1277
F0.5331
F0.9337
F0.0149
g11
(g15
S'\x00\x00\x00\x00\x00\xc0R@'
p5688
tp5689
Rp5690
tp5691
a(S'bvert_4MeV_neg45tilt_45rot_det5.npy'
p5692
F1.2084
F0.0103
F38.9378
F0.2177
F0.76
F0.0073
g11
(g15
S'\x00\x00\x00\x00\x00@\\@'
p5693
tp5694
Rp5695
tp5696
a(S'bvert_4MeV_neg45tilt_45rot_det6.npy'
p5697
F0.8553
F0.007
F29.2028
F0.1489
F0.5188
F0.0048
g11
(g15
S'\x00\x00\x00\x00\x00\xa0`@'
p5698
tp5699
Rp5700
tp5701
a(S'bvert_4MeV_neg45tilt_45rot_det7.npy'
p5702
F0.5068
F0.0054
F25.6904
F0.1146
F0.2943
F0.0034
g11
(g15
S'\x00\x00\x00\x00\x00\x80c@'
p5703
tp5704
Rp5705
tp5706
a(S'bvert_4MeV_neg45tilt_45rot_det8.npy'
p5707
F0.2486
F0.0032
F25.6857
F0.1072
F0.1356
F0.0019
g11
(g15
S'\x00\x00\x00\x00\x00\x80\\@'
p5708
tp5709
Rp5710
tp5711
a(S'bvert_4MeV_neg45tilt_45rot_det9.npy'
p5712
F0.0774
F0.0015
F23.9238
F0.0952
F0.0386
F0.0008
g11
(g15
S'\x00\x00\x00\x00\x00 b@'
p5713
tp5714
Rp5715
tp5716
a(S'bvert_4MeV_neg45tilt_55rot_det10.npy'
p5717
F0.0785
F0.0017
F22.1191
F0.0983
F0.038
F0.0009
g11
(g15
S'\x00\x00\x00\x00\x00\xc0^@'
p5718
tp5719
Rp5720
tp5721
a(S'bvert_4MeV_neg45tilt_55rot_det11.npy'
p5722
F0.2547
F0.0038
F26.7614
F0.1181
F0.1382
F0.0023
g11
(g15
S'\x00\x00\x00\x00\x00\x00`@'
p5723
tp5724
Rp5725
tp5726
a(S'bvert_4MeV_neg45tilt_55rot_det12.npy'
p5727
F0.5155
F0.0052
F26.7065
F0.1124
F0.2962
F0.0034
g11
(g15
S'\x00\x00\x00\x00\x00\xa0b@'
p5728
tp5729
Rp5730
tp5731
a(S'bvert_4MeV_neg45tilt_55rot_det13.npy'
p5732
F0.8548
F0.0089
F31.3487
F0.1388
F0.5156
F0.0061
g11
(g15
S'\x00\x00\x00\x00\x00\xc0_@'
p5733
tp5734
Rp5735
tp5736
a(S'bvert_4MeV_neg45tilt_55rot_det14.npy'
p5737
F1.2054
F0.0124
F41.042
F0.2806
F0.748
F0.0083
g11
(g15
S'\x00\x00\x00\x00\x00\x00U@'
p5738
tp5739
Rp5740
tp5741
a(S'bvert_4MeV_neg45tilt_55rot_det15.npy'
p5742
F1.4929
F0.0187
F63.9015
F0.6105
F0.955
F0.013
g11
(g15
S'\x00\x00\x00\x00\x00\x00O@'
p5743
tp5744
Rp5745
tp5746
a(S'bvert_4MeV_neg45tilt_55rot_det4.npy'
p5747
F1.4698
F0.0179
F62.591
F0.4763
F0.9427
F0.0132
g11
(g15
S'\x00\x00\x00\x00\x00\x00T@'
p5748
tp5749
Rp5750
tp5751
a(S'bvert_4MeV_neg45tilt_55rot_det5.npy'
p5752
F1.1446
F0.014
F39.1315
F0.2384
F0.7183
F0.0098
g11
(g15
S'\x00\x00\x00\x00\x00\x00Y@'
p5753
tp5754
Rp5755
tp5756
a(S'bvert_4MeV_neg45tilt_55rot_det6.npy'
p5757
F0.8159
F0.0073
F29.0169
F0.1486
F0.495
F0.0049
g11
(g15
S'\x00\x00\x00\x00\x00\x00^@'
p5758
tp5759
Rp5760
tp5761
a(S'bvert_4MeV_neg45tilt_55rot_det7.npy'
p5762
F0.4919
F0.0047
F25.3388
F0.122
F0.2838
F0.003
g11
(g15
S'\x00\x00\x00\x00\x00\x00b@'
p5763
tp5764
Rp5765
tp5766
a(S'bvert_4MeV_neg45tilt_55rot_det8.npy'
p5767
F0.2353
F0.0033
F25.746
F0.1148
F0.1278
F0.0019
g11
(g15
S'\x00\x00\x00\x00\x00\x00^@'
p5768
tp5769
Rp5770
tp5771
a(S'bvert_4MeV_neg45tilt_55rot_det9.npy'
p5772
F0.078
F0.0013
F23.9292
F0.1002
F0.039
F0.0007
g11
(g15
S'\x00\x00\x00\x00\x00\xc0`@'
p5773
tp5774
Rp5775
tp5776
a(S'bvert_4MeV_neg45tilt_5rot_det10.npy'
p5777
F0.0675
F0.0012
F22.1909
F0.094
F0.0323
F0.0006
g11
(g15
S'\x00\x00\x00\x00\x00\xa0d@'
p5778
tp5779
Rp5780
tp5781
a(S'bvert_4MeV_neg45tilt_5rot_det11.npy'
p5782
F0.2149
F0.0026
F26.5809
F0.0926
F0.1154
F0.0016
g11
(g15
S'\x00\x00\x00\x00\x00\x80d@'
p5783
tp5784
Rp5785
tp5786
a(S'bvert_4MeV_neg45tilt_5rot_det12.npy'
p5787
F0.47
F0.0044
F26.6086
F0.1093
F0.2696
F0.0029
g11
(g15
S'\x00\x00\x00\x00\x00\xa0d@'
p5788
tp5789
Rp5790
tp5791
a(S'bvert_4MeV_neg45tilt_5rot_det13.npy'
p5792
F0.79
F0.0073
F31.2208
F0.1391
F0.4784
F0.005
g11
(g15
S'\x00\x00\x00\x00\x00\x80c@'
p5793
tp5794
Rp5795
tp5796
a(S'bvert_4MeV_neg45tilt_5rot_det14.npy'
p5797
F1.1496
F0.0118
F40.8013
F0.2036
F0.7212
F0.0087
g11
(g15
S'\x00\x00\x00\x00\x00\xc0^@'
p5798
tp5799
Rp5800
tp5801
a(S'bvert_4MeV_neg45tilt_5rot_det15.npy'
p5802
F1.4974
F0.015
F64.6407
F0.6225
F0.9593
F0.0103
g11
(g15
S'\x00\x00\x00\x00\x00\x80P@'
p5803
tp5804
Rp5805
tp5806
a(S'bvert_4MeV_neg45tilt_5rot_det4.npy'
p5807
F1.6317
F0.0162
F62.9501
F0.5215
F1.0379
F0.0108
g11
(g15
S'\x00\x00\x00\x00\x00\x00U@'
p5808
tp5809
Rp5810
tp5811
a(S'bvert_4MeV_neg45tilt_5rot_det5.npy'
p5812
F1.2849
F0.0134
F38.7322
F0.201
F0.8008
F0.009
g11
(g15
S'\x00\x00\x00\x00\x00@]@'
p5813
tp5814
Rp5815
tp5816
a(S'bvert_4MeV_neg45tilt_5rot_det6.npy'
p5817
F0.91
F0.0084
F29.0066
F0.1583
F0.5455
F0.0055
g11
(g15
S'\x00\x00\x00\x00\x00\x80[@'
p5818
tp5819
Rp5820
tp5821
a(S'bvert_4MeV_neg45tilt_5rot_det7.npy'
p5822
F0.551
F0.0059
F25.5466
F0.0969
F0.3156
F0.0038
g11
(g15
S'\x00\x00\x00\x00\x00 c@'
p5823
tp5824
Rp5825
tp5826
a(S'bvert_4MeV_neg45tilt_5rot_det8.npy'
p5827
F0.2576
F0.0031
F25.7939
F0.1026
F0.1401
F0.0019
g11
(g15
S'\x00\x00\x00\x00\x00\xc0b@'
p5828
tp5829
Rp5830
tp5831
a(S'bvert_4MeV_neg45tilt_5rot_det9.npy'
p5832
F0.0788
F0.0017
F23.7865
F0.0991
F0.0396
F0.0009
g11
(g15
S'\x00\x00\x00\x00\x00`a@'
p5833
tp5834
Rp5835
tp5836
a(S'bvert_4MeV_neg45tilt_75rot_det10.npy'
p5837
F0.0788
F0.0016
F22.1868
F0.1079
F0.0393
F0.0009
g11
(g15
S'\x00\x00\x00\x00\x00\x80^@'
p5838
tp5839
Rp5840
tp5841
a(S'bvert_4MeV_neg45tilt_75rot_det11.npy'
p5842
F0.2597
F0.003
F26.565
F0.0925
F0.1399
F0.0018
g11
(g15
S'\x00\x00\x00\x00\x00\xe0d@'
p5843
tp5844
Rp5845
tp5846
a(S'bvert_4MeV_neg45tilt_75rot_det12.npy'
p5847
F0.5544
F0.0058
F26.9106
F0.1047
F0.3193
F0.0037
g11
(g15
S'\x00\x00\x00\x00\x00 b@'
p5848
tp5849
Rp5850
tp5851
a(S'bvert_4MeV_neg45tilt_75rot_det13.npy'
p5852
F0.9268
F0.0076
F31.7396
F0.1498
F0.5584
F0.0054
g11
(g15
S'\x00\x00\x00\x00\x00\xc0]@'
p5853
tp5854
Rp5855
tp5856
a(S'bvert_4MeV_neg45tilt_75rot_det14.npy'
p5857
F1.2714
F0.0134
F41.18
F0.2024
F0.7896
F0.0091
g11
(g15
S'\x00\x00\x00\x00\x00@]@'
p5858
tp5859
Rp5860
tp5861
a(S'bvert_4MeV_neg45tilt_75rot_det15.npy'
p5862
F1.5911
F0.0196
F64.0503
F0.5143
F1.0119
F0.0141
g11
(g15
S'\x00\x00\x00\x00\x00\x80O@'
p5863
tp5864
Rp5865
tp5866
a(S'bvert_4MeV_neg45tilt_75rot_det4.npy'
p5867
F1.4686
F0.0149
F61.964
F0.4706
F0.9384
F0.0102
g11
(g15
S'\x00\x00\x00\x00\x00\x00W@'
p5868
tp5869
Rp5870
tp5871
a(S'bvert_4MeV_neg45tilt_75rot_det5.npy'
p5872
F1.1331
F0.0109
F39.0464
F0.217
F0.7097
F0.0076
g11
(g15
S'\x00\x00\x00\x00\x00\x00^@'
p5873
tp5874
Rp5875
tp5876
a(S'bvert_4MeV_neg45tilt_75rot_det6.npy'
p5877
F0.7903
F0.0074
F28.777
F0.1338
F0.4767
F0.0048
g11
(g15
S'\x00\x00\x00\x00\x00\x00c@'
p5878
tp5879
Rp5880
tp5881
a(S'bvert_4MeV_neg45tilt_75rot_det7.npy'
p5882
F0.4635
F0.0052
F25.6268
F0.1124
F0.2657
F0.0033
g11
(g15
S'\x00\x00\x00\x00\x00\xc0c@'
p5883
tp5884
Rp5885
tp5886
a(S'bvert_4MeV_neg45tilt_75rot_det8.npy'
p5887
F0.2234
F0.0026
F25.8327
F0.0935
F0.1199
F0.0016
g11
(g15
S'\x00\x00\x00\x00\x00\x80c@'
p5888
tp5889
Rp5890
tp5891
a(S'bvert_4MeV_neg45tilt_75rot_det9.npy'
p5892
F0.0716
F0.0014
F23.9893
F0.0954
F0.0343
F0.0008
g11
(g15
S'\x00\x00\x00\x00\x00@a@'
p5893
tp5894
Rp5895
tp5896
a(S'bvert_4MeV_neg45tilt_95rot_det10.npy'
p5897
F0.077
F0.0018
F22.3227
F0.0998
F0.0383
F0.001
g11
(g15
S'\x00\x00\x00\x00\x00\x80`@'
p5898
tp5899
Rp5900
tp5901
a(S'bvert_4MeV_neg45tilt_95rot_det11.npy'
p5902
F0.2497
F0.0033
F26.7936
F0.1045
F0.1359
F0.0021
g11
(g15
S'\x00\x00\x00\x00\x00\xc0b@'
p5903
tp5904
Rp5905
tp5906
a(S'bvert_4MeV_neg45tilt_95rot_det12.npy'
p5907
F0.5496
F0.0052
F26.8605
F0.1
F0.3165
F0.0033
g11
(g15
S'\x00\x00\x00\x00\x00\xe0d@'
p5908
tp5909
Rp5910
tp5911
a(S'bvert_4MeV_neg45tilt_95rot_det13.npy'
p5912
F0.9297
F0.0088
F31.7008
F0.1308
F0.5544
F0.0058
g11
(g15
S'\x00\x00\x00\x00\x00 b@'
p5913
tp5914
Rp5915
tp5916
a(S'bvert_4MeV_neg45tilt_95rot_det14.npy'
p5917
F1.3087
F0.0139
F41.534
F0.235
F0.8028
F0.0091
g11
(g15
S'\x00\x00\x00\x00\x00\x00Z@'
p5918
tp5919
Rp5920
tp5921
a(S'bvert_4MeV_neg45tilt_95rot_det15.npy'
p5922
F1.6342
F0.0231
F64.4116
F0.5485
F1.0328
F0.016
g11
(g15
S'\x00\x00\x00\x00\x00\x00Q@'
p5923
tp5924
Rp5925
tp5926
a(S'bvert_4MeV_neg45tilt_95rot_det4.npy'
p5927
F1.4426
F0.0199
F62.5247
F0.489
F0.915
F0.0142
g11
(g15
S'\x00\x00\x00\x00\x00\xc0T@'
p5928
tp5929
Rp5930
tp5931
a(S'bvert_4MeV_neg45tilt_95rot_det5.npy'
p5932
F1.1322
F0.0114
F38.8485
F0.2246
F0.705
F0.0077
g11
(g15
S'\x00\x00\x00\x00\x00\x00]@'
p5933
tp5934
Rp5935
tp5936
a(S'bvert_4MeV_neg45tilt_95rot_det6.npy'
p5937
F0.7875
F0.0068
F28.9361
F0.1328
F0.4745
F0.0046
g11
(g15
S'\x00\x00\x00\x00\x00\xe0a@'
p5938
tp5939
Rp5940
tp5941
a(S'bvert_4MeV_neg45tilt_95rot_det7.npy'
p5942
F0.4503
F0.0051
F25.44
F0.109
F0.2568
F0.0033
g11
(g15
S'\x00\x00\x00\x00\x00\xe0b@'
p5943
tp5944
Rp5945
tp5946
a(S'bvert_4MeV_neg45tilt_95rot_det8.npy'
p5947
F0.2116
F0.0028
F25.8375
F0.0931
F0.1123
F0.0016
g11
(g15
S'\x00\x00\x00\x00\x00\xa0b@'
p5948
tp5949
Rp5950
tp5951
a(S'bvert_4MeV_neg45tilt_95rot_det9.npy'
p5952
F0.0661
F0.0015
F23.8627
F0.0933
F0.0315
F0.0008
g11
(g15
S'\x00\x00\x00\x00\x00\xe0`@'
p5953
tp5954
Rp5955
tp5956
a.