(lp0
(S'filename'
p1
S'ql_mean'
p2
S'ql_abs_uncert'
p3
S'tof_mean'
p4
S'tof_abs_uncert'
p5
S'qs_mean'
p6
S'qs_abs_uncert'
p7
S'counts'
p8
tp9
a(S'cpvert_11MeV_0tilt_105rot_det10.npy'
p10
F0.2894
F0.0034
F15.9144
F0.0365
F0.1644
F0.002
cnumpy.core.multiarray
scalar
p11
(cnumpy
dtype
p12
(S'f8'
p13
I0
I1
tp14
Rp15
(I3
S'<'
p16
NNNI-1
I-1
I0
tp17
bS'\x00\x00\x00\x00\x00`f@'
p18
tp19
Rp20
tp21
a(S'cpvert_11MeV_0tilt_105rot_det11.npy'
p22
F0.9142
F0.0083
F20.0578
F0.0326
F0.5519
F0.0057
g11
(g15
S'\x00\x00\x00\x00\x00\xe0b@'
p23
tp24
Rp25
tp26
a(S'cpvert_11MeV_0tilt_105rot_det12.npy'
p27
F1.8764
F0.0096
F19.1277
F0.0363
F1.1966
F0.0068
g11
(g15
S'\x00\x00\x00\x00\x00@j@'
p28
tp29
Rp30
tp31
a(S'cpvert_11MeV_0tilt_105rot_det13.npy'
p32
F3.0508
F0.0132
F22.3233
F0.0596
F2.0152
F0.0098
g11
(g15
S'\x00\x00\x00\x00\x00\xa0d@'
p33
tp34
Rp35
tp36
a(S'cpvert_11MeV_0tilt_105rot_det14.npy'
p37
F4.2559
F0.0156
F27.0371
F0.0981
F2.8612
F0.0119
g11
(g15
S'\x00\x00\x00\x00\x00 c@'
p38
tp39
Rp40
tp41
a(S'cpvert_11MeV_0tilt_105rot_det15.npy'
p42
F5.2417
F0.0215
F41.6691
F0.3076
F3.5731
F0.0189
g11
(g15
S'\x00\x00\x00\x00\x00\x00S@'
p43
tp44
Rp45
tp46
a(S'cpvert_11MeV_0tilt_105rot_det4.npy'
p47
F5.1285
F0.0164
F40.3768
F0.2686
F3.5569
F0.0146
g11
(g15
S'\x00\x00\x00\x00\x00\xc0W@'
p48
tp49
Rp50
tp51
a(S'cpvert_11MeV_0tilt_105rot_det5.npy'
p52
F4.1237
F0.0141
F25.0093
F0.1033
F2.8325
F0.0113
g11
(g15
S'\x00\x00\x00\x00\x00\xe0a@'
p53
tp54
Rp55
tp56
a(S'cpvert_11MeV_0tilt_105rot_det6.npy'
p57
F2.9102
F0.0126
F19.7227
F0.059
F1.955
F0.0103
g11
(g15
S'\x00\x00\x00\x00\x00\x00b@'
p58
tp59
Rp60
tp61
a(S'cpvert_11MeV_0tilt_105rot_det7.npy'
p62
F1.782
F0.0107
F17.9926
F0.0399
F1.1515
F0.0075
g11
(g15
S'\x00\x00\x00\x00\x00`f@'
p63
tp64
Rp65
tp66
a(S'cpvert_11MeV_0tilt_105rot_det8.npy'
p67
F0.8721
F0.0076
F19.3056
F0.0281
F0.5324
F0.005
g11
(g15
S'\x00\x00\x00\x00\x00\x00e@'
p68
tp69
Rp70
tp71
a(S'cpvert_11MeV_0tilt_105rot_det9.npy'
p72
F0.2884
F0.0038
F17.8518
F0.0406
F0.1617
F0.0023
g11
(g15
S'\x00\x00\x00\x00\x00`f@'
p73
tp74
Rp75
tp76
a(S'cpvert_11MeV_0tilt_115rot_det10.npy'
p77
F0.2904
F0.0037
F15.8664
F0.0358
F0.1644
F0.0022
g11
(g15
S'\x00\x00\x00\x00\x00\x80f@'
p78
tp79
Rp80
tp81
a(S'cpvert_11MeV_0tilt_115rot_det11.npy'
p82
F0.896
F0.0074
F20.061
F0.0315
F0.5433
F0.0049
g11
(g15
S'\x00\x00\x00\x00\x00\x00e@'
p83
tp84
Rp85
tp86
a(S'cpvert_11MeV_0tilt_115rot_det12.npy'
p87
F1.8544
F0.0117
F19.1212
F0.043
F1.1857
F0.0084
g11
(g15
S'\x00\x00\x00\x00\x00\xa0d@'
p88
tp89
Rp90
tp91
a(S'cpvert_11MeV_0tilt_115rot_det13.npy'
p92
F3.0199
F0.014
F22.3361
F0.0592
F1.9973
F0.0102
g11
(g15
S'\x00\x00\x00\x00\x00@c@'
p93
tp94
Rp95
tp96
a(S'cpvert_11MeV_0tilt_115rot_det14.npy'
p97
F4.2444
F0.0153
F27.1237
F0.1046
F2.8673
F0.0113
g11
(g15
S'\x00\x00\x00\x00\x00\x00`@'
p98
tp99
Rp100
tp101
a(S'cpvert_11MeV_0tilt_115rot_det15.npy'
p102
F5.2951
F0.0152
F41.7844
F0.2674
F3.6106
F0.0134
g11
(g15
S'\x00\x00\x00\x00\x00@U@'
p103
tp104
Rp105
tp106
a(S'cpvert_11MeV_0tilt_115rot_det4.npy'
p107
F5.1847
F0.0149
F40.1439
F0.29
F3.5945
F0.0136
g11
(g15
S'\x00\x00\x00\x00\x00\x80U@'
p108
tp109
Rp110
tp111
a(S'cpvert_11MeV_0tilt_115rot_det5.npy'
p112
F4.1342
F0.016
F24.9275
F0.0992
F2.8352
F0.0129
g11
(g15
S'\x00\x00\x00\x00\x00@]@'
p113
tp114
Rp115
tp116
a(S'cpvert_11MeV_0tilt_115rot_det6.npy'
p117
F2.9032
F0.0129
F19.7398
F0.0584
F1.9492
F0.0099
g11
(g15
S'\x00\x00\x00\x00\x00\xe0b@'
p118
tp119
Rp120
tp121
a(S'cpvert_11MeV_0tilt_115rot_det7.npy'
p122
F1.7829
F0.0097
F17.9393
F0.0402
F1.1463
F0.007
g11
(g15
S'\x00\x00\x00\x00\x00 g@'
p123
tp124
Rp125
tp126
a(S'cpvert_11MeV_0tilt_115rot_det8.npy'
p127
F0.8516
F0.008
F19.3104
F0.0352
F0.5174
F0.0051
g11
(g15
S'\x00\x00\x00\x00\x00 a@'
p128
tp129
Rp130
tp131
a(S'cpvert_11MeV_0tilt_115rot_det9.npy'
p132
F0.2887
F0.0037
F17.8735
F0.0405
F0.1631
F0.0021
g11
(g15
S'\x00\x00\x00\x00\x00@e@'
p133
tp134
Rp135
tp136
a(S'cpvert_11MeV_0tilt_125rot_det10.npy'
p137
F0.2942
F0.004
F15.9286
F0.0379
F0.1658
F0.0023
g11
(g15
S'\x00\x00\x00\x00\x00`e@'
p138
tp139
Rp140
tp141
a(S'cpvert_11MeV_0tilt_125rot_det11.npy'
p142
F0.8818
F0.0066
F20.0482
F0.029
F0.5369
F0.0046
g11
(g15
S'\x00\x00\x00\x00\x00`f@'
p143
tp144
Rp145
tp146
a(S'cpvert_11MeV_0tilt_125rot_det12.npy'
p147
F1.8498
F0.0102
F19.1583
F0.0414
F1.1863
F0.0074
g11
(g15
S'\x00\x00\x00\x00\x00@e@'
p148
tp149
Rp150
tp151
a(S'cpvert_11MeV_0tilt_125rot_det13.npy'
p152
F3.007
F0.0128
F22.2834
F0.0626
F1.9976
F0.0097
g11
(g15
S'\x00\x00\x00\x00\x00@c@'
p153
tp154
Rp155
tp156
a(S'cpvert_11MeV_0tilt_125rot_det14.npy'
p157
F4.2169
F0.0141
F27.0562
F0.1025
F2.8576
F0.0119
g11
(g15
S'\x00\x00\x00\x00\x00@b@'
p158
tp159
Rp160
tp161
a(S'cpvert_11MeV_0tilt_125rot_det15.npy'
p162
F5.3145
F0.0179
F41.932
F0.3085
F3.6366
F0.0165
g11
(g15
S'\x00\x00\x00\x00\x00\x80T@'
p163
tp164
Rp165
tp166
a(S'cpvert_11MeV_0tilt_125rot_det4.npy'
p167
F5.1905
F0.0148
F39.8203
F0.2626
F3.5861
F0.0133
g11
(g15
S'\x00\x00\x00\x00\x00\xc0W@'
p168
tp169
Rp170
tp171
a(S'cpvert_11MeV_0tilt_125rot_det5.npy'
p172
F4.1702
F0.0134
F25.1924
F0.1025
F2.8477
F0.0106
g11
(g15
S'\x00\x00\x00\x00\x00\xc0a@'
p173
tp174
Rp175
tp176
a(S'cpvert_11MeV_0tilt_125rot_det6.npy'
p177
F2.9439
F0.0114
F19.726
F0.0541
F1.9694
F0.0091
g11
(g15
S'\x00\x00\x00\x00\x00`c@'
p178
tp179
Rp180
tp181
a(S'cpvert_11MeV_0tilt_125rot_det7.npy'
p182
F1.767
F0.0107
F18.0111
F0.042
F1.1328
F0.0074
g11
(g15
S'\x00\x00\x00\x00\x00`c@'
p183
tp184
Rp185
tp186
a(S'cpvert_11MeV_0tilt_125rot_det8.npy'
p187
F0.8602
F0.0072
F19.2698
F0.0335
F0.5212
F0.0049
g11
(g15
S'\x00\x00\x00\x00\x00\xe0d@'
p188
tp189
Rp190
tp191
a(S'cpvert_11MeV_0tilt_125rot_det9.npy'
p192
F0.2888
F0.0036
F17.8196
F0.0357
F0.1634
F0.0022
g11
(g15
S'\x00\x00\x00\x00\x00\x00e@'
p193
tp194
Rp195
tp196
a(S'cpvert_11MeV_0tilt_135rot_det10.npy'
p197
F0.2897
F0.0036
F15.8804
F0.0376
F0.1642
F0.0021
g11
(g15
S'\x00\x00\x00\x00\x00\x00d@'
p198
tp199
Rp200
tp201
a(S'cpvert_11MeV_0tilt_135rot_det11.npy'
p202
F0.8849
F0.0071
F20.0134
F0.0296
F0.5356
F0.0047
g11
(g15
S'\x00\x00\x00\x00\x00\xc0f@'
p203
tp204
Rp205
tp206
a(S'cpvert_11MeV_0tilt_135rot_det12.npy'
p207
F1.8065
F0.0103
F19.1095
F0.0409
F1.1603
F0.0075
g11
(g15
S'\x00\x00\x00\x00\x00 d@'
p208
tp209
Rp210
tp211
a(S'cpvert_11MeV_0tilt_135rot_det13.npy'
p212
F2.989
F0.0123
F22.3856
F0.0578
F1.9919
F0.0097
g11
(g15
S'\x00\x00\x00\x00\x00\xa0e@'
p213
tp214
Rp215
tp216
a(S'cpvert_11MeV_0tilt_135rot_det14.npy'
p217
F4.2066
F0.0135
F27.1402
F0.0995
F2.8698
F0.0113
g11
(g15
S'\x00\x00\x00\x00\x00 b@'
p218
tp219
Rp220
tp221
a(S'cpvert_11MeV_0tilt_135rot_det15.npy'
p222
F5.2544
F0.0138
F41.972
F0.2662
F3.601
F0.0144
g11
(g15
S'\x00\x00\x00\x00\x00\x80T@'
p223
tp224
Rp225
tp226
a(S'cpvert_11MeV_0tilt_135rot_det4.npy'
p227
F5.2495
F0.0187
F40.4193
F0.3123
F3.5948
F0.0196
g11
(g15
S'\x00\x00\x00\x00\x00\x80M@'
p228
tp229
Rp230
tp231
a(S'cpvert_11MeV_0tilt_135rot_det5.npy'
p232
F4.1782
F0.0161
F25.0446
F0.0972
F2.8327
F0.0115
g11
(g15
S'\x00\x00\x00\x00\x00\xa0d@'
p233
tp234
Rp235
tp236
a(S'cpvert_11MeV_0tilt_135rot_det6.npy'
p237
F2.9317
F0.0132
F19.6996
F0.0569
F1.9526
F0.0105
g11
(g15
S'\x00\x00\x00\x00\x00`d@'
p238
tp239
Rp240
tp241
a(S'cpvert_11MeV_0tilt_135rot_det7.npy'
p242
F1.7897
F0.0098
F17.8837
F0.0405
F1.1512
F0.0071
g11
(g15
S'\x00\x00\x00\x00\x00\x00g@'
p243
tp244
Rp245
tp246
a(S'cpvert_11MeV_0tilt_135rot_det8.npy'
p247
F0.8753
F0.0076
F19.356
F0.0339
F0.5295
F0.005
g11
(g15
S'\x00\x00\x00\x00\x00\x80d@'
p248
tp249
Rp250
tp251
a(S'cpvert_11MeV_0tilt_135rot_det9.npy'
p252
F0.2888
F0.0038
F17.7994
F0.0365
F0.1636
F0.0023
g11
(g15
S'\x00\x00\x00\x00\x00`g@'
p253
tp254
Rp255
tp256
a(S'cpvert_11MeV_0tilt_145rot_det10.npy'
p257
F0.2966
F0.0034
F15.9314
F0.0318
F0.167
F0.002
g11
(g15
S'\x00\x00\x00\x00\x00\x80i@'
p258
tp259
Rp260
tp261
a(S'cpvert_11MeV_0tilt_145rot_det11.npy'
p262
F0.8743
F0.0075
F20.0815
F0.035
F0.5325
F0.0052
g11
(g15
S'\x00\x00\x00\x00\x00\xc0b@'
p263
tp264
Rp265
tp266
a(S'cpvert_11MeV_0tilt_145rot_det12.npy'
p267
F1.7914
F0.0105
F19.1241
F0.0425
F1.1533
F0.0076
g11
(g15
S'\x00\x00\x00\x00\x00 d@'
p268
tp269
Rp270
tp271
a(S'cpvert_11MeV_0tilt_145rot_det13.npy'
p272
F2.9683
F0.012
F22.387
F0.0496
F1.9862
F0.009
g11
(g15
S'\x00\x00\x00\x00\x00\xc0e@'
p273
tp274
Rp275
tp276
a(S'cpvert_11MeV_0tilt_145rot_det14.npy'
p277
F4.1592
F0.0162
F27.2494
F0.1229
F2.8373
F0.0135
g11
(g15
S'\x00\x00\x00\x00\x00@\\@'
p278
tp279
Rp280
tp281
a(S'cpvert_11MeV_0tilt_145rot_det15.npy'
p282
F5.2004
F0.019
F41.9255
F0.2604
F3.6037
F0.0167
g11
(g15
S'\x00\x00\x00\x00\x00\x80S@'
p283
tp284
Rp285
tp286
a(S'cpvert_11MeV_0tilt_145rot_det4.npy'
p287
F5.254
F0.0183
F39.9483
F0.2764
F3.6042
F0.0145
g11
(g15
S'\x00\x00\x00\x00\x00\x00W@'
p288
tp289
Rp290
tp291
a(S'cpvert_11MeV_0tilt_145rot_det5.npy'
p292
F4.2404
F0.0141
F25.1297
F0.1059
F2.8673
F0.0112
g11
(g15
S'\x00\x00\x00\x00\x00\x00`@'
p293
tp294
Rp295
tp296
a(S'cpvert_11MeV_0tilt_145rot_det6.npy'
p297
F2.9729
F0.0133
F19.5935
F0.0616
F1.9696
F0.0098
g11
(g15
S'\x00\x00\x00\x00\x00\xc0b@'
p298
tp299
Rp300
tp301
a(S'cpvert_11MeV_0tilt_145rot_det7.npy'
p302
F1.8031
F0.0104
F17.8479
F0.0389
F1.1567
F0.0079
g11
(g15
S'\x00\x00\x00\x00\x00@h@'
p303
tp304
Rp305
tp306
a(S'cpvert_11MeV_0tilt_145rot_det8.npy'
p307
F0.8729
F0.0066
F19.2424
F0.0285
F0.5298
F0.0043
g11
(g15
S'\x00\x00\x00\x00\x00\xa0g@'
p308
tp309
Rp310
tp311
a(S'cpvert_11MeV_0tilt_145rot_det9.npy'
p312
F0.2894
F0.0038
F17.8272
F0.0377
F0.1645
F0.0022
g11
(g15
S'\x00\x00\x00\x00\x00\x80f@'
p313
tp314
Rp315
tp316
a(S'cpvert_11MeV_0tilt_15rot_det10.npy'
p317
F0.2937
F0.0035
F15.9147
F0.0317
F0.1645
F0.0021
g11
(g15
S'\x00\x00\x00\x00\x00 h@'
p318
tp319
Rp320
tp321
a(S'cpvert_11MeV_0tilt_15rot_det11.npy'
p322
F0.8781
F0.0071
F20.0232
F0.032
F0.5318
F0.0049
g11
(g15
S'\x00\x00\x00\x00\x00 c@'
p323
tp324
Rp325
tp326
a(S'cpvert_11MeV_0tilt_15rot_det12.npy'
p327
F1.8021
F0.0108
F19.0635
F0.0443
F1.1581
F0.0078
g11
(g15
S'\x00\x00\x00\x00\x00\x80d@'
p328
tp329
Rp330
tp331
a(S'cpvert_11MeV_0tilt_15rot_det13.npy'
p332
F2.992
F0.0134
F22.4798
F0.0634
F2.0101
F0.0098
g11
(g15
S'\x00\x00\x00\x00\x00\x80a@'
p333
tp334
Rp335
tp336
a(S'cpvert_11MeV_0tilt_15rot_det14.npy'
p337
F4.1126
F0.0156
F27.2838
F0.1083
F2.84
F0.0131
g11
(g15
S'\x00\x00\x00\x00\x00 a@'
p338
tp339
Rp340
tp341
a(S'cpvert_11MeV_0tilt_15rot_det15.npy'
p342
F5.1484
F0.0207
F42.6403
F0.2751
F3.5948
F0.018
g11
(g15
S'\x00\x00\x00\x00\x00\x80S@'
p343
tp344
Rp345
tp346
a(S'cpvert_11MeV_0tilt_15rot_det4.npy'
p347
F5.2018
F0.0203
F40.6002
F0.3383
F3.5999
F0.0208
g11
(g15
S'\x00\x00\x00\x00\x00\x00S@'
p348
tp349
Rp350
tp351
a(S'cpvert_11MeV_0tilt_15rot_det5.npy'
p352
F4.2354
F0.0151
F25.1555
F0.1026
F2.8871
F0.0134
g11
(g15
S'\x00\x00\x00\x00\x00\xc0\\@'
p353
tp354
Rp355
tp356
a(S'cpvert_11MeV_0tilt_15rot_det6.npy'
p357
F3.0427
F0.0127
F19.6779
F0.0595
F2.0097
F0.0094
g11
(g15
S'\x00\x00\x00\x00\x00`b@'
p358
tp359
Rp360
tp361
a(S'cpvert_11MeV_0tilt_15rot_det7.npy'
p362
F1.8561
F0.0119
F17.8517
F0.0469
F1.1847
F0.0082
g11
(g15
S'\x00\x00\x00\x00\x00\x00e@'
p363
tp364
Rp365
tp366
a(S'cpvert_11MeV_0tilt_15rot_det8.npy'
p367
F0.9242
F0.0084
F19.1775
F0.032
F0.5553
F0.0055
g11
(g15
S'\x00\x00\x00\x00\x00\x80e@'
p368
tp369
Rp370
tp371
a(S'cpvert_11MeV_0tilt_15rot_det9.npy'
p372
F0.3024
F0.0044
F17.7527
F0.0375
F0.1694
F0.0025
g11
(g15
S'\x00\x00\x00\x00\x00\xe0d@'
p373
tp374
Rp375
tp376
a(S'cpvert_11MeV_0tilt_25rot_det10.npy'
p377
F0.2919
F0.0037
F15.8111
F0.0434
F0.1635
F0.0021
g11
(g15
S'\x00\x00\x00\x00\x00\x00f@'
p378
tp379
Rp380
tp381
a(S'cpvert_11MeV_0tilt_25rot_det11.npy'
p382
F0.8772
F0.0072
F20.0072
F0.03
F0.5297
F0.0048
g11
(g15
S'\x00\x00\x00\x00\x00\x80c@'
p383
tp384
Rp385
tp386
a(S'cpvert_11MeV_0tilt_25rot_det12.npy'
p387
F1.8156
F0.0102
F19.1344
F0.0463
F1.1637
F0.0073
g11
(g15
S'\x00\x00\x00\x00\x00@b@'
p388
tp389
Rp390
tp391
a(S'cpvert_11MeV_0tilt_25rot_det13.npy'
p392
F2.9315
F0.0119
F22.1445
F0.0578
F1.9588
F0.0091
g11
(g15
S'\x00\x00\x00\x00\x00\xc0b@'
p393
tp394
Rp395
tp396
a(S'cpvert_11MeV_0tilt_25rot_det14.npy'
p397
F4.1062
F0.0156
F26.9911
F0.1052
F2.8282
F0.0114
g11
(g15
S'\x00\x00\x00\x00\x00\x00a@'
p398
tp399
Rp400
tp401
a(S'cpvert_11MeV_0tilt_25rot_det15.npy'
p402
F5.1275
F0.0167
F41.8398
F0.2802
F3.6044
F0.0142
g11
(g15
S'\x00\x00\x00\x00\x00@R@'
p403
tp404
Rp405
tp406
a(S'cpvert_11MeV_0tilt_25rot_det4.npy'
p407
F5.1687
F0.0143
F39.9918
F0.241
F3.5812
F0.0123
g11
(g15
S'\x00\x00\x00\x00\x00@U@'
p408
tp409
Rp410
tp411
a(S'cpvert_11MeV_0tilt_25rot_det5.npy'
p412
F4.2044
F0.0158
F25.1423
F0.1133
F2.8768
F0.0124
g11
(g15
S'\x00\x00\x00\x00\x00@_@'
p413
tp414
Rp415
tp416
a(S'cpvert_11MeV_0tilt_25rot_det6.npy'
p417
F3.0031
F0.013
F19.6582
F0.0602
F1.9853
F0.0099
g11
(g15
S'\x00\x00\x00\x00\x00\xe0`@'
p418
tp419
Rp420
tp421
a(S'cpvert_11MeV_0tilt_25rot_det7.npy'
p422
F1.8401
F0.0097
F17.8847
F0.0467
F1.1651
F0.0069
g11
(g15
S'\x00\x00\x00\x00\x00@c@'
p423
tp424
Rp425
tp426
a(S'cpvert_11MeV_0tilt_25rot_det8.npy'
p427
F0.8983
F0.0077
F19.2645
F0.0302
F0.5398
F0.0051
g11
(g15
S'\x00\x00\x00\x00\x00\xa0d@'
p428
tp429
Rp430
tp431
a(S'cpvert_11MeV_0tilt_25rot_det9.npy'
p432
F0.3057
F0.0042
F17.6929
F0.0392
F0.173
F0.0025
g11
(g15
S'\x00\x00\x00\x00\x00`g@'
p433
tp434
Rp435
tp436
a(S'cpvert_11MeV_0tilt_315rot_det10.npy'
p437
F0.2924
F0.0034
F15.8185
F0.0312
F0.1628
F0.002
g11
(g15
S'\x00\x00\x00\x00\x00\x80i@'
p438
tp439
Rp440
tp441
a(S'cpvert_11MeV_0tilt_315rot_det11.npy'
p442
F0.8924
F0.0078
F20.0554
F0.0329
F0.5392
F0.0051
g11
(g15
S'\x00\x00\x00\x00\x00\x00e@'
p443
tp444
Rp445
tp446
a(S'cpvert_11MeV_0tilt_315rot_det12.npy'
p447
F1.8359
F0.0102
F19.0826
F0.0425
F1.1745
F0.0075
g11
(g15
S'\x00\x00\x00\x00\x00\x00f@'
p448
tp449
Rp450
tp451
a(S'cpvert_11MeV_0tilt_315rot_det13.npy'
p452
F3.0217
F0.0141
F22.2483
F0.0545
F2.0092
F0.0109
g11
(g15
S'\x00\x00\x00\x00\x00@d@'
p453
tp454
Rp455
tp456
a(S'cpvert_11MeV_0tilt_315rot_det14.npy'
p457
F4.2049
F0.0162
F26.8903
F0.1167
F2.8573
F0.0122
g11
(g15
S'\x00\x00\x00\x00\x00\x00`@'
p458
tp459
Rp460
tp461
a(S'cpvert_11MeV_0tilt_315rot_det15.npy'
p462
F5.3207
F0.0181
F41.934
F0.275
F3.6579
F0.0161
g11
(g15
S'\x00\x00\x00\x00\x00\xc0U@'
p463
tp464
Rp465
tp466
a(S'cpvert_11MeV_0tilt_315rot_det4.npy'
p467
F5.3205
F0.0199
F40.033
F0.2396
F3.6366
F0.0165
g11
(g15
S'\x00\x00\x00\x00\x00\x80W@'
p468
tp469
Rp470
tp471
a(S'cpvert_11MeV_0tilt_315rot_det5.npy'
p472
F4.2319
F0.0154
F25.081
F0.1041
F2.8713
F0.0122
g11
(g15
S'\x00\x00\x00\x00\x00\xe0a@'
p473
tp474
Rp475
tp476
a(S'cpvert_11MeV_0tilt_315rot_det6.npy'
p477
F3.0246
F0.0141
F19.7534
F0.0561
F2.0131
F0.0104
g11
(g15
S'\x00\x00\x00\x00\x00 d@'
p478
tp479
Rp480
tp481
a(S'cpvert_11MeV_0tilt_315rot_det7.npy'
p482
F1.8116
F0.0109
F17.8909
F0.0454
F1.1563
F0.0073
g11
(g15
S'\x00\x00\x00\x00\x00\xc0e@'
p483
tp484
Rp485
tp486
a(S'cpvert_11MeV_0tilt_315rot_det8.npy'
p487
F0.8657
F0.0069
F19.242
F0.0291
F0.5206
F0.0048
g11
(g15
S'\x00\x00\x00\x00\x00\x80g@'
p488
tp489
Rp490
tp491
a(S'cpvert_11MeV_0tilt_315rot_det9.npy'
p492
F0.2823
F0.0044
F17.7481
F0.0392
F0.1558
F0.0025
g11
(g15
S'\x00\x00\x00\x00\x00\x00e@'
p493
tp494
Rp495
tp496
a(S'cpvert_11MeV_0tilt_325rot_det10.npy'
p497
F0.2927
F0.0038
F15.8657
F0.0351
F0.1614
F0.0022
g11
(g15
S'\x00\x00\x00\x00\x00\x80e@'
p498
tp499
Rp500
tp501
a(S'cpvert_11MeV_0tilt_325rot_det11.npy'
p502
F0.8848
F0.0075
F20.058
F0.03
F0.5326
F0.0049
g11
(g15
S'\x00\x00\x00\x00\x00\xc0d@'
p503
tp504
Rp505
tp506
a(S'cpvert_11MeV_0tilt_325rot_det12.npy'
p507
F1.8238
F0.0098
F19.126
F0.0392
F1.1687
F0.0071
g11
(g15
S'\x00\x00\x00\x00\x00\x00e@'
p508
tp509
Rp510
tp511
a(S'cpvert_11MeV_0tilt_325rot_det13.npy'
p512
F2.9597
F0.0125
F22.2102
F0.0538
F1.9752
F0.0098
g11
(g15
S'\x00\x00\x00\x00\x00\xa0f@'
p513
tp514
Rp515
tp516
a(S'cpvert_11MeV_0tilt_325rot_det14.npy'
p517
F4.1591
F0.0171
F26.9716
F0.0932
F2.8485
F0.0132
g11
(g15
S'\x00\x00\x00\x00\x00@d@'
p518
tp519
Rp520
tp521
a(S'cpvert_11MeV_0tilt_325rot_det15.npy'
p522
F5.3065
F0.0149
F41.9708
F0.2773
F3.6465
F0.0129
g11
(g15
S'\x00\x00\x00\x00\x00\x80T@'
p523
tp524
Rp525
tp526
a(S'cpvert_11MeV_0tilt_325rot_det4.npy'
p527
F5.3118
F0.0246
F40.186
F0.3343
F3.6272
F0.0188
g11
(g15
S'\x00\x00\x00\x00\x00@Q@'
p528
tp529
Rp530
tp531
a(S'cpvert_11MeV_0tilt_325rot_det5.npy'
p532
F4.2501
F0.0143
F25.022
F0.0981
F2.8681
F0.0113
g11
(g15
S'\x00\x00\x00\x00\x00\x80a@'
p533
tp534
Rp535
tp536
a(S'cpvert_11MeV_0tilt_325rot_det6.npy'
p537
F3.0257
F0.0125
F19.6556
F0.0571
F1.9961
F0.0097
g11
(g15
S'\x00\x00\x00\x00\x00`c@'
p538
tp539
Rp540
tp541
a(S'cpvert_11MeV_0tilt_325rot_det7.npy'
p542
F1.8149
F0.0123
F17.9584
F0.0403
F1.1536
F0.0086
g11
(g15
S'\x00\x00\x00\x00\x00\x80e@'
p543
tp544
Rp545
tp546
a(S'cpvert_11MeV_0tilt_325rot_det8.npy'
p547
F0.8893
F0.0073
F19.2783
F0.0308
F0.5352
F0.0049
g11
(g15
S'\x00\x00\x00\x00\x00\x00f@'
p548
tp549
Rp550
tp551
a(S'cpvert_11MeV_0tilt_325rot_det9.npy'
p552
F0.2884
F0.004
F17.8653
F0.0369
F0.1592
F0.0023
g11
(g15
S'\x00\x00\x00\x00\x00\x00f@'
p553
tp554
Rp555
tp556
a(S'cpvert_11MeV_0tilt_335rot_det10.npy'
p557
F0.2954
F0.0042
F15.9231
F0.036
F0.1634
F0.0024
g11
(g15
S'\x00\x00\x00\x00\x00\xc0d@'
p558
tp559
Rp560
tp561
a(S'cpvert_11MeV_0tilt_335rot_det11.npy'
p562
F0.8726
F0.0065
F20.0549
F0.0289
F0.5255
F0.0043
g11
(g15
S'\x00\x00\x00\x00\x00`g@'
p563
tp564
Rp565
tp566
a(S'cpvert_11MeV_0tilt_335rot_det12.npy'
p567
F1.8425
F0.0097
F19.1711
F0.037
F1.1883
F0.0073
g11
(g15
S'\x00\x00\x00\x00\x00\xe0e@'
p568
tp569
Rp570
tp571
a(S'cpvert_11MeV_0tilt_335rot_det13.npy'
p572
F2.986
F0.0129
F22.3343
F0.0604
F1.9991
F0.0099
g11
(g15
S'\x00\x00\x00\x00\x00 d@'
p573
tp574
Rp575
tp576
a(S'cpvert_11MeV_0tilt_335rot_det14.npy'
p577
F4.1124
F0.0227
F27.0362
F0.0999
F2.8149
F0.0169
g11
(g15
S'\x00\x00\x00\x00\x00\x00b@'
p578
tp579
Rp580
tp581
a(S'cpvert_11MeV_0tilt_335rot_det15.npy'
p582
F5.2419
F0.0162
F41.7617
F0.306
F3.6427
F0.0151
g11
(g15
S'\x00\x00\x00\x00\x00\x80L@'
p583
tp584
Rp585
tp586
a(S'cpvert_11MeV_0tilt_335rot_det4.npy'
p587
F5.3449
F0.0151
F40.057
F0.2748
F3.648
F0.0135
g11
(g15
S'\x00\x00\x00\x00\x00\x80V@'
p588
tp589
Rp590
tp591
a(S'cpvert_11MeV_0tilt_335rot_det5.npy'
p592
F4.2759
F0.0174
F24.8625
F0.1059
F2.8876
F0.013
g11
(g15
S'\x00\x00\x00\x00\x00\xa0`@'
p593
tp594
Rp595
tp596
a(S'cpvert_11MeV_0tilt_335rot_det6.npy'
p597
F3.0578
F0.0108
F19.6396
F0.0551
F2.0148
F0.0083
g11
(g15
S'\x00\x00\x00\x00\x00@e@'
p598
tp599
Rp600
tp601
a(S'cpvert_11MeV_0tilt_335rot_det7.npy'
p602
F1.8462
F0.0105
F17.9306
F0.0429
F1.1736
F0.0075
g11
(g15
S'\x00\x00\x00\x00\x00`c@'
p603
tp604
Rp605
tp606
a(S'cpvert_11MeV_0tilt_335rot_det8.npy'
p607
F0.8851
F0.0079
F19.2941
F0.0304
F0.5334
F0.0053
g11
(g15
S'\x00\x00\x00\x00\x00\x80e@'
p608
tp609
Rp610
tp611
a(S'cpvert_11MeV_0tilt_335rot_det9.npy'
p612
F0.2887
F0.0044
F17.8074
F0.0396
F0.1605
F0.0026
g11
(g15
S'\x00\x00\x00\x00\x00@d@'
p613
tp614
Rp615
tp616
a(S'cpvert_11MeV_0tilt_345rot_det10.npy'
p617
F0.2971
F0.0038
F15.9764
F0.0349
F0.1644
F0.0022
g11
(g15
S'\x00\x00\x00\x00\x00\xc0d@'
p618
tp619
Rp620
tp621
a(S'cpvert_11MeV_0tilt_345rot_det11.npy'
p622
F0.8719
F0.0077
F20.0982
F0.036
F0.5265
F0.0052
g11
(g15
S'\x00\x00\x00\x00\x00@_@'
p623
tp624
Rp625
tp626
a(S'cpvert_11MeV_0tilt_345rot_det12.npy'
p627
F1.7972
F0.0102
F19.0731
F0.04
F1.1557
F0.0076
g11
(g15
S'\x00\x00\x00\x00\x00\xe0c@'
p628
tp629
Rp630
tp631
a(S'cpvert_11MeV_0tilt_345rot_det13.npy'
p632
F2.945
F0.0119
F22.3546
F0.0571
F1.9731
F0.0088
g11
(g15
S'\x00\x00\x00\x00\x00\x80e@'
p633
tp634
Rp635
tp636
a(S'cpvert_11MeV_0tilt_345rot_det14.npy'
p637
F4.1432
F0.0154
F26.9659
F0.103
F2.8482
F0.0126
g11
(g15
S'\x00\x00\x00\x00\x00\x00a@'
p638
tp639
Rp640
tp641
a(S'cpvert_11MeV_0tilt_345rot_det15.npy'
p642
F5.2073
F0.0162
F41.5444
F0.3079
F3.6145
F0.0146
g11
(g15
S'\x00\x00\x00\x00\x00@S@'
p643
tp644
Rp645
tp646
a(S'cpvert_11MeV_0tilt_345rot_det4.npy'
p647
F5.328
F0.0176
F40.4357
F0.2623
F3.6426
F0.0146
g11
(g15
S'\x00\x00\x00\x00\x00\x80U@'
p648
tp649
Rp650
tp651
a(S'cpvert_11MeV_0tilt_345rot_det5.npy'
p652
F4.2598
F0.0169
F25.1222
F0.0937
F2.8713
F0.012
g11
(g15
S'\x00\x00\x00\x00\x00\xc0c@'
p653
tp654
Rp655
tp656
a(S'cpvert_11MeV_0tilt_345rot_det6.npy'
p657
F3.0675
F0.0125
F19.7882
F0.0588
F2.014
F0.0084
g11
(g15
S'\x00\x00\x00\x00\x00\x80d@'
p658
tp659
Rp660
tp661
a(S'cpvert_11MeV_0tilt_345rot_det7.npy'
p662
F1.8335
F0.0119
F17.8437
F0.0443
F1.1603
F0.0082
g11
(g15
S'\x00\x00\x00\x00\x00\xc0d@'
p663
tp664
Rp665
tp666
a(S'cpvert_11MeV_0tilt_345rot_det8.npy'
p667
F0.8827
F0.0079
F19.2079
F0.0311
F0.5299
F0.0052
g11
(g15
S'\x00\x00\x00\x00\x00\x80d@'
p668
tp669
Rp670
tp671
a(S'cpvert_11MeV_0tilt_345rot_det9.npy'
p672
F0.293
F0.004
F17.7848
F0.0419
F0.1624
F0.0024
g11
(g15
S'\x00\x00\x00\x00\x00\x00d@'
p673
tp674
Rp675
tp676
a(S'cpvert_11MeV_0tilt_355rot_det10.npy'
p677
F0.2879
F0.0037
F15.8614
F0.0355
F0.1597
F0.0022
g11
(g15
S'\x00\x00\x00\x00\x00`g@'
p678
tp679
Rp680
tp681
a(S'cpvert_11MeV_0tilt_355rot_det11.npy'
p682
F0.8806
F0.0073
F20.1013
F0.0324
F0.5309
F0.005
g11
(g15
S'\x00\x00\x00\x00\x00\x00d@'
p683
tp684
Rp685
tp686
a(S'cpvert_11MeV_0tilt_355rot_det12.npy'
p687
F1.8089
F0.0104
F19.2102
F0.0415
F1.166
F0.0076
g11
(g15
S'\x00\x00\x00\x00\x00`f@'
p688
tp689
Rp690
tp691
a(S'cpvert_11MeV_0tilt_355rot_det13.npy'
p692
F2.9793
F0.0118
F22.4255
F0.0563
F2.0001
F0.0092
g11
(g15
S'\x00\x00\x00\x00\x00\x00g@'
p693
tp694
Rp695
tp696
a(S'cpvert_11MeV_0tilt_355rot_det14.npy'
p697
F4.0921
F0.0166
F26.9125
F0.1063
F2.8072
F0.0138
g11
(g15
S'\x00\x00\x00\x00\x00@`@'
p698
tp699
Rp700
tp701
a(S'cpvert_11MeV_0tilt_355rot_det15.npy'
p702
F5.1688
F0.0163
F41.5866
F0.2663
F3.6054
F0.0139
g11
(g15
S'\x00\x00\x00\x00\x00\x00X@'
p703
tp704
Rp705
tp706
a(S'cpvert_11MeV_0tilt_355rot_det4.npy'
p707
F5.2885
F0.0175
F40.2032
F0.2421
F3.6219
F0.0142
g11
(g15
S'\x00\x00\x00\x00\x00\xc0V@'
p708
tp709
Rp710
tp711
a(S'cpvert_11MeV_0tilt_355rot_det5.npy'
p712
F4.2673
F0.0147
F25.0419
F0.0997
F2.8837
F0.0117
g11
(g15
S'\x00\x00\x00\x00\x00@`@'
p713
tp714
Rp715
tp716
a(S'cpvert_11MeV_0tilt_355rot_det6.npy'
p717
F3.0652
F0.0132
F19.7815
F0.0578
F2.0204
F0.0103
g11
(g15
S'\x00\x00\x00\x00\x00\xe0a@'
p718
tp719
Rp720
tp721
a(S'cpvert_11MeV_0tilt_355rot_det7.npy'
p722
F1.8736
F0.0112
F17.9653
F0.0422
F1.1865
F0.0079
g11
(g15
S'\x00\x00\x00\x00\x00\x00g@'
p723
tp724
Rp725
tp726
a(S'cpvert_11MeV_0tilt_355rot_det8.npy'
p727
F0.8968
F0.0074
F19.2438
F0.0297
F0.5391
F0.0049
g11
(g15
S'\x00\x00\x00\x00\x00\x80f@'
p728
tp729
Rp730
tp731
a(S'cpvert_11MeV_0tilt_355rot_det9.npy'
p732
F0.2857
F0.0039
F17.7377
F0.0417
F0.1598
F0.0022
g11
(g15
S'\x00\x00\x00\x00\x00\xc0c@'
p733
tp734
Rp735
tp736
a(S'cpvert_11MeV_0tilt_35rot_det10.npy'
p737
F0.2969
F0.0034
F15.8769
F0.0349
F0.1671
F0.002
g11
(g15
S'\x00\x00\x00\x00\x00\x00g@'
p738
tp739
Rp740
tp741
a(S'cpvert_11MeV_0tilt_35rot_det11.npy'
p742
F0.8746
F0.0075
F19.979
F0.0337
F0.5265
F0.0049
g11
(g15
S'\x00\x00\x00\x00\x00@c@'
p743
tp744
Rp745
tp746
a(S'cpvert_11MeV_0tilt_35rot_det12.npy'
p747
F1.8292
F0.0097
F19.1241
F0.0376
F1.1742
F0.0072
g11
(g15
S'\x00\x00\x00\x00\x00\xa0f@'
p748
tp749
Rp750
tp751
a(S'cpvert_11MeV_0tilt_35rot_det13.npy'
p752
F2.9495
F0.0115
F22.2333
F0.0591
F1.9748
F0.0091
g11
(g15
S'\x00\x00\x00\x00\x00\xc0b@'
p753
tp754
Rp755
tp756
a(S'cpvert_11MeV_0tilt_35rot_det14.npy'
p757
F4.1487
F0.015
F27.2295
F0.1056
F2.8559
F0.012
g11
(g15
S'\x00\x00\x00\x00\x00`a@'
p758
tp759
Rp760
tp761
a(S'cpvert_11MeV_0tilt_35rot_det15.npy'
p762
F5.1116
F0.0204
F41.4619
F0.3443
F3.564
F0.0177
g11
(g15
S'\x00\x00\x00\x00\x00\x00M@'
p763
tp764
Rp765
tp766
a(S'cpvert_11MeV_0tilt_35rot_det4.npy'
p767
F5.1787
F0.0139
F40.6126
F0.2732
F3.6045
F0.0129
g11
(g15
S'\x00\x00\x00\x00\x00\xc0W@'
p768
tp769
Rp770
tp771
a(S'cpvert_11MeV_0tilt_35rot_det5.npy'
p772
F4.1358
F0.0141
F24.8895
F0.1036
F2.8361
F0.0112
g11
(g15
S'\x00\x00\x00\x00\x00@c@'
p773
tp774
Rp775
tp776
a(S'cpvert_11MeV_0tilt_35rot_det6.npy'
p777
F3.0073
F0.0129
F19.8776
F0.0608
F2.0044
F0.0102
g11
(g15
S'\x00\x00\x00\x00\x00`c@'
p778
tp779
Rp780
tp781
a(S'cpvert_11MeV_0tilt_35rot_det7.npy'
p782
F1.8227
F0.0107
F17.9394
F0.0459
F1.1602
F0.0079
g11
(g15
S'\x00\x00\x00\x00\x00\x00d@'
p783
tp784
Rp785
tp786
a(S'cpvert_11MeV_0tilt_35rot_det8.npy'
p787
F0.8955
F0.0069
F19.2367
F0.0335
F0.5384
F0.0047
g11
(g15
S'\x00\x00\x00\x00\x00\xe0e@'
p788
tp789
Rp790
tp791
a(S'cpvert_11MeV_0tilt_35rot_det9.npy'
p792
F0.2963
F0.0043
F17.7696
F0.0378
F0.166
F0.0024
g11
(g15
S'\x00\x00\x00\x00\x00 d@'
p793
tp794
Rp795
tp796
a(S'cpvert_11MeV_0tilt_45rot_det10.npy'
p797
F0.3026
F0.0042
F15.9314
F0.041
F0.1708
F0.0025
g11
(g15
S'\x00\x00\x00\x00\x00@c@'
p798
tp799
Rp800
tp801
a(S'cpvert_11MeV_0tilt_45rot_det11.npy'
p802
F0.8972
F0.007
F20.0928
F0.0362
F0.5414
F0.0049
g11
(g15
S'\x00\x00\x00\x00\x00\x80d@'
p803
tp804
Rp805
tp806
a(S'cpvert_11MeV_0tilt_45rot_det12.npy'
p807
F1.853
F0.0104
F19.1721
F0.0393
F1.189
F0.0074
g11
(g15
S'\x00\x00\x00\x00\x00@e@'
p808
tp809
Rp810
tp811
a(S'cpvert_11MeV_0tilt_45rot_det13.npy'
p812
F2.9731
F0.0124
F22.3019
F0.0578
F1.9874
F0.0104
g11
(g15
S'\x00\x00\x00\x00\x00`c@'
p813
tp814
Rp815
tp816
a(S'cpvert_11MeV_0tilt_45rot_det14.npy'
p817
F4.1148
F0.0154
F26.9847
F0.1141
F2.8285
F0.0129
g11
(g15
S'\x00\x00\x00\x00\x00``@'
p818
tp819
Rp820
tp821
a(S'cpvert_11MeV_0tilt_45rot_det15.npy'
p822
F5.1546
F0.0144
F41.6288
F0.2393
F3.5959
F0.0122
g11
(g15
S'\x00\x00\x00\x00\x00\x00W@'
p823
tp824
Rp825
tp826
a(S'cpvert_11MeV_0tilt_45rot_det4.npy'
p827
F5.1127
F0.0178
F40.5895
F0.2833
F3.5735
F0.0159
g11
(g15
S'\x00\x00\x00\x00\x00@V@'
p828
tp829
Rp830
tp831
a(S'cpvert_11MeV_0tilt_45rot_det5.npy'
p832
F4.1131
F0.0153
F24.963
F0.1047
F2.8248
F0.0119
g11
(g15
S'\x00\x00\x00\x00\x00\xa0`@'
p833
tp834
Rp835
tp836
a(S'cpvert_11MeV_0tilt_45rot_det6.npy'
p837
F2.941
F0.0138
F19.6641
F0.0627
F1.9659
F0.0112
g11
(g15
S'\x00\x00\x00\x00\x00\x00b@'
p838
tp839
Rp840
tp841
a(S'cpvert_11MeV_0tilt_45rot_det7.npy'
p842
F1.8094
F0.0107
F17.9598
F0.0415
F1.159
F0.0076
g11
(g15
S'\x00\x00\x00\x00\x00\xe0e@'
p843
tp844
Rp845
tp846
a(S'cpvert_11MeV_0tilt_45rot_det8.npy'
p847
F0.8888
F0.0072
F19.2684
F0.0331
F0.5345
F0.0048
g11
(g15
S'\x00\x00\x00\x00\x00\xc0b@'
p848
tp849
Rp850
tp851
a(S'cpvert_11MeV_0tilt_45rot_det9.npy'
p852
F0.3006
F0.0036
F17.7918
F0.0394
F0.169
F0.0021
g11
(g15
S'\x00\x00\x00\x00\x00\x00f@'
p853
tp854
Rp855
tp856
a(S'cpvert_11MeV_0tilt_55rot_det10.npy'
p857
F0.2977
F0.0039
F15.865
F0.0372
F0.1677
F0.0023
g11
(g15
S'\x00\x00\x00\x00\x00 f@'
p858
tp859
Rp860
tp861
a(S'cpvert_11MeV_0tilt_55rot_det11.npy'
p862
F0.9068
F0.0075
F20.0288
F0.034
F0.5468
F0.0051
g11
(g15
S'\x00\x00\x00\x00\x00@d@'
p863
tp864
Rp865
tp866
a(S'cpvert_11MeV_0tilt_55rot_det12.npy'
p867
F1.8381
F0.0095
F19.066
F0.0404
F1.1737
F0.0068
g11
(g15
S'\x00\x00\x00\x00\x00\xe0f@'
p868
tp869
Rp870
tp871
a(S'cpvert_11MeV_0tilt_55rot_det13.npy'
p872
F3.0058
F0.0122
F22.2646
F0.0537
F2.0031
F0.0096
g11
(g15
S'\x00\x00\x00\x00\x00\x00g@'
p873
tp874
Rp875
tp876
a(S'cpvert_11MeV_0tilt_55rot_det14.npy'
p877
F4.159
F0.0165
F27.2002
F0.1078
F2.8546
F0.014
g11
(g15
S'\x00\x00\x00\x00\x00``@'
p878
tp879
Rp880
tp881
a(S'cpvert_11MeV_0tilt_55rot_det15.npy'
p882
F5.151
F0.0149
F41.708
F0.2631
F3.5945
F0.0137
g11
(g15
S'\x00\x00\x00\x00\x00\x00V@'
p883
tp884
Rp885
tp886
a(S'cpvert_11MeV_0tilt_55rot_det4.npy'
p887
F5.1039
F0.0163
F40.3118
F0.2963
F3.57
F0.0146
g11
(g15
S'\x00\x00\x00\x00\x00\x00T@'
p888
tp889
Rp890
tp891
a(S'cpvert_11MeV_0tilt_55rot_det5.npy'
p892
F4.1029
F0.0152
F25.2109
F0.1008
F2.8248
F0.0123
g11
(g15
S'\x00\x00\x00\x00\x00\x80a@'
p893
tp894
Rp895
tp896
a(S'cpvert_11MeV_0tilt_55rot_det6.npy'
p897
F2.9413
F0.0119
F19.7394
F0.051
F1.9719
F0.0091
g11
(g15
S'\x00\x00\x00\x00\x00\x00f@'
p898
tp899
Rp900
tp901
a(S'cpvert_11MeV_0tilt_55rot_det7.npy'
p902
F1.7981
F0.0111
F17.9874
F0.0455
F1.1492
F0.008
g11
(g15
S'\x00\x00\x00\x00\x00`d@'
p903
tp904
Rp905
tp906
a(S'cpvert_11MeV_0tilt_55rot_det8.npy'
p907
F0.8946
F0.007
F19.2652
F0.0323
F0.5422
F0.0048
g11
(g15
S'\x00\x00\x00\x00\x00\xc0c@'
p908
tp909
Rp910
tp911
a(S'cpvert_11MeV_0tilt_55rot_det9.npy'
p912
F0.2901
F0.0039
F17.7437
F0.0391
F0.1631
F0.0023
g11
(g15
S'\x00\x00\x00\x00\x00\x80d@'
p913
tp914
Rp915
tp916
a(S'cpvert_11MeV_0tilt_5rot_det10.npy'
p917
F0.2957
F0.0038
F15.8836
F0.0364
F0.1652
F0.0023
g11
(g15
S'\x00\x00\x00\x00\x00@g@'
p918
tp919
Rp920
tp921
a(S'cpvert_11MeV_0tilt_5rot_det11.npy'
p922
F0.8749
F0.0075
F20.042
F0.0309
F0.5303
F0.005
g11
(g15
S'\x00\x00\x00\x00\x00\xa0e@'
p923
tp924
Rp925
tp926
a(S'cpvert_11MeV_0tilt_5rot_det12.npy'
p927
F1.8038
F0.0098
F19.0857
F0.039
F1.1642
F0.0071
g11
(g15
S'\x00\x00\x00\x00\x00\xa0d@'
p928
tp929
Rp930
tp931
a(S'cpvert_11MeV_0tilt_5rot_det13.npy'
p932
F2.9586
F0.0121
F22.2985
F0.0576
F1.9924
F0.0097
g11
(g15
S'\x00\x00\x00\x00\x00\x00d@'
p933
tp934
Rp935
tp936
a(S'cpvert_11MeV_0tilt_5rot_det14.npy'
p937
F4.1061
F0.0168
F26.9676
F0.1022
F2.8146
F0.0137
g11
(g15
S'\x00\x00\x00\x00\x00\x00`@'
p938
tp939
Rp940
tp941
a(S'cpvert_11MeV_0tilt_5rot_det15.npy'
p942
F5.1755
F0.0185
F42.04
F0.3099
F3.6216
F0.0172
g11
(g15
S'\x00\x00\x00\x00\x00\x00T@'
p943
tp944
Rp945
tp946
a(S'cpvert_11MeV_0tilt_5rot_det4.npy'
p947
F5.2808
F0.0173
F40.4449
F0.2812
F3.6429
F0.0136
g11
(g15
S'\x00\x00\x00\x00\x00\x80U@'
p948
tp949
Rp950
tp951
a(S'cpvert_11MeV_0tilt_5rot_det5.npy'
p952
F4.2599
F0.0146
F25.0217
F0.1051
F2.8832
F0.0116
g11
(g15
S'\x00\x00\x00\x00\x00@_@'
p953
tp954
Rp955
tp956
a(S'cpvert_11MeV_0tilt_5rot_det6.npy'
p957
F3.0638
F0.0123
F19.636
F0.0575
F2.0106
F0.0095
g11
(g15
S'\x00\x00\x00\x00\x00\x00b@'
p958
tp959
Rp960
tp961
a(S'cpvert_11MeV_0tilt_5rot_det7.npy'
p962
F1.855
F0.0107
F17.8609
F0.0447
F1.1766
F0.0077
g11
(g15
S'\x00\x00\x00\x00\x00@d@'
p963
tp964
Rp965
tp966
a(S'cpvert_11MeV_0tilt_5rot_det8.npy'
p967
F0.9146
F0.0079
F19.178
F0.0341
F0.5505
F0.005
g11
(g15
S'\x00\x00\x00\x00\x00\x00c@'
p968
tp969
Rp970
tp971
a(S'cpvert_11MeV_0tilt_5rot_det9.npy'
p972
F0.3004
F0.0044
F17.7583
F0.0408
F0.1686
F0.0027
g11
(g15
S'\x00\x00\x00\x00\x00@c@'
p973
tp974
Rp975
tp976
a(S'cpvert_11MeV_0tilt_65rot_det10.npy'
p977
F0.3037
F0.0044
F15.93
F0.0374
F0.1723
F0.0026
g11
(g15
S'\x00\x00\x00\x00\x00`d@'
p978
tp979
Rp980
tp981
a(S'cpvert_11MeV_0tilt_65rot_det11.npy'
p982
F0.9253
F0.0078
F20.0409
F0.0335
F0.5555
F0.0051
g11
(g15
S'\x00\x00\x00\x00\x00\xc0d@'
p983
tp984
Rp985
tp986
a(S'cpvert_11MeV_0tilt_65rot_det12.npy'
p987
F1.8528
F0.01
F19.0784
F0.0398
F1.1765
F0.0073
g11
(g15
S'\x00\x00\x00\x00\x00@g@'
p988
tp989
Rp990
tp991
a(S'cpvert_11MeV_0tilt_65rot_det13.npy'
p992
F3.014
F0.0114
F22.1823
F0.0543
F1.9971
F0.0087
g11
(g15
S'\x00\x00\x00\x00\x00 e@'
p993
tp994
Rp995
tp996
a(S'cpvert_11MeV_0tilt_65rot_det14.npy'
p997
F4.1408
F0.0151
F26.9563
F0.0998
F2.8245
F0.0116
g11
(g15
S'\x00\x00\x00\x00\x00@b@'
p998
tp999
Rp1000
tp1001
a(S'cpvert_11MeV_0tilt_65rot_det15.npy'
p1002
F5.2061
F0.0159
F41.8866
F0.299
F3.6169
F0.0156
g11
(g15
S'\x00\x00\x00\x00\x00\x80S@'
p1003
tp1004
Rp1005
tp1006
a(S'cpvert_11MeV_0tilt_65rot_det4.npy'
p1007
F5.086
F0.0136
F40.4267
F0.2526
F3.5596
F0.0131
g11
(g15
S'\x00\x00\x00\x00\x00\xc0X@'
p1008
tp1009
Rp1010
tp1011
a(S'cpvert_11MeV_0tilt_65rot_det5.npy'
p1012
F4.0836
F0.0167
F25.1102
F0.1156
F2.8138
F0.0135
g11
(g15
S'\x00\x00\x00\x00\x00`a@'
p1013
tp1014
Rp1015
tp1016
a(S'cpvert_11MeV_0tilt_65rot_det6.npy'
p1017
F2.9249
F0.0124
F19.6974
F0.0585
F1.9619
F0.0101
g11
(g15
S'\x00\x00\x00\x00\x00\xe0b@'
p1018
tp1019
Rp1020
tp1021
a(S'cpvert_11MeV_0tilt_65rot_det7.npy'
p1022
F1.8067
F0.0109
F17.9853
F0.0424
F1.1588
F0.0077
g11
(g15
S'\x00\x00\x00\x00\x00\xe0c@'
p1023
tp1024
Rp1025
tp1026
a(S'cpvert_11MeV_0tilt_65rot_det8.npy'
p1027
F0.8704
F0.0066
F19.2373
F0.0293
F0.5261
F0.0043
g11
(g15
S'\x00\x00\x00\x00\x00`d@'
p1028
tp1029
Rp1030
tp1031
a(S'cpvert_11MeV_0tilt_65rot_det9.npy'
p1032
F0.2858
F0.0039
F17.8499
F0.0381
F0.1595
F0.0023
g11
(g15
S'\x00\x00\x00\x00\x00\x80f@'
p1033
tp1034
Rp1035
tp1036
a(S'cpvert_11MeV_0tilt_75rot_det10.npy'
p1037
F0.2952
F0.0035
F15.8728
F0.0395
F0.1661
F0.0021
g11
(g15
S'\x00\x00\x00\x00\x00\xc0f@'
p1038
tp1039
Rp1040
tp1041
a(S'cpvert_11MeV_0tilt_75rot_det11.npy'
p1042
F0.915
F0.0077
F19.9914
F0.0336
F0.5508
F0.0051
g11
(g15
S'\x00\x00\x00\x00\x00@c@'
p1043
tp1044
Rp1045
tp1046
a(S'cpvert_11MeV_0tilt_75rot_det12.npy'
p1047
F1.8873
F0.0107
F19.1718
F0.0425
F1.1964
F0.0074
g11
(g15
S'\x00\x00\x00\x00\x00`h@'
p1048
tp1049
Rp1050
tp1051
a(S'cpvert_11MeV_0tilt_75rot_det13.npy'
p1052
F3.0103
F0.0128
F22.3243
F0.0571
F1.9928
F0.0095
g11
(g15
S'\x00\x00\x00\x00\x00\x80f@'
p1053
tp1054
Rp1055
tp1056
a(S'cpvert_11MeV_0tilt_75rot_det14.npy'
p1057
F4.1767
F0.0165
F26.8979
F0.1077
F2.8436
F0.0128
g11
(g15
S'\x00\x00\x00\x00\x00\x00`@'
p1058
tp1059
Rp1060
tp1061
a(S'cpvert_11MeV_0tilt_75rot_det15.npy'
p1062
F5.1839
F0.0164
F41.7201
F0.2957
F3.5941
F0.0145
g11
(g15
S'\x00\x00\x00\x00\x00@S@'
p1063
tp1064
Rp1065
tp1066
a(S'cpvert_11MeV_0tilt_75rot_det4.npy'
p1067
F5.1155
F0.0161
F40.6003
F0.2435
F3.57
F0.014
g11
(g15
S'\x00\x00\x00\x00\x00\xc0U@'
p1068
tp1069
Rp1070
tp1071
a(S'cpvert_11MeV_0tilt_75rot_det5.npy'
p1072
F4.0851
F0.0141
F25.1653
F0.1017
F2.8173
F0.0122
g11
(g15
S'\x00\x00\x00\x00\x00\x00b@'
p1073
tp1074
Rp1075
tp1076
a(S'cpvert_11MeV_0tilt_75rot_det6.npy'
p1077
F2.9065
F0.0113
F19.7178
F0.0579
F1.9515
F0.0085
g11
(g15
S'\x00\x00\x00\x00\x00\xe0c@'
p1078
tp1079
Rp1080
tp1081
a(S'cpvert_11MeV_0tilt_75rot_det7.npy'
p1082
F1.7794
F0.0103
F17.9886
F0.0417
F1.1457
F0.0074
g11
(g15
S'\x00\x00\x00\x00\x00\xc0h@'
p1083
tp1084
Rp1085
tp1086
a(S'cpvert_11MeV_0tilt_75rot_det8.npy'
p1087
F0.8716
F0.007
F19.2631
F0.0295
F0.5288
F0.0047
g11
(g15
S'\x00\x00\x00\x00\x00\x80f@'
p1088
tp1089
Rp1090
tp1091
a(S'cpvert_11MeV_0tilt_75rot_det9.npy'
p1092
F0.2834
F0.0042
F17.8182
F0.0366
F0.1591
F0.0025
g11
(g15
S'\x00\x00\x00\x00\x00\x80d@'
p1093
tp1094
Rp1095
tp1096
a(S'cpvert_11MeV_0tilt_85rot_det10.npy'
p1097
F0.2939
F0.0037
F15.8389
F0.0378
F0.166
F0.0022
g11
(g15
S'\x00\x00\x00\x00\x00 g@'
p1098
tp1099
Rp1100
tp1101
a(S'cpvert_11MeV_0tilt_85rot_det11.npy'
p1102
F0.9132
F0.0077
F20.0106
F0.0346
F0.5474
F0.0052
g11
(g15
S'\x00\x00\x00\x00\x00\xa0b@'
p1103
tp1104
Rp1105
tp1106
a(S'cpvert_11MeV_0tilt_85rot_det12.npy'
p1107
F1.8757
F0.0097
F19.083
F0.0373
F1.1944
F0.007
g11
(g15
S'\x00\x00\x00\x00\x00\xc0d@'
p1108
tp1109
Rp1110
tp1111
a(S'cpvert_11MeV_0tilt_85rot_det13.npy'
p1112
F3.0329
F0.0157
F22.2968
F0.0606
F2.0028
F0.0115
g11
(g15
S'\x00\x00\x00\x00\x00\xe0c@'
p1113
tp1114
Rp1115
tp1116
a(S'cpvert_11MeV_0tilt_85rot_det14.npy'
p1117
F4.2118
F0.0159
F26.9709
F0.1051
F2.8507
F0.0129
g11
(g15
S'\x00\x00\x00\x00\x00\x80_@'
p1118
tp1119
Rp1120
tp1121
a(S'cpvert_11MeV_0tilt_85rot_det15.npy'
p1122
F5.1989
F0.0204
F41.8576
F0.2928
F3.5758
F0.0183
g11
(g15
S'\x00\x00\x00\x00\x00\x00S@'
p1123
tp1124
Rp1125
tp1126
a(S'cpvert_11MeV_0tilt_85rot_det4.npy'
p1127
F5.1192
F0.0161
F40.3099
F0.2689
F3.5728
F0.014
g11
(g15
S'\x00\x00\x00\x00\x00\x00W@'
p1128
tp1129
Rp1130
tp1131
a(S'cpvert_11MeV_0tilt_85rot_det5.npy'
p1132
F4.063
F0.0147
F24.8748
F0.0984
F2.7879
F0.0117
g11
(g15
S'\x00\x00\x00\x00\x00\xe0b@'
p1133
tp1134
Rp1135
tp1136
a(S'cpvert_11MeV_0tilt_85rot_det6.npy'
p1137
F2.9067
F0.0127
F19.7318
F0.0552
F1.9562
F0.0096
g11
(g15
S'\x00\x00\x00\x00\x00\x80d@'
p1138
tp1139
Rp1140
tp1141
a(S'cpvert_11MeV_0tilt_85rot_det7.npy'
p1142
F1.7847
F0.0104
F18.01
F0.0444
F1.1542
F0.0074
g11
(g15
S'\x00\x00\x00\x00\x00\x00f@'
p1143
tp1144
Rp1145
tp1146
a(S'cpvert_11MeV_0tilt_85rot_det8.npy'
p1147
F0.8718
F0.0076
F19.269
F0.0319
F0.5296
F0.0053
g11
(g15
S'\x00\x00\x00\x00\x00\x00d@'
p1148
tp1149
Rp1150
tp1151
a(S'cpvert_11MeV_0tilt_85rot_det9.npy'
p1152
F0.2885
F0.0037
F17.86
F0.0353
F0.1608
F0.0021
g11
(g15
S'\x00\x00\x00\x00\x00\xc0h@'
p1153
tp1154
Rp1155
tp1156
a(S'cpvert_11MeV_0tilt_95rot_det10.npy'
p1157
F0.2965
F0.0038
F15.8568
F0.0336
F0.1691
F0.0023
g11
(g15
S'\x00\x00\x00\x00\x00\xc0f@'
p1158
tp1159
Rp1160
tp1161
a(S'cpvert_11MeV_0tilt_95rot_det11.npy'
p1162
F0.9143
F0.0075
F20.0733
F0.0323
F0.5537
F0.0049
g11
(g15
S'\x00\x00\x00\x00\x00\xe0c@'
p1163
tp1164
Rp1165
tp1166
a(S'cpvert_11MeV_0tilt_95rot_det12.npy'
p1167
F1.8512
F0.0118
F19.0285
F0.0387
F1.1739
F0.0082
g11
(g15
S'\x00\x00\x00\x00\x00`f@'
p1168
tp1169
Rp1170
tp1171
a(S'cpvert_11MeV_0tilt_95rot_det13.npy'
p1172
F3.0459
F0.0126
F22.2797
F0.0542
F2.0078
F0.0091
g11
(g15
S'\x00\x00\x00\x00\x00\xc0c@'
p1173
tp1174
Rp1175
tp1176
a(S'cpvert_11MeV_0tilt_95rot_det14.npy'
p1177
F4.2739
F0.0145
F26.9369
F0.1026
F2.8875
F0.0117
g11
(g15
S'\x00\x00\x00\x00\x00\x80c@'
p1178
tp1179
Rp1180
tp1181
a(S'cpvert_11MeV_0tilt_95rot_det15.npy'
p1182
F5.2618
F0.0186
F41.5471
F0.3364
F3.5923
F0.0151
g11
(g15
S'\x00\x00\x00\x00\x00@T@'
p1183
tp1184
Rp1185
tp1186
a(S'cpvert_11MeV_0tilt_95rot_det4.npy'
p1187
F5.1119
F0.0192
F40.2244
F0.323
F3.5636
F0.0176
g11
(g15
S'\x00\x00\x00\x00\x00@R@'
p1188
tp1189
Rp1190
tp1191
a(S'cpvert_11MeV_0tilt_95rot_det5.npy'
p1192
F4.1166
F0.0125
F25.1265
F0.0983
F2.825
F0.0094
g11
(g15
S'\x00\x00\x00\x00\x00\x80d@'
p1193
tp1194
Rp1195
tp1196
a(S'cpvert_11MeV_0tilt_95rot_det6.npy'
p1197
F2.8909
F0.012
F19.6355
F0.058
F1.9423
F0.0096
g11
(g15
S'\x00\x00\x00\x00\x00\xc0d@'
p1198
tp1199
Rp1200
tp1201
a(S'cpvert_11MeV_0tilt_95rot_det7.npy'
p1202
F1.768
F0.011
F17.927
F0.0385
F1.1412
F0.0079
g11
(g15
S'\x00\x00\x00\x00\x00\x00f@'
p1203
tp1204
Rp1205
tp1206
a(S'cpvert_11MeV_0tilt_95rot_det8.npy'
p1207
F0.8721
F0.0071
F19.3244
F0.0306
F0.5267
F0.0047
g11
(g15
S'\x00\x00\x00\x00\x00\xe0a@'
p1208
tp1209
Rp1210
tp1211
a(S'cpvert_11MeV_0tilt_95rot_det9.npy'
p1212
F0.2886
F0.0034
F17.7912
F0.0334
F0.1626
F0.0021
g11
(g15
S'\x00\x00\x00\x00\x00\x80i@'
p1213
tp1214
Rp1215
tp1216
a(S'cpvert_11MeV_15tilt_105rot_det10.npy'
p1217
F0.2982
F0.0036
F15.9538
F0.0342
F0.1735
F0.0022
g11
(g15
S'\x00\x00\x00\x00\x00\xc0f@'
p1218
tp1219
Rp1220
tp1221
a(S'cpvert_11MeV_15tilt_105rot_det11.npy'
p1222
F0.8834
F0.0066
F20.0715
F0.0313
F0.5413
F0.0045
g11
(g15
S'\x00\x00\x00\x00\x00 e@'
p1223
tp1224
Rp1225
tp1226
a(S'cpvert_11MeV_15tilt_105rot_det12.npy'
p1227
F1.8472
F0.0104
F19.0997
F0.0415
F1.1814
F0.0075
g11
(g15
S'\x00\x00\x00\x00\x00@f@'
p1228
tp1229
Rp1230
tp1231
a(S'cpvert_11MeV_15tilt_105rot_det13.npy'
p1232
F3.0155
F0.0106
F22.2874
F0.0532
F1.9955
F0.0081
g11
(g15
S'\x00\x00\x00\x00\x00\xe0h@'
p1233
tp1234
Rp1235
tp1236
a(S'cpvert_11MeV_15tilt_105rot_det14.npy'
p1237
F4.2099
F0.0146
F26.9592
F0.1043
F2.8478
F0.0118
g11
(g15
S'\x00\x00\x00\x00\x00@`@'
p1238
tp1239
Rp1240
tp1241
a(S'cpvert_11MeV_15tilt_105rot_det15.npy'
p1242
F5.2199
F0.0187
F41.255
F0.2897
F3.5806
F0.0166
g11
(g15
S'\x00\x00\x00\x00\x00\xc0S@'
p1243
tp1244
Rp1245
tp1246
a(S'cpvert_11MeV_15tilt_105rot_det4.npy'
p1247
F5.0939
F0.0182
F40.3013
F0.2861
F3.5509
F0.0159
g11
(g15
S'\x00\x00\x00\x00\x00\x00S@'
p1248
tp1249
Rp1250
tp1251
a(S'cpvert_11MeV_15tilt_105rot_det5.npy'
p1252
F4.0347
F0.0143
F24.9297
F0.119
F2.7758
F0.0122
g11
(g15
S'\x00\x00\x00\x00\x00\xc0]@'
p1253
tp1254
Rp1255
tp1256
a(S'cpvert_11MeV_15tilt_105rot_det6.npy'
p1257
F2.8728
F0.0111
F19.7615
F0.0544
F1.9331
F0.0086
g11
(g15
S'\x00\x00\x00\x00\x00`e@'
p1258
tp1259
Rp1260
tp1261
a(S'cpvert_11MeV_15tilt_105rot_det7.npy'
p1262
F1.7448
F0.009
F17.9278
F0.0399
F1.1318
F0.0063
g11
(g15
S'\x00\x00\x00\x00\x00\xe0g@'
p1263
tp1264
Rp1265
tp1266
a(S'cpvert_11MeV_15tilt_105rot_det8.npy'
p1267
F0.8564
F0.0075
F19.3674
F0.0305
F0.5236
F0.005
g11
(g15
S'\x00\x00\x00\x00\x00`f@'
p1268
tp1269
Rp1270
tp1271
a(S'cpvert_11MeV_15tilt_105rot_det9.npy'
p1272
F0.2901
F0.0038
F17.8218
F0.0384
F0.1669
F0.0022
g11
(g15
S'\x00\x00\x00\x00\x00\x00e@'
p1273
tp1274
Rp1275
tp1276
a(S'cpvert_11MeV_15tilt_115rot_det10.npy'
p1277
F0.2968
F0.0037
F15.8752
F0.0377
F0.1718
F0.0022
g11
(g15
S'\x00\x00\x00\x00\x00\x00g@'
p1278
tp1279
Rp1280
tp1281
a(S'cpvert_11MeV_15tilt_115rot_det11.npy'
p1282
F0.8756
F0.0071
F20.0232
F0.0333
F0.5361
F0.0046
g11
(g15
S'\x00\x00\x00\x00\x00@d@'
p1283
tp1284
Rp1285
tp1286
a(S'cpvert_11MeV_15tilt_115rot_det12.npy'
p1287
F1.8339
F0.0091
F19.1227
F0.0375
F1.177
F0.0063
g11
(g15
S'\x00\x00\x00\x00\x00\xc0h@'
p1288
tp1289
Rp1290
tp1291
a(S'cpvert_11MeV_15tilt_115rot_det13.npy'
p1292
F3.0155
F0.0123
F22.3833
F0.0515
F2.0076
F0.0091
g11
(g15
S'\x00\x00\x00\x00\x00\xe0d@'
p1293
tp1294
Rp1295
tp1296
a(S'cpvert_11MeV_15tilt_115rot_det14.npy'
p1297
F4.2177
F0.0125
F26.997
F0.1144
F2.8574
F0.0093
g11
(g15
S'\x00\x00\x00\x00\x00\xe0`@'
p1298
tp1299
Rp1300
tp1301
a(S'cpvert_11MeV_15tilt_115rot_det15.npy'
p1302
F5.2431
F0.0192
F41.833
F0.2538
F3.5849
F0.0165
g11
(g15
S'\x00\x00\x00\x00\x00@Y@'
p1303
tp1304
Rp1305
tp1306
a(S'cpvert_11MeV_15tilt_115rot_det4.npy'
p1307
F5.0932
F0.0157
F39.8577
F0.327
F3.5495
F0.0164
g11
(g15
S'\x00\x00\x00\x00\x00\xc0R@'
p1308
tp1309
Rp1310
tp1311
a(S'cpvert_11MeV_15tilt_115rot_det5.npy'
p1312
F4.065
F0.0135
F24.9358
F0.0942
F2.7895
F0.0104
g11
(g15
S'\x00\x00\x00\x00\x00\xe0c@'
p1313
tp1314
Rp1315
tp1316
a(S'cpvert_11MeV_15tilt_115rot_det6.npy'
p1317
F2.877
F0.0112
F19.7613
F0.0488
F1.9307
F0.0085
g11
(g15
S'\x00\x00\x00\x00\x00\x80e@'
p1318
tp1319
Rp1320
tp1321
a(S'cpvert_11MeV_15tilt_115rot_det7.npy'
p1322
F1.7386
F0.0093
F18.0018
F0.0374
F1.124
F0.007
g11
(g15
S'\x00\x00\x00\x00\x00\xe0h@'
p1323
tp1324
Rp1325
tp1326
a(S'cpvert_11MeV_15tilt_115rot_det8.npy'
p1327
F0.8626
F0.0067
F19.2923
F0.0311
F0.5267
F0.0045
g11
(g15
S'\x00\x00\x00\x00\x00\xe0h@'
p1328
tp1329
Rp1330
tp1331
a(S'cpvert_11MeV_15tilt_115rot_det9.npy'
p1332
F0.2885
F0.0032
F17.8834
F0.0364
F0.1657
F0.0019
g11
(g15
S'\x00\x00\x00\x00\x00 g@'
p1333
tp1334
Rp1335
tp1336
a(S'cpvert_11MeV_15tilt_125rot_det10.npy'
p1337
F0.3027
F0.0039
F15.9737
F0.0366
F0.1731
F0.0023
g11
(g15
S'\x00\x00\x00\x00\x00\xa0f@'
p1338
tp1339
Rp1340
tp1341
a(S'cpvert_11MeV_15tilt_125rot_det11.npy'
p1342
F0.8859
F0.0074
F20.0496
F0.0312
F0.5403
F0.0051
g11
(g15
S'\x00\x00\x00\x00\x00\xc0b@'
p1343
tp1344
Rp1345
tp1346
a(S'cpvert_11MeV_15tilt_125rot_det12.npy'
p1347
F1.8153
F0.0108
F19.1855
F0.0386
F1.1705
F0.008
g11
(g15
S'\x00\x00\x00\x00\x00\xe0e@'
p1348
tp1349
Rp1350
tp1351
a(S'cpvert_11MeV_15tilt_125rot_det13.npy'
p1352
F2.9702
F0.0112
F22.3171
F0.0512
F1.9794
F0.0084
g11
(g15
S'\x00\x00\x00\x00\x00 f@'
p1353
tp1354
Rp1355
tp1356
a(S'cpvert_11MeV_15tilt_125rot_det14.npy'
p1357
F4.2193
F0.0126
F27.2043
F0.107
F2.8657
F0.011
g11
(g15
S'\x00\x00\x00\x00\x00\x00_@'
p1358
tp1359
Rp1360
tp1361
a(S'cpvert_11MeV_15tilt_125rot_det15.npy'
p1362
F5.2423
F0.0164
F41.9571
F0.2475
F3.5857
F0.0134
g11
(g15
S'\x00\x00\x00\x00\x00@X@'
p1363
tp1364
Rp1365
tp1366
a(S'cpvert_11MeV_15tilt_125rot_det4.npy'
p1367
F5.1437
F0.0164
F40.0159
F0.2978
F3.5706
F0.0136
g11
(g15
S'\x00\x00\x00\x00\x00\xc0W@'
p1368
tp1369
Rp1370
tp1371
a(S'cpvert_11MeV_15tilt_125rot_det5.npy'
p1372
F4.0862
F0.0137
F24.9285
F0.1043
F2.7965
F0.0114
g11
(g15
S'\x00\x00\x00\x00\x00\xe0`@'
p1373
tp1374
Rp1375
tp1376
a(S'cpvert_11MeV_15tilt_125rot_det6.npy'
p1377
F2.8982
F0.0141
F19.6881
F0.0652
F1.9408
F0.0108
g11
(g15
S'\x00\x00\x00\x00\x00\x80b@'
p1378
tp1379
Rp1380
tp1381
a(S'cpvert_11MeV_15tilt_125rot_det7.npy'
p1382
F1.7339
F0.0105
F17.9029
F0.0388
F1.1191
F0.0079
g11
(g15
S'\x00\x00\x00\x00\x00\xe0g@'
p1383
tp1384
Rp1385
tp1386
a(S'cpvert_11MeV_15tilt_125rot_det8.npy'
p1387
F0.8581
F0.0069
F19.3411
F0.0305
F0.5244
F0.0046
g11
(g15
S'\x00\x00\x00\x00\x00\x80e@'
p1388
tp1389
Rp1390
tp1391
a(S'cpvert_11MeV_15tilt_125rot_det9.npy'
p1392
F0.2865
F0.0032
F17.8369
F0.0351
F0.1641
F0.0019
g11
(g15
S'\x00\x00\x00\x00\x00\x00i@'
p1393
tp1394
Rp1395
tp1396
a(S'cpvert_11MeV_15tilt_135rot_det10.npy'
p1397
F0.2912
F0.0043
F15.9283
F0.0365
F0.1678
F0.0026
g11
(g15
S'\x00\x00\x00\x00\x00 d@'
p1398
tp1399
Rp1400
tp1401
a(S'cpvert_11MeV_15tilt_135rot_det11.npy'
p1402
F0.8525
F0.0067
F20.0921
F0.0283
F0.5217
F0.0046
g11
(g15
S'\x00\x00\x00\x00\x00@f@'
p1403
tp1404
Rp1405
tp1406
a(S'cpvert_11MeV_15tilt_135rot_det12.npy'
p1407
F1.8127
F0.0108
F19.1291
F0.0386
F1.1724
F0.0075
g11
(g15
S'\x00\x00\x00\x00\x00 g@'
p1408
tp1409
Rp1410
tp1411
a(S'cpvert_11MeV_15tilt_135rot_det13.npy'
p1412
F2.9606
F0.013
F22.2821
F0.0588
F1.9856
F0.0104
g11
(g15
S'\x00\x00\x00\x00\x00`c@'
p1413
tp1414
Rp1415
tp1416
a(S'cpvert_11MeV_15tilt_135rot_det14.npy'
p1417
F4.157
F0.0129
F27.1578
F0.1044
F2.8519
F0.0108
g11
(g15
S'\x00\x00\x00\x00\x00\xc0b@'
p1418
tp1419
Rp1420
tp1421
a(S'cpvert_11MeV_15tilt_135rot_det15.npy'
p1422
F5.2102
F0.0168
F41.7874
F0.2688
F3.584
F0.0139
g11
(g15
S'\x00\x00\x00\x00\x00\x00V@'
p1423
tp1424
Rp1425
tp1426
a(S'cpvert_11MeV_15tilt_135rot_det4.npy'
p1427
F5.194
F0.02
F40.1805
F0.306
F3.5715
F0.0161
g11
(g15
S'\x00\x00\x00\x00\x00\x00R@'
p1428
tp1429
Rp1430
tp1431
a(S'cpvert_11MeV_15tilt_135rot_det5.npy'
p1432
F4.0992
F0.0166
F25.0495
F0.1096
F2.7951
F0.0138
g11
(g15
S'\x00\x00\x00\x00\x00 `@'
p1433
tp1434
Rp1435
tp1436
a(S'cpvert_11MeV_15tilt_135rot_det6.npy'
p1437
F2.9268
F0.0119
F19.6868
F0.0543
F1.9566
F0.0091
g11
(g15
S'\x00\x00\x00\x00\x00\xa0c@'
p1438
tp1439
Rp1440
tp1441
a(S'cpvert_11MeV_15tilt_135rot_det7.npy'
p1442
F1.7487
F0.0108
F17.9189
F0.0421
F1.1278
F0.0079
g11
(g15
S'\x00\x00\x00\x00\x00@f@'
p1443
tp1444
Rp1445
tp1446
a(S'cpvert_11MeV_15tilt_135rot_det8.npy'
p1447
F0.8466
F0.0068
F19.2031
F0.0294
F0.5169
F0.0044
g11
(g15
S'\x00\x00\x00\x00\x00\x00h@'
p1448
tp1449
Rp1450
tp1451
a(S'cpvert_11MeV_15tilt_135rot_det9.npy'
p1452
F0.2861
F0.0038
F17.8206
F0.0372
F0.1637
F0.0022
g11
(g15
S'\x00\x00\x00\x00\x00\x80d@'
p1453
tp1454
Rp1455
tp1456
a(S'cpvert_11MeV_15tilt_145rot_det10.npy'
p1457
F0.2928
F0.004
F15.9405
F0.0352
F0.1683
F0.0024
g11
(g15
S'\x00\x00\x00\x00\x00 f@'
p1458
tp1459
Rp1460
tp1461
a(S'cpvert_11MeV_15tilt_145rot_det11.npy'
p1462
F0.8759
F0.0069
F20.1042
F0.0284
F0.5358
F0.0048
g11
(g15
S'\x00\x00\x00\x00\x00`f@'
p1463
tp1464
Rp1465
tp1466
a(S'cpvert_11MeV_15tilt_145rot_det12.npy'
p1467
F1.795
F0.0105
F19.1844
F0.0437
F1.1625
F0.0078
g11
(g15
S'\x00\x00\x00\x00\x00\xe0d@'
p1468
tp1469
Rp1470
tp1471
a(S'cpvert_11MeV_15tilt_145rot_det13.npy'
p1472
F2.9095
F0.0112
F22.3101
F0.0568
F1.9539
F0.0091
g11
(g15
S'\x00\x00\x00\x00\x00\xc0d@'
p1473
tp1474
Rp1475
tp1476
a(S'cpvert_11MeV_15tilt_145rot_det14.npy'
p1477
F4.1292
F0.0135
F27.0679
F0.1035
F2.8382
F0.01
g11
(g15
S'\x00\x00\x00\x00\x00\xa0a@'
p1478
tp1479
Rp1480
tp1481
a(S'cpvert_11MeV_15tilt_145rot_det15.npy'
p1482
F5.1617
F0.0183
F41.7938
F0.2849
F3.5845
F0.0162
g11
(g15
S'\x00\x00\x00\x00\x00@Q@'
p1483
tp1484
Rp1485
tp1486
a(S'cpvert_11MeV_15tilt_145rot_det4.npy'
p1487
F5.2261
F0.0171
F39.9205
F0.2552
F3.5885
F0.0141
g11
(g15
S'\x00\x00\x00\x00\x00\xc0V@'
p1488
tp1489
Rp1490
tp1491
a(S'cpvert_11MeV_15tilt_145rot_det5.npy'
p1492
F4.1914
F0.0155
F24.9243
F0.1055
F2.8424
F0.0118
g11
(g15
S'\x00\x00\x00\x00\x00\xc0_@'
p1493
tp1494
Rp1495
tp1496
a(S'cpvert_11MeV_15tilt_145rot_det6.npy'
p1497
F2.9356
F0.014
F19.6026
F0.0628
F1.9504
F0.0108
g11
(g15
S'\x00\x00\x00\x00\x00\xa0d@'
p1498
tp1499
Rp1500
tp1501
a(S'cpvert_11MeV_15tilt_145rot_det7.npy'
p1502
F1.7881
F0.0107
F17.842
F0.0398
F1.1498
F0.0075
g11
(g15
S'\x00\x00\x00\x00\x00 f@'
p1503
tp1504
Rp1505
tp1506
a(S'cpvert_11MeV_15tilt_145rot_det8.npy'
p1507
F0.8587
F0.0079
F19.2739
F0.0325
F0.5262
F0.0053
g11
(g15
S'\x00\x00\x00\x00\x00\xc0b@'
p1508
tp1509
Rp1510
tp1511
a(S'cpvert_11MeV_15tilt_145rot_det9.npy'
p1512
F0.2843
F0.0036
F17.8538
F0.0366
F0.1625
F0.0021
g11
(g15
S'\x00\x00\x00\x00\x00\x80f@'
p1513
tp1514
Rp1515
tp1516
a(S'cpvert_11MeV_15tilt_15rot_det10.npy'
p1517
F0.2916
F0.0036
F15.8366
F0.0341
F0.1684
F0.0022
g11
(g15
S'\x00\x00\x00\x00\x00\x00f@'
p1518
tp1519
Rp1520
tp1521
a(S'cpvert_11MeV_15tilt_15rot_det11.npy'
p1522
F0.8606
F0.0084
F20.0162
F0.0336
F0.5271
F0.0054
g11
(g15
S'\x00\x00\x00\x00\x00\xc0c@'
p1523
tp1524
Rp1525
tp1526
a(S'cpvert_11MeV_15tilt_15rot_det12.npy'
p1527
F1.7658
F0.0111
F19.1264
F0.0359
F1.1456
F0.0081
g11
(g15
S'\x00\x00\x00\x00\x00`j@'
p1528
tp1529
Rp1530
tp1531
a(S'cpvert_11MeV_15tilt_15rot_det13.npy'
p1532
F2.8895
F0.0146
F22.2819
F0.0695
F1.9556
F0.011
g11
(g15
S'\x00\x00\x00\x00\x00\x80a@'
p1533
tp1534
Rp1535
tp1536
a(S'cpvert_11MeV_15tilt_15rot_det14.npy'
p1537
F4.0257
F0.015
F26.8454
F0.1065
F2.7937
F0.0119
g11
(g15
S'\x00\x00\x00\x00\x00@b@'
p1538
tp1539
Rp1540
tp1541
a(S'cpvert_11MeV_15tilt_15rot_det15.npy'
p1542
F5.0608
F0.0151
F41.4465
F0.3036
F3.5597
F0.0146
g11
(g15
S'\x00\x00\x00\x00\x00\x80U@'
p1543
tp1544
Rp1545
tp1546
a(S'cpvert_11MeV_15tilt_15rot_det4.npy'
p1547
F5.156
F0.0152
F39.5251
F0.2688
F3.5848
F0.0135
g11
(g15
S'\x00\x00\x00\x00\x00\xc0S@'
p1548
tp1549
Rp1550
tp1551
a(S'cpvert_11MeV_15tilt_15rot_det5.npy'
p1552
F4.1947
F0.0136
F25.1911
F0.091
F2.8728
F0.0108
g11
(g15
S'\x00\x00\x00\x00\x00\xc0a@'
p1553
tp1554
Rp1555
tp1556
a(S'cpvert_11MeV_15tilt_15rot_det6.npy'
p1557
F2.9942
F0.0126
F19.6663
F0.06
F1.9984
F0.0098
g11
(g15
S'\x00\x00\x00\x00\x00 b@'
p1558
tp1559
Rp1560
tp1561
a(S'cpvert_11MeV_15tilt_15rot_det7.npy'
p1562
F1.8543
F0.0113
F17.9219
F0.0487
F1.1825
F0.0082
g11
(g15
S'\x00\x00\x00\x00\x00\x00c@'
p1563
tp1564
Rp1565
tp1566
a(S'cpvert_11MeV_15tilt_15rot_det8.npy'
p1567
F0.9077
F0.0079
F19.2822
F0.0341
F0.5526
F0.0051
g11
(g15
S'\x00\x00\x00\x00\x00\x00b@'
p1568
tp1569
Rp1570
tp1571
a(S'cpvert_11MeV_15tilt_15rot_det9.npy'
p1572
F0.304
F0.004
F17.739
F0.0378
F0.177
F0.0024
g11
(g15
S'\x00\x00\x00\x00\x00\x80e@'
p1573
tp1574
Rp1575
tp1576
a(S'cpvert_11MeV_15tilt_25rot_det10.npy'
p1577
F0.3001
F0.0036
F15.8746
F0.035
F0.174
F0.0021
g11
(g15
S'\x00\x00\x00\x00\x00 h@'
p1578
tp1579
Rp1580
tp1581
a(S'cpvert_11MeV_15tilt_25rot_det11.npy'
p1582
F0.8781
F0.007
F20.0378
F0.03
F0.5372
F0.0046
g11
(g15
S'\x00\x00\x00\x00\x00`e@'
p1583
tp1584
Rp1585
tp1586
a(S'cpvert_11MeV_15tilt_25rot_det12.npy'
p1587
F1.7871
F0.0111
F19.0714
F0.0385
F1.1579
F0.008
g11
(g15
S'\x00\x00\x00\x00\x00\x00g@'
p1588
tp1589
Rp1590
tp1591
a(S'cpvert_11MeV_15tilt_25rot_det13.npy'
p1592
F2.8808
F0.0134
F22.2765
F0.063
F1.9421
F0.0101
g11
(g15
S'\x00\x00\x00\x00\x00\xa0`@'
p1593
tp1594
Rp1595
tp1596
a(S'cpvert_11MeV_15tilt_25rot_det14.npy'
p1597
F4.047
F0.0136
F26.9195
F0.1045
F2.7903
F0.0112
g11
(g15
S'\x00\x00\x00\x00\x00 b@'
p1598
tp1599
Rp1600
tp1601
a(S'cpvert_11MeV_15tilt_25rot_det15.npy'
p1602
F5.0234
F0.0194
F41.2693
F0.2898
F3.5274
F0.017
g11
(g15
S'\x00\x00\x00\x00\x00\xc0S@'
p1603
tp1604
Rp1605
tp1606
a(S'cpvert_11MeV_15tilt_25rot_det4.npy'
p1607
F5.1409
F0.0222
F40.7841
F0.3135
F3.5886
F0.017
g11
(g15
S'\x00\x00\x00\x00\x00\x80P@'
p1608
tp1609
Rp1610
tp1611
a(S'cpvert_11MeV_15tilt_25rot_det5.npy'
p1612
F4.1477
F0.0152
F25.0986
F0.1117
F2.8503
F0.0124
g11
(g15
S'\x00\x00\x00\x00\x00\x00`@'
p1613
tp1614
Rp1615
tp1616
a(S'cpvert_11MeV_15tilt_25rot_det6.npy'
p1617
F3.0022
F0.0135
F19.7501
F0.0595
F2.0096
F0.0097
g11
(g15
S'\x00\x00\x00\x00\x00\xa0b@'
p1618
tp1619
Rp1620
tp1621
a(S'cpvert_11MeV_15tilt_25rot_det7.npy'
p1622
F1.8253
F0.0107
F17.9428
F0.0425
F1.1685
F0.0077
g11
(g15
S'\x00\x00\x00\x00\x00`c@'
p1623
tp1624
Rp1625
tp1626
a(S'cpvert_11MeV_15tilt_25rot_det8.npy'
p1627
F0.9076
F0.0077
F19.2507
F0.0317
F0.5512
F0.0052
g11
(g15
S'\x00\x00\x00\x00\x00`b@'
p1628
tp1629
Rp1630
tp1631
a(S'cpvert_11MeV_15tilt_25rot_det9.npy'
p1632
F0.306
F0.0039
F17.7804
F0.0388
F0.1783
F0.0024
g11
(g15
S'\x00\x00\x00\x00\x00\x00g@'
p1633
tp1634
Rp1635
tp1636
a(S'cpvert_11MeV_15tilt_315rot_det10.npy'
p1637
F0.3001
F0.0042
F15.8831
F0.0356
F0.1742
F0.0024
g11
(g15
S'\x00\x00\x00\x00\x00 d@'
p1638
tp1639
Rp1640
tp1641
a(S'cpvert_11MeV_15tilt_315rot_det11.npy'
p1642
F0.884
F0.0069
F20.0229
F0.0291
F0.5427
F0.0047
g11
(g15
S'\x00\x00\x00\x00\x00\xe0g@'
p1643
tp1644
Rp1645
tp1646
a(S'cpvert_11MeV_15tilt_315rot_det12.npy'
p1647
F1.8194
F0.0106
F19.1428
F0.0432
F1.1805
F0.0077
g11
(g15
S'\x00\x00\x00\x00\x00 e@'
p1648
tp1649
Rp1650
tp1651
a(S'cpvert_11MeV_15tilt_315rot_det13.npy'
p1652
F2.996
F0.0119
F22.3486
F0.0556
F2.0072
F0.0089
g11
(g15
S'\x00\x00\x00\x00\x00\xe0e@'
p1653
tp1654
Rp1655
tp1656
a(S'cpvert_11MeV_15tilt_315rot_det14.npy'
p1657
F4.1827
F0.0156
F26.9949
F0.1082
F2.8701
F0.0125
g11
(g15
S'\x00\x00\x00\x00\x00\x80\\@'
p1658
tp1659
Rp1660
tp1661
a(S'cpvert_11MeV_15tilt_315rot_det15.npy'
p1662
F5.2596
F0.0156
F41.9571
F0.2611
F3.628
F0.0145
g11
(g15
S'\x00\x00\x00\x00\x00\xc0S@'
p1663
tp1664
Rp1665
tp1666
a(S'cpvert_11MeV_15tilt_315rot_det4.npy'
p1667
F5.2612
F0.018
F40.2175
F0.2836
F3.618
F0.0167
g11
(g15
S'\x00\x00\x00\x00\x00\x00P@'
p1668
tp1669
Rp1670
tp1671
a(S'cpvert_11MeV_15tilt_315rot_det5.npy'
p1672
F4.185
F0.0142
F25.1822
F0.1005
F2.8561
F0.011
g11
(g15
S'\x00\x00\x00\x00\x00 b@'
p1673
tp1674
Rp1675
tp1676
a(S'cpvert_11MeV_15tilt_315rot_det6.npy'
p1677
F2.9401
F0.0132
F19.6761
F0.0545
F1.9621
F0.0099
g11
(g15
S'\x00\x00\x00\x00\x00@d@'
p1678
tp1679
Rp1680
tp1681
a(S'cpvert_11MeV_15tilt_315rot_det7.npy'
p1682
F1.7938
F0.0121
F17.9387
F0.0452
F1.1561
F0.0086
g11
(g15
S'\x00\x00\x00\x00\x00\xe0d@'
p1683
tp1684
Rp1685
tp1686
a(S'cpvert_11MeV_15tilt_315rot_det8.npy'
p1687
F0.8699
F0.0069
F19.2975
F0.0327
F0.5319
F0.0048
g11
(g15
S'\x00\x00\x00\x00\x00\x00e@'
p1688
tp1689
Rp1690
tp1691
a(S'cpvert_11MeV_15tilt_315rot_det9.npy'
p1692
F0.2938
F0.0036
F17.7922
F0.0349
F0.171
F0.0021
g11
(g15
S'\x00\x00\x00\x00\x00`g@'
p1693
tp1694
Rp1695
tp1696
a(S'cpvert_11MeV_15tilt_325rot_det10.npy'
p1697
F0.293
F0.0039
F15.8977
F0.0339
F0.1697
F0.0023
g11
(g15
S'\x00\x00\x00\x00\x00 h@'
p1698
tp1699
Rp1700
tp1701
a(S'cpvert_11MeV_15tilt_325rot_det11.npy'
p1702
F0.8601
F0.0081
F20.0604
F0.0306
F0.5274
F0.0053
g11
(g15
S'\x00\x00\x00\x00\x00`f@'
p1703
tp1704
Rp1705
tp1706
a(S'cpvert_11MeV_15tilt_325rot_det12.npy'
p1707
F1.8237
F0.0102
F19.0761
F0.0388
F1.1859
F0.0076
g11
(g15
S'\x00\x00\x00\x00\x00@d@'
p1708
tp1709
Rp1710
tp1711
a(S'cpvert_11MeV_15tilt_325rot_det13.npy'
p1712
F2.9659
F0.011
F22.2649
F0.0598
F2.0011
F0.0085
g11
(g15
S'\x00\x00\x00\x00\x00\xa0c@'
p1713
tp1714
Rp1715
tp1716
a(S'cpvert_11MeV_15tilt_325rot_det14.npy'
p1717
F4.1513
F0.0145
F27.2198
F0.1078
F2.8488
F0.0122
g11
(g15
S'\x00\x00\x00\x00\x00\xe0`@'
p1718
tp1719
Rp1720
tp1721
a(S'cpvert_11MeV_15tilt_325rot_det15.npy'
p1722
F5.1896
F0.0171
F41.6313
F0.2693
F3.5867
F0.0153
g11
(g15
S'\x00\x00\x00\x00\x00\x00W@'
p1723
tp1724
Rp1725
tp1726
a(S'cpvert_11MeV_15tilt_325rot_det4.npy'
p1727
F5.296
F0.0165
F40.5276
F0.314
F3.6184
F0.0154
g11
(g15
S'\x00\x00\x00\x00\x00@S@'
p1728
tp1729
Rp1730
tp1731
a(S'cpvert_11MeV_15tilt_325rot_det5.npy'
p1732
F4.1965
F0.0166
F25.0446
F0.1092
F2.8589
F0.0125
g11
(g15
S'\x00\x00\x00\x00\x00``@'
p1733
tp1734
Rp1735
tp1736
a(S'cpvert_11MeV_15tilt_325rot_det6.npy'
p1737
F3.0102
F0.0125
F19.7737
F0.06
F2.0054
F0.0097
g11
(g15
S'\x00\x00\x00\x00\x00 c@'
p1738
tp1739
Rp1740
tp1741
a(S'cpvert_11MeV_15tilt_325rot_det7.npy'
p1742
F1.807
F0.0104
F17.9316
F0.0421
F1.1621
F0.0074
g11
(g15
S'\x00\x00\x00\x00\x00\x00i@'
p1743
tp1744
Rp1745
tp1746
a(S'cpvert_11MeV_15tilt_325rot_det8.npy'
p1747
F0.8747
F0.0075
F19.2395
F0.0335
F0.5356
F0.0049
g11
(g15
S'\x00\x00\x00\x00\x00`d@'
p1748
tp1749
Rp1750
tp1751
a(S'cpvert_11MeV_15tilt_325rot_det9.npy'
p1752
F0.2946
F0.0038
F17.8068
F0.0398
F0.1721
F0.0023
g11
(g15
S'\x00\x00\x00\x00\x00\xe0f@'
p1753
tp1754
Rp1755
tp1756
a(S'cpvert_11MeV_15tilt_335rot_det10.npy'
p1757
F0.2933
F0.0038
F15.9065
F0.0346
F0.17
F0.0023
g11
(g15
S'\x00\x00\x00\x00\x00\x00g@'
p1758
tp1759
Rp1760
tp1761
a(S'cpvert_11MeV_15tilt_335rot_det11.npy'
p1762
F0.8802
F0.0077
F20.1022
F0.034
F0.5394
F0.0052
g11
(g15
S'\x00\x00\x00\x00\x00 b@'
p1763
tp1764
Rp1765
tp1766
a(S'cpvert_11MeV_15tilt_335rot_det12.npy'
p1767
F1.779
F0.01
F19.0872
F0.0437
F1.1574
F0.0075
g11
(g15
S'\x00\x00\x00\x00\x00 d@'
p1768
tp1769
Rp1770
tp1771
a(S'cpvert_11MeV_15tilt_335rot_det13.npy'
p1772
F2.9167
F0.0115
F22.1994
F0.0519
F1.9604
F0.0088
g11
(g15
S'\x00\x00\x00\x00\x00\x80f@'
p1773
tp1774
Rp1775
tp1776
a(S'cpvert_11MeV_15tilt_335rot_det14.npy'
p1777
F4.1389
F0.0149
F27.0097
F0.106
F2.8456
F0.0121
g11
(g15
S'\x00\x00\x00\x00\x00@`@'
p1778
tp1779
Rp1780
tp1781
a(S'cpvert_11MeV_15tilt_335rot_det15.npy'
p1782
F5.1659
F0.0176
F42.2576
F0.3091
F3.5985
F0.0159
g11
(g15
S'\x00\x00\x00\x00\x00@Q@'
p1783
tp1784
Rp1785
tp1786
a(S'cpvert_11MeV_15tilt_335rot_det4.npy'
p1787
F5.294
F0.0155
F40.6741
F0.253
F3.6287
F0.0131
g11
(g15
S'\x00\x00\x00\x00\x00\x00[@'
p1788
tp1789
Rp1790
tp1791
a(S'cpvert_11MeV_15tilt_335rot_det5.npy'
p1792
F4.2384
F0.0164
F25.061
F0.109
F2.8617
F0.0127
g11
(g15
S'\x00\x00\x00\x00\x00\x80`@'
p1793
tp1794
Rp1795
tp1796
a(S'cpvert_11MeV_15tilt_335rot_det6.npy'
p1797
F3.014
F0.0115
F19.7008
F0.0562
F1.9985
F0.0093
g11
(g15
S'\x00\x00\x00\x00\x00 d@'
p1798
tp1799
Rp1800
tp1801
a(S'cpvert_11MeV_15tilt_335rot_det7.npy'
p1802
F1.8436
F0.011
F17.9249
F0.0476
F1.1845
F0.0079
g11
(g15
S'\x00\x00\x00\x00\x00\xa0d@'
p1803
tp1804
Rp1805
tp1806
a(S'cpvert_11MeV_15tilt_335rot_det8.npy'
p1807
F0.8873
F0.0081
F19.3035
F0.0335
F0.5422
F0.0053
g11
(g15
S'\x00\x00\x00\x00\x00\x00c@'
p1808
tp1809
Rp1810
tp1811
a(S'cpvert_11MeV_15tilt_335rot_det9.npy'
p1812
F0.2972
F0.004
F17.8017
F0.0366
F0.1732
F0.0023
g11
(g15
S'\x00\x00\x00\x00\x00 f@'
p1813
tp1814
Rp1815
tp1816
a(S'cpvert_11MeV_15tilt_345rot_det10.npy'
p1817
F0.2989
F0.0038
F15.911
F0.0378
F0.1739
F0.0022
g11
(g15
S'\x00\x00\x00\x00\x00`f@'
p1818
tp1819
Rp1820
tp1821
a(S'cpvert_11MeV_15tilt_345rot_det11.npy'
p1822
F0.8766
F0.0071
F20.0779
F0.0324
F0.5364
F0.0048
g11
(g15
S'\x00\x00\x00\x00\x00`f@'
p1823
tp1824
Rp1825
tp1826
a(S'cpvert_11MeV_15tilt_345rot_det12.npy'
p1827
F1.7865
F0.0092
F19.0872
F0.0376
F1.1635
F0.0068
g11
(g15
S'\x00\x00\x00\x00\x00\xa0h@'
p1828
tp1829
Rp1830
tp1831
a(S'cpvert_11MeV_15tilt_345rot_det13.npy'
p1832
F2.898
F0.0122
F22.303
F0.06
F1.9534
F0.0096
g11
(g15
S'\x00\x00\x00\x00\x00\x00f@'
p1833
tp1834
Rp1835
tp1836
a(S'cpvert_11MeV_15tilt_345rot_det14.npy'
p1837
F4.0644
F0.016
F27.0314
F0.107
F2.804
F0.0132
g11
(g15
S'\x00\x00\x00\x00\x00\xe0`@'
p1838
tp1839
Rp1840
tp1841
a(S'cpvert_11MeV_15tilt_345rot_det15.npy'
p1842
F5.1281
F0.0156
F41.9899
F0.3225
F3.5807
F0.0143
g11
(g15
S'\x00\x00\x00\x00\x00\x80Q@'
p1843
tp1844
Rp1845
tp1846
a(S'cpvert_11MeV_15tilt_345rot_det4.npy'
p1847
F5.2377
F0.0194
F39.995
F0.2973
F3.5938
F0.0163
g11
(g15
S'\x00\x00\x00\x00\x00@S@'
p1848
tp1849
Rp1850
tp1851
a(S'cpvert_11MeV_15tilt_345rot_det5.npy'
p1852
F4.2485
F0.0148
F24.9088
F0.1052
F2.8786
F0.0118
g11
(g15
S'\x00\x00\x00\x00\x00``@'
p1853
tp1854
Rp1855
tp1856
a(S'cpvert_11MeV_15tilt_345rot_det6.npy'
p1857
F3.0243
F0.0141
F19.6719
F0.0613
F2.002
F0.0109
g11
(g15
S'\x00\x00\x00\x00\x00\x80b@'
p1858
tp1859
Rp1860
tp1861
a(S'cpvert_11MeV_15tilt_345rot_det7.npy'
p1862
F1.8165
F0.0115
F17.8595
F0.0462
F1.1603
F0.008
g11
(g15
S'\x00\x00\x00\x00\x00\x00c@'
p1863
tp1864
Rp1865
tp1866
a(S'cpvert_11MeV_15tilt_345rot_det8.npy'
p1867
F0.8946
F0.0073
F19.2849
F0.0325
F0.5458
F0.0047
g11
(g15
S'\x00\x00\x00\x00\x00\xe0e@'
p1868
tp1869
Rp1870
tp1871
a(S'cpvert_11MeV_15tilt_345rot_det9.npy'
p1872
F0.2973
F0.0036
F17.7568
F0.037
F0.1735
F0.0021
g11
(g15
S'\x00\x00\x00\x00\x00@g@'
p1873
tp1874
Rp1875
tp1876
a(S'cpvert_11MeV_15tilt_355rot_det10.npy'
p1877
F0.2972
F0.0037
F15.86
F0.0337
F0.1721
F0.0022
g11
(g15
S'\x00\x00\x00\x00\x00`h@'
p1878
tp1879
Rp1880
tp1881
a(S'cpvert_11MeV_15tilt_355rot_det11.npy'
p1882
F0.877
F0.0069
F20.0775
F0.0334
F0.5379
F0.0047
g11
(g15
S'\x00\x00\x00\x00\x00\xe0d@'
p1883
tp1884
Rp1885
tp1886
a(S'cpvert_11MeV_15tilt_355rot_det12.npy'
p1887
F1.7781
F0.0113
F19.1233
F0.039
F1.1568
F0.008
g11
(g15
S'\x00\x00\x00\x00\x00\xa0f@'
p1888
tp1889
Rp1890
tp1891
a(S'cpvert_11MeV_15tilt_355rot_det13.npy'
p1892
F2.9138
F0.0126
F22.3536
F0.055
F1.9668
F0.0091
g11
(g15
S'\x00\x00\x00\x00\x00 d@'
p1893
tp1894
Rp1895
tp1896
a(S'cpvert_11MeV_15tilt_355rot_det14.npy'
p1897
F4.0933
F0.0126
F27.0467
F0.0929
F2.8327
F0.0109
g11
(g15
S'\x00\x00\x00\x00\x00`b@'
p1898
tp1899
Rp1900
tp1901
a(S'cpvert_11MeV_15tilt_355rot_det15.npy'
p1902
F5.0714
F0.0145
F41.2075
F0.3067
F3.546
F0.0133
g11
(g15
S'\x00\x00\x00\x00\x00\x00U@'
p1903
tp1904
Rp1905
tp1906
a(S'cpvert_11MeV_15tilt_355rot_det4.npy'
p1907
F5.2533
F0.0183
F40.9221
F0.2852
F3.6132
F0.0162
g11
(g15
S'\x00\x00\x00\x00\x00\xc0R@'
p1908
tp1909
Rp1910
tp1911
a(S'cpvert_11MeV_15tilt_355rot_det5.npy'
p1912
F4.2671
F0.0148
F25.3215
F0.104
F2.8991
F0.0122
g11
(g15
S'\x00\x00\x00\x00\x00 `@'
p1913
tp1914
Rp1915
tp1916
a(S'cpvert_11MeV_15tilt_355rot_det6.npy'
p1917
F3.0611
F0.0143
F19.7403
F0.0553
F2.0353
F0.01
g11
(g15
S'\x00\x00\x00\x00\x00@b@'
p1918
tp1919
Rp1920
tp1921
a(S'cpvert_11MeV_15tilt_355rot_det7.npy'
p1922
F1.8482
F0.0102
F17.8957
F0.0468
F1.1785
F0.0074
g11
(g15
S'\x00\x00\x00\x00\x00`d@'
p1923
tp1924
Rp1925
tp1926
a(S'cpvert_11MeV_15tilt_355rot_det8.npy'
p1927
F0.9026
F0.0071
F19.2745
F0.0324
F0.549
F0.0047
g11
(g15
S'\x00\x00\x00\x00\x00\x80f@'
p1928
tp1929
Rp1930
tp1931
a(S'cpvert_11MeV_15tilt_355rot_det9.npy'
p1932
F0.2988
F0.0036
F17.7861
F0.0369
F0.1751
F0.0022
g11
(g15
S'\x00\x00\x00\x00\x00\xc0f@'
p1933
tp1934
Rp1935
tp1936
a(S'cpvert_11MeV_15tilt_35rot_det10.npy'
p1937
F0.3014
F0.004
F15.8397
F0.0353
F0.1738
F0.0023
g11
(g15
S'\x00\x00\x00\x00\x00`f@'
p1938
tp1939
Rp1940
tp1941
a(S'cpvert_11MeV_15tilt_35rot_det11.npy'
p1942
F0.8853
F0.0065
F20.0368
F0.036
F0.5368
F0.0044
g11
(g15
S'\x00\x00\x00\x00\x00\x80a@'
p1943
tp1944
Rp1945
tp1946
a(S'cpvert_11MeV_15tilt_35rot_det12.npy'
p1947
F1.8011
F0.0101
F19.0583
F0.0381
F1.163
F0.0073
g11
(g15
S'\x00\x00\x00\x00\x00\x00f@'
p1948
tp1949
Rp1950
tp1951
a(S'cpvert_11MeV_15tilt_35rot_det13.npy'
p1952
F2.8987
F0.0106
F22.2672
F0.0536
F1.9535
F0.0085
g11
(g15
S'\x00\x00\x00\x00\x00@e@'
p1953
tp1954
Rp1955
tp1956
a(S'cpvert_11MeV_15tilt_35rot_det14.npy'
p1957
F4.057
F0.0135
F26.9519
F0.1123
F2.8077
F0.012
g11
(g15
S'\x00\x00\x00\x00\x00\x00a@'
p1958
tp1959
Rp1960
tp1961
a(S'cpvert_11MeV_15tilt_35rot_det15.npy'
p1962
F5.0287
F0.0168
F41.7579
F0.2912
F3.5217
F0.0163
g11
(g15
S'\x00\x00\x00\x00\x00\x80U@'
p1963
tp1964
Rp1965
tp1966
a(S'cpvert_11MeV_15tilt_35rot_det4.npy'
p1967
F5.0799
F0.0171
F40.7666
F0.2679
F3.5642
F0.0137
g11
(g15
S'\x00\x00\x00\x00\x00@U@'
p1968
tp1969
Rp1970
tp1971
a(S'cpvert_11MeV_15tilt_35rot_det5.npy'
p1972
F4.1059
F0.0149
F25.2702
F0.1124
F2.8384
F0.0121
g11
(g15
S'\x00\x00\x00\x00\x00\xc0_@'
p1973
tp1974
Rp1975
tp1976
a(S'cpvert_11MeV_15tilt_35rot_det6.npy'
p1977
F2.9688
F0.0129
F19.662
F0.0656
F1.9867
F0.01
g11
(g15
S'\x00\x00\x00\x00\x00 b@'
p1978
tp1979
Rp1980
tp1981
a(S'cpvert_11MeV_15tilt_35rot_det7.npy'
p1982
F1.8125
F0.0109
F17.9832
F0.0458
F1.1635
F0.0078
g11
(g15
S'\x00\x00\x00\x00\x00@e@'
p1983
tp1984
Rp1985
tp1986
a(S'cpvert_11MeV_15tilt_35rot_det8.npy'
p1987
F0.9175
F0.0069
F19.3339
F0.0318
F0.5615
F0.0047
g11
(g15
S'\x00\x00\x00\x00\x00\xa0f@'
p1988
tp1989
Rp1990
tp1991
a(S'cpvert_11MeV_15tilt_35rot_det9.npy'
p1992
F0.3115
F0.0044
F17.8758
F0.035
F0.1821
F0.0026
g11
(g15
S'\x00\x00\x00\x00\x00@d@'
p1993
tp1994
Rp1995
tp1996
a(S'cpvert_11MeV_15tilt_45rot_det10.npy'
p1997
F0.2986
F0.0038
F15.8193
F0.0345
F0.1734
F0.0022
g11
(g15
S'\x00\x00\x00\x00\x00`f@'
p1998
tp1999
Rp2000
tp2001
a(S'cpvert_11MeV_15tilt_45rot_det11.npy'
p2002
F0.8861
F0.0072
F20.0189
F0.0308
F0.5394
F0.0047
g11
(g15
S'\x00\x00\x00\x00\x00 f@'
p2003
tp2004
Rp2005
tp2006
a(S'cpvert_11MeV_15tilt_45rot_det12.npy'
p2007
F1.8156
F0.0095
F19.0367
F0.0384
F1.17
F0.0071
g11
(g15
S'\x00\x00\x00\x00\x00 f@'
p2008
tp2009
Rp2010
tp2011
a(S'cpvert_11MeV_15tilt_45rot_det13.npy'
p2012
F2.9012
F0.0129
F22.193
F0.0547
F1.9446
F0.01
g11
(g15
S'\x00\x00\x00\x00\x00@c@'
p2013
tp2014
Rp2015
tp2016
a(S'cpvert_11MeV_15tilt_45rot_det14.npy'
p2017
F4.0498
F0.0146
F26.8523
F0.0986
F2.7983
F0.0123
g11
(g15
S'\x00\x00\x00\x00\x00\xc0`@'
p2018
tp2019
Rp2020
tp2021
a(S'cpvert_11MeV_15tilt_45rot_det15.npy'
p2022
F5.0566
F0.0155
F41.6938
F0.2908
F3.5531
F0.0147
g11
(g15
S'\x00\x00\x00\x00\x00\xc0T@'
p2023
tp2024
Rp2025
tp2026
a(S'cpvert_11MeV_15tilt_45rot_det4.npy'
p2027
F5.0463
F0.0156
F40.5065
F0.3143
F3.5217
F0.0158
g11
(g15
S'\x00\x00\x00\x00\x00@T@'
p2028
tp2029
Rp2030
tp2031
a(S'cpvert_11MeV_15tilt_45rot_det5.npy'
p2032
F4.1071
F0.0146
F25.1403
F0.1034
F2.8374
F0.0125
g11
(g15
S'\x00\x00\x00\x00\x00\x00`@'
p2033
tp2034
Rp2035
tp2036
a(S'cpvert_11MeV_15tilt_45rot_det6.npy'
p2037
F2.946
F0.0124
F19.8872
F0.0601
F1.979
F0.0099
g11
(g15
S'\x00\x00\x00\x00\x00\xe0d@'
p2038
tp2039
Rp2040
tp2041
a(S'cpvert_11MeV_15tilt_45rot_det7.npy'
p2042
F1.7937
F0.0107
F17.9795
F0.0424
F1.1651
F0.0078
g11
(g15
S'\x00\x00\x00\x00\x00 g@'
p2043
tp2044
Rp2045
tp2046
a(S'cpvert_11MeV_15tilt_45rot_det8.npy'
p2047
F0.9024
F0.0067
F19.3081
F0.0346
F0.5517
F0.0045
g11
(g15
S'\x00\x00\x00\x00\x00 d@'
p2048
tp2049
Rp2050
tp2051
a(S'cpvert_11MeV_15tilt_45rot_det9.npy'
p2052
F0.3009
F0.0037
F17.8139
F0.0393
F0.174
F0.0021
g11
(g15
S'\x00\x00\x00\x00\x00`e@'
p2053
tp2054
Rp2055
tp2056
a(S'cpvert_11MeV_15tilt_55rot_det10.npy'
p2057
F0.3006
F0.0037
F15.8682
F0.0353
F0.1738
F0.0022
g11
(g15
S'\x00\x00\x00\x00\x00\xe0g@'
p2058
tp2059
Rp2060
tp2061
a(S'cpvert_11MeV_15tilt_55rot_det11.npy'
p2062
F0.9019
F0.0072
F19.9967
F0.0327
F0.545
F0.0047
g11
(g15
S'\x00\x00\x00\x00\x00\x00f@'
p2063
tp2064
Rp2065
tp2066
a(S'cpvert_11MeV_15tilt_55rot_det12.npy'
p2067
F1.808
F0.0104
F19.0065
F0.0387
F1.1604
F0.0072
g11
(g15
S'\x00\x00\x00\x00\x00\x80e@'
p2068
tp2069
Rp2070
tp2071
a(S'cpvert_11MeV_15tilt_55rot_det13.npy'
p2072
F2.9407
F0.0112
F22.2997
F0.0565
F1.9643
F0.0086
g11
(g15
S'\x00\x00\x00\x00\x00\xe0d@'
p2073
tp2074
Rp2075
tp2076
a(S'cpvert_11MeV_15tilt_55rot_det14.npy'
p2077
F4.0758
F0.0154
F26.9146
F0.1131
F2.814
F0.012
g11
(g15
S'\x00\x00\x00\x00\x00\x80^@'
p2078
tp2079
Rp2080
tp2081
a(S'cpvert_11MeV_15tilt_55rot_det15.npy'
p2082
F5.0712
F0.0152
F41.8493
F0.2805
F3.557
F0.015
g11
(g15
S'\x00\x00\x00\x00\x00\x80U@'
p2083
tp2084
Rp2085
tp2086
a(S'cpvert_11MeV_15tilt_55rot_det4.npy'
p2087
F5.0065
F0.0133
F39.7977
F0.2605
F3.5235
F0.0124
g11
(g15
S'\x00\x00\x00\x00\x00\xc0V@'
p2088
tp2089
Rp2090
tp2091
a(S'cpvert_11MeV_15tilt_55rot_det5.npy'
p2092
F4.068
F0.0132
F25.1829
F0.1079
F2.812
F0.0113
g11
(g15
S'\x00\x00\x00\x00\x00\xa0`@'
p2093
tp2094
Rp2095
tp2096
a(S'cpvert_11MeV_15tilt_55rot_det6.npy'
p2097
F2.8944
F0.0118
F19.6921
F0.0511
F1.9506
F0.0093
g11
(g15
S'\x00\x00\x00\x00\x00\xa0g@'
p2098
tp2099
Rp2100
tp2101
a(S'cpvert_11MeV_15tilt_55rot_det7.npy'
p2102
F1.7928
F0.0094
F17.9116
F0.0375
F1.1609
F0.0072
g11
(g15
S'\x00\x00\x00\x00\x00@i@'
p2103
tp2104
Rp2105
tp2106
a(S'cpvert_11MeV_15tilt_55rot_det8.npy'
p2107
F0.8801
F0.0075
F19.2798
F0.0357
F0.5391
F0.0051
g11
(g15
S'\x00\x00\x00\x00\x00 d@'
p2108
tp2109
Rp2110
tp2111
a(S'cpvert_11MeV_15tilt_55rot_det9.npy'
p2112
F0.3076
F0.0039
F17.828
F0.0323
F0.1786
F0.0023
g11
(g15
S'\x00\x00\x00\x00\x00\xe0h@'
p2113
tp2114
Rp2115
tp2116
a(S'cpvert_11MeV_15tilt_5rot_det10.npy'
p2117
F0.2958
F0.0041
F15.8975
F0.0385
F0.1719
F0.0024
g11
(g15
S'\x00\x00\x00\x00\x00\xa0c@'
p2118
tp2119
Rp2120
tp2121
a(S'cpvert_11MeV_15tilt_5rot_det11.npy'
p2122
F0.8577
F0.0069
F19.9957
F0.0316
F0.5235
F0.0046
g11
(g15
S'\x00\x00\x00\x00\x00\x80f@'
p2123
tp2124
Rp2125
tp2126
a(S'cpvert_11MeV_15tilt_5rot_det12.npy'
p2127
F1.7708
F0.011
F19.0842
F0.0381
F1.1517
F0.0081
g11
(g15
S'\x00\x00\x00\x00\x00\xa0f@'
p2128
tp2129
Rp2130
tp2131
a(S'cpvert_11MeV_15tilt_5rot_det13.npy'
p2132
F2.8807
F0.012
F22.2465
F0.0507
F1.944
F0.0093
g11
(g15
S'\x00\x00\x00\x00\x00\x00i@'
p2133
tp2134
Rp2135
tp2136
a(S'cpvert_11MeV_15tilt_5rot_det14.npy'
p2137
F4.0424
F0.0161
F27.0538
F0.1143
F2.8027
F0.0129
g11
(g15
S'\x00\x00\x00\x00\x00\xc0`@'
p2138
tp2139
Rp2140
tp2141
a(S'cpvert_11MeV_15tilt_5rot_det15.npy'
p2142
F5.0737
F0.0137
F41.7864
F0.2958
F3.5535
F0.0152
g11
(g15
S'\x00\x00\x00\x00\x00@R@'
p2143
tp2144
Rp2145
tp2146
a(S'cpvert_11MeV_15tilt_5rot_det4.npy'
p2147
F5.1859
F0.0157
F39.8612
F0.2677
F3.6079
F0.0141
g11
(g15
S'\x00\x00\x00\x00\x00\x80V@'
p2148
tp2149
Rp2150
tp2151
a(S'cpvert_11MeV_15tilt_5rot_det5.npy'
p2152
F4.2303
F0.017
F25.0844
F0.1143
F2.8885
F0.0121
g11
(g15
S'\x00\x00\x00\x00\x00\x80_@'
p2153
tp2154
Rp2155
tp2156
a(S'cpvert_11MeV_15tilt_5rot_det6.npy'
p2157
F3.0226
F0.0126
F19.6935
F0.0616
F2.0083
F0.0094
g11
(g15
S'\x00\x00\x00\x00\x00\xc0b@'
p2158
tp2159
Rp2160
tp2161
a(S'cpvert_11MeV_15tilt_5rot_det7.npy'
p2162
F1.86
F0.011
F17.8873
F0.0433
F1.1878
F0.0077
g11
(g15
S'\x00\x00\x00\x00\x00`c@'
p2163
tp2164
Rp2165
tp2166
a(S'cpvert_11MeV_15tilt_5rot_det8.npy'
p2167
F0.9118
F0.0073
F19.2395
F0.0334
F0.551
F0.0048
g11
(g15
S'\x00\x00\x00\x00\x00\x80d@'
p2168
tp2169
Rp2170
tp2171
a(S'cpvert_11MeV_15tilt_5rot_det9.npy'
p2172
F0.3066
F0.004
F17.7798
F0.0383
F0.1796
F0.0024
g11
(g15
S'\x00\x00\x00\x00\x00`d@'
p2173
tp2174
Rp2175
tp2176
a(S'cpvert_11MeV_15tilt_65rot_det10.npy'
p2177
F0.2986
F0.0043
F15.8178
F0.0401
F0.1744
F0.0025
g11
(g15
S'\x00\x00\x00\x00\x00\xc0d@'
p2178
tp2179
Rp2180
tp2181
a(S'cpvert_11MeV_15tilt_65rot_det11.npy'
p2182
F0.9109
F0.0075
F19.9785
F0.0303
F0.5536
F0.0049
g11
(g15
S'\x00\x00\x00\x00\x00\x80d@'
p2183
tp2184
Rp2185
tp2186
a(S'cpvert_11MeV_15tilt_65rot_det12.npy'
p2187
F1.8463
F0.0108
F19.0949
F0.0415
F1.1831
F0.0077
g11
(g15
S'\x00\x00\x00\x00\x00 d@'
p2188
tp2189
Rp2190
tp2191
a(S'cpvert_11MeV_15tilt_65rot_det13.npy'
p2192
F2.9683
F0.0109
F22.2944
F0.0531
F1.9838
F0.0085
g11
(g15
S'\x00\x00\x00\x00\x00\xc0e@'
p2193
tp2194
Rp2195
tp2196
a(S'cpvert_11MeV_15tilt_65rot_det14.npy'
p2197
F4.1088
F0.014
F27.0499
F0.1199
F2.81
F0.0119
g11
(g15
S'\x00\x00\x00\x00\x00\xc0_@'
p2198
tp2199
Rp2200
tp2201
a(S'cpvert_11MeV_15tilt_65rot_det15.npy'
p2202
F5.088
F0.0197
F41.5187
F0.3169
F3.553
F0.0186
g11
(g15
S'\x00\x00\x00\x00\x00\x00L@'
p2203
tp2204
Rp2205
tp2206
a(S'cpvert_11MeV_15tilt_65rot_det4.npy'
p2207
F5.0175
F0.0163
F40.7783
F0.285
F3.5341
F0.0146
g11
(g15
S'\x00\x00\x00\x00\x00@W@'
p2208
tp2209
Rp2210
tp2211
a(S'cpvert_11MeV_15tilt_65rot_det5.npy'
p2212
F4.0506
F0.0148
F25.098
F0.1055
F2.819
F0.0123
g11
(g15
S'\x00\x00\x00\x00\x00\x00_@'
p2213
tp2214
Rp2215
tp2216
a(S'cpvert_11MeV_15tilt_65rot_det6.npy'
p2217
F2.9373
F0.0122
F19.9773
F0.0545
F1.9904
F0.0098
g11
(g15
S'\x00\x00\x00\x00\x00\xc0d@'
p2218
tp2219
Rp2220
tp2221
a(S'cpvert_11MeV_15tilt_65rot_det7.npy'
p2222
F1.763
F0.0109
F18.0612
F0.0414
F1.1413
F0.0079
g11
(g15
S'\x00\x00\x00\x00\x00`f@'
p2223
tp2224
Rp2225
tp2226
a(S'cpvert_11MeV_15tilt_65rot_det8.npy'
p2227
F0.8788
F0.0067
F19.2739
F0.0318
F0.538
F0.0045
g11
(g15
S'\x00\x00\x00\x00\x00\x80f@'
p2228
tp2229
Rp2230
tp2231
a(S'cpvert_11MeV_15tilt_65rot_det9.npy'
p2232
F0.3018
F0.0036
F17.7495
F0.0356
F0.1745
F0.0021
g11
(g15
S'\x00\x00\x00\x00\x00\xc0g@'
p2233
tp2234
Rp2235
tp2236
a(S'cpvert_11MeV_15tilt_75rot_det10.npy'
p2237
F0.3067
F0.0036
F15.8446
F0.0372
F0.1772
F0.0022
g11
(g15
S'\x00\x00\x00\x00\x00\x00f@'
p2238
tp2239
Rp2240
tp2241
a(S'cpvert_11MeV_15tilt_75rot_det11.npy'
p2242
F0.8905
F0.0077
F20.0204
F0.0345
F0.5385
F0.005
g11
(g15
S'\x00\x00\x00\x00\x00@a@'
p2243
tp2244
Rp2245
tp2246
a(S'cpvert_11MeV_15tilt_75rot_det12.npy'
p2247
F1.8637
F0.0115
F18.9974
F0.0441
F1.1886
F0.0082
g11
(g15
S'\x00\x00\x00\x00\x00@a@'
p2248
tp2249
Rp2250
tp2251
a(S'cpvert_11MeV_15tilt_75rot_det13.npy'
p2252
F2.9953
F0.0136
F22.1938
F0.0509
F1.9871
F0.0101
g11
(g15
S'\x00\x00\x00\x00\x00\x80c@'
p2253
tp2254
Rp2255
tp2256
a(S'cpvert_11MeV_15tilt_75rot_det14.npy'
p2257
F4.1328
F0.0161
F26.8609
F0.1083
F2.8253
F0.0133
g11
(g15
S'\x00\x00\x00\x00\x00\x00`@'
p2258
tp2259
Rp2260
tp2261
a(S'cpvert_11MeV_15tilt_75rot_det15.npy'
p2262
F5.1343
F0.0174
F41.3692
F0.2858
F3.5656
F0.0152
g11
(g15
S'\x00\x00\x00\x00\x00\x00O@'
p2263
tp2264
Rp2265
tp2266
a(S'cpvert_11MeV_15tilt_75rot_det4.npy'
p2267
F5.053
F0.0143
F39.981
F0.2802
F3.5361
F0.015
g11
(g15
S'\x00\x00\x00\x00\x00@R@'
p2268
tp2269
Rp2270
tp2271
a(S'cpvert_11MeV_15tilt_75rot_det5.npy'
p2272
F4.0145
F0.0144
F24.8512
F0.0949
F2.7789
F0.0115
g11
(g15
S'\x00\x00\x00\x00\x00\xa0b@'
p2273
tp2274
Rp2275
tp2276
a(S'cpvert_11MeV_15tilt_75rot_det6.npy'
p2277
F2.908
F0.0119
F19.8151
F0.0529
F1.9694
F0.0097
g11
(g15
S'\x00\x00\x00\x00\x00\xc0f@'
p2278
tp2279
Rp2280
tp2281
a(S'cpvert_11MeV_15tilt_75rot_det7.npy'
p2282
F1.7556
F0.0097
F17.9659
F0.0409
F1.14
F0.0071
g11
(g15
S'\x00\x00\x00\x00\x00\xa0f@'
p2283
tp2284
Rp2285
tp2286
a(S'cpvert_11MeV_15tilt_75rot_det8.npy'
p2287
F0.879
F0.0075
F19.3865
F0.0291
F0.5374
F0.005
g11
(g15
S'\x00\x00\x00\x00\x00`c@'
p2288
tp2289
Rp2290
tp2291
a(S'cpvert_11MeV_15tilt_75rot_det9.npy'
p2292
F0.3032
F0.0041
F17.7831
F0.0371
F0.1737
F0.0024
g11
(g15
S'\x00\x00\x00\x00\x00\x00g@'
p2293
tp2294
Rp2295
tp2296
a(S'cpvert_11MeV_15tilt_85rot_det10.npy'
p2297
F0.3012
F0.0036
F15.8975
F0.036
F0.175
F0.0021
g11
(g15
S'\x00\x00\x00\x00\x00\xe0f@'
p2298
tp2299
Rp2300
tp2301
a(S'cpvert_11MeV_15tilt_85rot_det11.npy'
p2302
F0.9013
F0.0072
F19.9504
F0.0357
F0.5466
F0.0047
g11
(g15
S'\x00\x00\x00\x00\x00\x00c@'
p2303
tp2304
Rp2305
tp2306
a(S'cpvert_11MeV_15tilt_85rot_det12.npy'
p2307
F1.8496
F0.0117
F19.0842
F0.0442
F1.18
F0.0084
g11
(g15
S'\x00\x00\x00\x00\x00\xc0e@'
p2308
tp2309
Rp2310
tp2311
a(S'cpvert_11MeV_15tilt_85rot_det13.npy'
p2312
F3.0081
F0.0119
F22.2866
F0.0574
F1.9931
F0.009
g11
(g15
S'\x00\x00\x00\x00\x00@b@'
p2313
tp2314
Rp2315
tp2316
a(S'cpvert_11MeV_15tilt_85rot_det14.npy'
p2317
F4.1933
F0.0162
F27.1126
F0.1066
F2.8533
F0.013
g11
(g15
S'\x00\x00\x00\x00\x00\xc0\\@'
p2318
tp2319
Rp2320
tp2321
a(S'cpvert_11MeV_15tilt_85rot_det15.npy'
p2322
F5.157
F0.0176
F41.889
F0.2883
F3.5701
F0.0143
g11
(g15
S'\x00\x00\x00\x00\x00\x80R@'
p2323
tp2324
Rp2325
tp2326
a(S'cpvert_11MeV_15tilt_85rot_det4.npy'
p2327
F5.0385
F0.0158
F40.2087
F0.2508
F3.5376
F0.0142
g11
(g15
S'\x00\x00\x00\x00\x00\x00V@'
p2328
tp2329
Rp2330
tp2331
a(S'cpvert_11MeV_15tilt_85rot_det5.npy'
p2332
F4.0128
F0.0159
F25.0097
F0.1119
F2.7871
F0.0127
g11
(g15
S'\x00\x00\x00\x00\x00\x00^@'
p2333
tp2334
Rp2335
tp2336
a(S'cpvert_11MeV_15tilt_85rot_det6.npy'
p2337
F2.8487
F0.0125
F19.7251
F0.0546
F1.9243
F0.01
g11
(g15
S'\x00\x00\x00\x00\x00\xa0c@'
p2338
tp2339
Rp2340
tp2341
a(S'cpvert_11MeV_15tilt_85rot_det7.npy'
p2342
F1.7557
F0.0101
F18.0299
F0.0437
F1.1361
F0.0074
g11
(g15
S'\x00\x00\x00\x00\x00\x80f@'
p2343
tp2344
Rp2345
tp2346
a(S'cpvert_11MeV_15tilt_85rot_det8.npy'
p2347
F0.8697
F0.0068
F19.3775
F0.0285
F0.5322
F0.0046
g11
(g15
S'\x00\x00\x00\x00\x00\x00i@'
p2348
tp2349
Rp2350
tp2351
a(S'cpvert_11MeV_15tilt_85rot_det9.npy'
p2352
F0.2897
F0.0038
F17.9056
F0.0375
F0.1672
F0.0023
g11
(g15
S'\x00\x00\x00\x00\x00\xc0d@'
p2353
tp2354
Rp2355
tp2356
a(S'cpvert_11MeV_15tilt_95rot_det10.npy'
p2357
F0.3134
F0.004
F15.9535
F0.0333
F0.1816
F0.0024
g11
(g15
S'\x00\x00\x00\x00\x00\xc0f@'
p2358
tp2359
Rp2360
tp2361
a(S'cpvert_11MeV_15tilt_95rot_det11.npy'
p2362
F0.9067
F0.0082
F20.0735
F0.0303
F0.5493
F0.0053
g11
(g15
S'\x00\x00\x00\x00\x00 c@'
p2363
tp2364
Rp2365
tp2366
a(S'cpvert_11MeV_15tilt_95rot_det12.npy'
p2367
F1.8371
F0.0101
F19.025
F0.0383
F1.1738
F0.0071
g11
(g15
S'\x00\x00\x00\x00\x00\xe0g@'
p2368
tp2369
Rp2370
tp2371
a(S'cpvert_11MeV_15tilt_95rot_det13.npy'
p2372
F3.0281
F0.0126
F22.2902
F0.0559
F2.0022
F0.0099
g11
(g15
S'\x00\x00\x00\x00\x00\x80c@'
p2373
tp2374
Rp2375
tp2376
a(S'cpvert_11MeV_15tilt_95rot_det14.npy'
p2377
F4.2064
F0.0164
F27.186
F0.1109
F2.8616
F0.0126
g11
(g15
S'\x00\x00\x00\x00\x00\xa0`@'
p2378
tp2379
Rp2380
tp2381
a(S'cpvert_11MeV_15tilt_95rot_det15.npy'
p2382
F5.2336
F0.0146
F41.8852
F0.2786
F3.6037
F0.0152
g11
(g15
S'\x00\x00\x00\x00\x00\x00S@'
p2383
tp2384
Rp2385
tp2386
a(S'cpvert_11MeV_15tilt_95rot_det4.npy'
p2387
F5.0305
F0.0173
F40.0854
F0.3096
F3.5275
F0.0136
g11
(g15
S'\x00\x00\x00\x00\x00\x80T@'
p2388
tp2389
Rp2390
tp2391
a(S'cpvert_11MeV_15tilt_95rot_det5.npy'
p2392
F4.0128
F0.0157
F24.9792
F0.0963
F2.7814
F0.0123
g11
(g15
S'\x00\x00\x00\x00\x00\xc0`@'
p2393
tp2394
Rp2395
tp2396
a(S'cpvert_11MeV_15tilt_95rot_det6.npy'
p2397
F2.8718
F0.0108
F19.6739
F0.0596
F1.934
F0.008
g11
(g15
S'\x00\x00\x00\x00\x00`e@'
p2398
tp2399
Rp2400
tp2401
a(S'cpvert_11MeV_15tilt_95rot_det7.npy'
p2402
F1.7387
F0.0106
F17.9225
F0.0414
F1.1289
F0.0073
g11
(g15
S'\x00\x00\x00\x00\x00@e@'
p2403
tp2404
Rp2405
tp2406
a(S'cpvert_11MeV_15tilt_95rot_det8.npy'
p2407
F0.8517
F0.0082
F19.3748
F0.031
F0.5224
F0.0053
g11
(g15
S'\x00\x00\x00\x00\x00@e@'
p2408
tp2409
Rp2410
tp2411
a(S'cpvert_11MeV_15tilt_95rot_det9.npy'
p2412
F0.2923
F0.0038
F17.861
F0.0377
F0.1679
F0.0022
g11
(g15
S'\x00\x00\x00\x00\x00\x00g@'
p2413
tp2414
Rp2415
tp2416
a(S'cpvert_11MeV_30tilt_105rot_det10.npy'
p2417
F0.2821
F0.0035
F15.8148
F0.035
F0.1614
F0.002
g11
(g15
S'\x00\x00\x00\x00\x00@f@'
p2418
tp2419
Rp2420
tp2421
a(S'cpvert_11MeV_30tilt_105rot_det11.npy'
p2422
F0.8558
F0.007
F19.9533
F0.0317
F0.5184
F0.0046
g11
(g15
S'\x00\x00\x00\x00\x00\xa0e@'
p2423
tp2424
Rp2425
tp2426
a(S'cpvert_11MeV_30tilt_105rot_det12.npy'
p2427
F1.8109
F0.0109
F18.9845
F0.035
F1.1538
F0.0075
g11
(g15
S'\x00\x00\x00\x00\x00\xc0g@'
p2428
tp2429
Rp2430
tp2431
a(S'cpvert_11MeV_30tilt_105rot_det13.npy'
p2432
F3.0079
F0.0135
F22.0836
F0.0605
F1.9891
F0.0098
g11
(g15
S'\x00\x00\x00\x00\x00\x00c@'
p2433
tp2434
Rp2435
tp2436
a(S'cpvert_11MeV_30tilt_105rot_det14.npy'
p2437
F4.2035
F0.015
F26.8462
F0.1126
F2.839
F0.0117
g11
(g15
S'\x00\x00\x00\x00\x00\x80`@'
p2438
tp2439
Rp2440
tp2441
a(S'cpvert_11MeV_30tilt_105rot_det15.npy'
p2442
F5.237
F0.0155
F41.5353
F0.2801
F3.5996
F0.0147
g11
(g15
S'\x00\x00\x00\x00\x00\x00W@'
p2443
tp2444
Rp2445
tp2446
a(S'cpvert_11MeV_30tilt_105rot_det4.npy'
p2447
F5.0053
F0.0148
F40.4955
F0.2729
F3.4974
F0.0143
g11
(g15
S'\x00\x00\x00\x00\x00@U@'
p2448
tp2449
Rp2450
tp2451
a(S'cpvert_11MeV_30tilt_105rot_det5.npy'
p2452
F4.032
F0.0131
F25.3533
F0.096
F2.7874
F0.0108
g11
(g15
S'\x00\x00\x00\x00\x00`b@'
p2453
tp2454
Rp2455
tp2456
a(S'cpvert_11MeV_30tilt_105rot_det6.npy'
p2457
F2.844
F0.014
F19.9049
F0.0553
F1.9245
F0.0104
g11
(g15
S'\x00\x00\x00\x00\x00\xa0b@'
p2458
tp2459
Rp2460
tp2461
a(S'cpvert_11MeV_30tilt_105rot_det7.npy'
p2462
F1.7184
F0.0099
F18.0293
F0.0413
F1.1168
F0.0074
g11
(g15
S'\x00\x00\x00\x00\x00`f@'
p2463
tp2464
Rp2465
tp2466
a(S'cpvert_11MeV_30tilt_105rot_det8.npy'
p2467
F0.8365
F0.0065
F19.3355
F0.0292
F0.5132
F0.0043
g11
(g15
S'\x00\x00\x00\x00\x00@h@'
p2468
tp2469
Rp2470
tp2471
a(S'cpvert_11MeV_30tilt_105rot_det9.npy'
p2472
F0.2855
F0.0035
F17.9173
F0.0351
F0.1638
F0.0021
g11
(g15
S'\x00\x00\x00\x00\x00\xa0i@'
p2473
tp2474
Rp2475
tp2476
a(S'cpvert_11MeV_30tilt_115rot_det10.npy'
p2477
F0.2814
F0.0037
F15.8457
F0.0346
F0.1608
F0.0021
g11
(g15
S'\x00\x00\x00\x00\x00 h@'
p2478
tp2479
Rp2480
tp2481
a(S'cpvert_11MeV_30tilt_115rot_det11.npy'
p2482
F0.8387
F0.0081
F19.9209
F0.034
F0.5099
F0.0052
g11
(g15
S'\x00\x00\x00\x00\x00\xe0c@'
p2483
tp2484
Rp2485
tp2486
a(S'cpvert_11MeV_30tilt_115rot_det12.npy'
p2487
F1.7835
F0.0094
F18.9955
F0.0378
F1.1435
F0.0068
g11
(g15
S'\x00\x00\x00\x00\x00@g@'
p2488
tp2489
Rp2490
tp2491
a(S'cpvert_11MeV_30tilt_115rot_det13.npy'
p2492
F2.9712
F0.0159
F22.1347
F0.0623
F1.965
F0.0115
g11
(g15
S'\x00\x00\x00\x00\x00\xa0a@'
p2493
tp2494
Rp2495
tp2496
a(S'cpvert_11MeV_30tilt_115rot_det14.npy'
p2497
F4.1863
F0.014
F26.7555
F0.0953
F2.8377
F0.0109
g11
(g15
S'\x00\x00\x00\x00\x00\xc0c@'
p2498
tp2499
Rp2500
tp2501
a(S'cpvert_11MeV_30tilt_115rot_det15.npy'
p2502
F5.2537
F0.0175
F41.521
F0.2642
F3.5975
F0.0153
g11
(g15
S'\x00\x00\x00\x00\x00\xc0V@'
p2503
tp2504
Rp2505
tp2506
a(S'cpvert_11MeV_30tilt_115rot_det4.npy'
p2507
F5.1352
F0.0171
F41.2479
F0.2755
F3.5734
F0.0135
g11
(g15
S'\x00\x00\x00\x00\x00\x80S@'
p2508
tp2509
Rp2510
tp2511
a(S'cpvert_11MeV_30tilt_115rot_det5.npy'
p2512
F4.0495
F0.0173
F25.4179
F0.1025
F2.8028
F0.0133
g11
(g15
S'\x00\x00\x00\x00\x00@c@'
p2513
tp2514
Rp2515
tp2516
a(S'cpvert_11MeV_30tilt_115rot_det6.npy'
p2517
F2.8795
F0.0127
F19.7787
F0.0563
F1.9432
F0.01
g11
(g15
S'\x00\x00\x00\x00\x00\xc0c@'
p2518
tp2519
Rp2520
tp2521
a(S'cpvert_11MeV_30tilt_115rot_det7.npy'
p2522
F1.7289
F0.0084
F17.9812
F0.0357
F1.1209
F0.0063
g11
(g15
S'\x00\x00\x00\x00\x00\x00i@'
p2523
tp2524
Rp2525
tp2526
a(S'cpvert_11MeV_30tilt_115rot_det8.npy'
p2527
F0.8552
F0.0066
F19.4424
F0.0314
F0.5252
F0.0045
g11
(g15
S'\x00\x00\x00\x00\x00\x00e@'
p2528
tp2529
Rp2530
tp2531
a(S'cpvert_11MeV_30tilt_115rot_det9.npy'
p2532
F0.2929
F0.0033
F17.9194
F0.0347
F0.1674
F0.002
g11
(g15
S'\x00\x00\x00\x00\x00@i@'
p2533
tp2534
Rp2535
tp2536
a(S'cpvert_11MeV_30tilt_125rot_det10.npy'
p2537
F0.2759
F0.0035
F15.8974
F0.0349
F0.1584
F0.0021
g11
(g15
S'\x00\x00\x00\x00\x00\x80h@'
p2538
tp2539
Rp2540
tp2541
a(S'cpvert_11MeV_30tilt_125rot_det11.npy'
p2542
F0.8205
F0.0067
F20.0002
F0.0296
F0.5003
F0.0046
g11
(g15
S'\x00\x00\x00\x00\x00\xe0f@'
p2543
tp2544
Rp2545
tp2546
a(S'cpvert_11MeV_30tilt_125rot_det12.npy'
p2547
F1.7579
F0.0092
F19.0623
F0.0379
F1.133
F0.0064
g11
(g15
S'\x00\x00\x00\x00\x00 k@'
p2548
tp2549
Rp2550
tp2551
a(S'cpvert_11MeV_30tilt_125rot_det13.npy'
p2552
F2.9109
F0.0125
F22.1161
F0.0539
F1.9414
F0.0091
g11
(g15
S'\x00\x00\x00\x00\x00\x00g@'
p2553
tp2554
Rp2555
tp2556
a(S'cpvert_11MeV_30tilt_125rot_det14.npy'
p2557
F4.1015
F0.0168
F26.8748
F0.1075
F2.7823
F0.0133
g11
(g15
S'\x00\x00\x00\x00\x00 a@'
p2558
tp2559
Rp2560
tp2561
a(S'cpvert_11MeV_30tilt_125rot_det15.npy'
p2562
F5.2341
F0.0145
F41.5003
F0.2374
F3.5832
F0.0135
g11
(g15
S'\x00\x00\x00\x00\x00\x80X@'
p2563
tp2564
Rp2565
tp2566
a(S'cpvert_11MeV_30tilt_125rot_det4.npy'
p2567
F5.1264
F0.0192
F40.4201
F0.2879
F3.5623
F0.0175
g11
(g15
S'\x00\x00\x00\x00\x00\xc0U@'
p2568
tp2569
Rp2570
tp2571
a(S'cpvert_11MeV_30tilt_125rot_det5.npy'
p2572
F4.0823
F0.0139
F25.1517
F0.1023
F2.81
F0.0111
g11
(g15
S'\x00\x00\x00\x00\x00`b@'
p2573
tp2574
Rp2575
tp2576
a(S'cpvert_11MeV_30tilt_125rot_det6.npy'
p2577
F2.9009
F0.012
F19.8347
F0.0561
F1.9524
F0.0092
g11
(g15
S'\x00\x00\x00\x00\x00 d@'
p2578
tp2579
Rp2580
tp2581
a(S'cpvert_11MeV_30tilt_125rot_det7.npy'
p2582
F1.7434
F0.0097
F17.9835
F0.0414
F1.1304
F0.007
g11
(g15
S'\x00\x00\x00\x00\x00@g@'
p2583
tp2584
Rp2585
tp2586
a(S'cpvert_11MeV_30tilt_125rot_det8.npy'
p2587
F0.8375
F0.0064
F19.3694
F0.0301
F0.5117
F0.0043
g11
(g15
S'\x00\x00\x00\x00\x00\xe0d@'
p2588
tp2589
Rp2590
tp2591
a(S'cpvert_11MeV_30tilt_125rot_det9.npy'
p2592
F0.2913
F0.0035
F17.9514
F0.0363
F0.1674
F0.0022
g11
(g15
S'\x00\x00\x00\x00\x00@f@'
p2593
tp2594
Rp2595
tp2596
a(S'cpvert_11MeV_30tilt_135rot_det10.npy'
p2597
F0.2675
F0.0034
F15.8572
F0.0352
F0.1526
F0.002
g11
(g15
S'\x00\x00\x00\x00\x00\x00h@'
p2598
tp2599
Rp2600
tp2601
a(S'cpvert_11MeV_30tilt_135rot_det11.npy'
p2602
F0.835
F0.0061
F20.0184
F0.0297
F0.5073
F0.0042
g11
(g15
S'\x00\x00\x00\x00\x00\xe0c@'
p2603
tp2604
Rp2605
tp2606
a(S'cpvert_11MeV_30tilt_135rot_det12.npy'
p2607
F1.7293
F0.0098
F19.0371
F0.0415
F1.1136
F0.007
g11
(g15
S'\x00\x00\x00\x00\x00`g@'
p2608
tp2609
Rp2610
tp2611
a(S'cpvert_11MeV_30tilt_135rot_det13.npy'
p2612
F2.8566
F0.0126
F22.1737
F0.0534
F1.9131
F0.0098
g11
(g15
S'\x00\x00\x00\x00\x00\x80f@'
p2613
tp2614
Rp2615
tp2616
a(S'cpvert_11MeV_30tilt_135rot_det14.npy'
p2617
F4.0915
F0.013
F27.004
F0.1045
F2.7987
F0.0112
g11
(g15
S'\x00\x00\x00\x00\x00\x00a@'
p2618
tp2619
Rp2620
tp2621
a(S'cpvert_11MeV_30tilt_135rot_det15.npy'
p2622
F5.2015
F0.0143
F41.8778
F0.2716
F3.5901
F0.0138
g11
(g15
S'\x00\x00\x00\x00\x00\xc0T@'
p2623
tp2624
Rp2625
tp2626
a(S'cpvert_11MeV_30tilt_135rot_det4.npy'
p2627
F5.1972
F0.0145
F39.9849
F0.2616
F3.5561
F0.0128
g11
(g15
S'\x00\x00\x00\x00\x00\xc0S@'
p2628
tp2629
Rp2630
tp2631
a(S'cpvert_11MeV_30tilt_135rot_det5.npy'
p2632
F4.1678
F0.0151
F25.3747
F0.1097
F2.8486
F0.0121
g11
(g15
S'\x00\x00\x00\x00\x00\x00a@'
p2633
tp2634
Rp2635
tp2636
a(S'cpvert_11MeV_30tilt_135rot_det6.npy'
p2637
F2.9247
F0.0106
F19.7803
F0.0532
F1.9608
F0.0078
g11
(g15
S'\x00\x00\x00\x00\x00`h@'
p2638
tp2639
Rp2640
tp2641
a(S'cpvert_11MeV_30tilt_135rot_det7.npy'
p2642
F1.7912
F0.0096
F18.0693
F0.0403
F1.1594
F0.0068
g11
(g15
S'\x00\x00\x00\x00\x00\xc0g@'
p2643
tp2644
Rp2645
tp2646
a(S'cpvert_11MeV_30tilt_135rot_det8.npy'
p2647
F0.8582
F0.0074
F19.3756
F0.0328
F0.5252
F0.0051
g11
(g15
S'\x00\x00\x00\x00\x00`f@'
p2648
tp2649
Rp2650
tp2651
a(S'cpvert_11MeV_30tilt_135rot_det9.npy'
p2652
F0.2902
F0.0034
F17.9103
F0.0337
F0.1667
F0.002
g11
(g15
S'\x00\x00\x00\x00\x00\x00h@'
p2653
tp2654
Rp2655
tp2656
a(S'cpvert_11MeV_30tilt_145rot_det10.npy'
p2657
F0.2651
F0.0035
F15.8917
F0.0378
F0.1528
F0.0021
g11
(g15
S'\x00\x00\x00\x00\x00`e@'
p2658
tp2659
Rp2660
tp2661
a(S'cpvert_11MeV_30tilt_145rot_det11.npy'
p2662
F0.8231
F0.0069
F20.0646
F0.0329
F0.5011
F0.0047
g11
(g15
S'\x00\x00\x00\x00\x00`d@'
p2663
tp2664
Rp2665
tp2666
a(S'cpvert_11MeV_30tilt_145rot_det12.npy'
p2667
F1.7041
F0.0096
F19.0077
F0.037
F1.1027
F0.007
g11
(g15
S'\x00\x00\x00\x00\x00\xc0j@'
p2668
tp2669
Rp2670
tp2671
a(S'cpvert_11MeV_30tilt_145rot_det13.npy'
p2672
F2.8059
F0.0128
F22.1205
F0.0549
F1.882
F0.0101
g11
(g15
S'\x00\x00\x00\x00\x00@c@'
p2673
tp2674
Rp2675
tp2676
a(S'cpvert_11MeV_30tilt_145rot_det14.npy'
p2677
F3.9869
F0.0151
F26.693
F0.108
F2.7329
F0.0127
g11
(g15
S'\x00\x00\x00\x00\x00\x00a@'
p2678
tp2679
Rp2680
tp2681
a(S'cpvert_11MeV_30tilt_145rot_det15.npy'
p2682
F5.1063
F0.0153
F41.6642
F0.3076
F3.5354
F0.0133
g11
(g15
S'\x00\x00\x00\x00\x00@S@'
p2683
tp2684
Rp2685
tp2686
a(S'cpvert_11MeV_30tilt_145rot_det4.npy'
p2687
F5.2669
F0.0143
F40.4649
F0.2817
F3.6109
F0.0134
g11
(g15
S'\x00\x00\x00\x00\x00\x80V@'
p2688
tp2689
Rp2690
tp2691
a(S'cpvert_11MeV_30tilt_145rot_det5.npy'
p2692
F4.1895
F0.0159
F25.1398
F0.1013
F2.8447
F0.0126
g11
(g15
S'\x00\x00\x00\x00\x00\x00a@'
p2693
tp2694
Rp2695
tp2696
a(S'cpvert_11MeV_30tilt_145rot_det6.npy'
p2697
F2.961
F0.0128
F19.7587
F0.0578
F1.9775
F0.0096
g11
(g15
S'\x00\x00\x00\x00\x00@e@'
p2698
tp2699
Rp2700
tp2701
a(S'cpvert_11MeV_30tilt_145rot_det7.npy'
p2702
F1.7807
F0.0094
F18.0133
F0.0394
F1.1484
F0.0068
g11
(g15
S'\x00\x00\x00\x00\x00\xa0i@'
p2703
tp2704
Rp2705
tp2706
a(S'cpvert_11MeV_30tilt_145rot_det8.npy'
p2707
F0.8692
F0.0078
F19.3698
F0.0337
F0.5336
F0.0053
g11
(g15
S'\x00\x00\x00\x00\x00`d@'
p2708
tp2709
Rp2710
tp2711
a(S'cpvert_11MeV_30tilt_145rot_det9.npy'
p2712
F0.2836
F0.0036
F17.8916
F0.036
F0.1638
F0.0022
g11
(g15
S'\x00\x00\x00\x00\x00\x80f@'
p2713
tp2714
Rp2715
tp2716
a(S'cpvert_11MeV_30tilt_15rot_det10.npy'
p2717
F0.2924
F0.0039
F15.9115
F0.0368
F0.1675
F0.0022
g11
(g15
S'\x00\x00\x00\x00\x00\x80g@'
p2718
tp2719
Rp2720
tp2721
a(S'cpvert_11MeV_30tilt_15rot_det11.npy'
p2722
F0.8694
F0.007
F20.0794
F0.0353
F0.5357
F0.0048
g11
(g15
S'\x00\x00\x00\x00\x00`c@'
p2723
tp2724
Rp2725
tp2726
a(S'cpvert_11MeV_30tilt_15rot_det12.npy'
p2727
F1.7655
F0.0094
F19.208
F0.0416
F1.1463
F0.0069
g11
(g15
S'\x00\x00\x00\x00\x00 d@'
p2728
tp2729
Rp2730
tp2731
a(S'cpvert_11MeV_30tilt_15rot_det13.npy'
p2732
F2.8426
F0.0103
F22.3465
F0.055
F1.9162
F0.0079
g11
(g15
S'\x00\x00\x00\x00\x00@f@'
p2733
tp2734
Rp2735
tp2736
a(S'cpvert_11MeV_30tilt_15rot_det14.npy'
p2737
F3.9624
F0.0139
F27.1395
F0.1064
F2.7415
F0.0115
g11
(g15
S'\x00\x00\x00\x00\x00\xa0a@'
p2738
tp2739
Rp2740
tp2741
a(S'cpvert_11MeV_30tilt_15rot_det15.npy'
p2742
F4.9452
F0.0167
F42.2
F0.245
F3.4558
F0.0151
g11
(g15
S'\x00\x00\x00\x00\x00\x00T@'
p2743
tp2744
Rp2745
tp2746
a(S'cpvert_11MeV_30tilt_15rot_det4.npy'
p2747
F5.0767
F0.0155
F40.2643
F0.2968
F3.5323
F0.0138
g11
(g15
S'\x00\x00\x00\x00\x00\x80R@'
p2748
tp2749
Rp2750
tp2751
a(S'cpvert_11MeV_30tilt_15rot_det5.npy'
p2752
F4.1089
F0.0144
F24.9334
F0.1086
F2.8043
F0.0108
g11
(g15
S'\x00\x00\x00\x00\x00\x00_@'
p2753
tp2754
Rp2755
tp2756
a(S'cpvert_11MeV_30tilt_15rot_det6.npy'
p2757
F3.0025
F0.0117
F19.7286
F0.0574
F1.9952
F0.0096
g11
(g15
S'\x00\x00\x00\x00\x00 d@'
p2758
tp2759
Rp2760
tp2761
a(S'cpvert_11MeV_30tilt_15rot_det7.npy'
p2762
F1.8177
F0.0104
F17.7597
F0.0443
F1.158
F0.0074
g11
(g15
S'\x00\x00\x00\x00\x00@e@'
p2763
tp2764
Rp2765
tp2766
a(S'cpvert_11MeV_30tilt_15rot_det8.npy'
p2767
F0.8989
F0.0073
F19.2041
F0.033
F0.5411
F0.0048
g11
(g15
S'\x00\x00\x00\x00\x00@e@'
p2768
tp2769
Rp2770
tp2771
a(S'cpvert_11MeV_30tilt_15rot_det9.npy'
p2772
F0.303
F0.0035
F17.723
F0.0368
F0.1723
F0.0021
g11
(g15
S'\x00\x00\x00\x00\x00\xc0g@'
p2773
tp2774
Rp2775
tp2776
a(S'cpvert_11MeV_30tilt_25rot_det10.npy'
p2777
F0.2861
F0.0033
F15.9031
F0.0351
F0.1642
F0.002
g11
(g15
S'\x00\x00\x00\x00\x00\xc0g@'
p2778
tp2779
Rp2780
tp2781
a(S'cpvert_11MeV_30tilt_25rot_det11.npy'
p2782
F0.8761
F0.0066
F20.0366
F0.029
F0.536
F0.0043
g11
(g15
S'\x00\x00\x00\x00\x00\x80f@'
p2783
tp2784
Rp2785
tp2786
a(S'cpvert_11MeV_30tilt_25rot_det12.npy'
p2787
F1.7899
F0.0103
F19.1351
F0.0407
F1.1601
F0.0076
g11
(g15
S'\x00\x00\x00\x00\x00\xc0e@'
p2788
tp2789
Rp2790
tp2791
a(S'cpvert_11MeV_30tilt_25rot_det13.npy'
p2792
F2.8738
F0.011
F22.3981
F0.0506
F1.9407
F0.0085
g11
(g15
S'\x00\x00\x00\x00\x00`e@'
p2793
tp2794
Rp2795
tp2796
a(S'cpvert_11MeV_30tilt_25rot_det14.npy'
p2797
F3.997
F0.0117
F27.235
F0.1018
F2.771
F0.01
g11
(g15
S'\x00\x00\x00\x00\x00\xa0a@'
p2798
tp2799
Rp2800
tp2801
a(S'cpvert_11MeV_30tilt_25rot_det15.npy'
p2802
F4.9395
F0.0184
F42.0046
F0.2824
F3.4897
F0.0155
g11
(g15
S'\x00\x00\x00\x00\x00@U@'
p2803
tp2804
Rp2805
tp2806
a(S'cpvert_11MeV_30tilt_25rot_det4.npy'
p2807
F5.0331
F0.0133
F40.3429
F0.3114
F3.5121
F0.0145
g11
(g15
S'\x00\x00\x00\x00\x00@Q@'
p2808
tp2809
Rp2810
tp2811
a(S'cpvert_11MeV_30tilt_25rot_det5.npy'
p2812
F4.0679
F0.0118
F25.2112
F0.0994
F2.7952
F0.0098
g11
(g15
S'\x00\x00\x00\x00\x00@_@'
p2813
tp2814
Rp2815
tp2816
a(S'cpvert_11MeV_30tilt_25rot_det6.npy'
p2817
F2.9251
F0.0133
F19.5392
F0.0627
F1.9475
F0.0104
g11
(g15
S'\x00\x00\x00\x00\x00\xa0a@'
p2818
tp2819
Rp2820
tp2821
a(S'cpvert_11MeV_30tilt_25rot_det7.npy'
p2822
F1.8177
F0.0108
F17.928
F0.041
F1.1626
F0.0077
g11
(g15
S'\x00\x00\x00\x00\x00\xe0f@'
p2823
tp2824
Rp2825
tp2826
a(S'cpvert_11MeV_30tilt_25rot_det8.npy'
p2827
F0.9069
F0.0081
F19.2307
F0.0391
F0.5512
F0.0054
g11
(g15
S'\x00\x00\x00\x00\x00\xc0b@'
p2828
tp2829
Rp2830
tp2831
a(S'cpvert_11MeV_30tilt_25rot_det9.npy'
p2832
F0.3102
F0.004
F17.7372
F0.0366
F0.1788
F0.0024
g11
(g15
S'\x00\x00\x00\x00\x00\xe0g@'
p2833
tp2834
Rp2835
tp2836
a(S'cpvert_11MeV_30tilt_315rot_det10.npy'
p2837
F0.2914
F0.0036
F15.9819
F0.0351
F0.1659
F0.0021
g11
(g15
S'\x00\x00\x00\x00\x00\xe0e@'
p2838
tp2839
Rp2840
tp2841
a(S'cpvert_11MeV_30tilt_315rot_det11.npy'
p2842
F0.8628
F0.0064
F20.14
F0.0316
F0.5267
F0.0044
g11
(g15
S'\x00\x00\x00\x00\x00@d@'
p2843
tp2844
Rp2845
tp2846
a(S'cpvert_11MeV_30tilt_315rot_det12.npy'
p2847
F1.7838
F0.0098
F19.1722
F0.0397
F1.1548
F0.0071
g11
(g15
S'\x00\x00\x00\x00\x00\xc0g@'
p2848
tp2849
Rp2850
tp2851
a(S'cpvert_11MeV_30tilt_315rot_det13.npy'
p2852
F2.9341
F0.0127
F22.4582
F0.057
F1.9589
F0.0092
g11
(g15
S'\x00\x00\x00\x00\x00\xe0b@'
p2853
tp2854
Rp2855
tp2856
a(S'cpvert_11MeV_30tilt_315rot_det14.npy'
p2857
F4.1467
F0.0153
F27.2037
F0.1151
F2.8292
F0.0128
g11
(g15
S'\x00\x00\x00\x00\x00\x00_@'
p2858
tp2859
Rp2860
tp2861
a(S'cpvert_11MeV_30tilt_315rot_det15.npy'
p2862
F5.23
F0.0182
F42.3786
F0.2567
F3.5982
F0.0154
g11
(g15
S'\x00\x00\x00\x00\x00\x80X@'
p2863
tp2864
Rp2865
tp2866
a(S'cpvert_11MeV_30tilt_315rot_det4.npy'
p2867
F5.2363
F0.0165
F39.6379
F0.2953
F3.5991
F0.0138
g11
(g15
S'\x00\x00\x00\x00\x00\x00W@'
p2868
tp2869
Rp2870
tp2871
a(S'cpvert_11MeV_30tilt_315rot_det5.npy'
p2872
F4.1627
F0.0143
F24.847
F0.1034
F2.8519
F0.0116
g11
(g15
S'\x00\x00\x00\x00\x00`b@'
p2873
tp2874
Rp2875
tp2876
a(S'cpvert_11MeV_30tilt_315rot_det6.npy'
p2877
F2.9338
F0.0125
F19.6502
F0.0521
F1.9562
F0.0094
g11
(g15
S'\x00\x00\x00\x00\x00\x00e@'
p2878
tp2879
Rp2880
tp2881
a(S'cpvert_11MeV_30tilt_315rot_det7.npy'
p2882
F1.7373
F0.0099
F17.8707
F0.0434
F1.118
F0.0073
g11
(g15
S'\x00\x00\x00\x00\x00\xe0e@'
p2883
tp2884
Rp2885
tp2886
a(S'cpvert_11MeV_30tilt_315rot_det8.npy'
p2887
F0.8302
F0.0066
F19.2536
F0.0299
F0.5043
F0.0045
g11
(g15
S'\x00\x00\x00\x00\x00\xc0g@'
p2888
tp2889
Rp2890
tp2891
a(S'cpvert_11MeV_30tilt_315rot_det9.npy'
p2892
F0.2714
F0.0039
F17.7145
F0.0385
F0.155
F0.0023
g11
(g15
S'\x00\x00\x00\x00\x00\xe0e@'
p2893
tp2894
Rp2895
tp2896
a(S'cpvert_11MeV_30tilt_325rot_det10.npy'
p2897
F0.2887
F0.0037
F15.9651
F0.0415
F0.1656
F0.0023
g11
(g15
S'\x00\x00\x00\x00\x00\x80d@'
p2898
tp2899
Rp2900
tp2901
a(S'cpvert_11MeV_30tilt_325rot_det11.npy'
p2902
F0.8521
F0.0077
F20.0981
F0.0339
F0.5198
F0.0051
g11
(g15
S'\x00\x00\x00\x00\x00\xc0b@'
p2903
tp2904
Rp2905
tp2906
a(S'cpvert_11MeV_30tilt_325rot_det12.npy'
p2907
F1.7839
F0.0091
F19.2729
F0.0382
F1.153
F0.0067
g11
(g15
S'\x00\x00\x00\x00\x00\xc0j@'
p2908
tp2909
Rp2910
tp2911
a(S'cpvert_11MeV_30tilt_325rot_det13.npy'
p2912
F2.8924
F0.0131
F22.4058
F0.0564
F1.9492
F0.0099
g11
(g15
S'\x00\x00\x00\x00\x00\xa0d@'
p2913
tp2914
Rp2915
tp2916
a(S'cpvert_11MeV_30tilt_325rot_det14.npy'
p2917
F4.1022
F0.0135
F27.4635
F0.1032
F2.8111
F0.0111
g11
(g15
S'\x00\x00\x00\x00\x00\x00`@'
p2918
tp2919
Rp2920
tp2921
a(S'cpvert_11MeV_30tilt_325rot_det15.npy'
p2922
F5.1916
F0.0231
F42.5067
F0.3354
F3.5892
F0.0199
g11
(g15
S'\x00\x00\x00\x00\x00\x00I@'
p2923
tp2924
Rp2925
tp2926
a(S'cpvert_11MeV_30tilt_325rot_det4.npy'
p2927
F5.3029
F0.0174
F40.5085
F0.2783
F3.629
F0.0147
g11
(g15
S'\x00\x00\x00\x00\x00\x00V@'
p2928
tp2929
Rp2930
tp2931
a(S'cpvert_11MeV_30tilt_325rot_det5.npy'
p2932
F4.2208
F0.0173
F24.8536
F0.1068
F2.8608
F0.0138
g11
(g15
S'\x00\x00\x00\x00\x00\x80^@'
p2933
tp2934
Rp2935
tp2936
a(S'cpvert_11MeV_30tilt_325rot_det6.npy'
p2937
F2.9487
F0.0141
F19.583
F0.0607
F1.9573
F0.0101
g11
(g15
S'\x00\x00\x00\x00\x00\x00c@'
p2938
tp2939
Rp2940
tp2941
a(S'cpvert_11MeV_30tilt_325rot_det7.npy'
p2942
F1.78
F0.0101
F17.8483
F0.0401
F1.1459
F0.0074
g11
(g15
S'\x00\x00\x00\x00\x00\xc0g@'
p2943
tp2944
Rp2945
tp2946
a(S'cpvert_11MeV_30tilt_325rot_det8.npy'
p2947
F0.8549
F0.0077
F19.2279
F0.0365
F0.5214
F0.0051
g11
(g15
S'\x00\x00\x00\x00\x00\x80c@'
p2948
tp2949
Rp2950
tp2951
a(S'cpvert_11MeV_30tilt_325rot_det9.npy'
p2952
F0.281
F0.0037
F17.7455
F0.0386
F0.1607
F0.0021
g11
(g15
S'\x00\x00\x00\x00\x00@f@'
p2953
tp2954
Rp2955
tp2956
a(S'cpvert_11MeV_30tilt_335rot_det10.npy'
p2957
F0.288
F0.0035
F15.9027
F0.0377
F0.1635
F0.0021
g11
(g15
S'\x00\x00\x00\x00\x00\xc0h@'
p2958
tp2959
Rp2960
tp2961
a(S'cpvert_11MeV_30tilt_335rot_det11.npy'
p2962
F0.8417
F0.007
F20.0884
F0.0321
F0.5108
F0.0047
g11
(g15
S'\x00\x00\x00\x00\x00\x80d@'
p2963
tp2964
Rp2965
tp2966
a(S'cpvert_11MeV_30tilt_335rot_det12.npy'
p2967
F1.761
F0.0093
F19.1353
F0.0372
F1.1415
F0.007
g11
(g15
S'\x00\x00\x00\x00\x00\xc0g@'
p2968
tp2969
Rp2970
tp2971
a(S'cpvert_11MeV_30tilt_335rot_det13.npy'
p2972
F2.855
F0.014
F22.3473
F0.0602
F1.927
F0.0108
g11
(g15
S'\x00\x00\x00\x00\x00\x00`@'
p2973
tp2974
Rp2975
tp2976
a(S'cpvert_11MeV_30tilt_335rot_det14.npy'
p2977
F4.0443
F0.0139
F27.2229
F0.1134
F2.789
F0.0111
g11
(g15
S'\x00\x00\x00\x00\x00\xc0^@'
p2978
tp2979
Rp2980
tp2981
a(S'cpvert_11MeV_30tilt_335rot_det15.npy'
p2982
F5.0825
F0.021
F42.4509
F0.3309
F3.538
F0.0172
g11
(g15
S'\x00\x00\x00\x00\x00\x80P@'
p2983
tp2984
Rp2985
tp2986
a(S'cpvert_11MeV_30tilt_335rot_det4.npy'
p2987
F5.265
F0.0173
F39.8223
F0.2673
F3.6091
F0.0157
g11
(g15
S'\x00\x00\x00\x00\x00@T@'
p2988
tp2989
Rp2990
tp2991
a(S'cpvert_11MeV_30tilt_335rot_det5.npy'
p2992
F4.2355
F0.0137
F24.8309
F0.1059
F2.8573
F0.0114
g11
(g15
S'\x00\x00\x00\x00\x00\x80a@'
p2993
tp2994
Rp2995
tp2996
a(S'cpvert_11MeV_30tilt_335rot_det6.npy'
p2997
F3.0018
F0.0139
F19.6469
F0.0595
F1.9948
F0.01
g11
(g15
S'\x00\x00\x00\x00\x00 d@'
p2998
tp2999
Rp3000
tp3001
a(S'cpvert_11MeV_30tilt_335rot_det7.npy'
p3002
F1.7953
F0.0124
F17.7951
F0.0461
F1.146
F0.0087
g11
(g15
S'\x00\x00\x00\x00\x00\x80d@'
p3003
tp3004
Rp3005
tp3006
a(S'cpvert_11MeV_30tilt_335rot_det8.npy'
p3007
F0.8724
F0.0081
F19.2398
F0.031
F0.5295
F0.0053
g11
(g15
S'\x00\x00\x00\x00\x00\x80f@'
p3008
tp3009
Rp3010
tp3011
a(S'cpvert_11MeV_30tilt_335rot_det9.npy'
p3012
F0.2892
F0.004
F17.7993
F0.0386
F0.1654
F0.0024
g11
(g15
S'\x00\x00\x00\x00\x00`e@'
p3013
tp3014
Rp3015
tp3016
a(S'cpvert_11MeV_30tilt_345rot_det10.npy'
p3017
F0.2841
F0.0035
F15.8798
F0.0375
F0.1618
F0.0021
g11
(g15
S'\x00\x00\x00\x00\x00\xc0g@'
p3018
tp3019
Rp3020
tp3021
a(S'cpvert_11MeV_30tilt_345rot_det11.npy'
p3022
F0.8599
F0.0078
F20.0737
F0.032
F0.5264
F0.0054
g11
(g15
S'\x00\x00\x00\x00\x00`c@'
p3023
tp3024
Rp3025
tp3026
a(S'cpvert_11MeV_30tilt_345rot_det12.npy'
p3027
F1.7751
F0.0091
F19.1862
F0.0388
F1.1523
F0.0069
g11
(g15
S'\x00\x00\x00\x00\x00\xe0c@'
p3028
tp3029
Rp3030
tp3031
a(S'cpvert_11MeV_30tilt_345rot_det13.npy'
p3032
F2.8451
F0.0114
F22.3978
F0.0574
F1.9241
F0.0089
g11
(g15
S'\x00\x00\x00\x00\x00\xa0e@'
p3033
tp3034
Rp3035
tp3036
a(S'cpvert_11MeV_30tilt_345rot_det14.npy'
p3037
F4.0304
F0.0155
F27.2747
F0.1116
F2.7794
F0.0128
g11
(g15
S'\x00\x00\x00\x00\x00\x00]@'
p3038
tp3039
Rp3040
tp3041
a(S'cpvert_11MeV_30tilt_345rot_det15.npy'
p3042
F5.0272
F0.0185
F42.2498
F0.3402
F3.5089
F0.0156
g11
(g15
S'\x00\x00\x00\x00\x00\x00Q@'
p3043
tp3044
Rp3045
tp3046
a(S'cpvert_11MeV_30tilt_345rot_det4.npy'
p3047
F5.2612
F0.0167
F40.1476
F0.2759
F3.6173
F0.0148
g11
(g15
S'\x00\x00\x00\x00\x00@T@'
p3048
tp3049
Rp3050
tp3051
a(S'cpvert_11MeV_30tilt_345rot_det5.npy'
p3052
F4.2293
F0.0153
F24.9936
F0.0984
F2.85
F0.0125
g11
(g15
S'\x00\x00\x00\x00\x00\x00b@'
p3053
tp3054
Rp3055
tp3056
a(S'cpvert_11MeV_30tilt_345rot_det6.npy'
p3057
F2.998
F0.014
F19.4779
F0.0587
F1.9793
F0.0102
g11
(g15
S'\x00\x00\x00\x00\x00\x00b@'
p3058
tp3059
Rp3060
tp3061
a(S'cpvert_11MeV_30tilt_345rot_det7.npy'
p3062
F1.8336
F0.0112
F17.8458
F0.0417
F1.1686
F0.0079
g11
(g15
S'\x00\x00\x00\x00\x00`f@'
p3063
tp3064
Rp3065
tp3066
a(S'cpvert_11MeV_30tilt_345rot_det8.npy'
p3067
F0.8932
F0.0087
F19.2876
F0.0356
F0.544
F0.0059
g11
(g15
S'\x00\x00\x00\x00\x00\xc0c@'
p3068
tp3069
Rp3070
tp3071
a(S'cpvert_11MeV_30tilt_345rot_det9.npy'
p3072
F0.29
F0.0035
F17.7067
F0.0379
F0.1653
F0.0021
g11
(g15
S'\x00\x00\x00\x00\x00\x00h@'
p3073
tp3074
Rp3075
tp3076
a(S'cpvert_11MeV_30tilt_355rot_det10.npy'
p3077
F0.2904
F0.0038
F15.9188
F0.0396
F0.1668
F0.0023
g11
(g15
S'\x00\x00\x00\x00\x00\xa0c@'
p3078
tp3079
Rp3080
tp3081
a(S'cpvert_11MeV_30tilt_355rot_det11.npy'
p3082
F0.8668
F0.0064
F20.0859
F0.0291
F0.5305
F0.0043
g11
(g15
S'\x00\x00\x00\x00\x00\x00g@'
p3083
tp3084
Rp3085
tp3086
a(S'cpvert_11MeV_30tilt_355rot_det12.npy'
p3087
F1.7592
F0.0089
F19.1887
F0.0337
F1.1432
F0.0065
g11
(g15
S'\x00\x00\x00\x00\x00`i@'
p3088
tp3089
Rp3090
tp3091
a(S'cpvert_11MeV_30tilt_355rot_det13.npy'
p3092
F2.8237
F0.0126
F22.4109
F0.0616
F1.9018
F0.0092
g11
(g15
S'\x00\x00\x00\x00\x00\x80b@'
p3093
tp3094
Rp3095
tp3096
a(S'cpvert_11MeV_30tilt_355rot_det14.npy'
p3097
F3.9646
F0.0155
F27.2277
F0.1028
F2.7352
F0.0119
g11
(g15
S'\x00\x00\x00\x00\x00\x80]@'
p3098
tp3099
Rp3100
tp3101
a(S'cpvert_11MeV_30tilt_355rot_det15.npy'
p3102
F5.0015
F0.0158
F42.024
F0.3025
F3.4827
F0.016
g11
(g15
S'\x00\x00\x00\x00\x00\x80Q@'
p3103
tp3104
Rp3105
tp3106
a(S'cpvert_11MeV_30tilt_355rot_det4.npy'
p3107
F5.1919
F0.0191
F40.3733
F0.2946
F3.5576
F0.0158
g11
(g15
S'\x00\x00\x00\x00\x00@R@'
p3108
tp3109
Rp3110
tp3111
a(S'cpvert_11MeV_30tilt_355rot_det5.npy'
p3112
F4.2208
F0.0155
F24.9822
F0.104
F2.8512
F0.012
g11
(g15
S'\x00\x00\x00\x00\x00\xc0^@'
p3113
tp3114
Rp3115
tp3116
a(S'cpvert_11MeV_30tilt_355rot_det6.npy'
p3117
F3.0433
F0.0134
F19.6807
F0.0633
F2.012
F0.0097
g11
(g15
S'\x00\x00\x00\x00\x00\xe0c@'
p3118
tp3119
Rp3120
tp3121
a(S'cpvert_11MeV_30tilt_355rot_det7.npy'
p3122
F1.8446
F0.0102
F17.8133
F0.0412
F1.1742
F0.0074
g11
(g15
S'\x00\x00\x00\x00\x00`g@'
p3123
tp3124
Rp3125
tp3126
a(S'cpvert_11MeV_30tilt_355rot_det8.npy'
p3127
F0.8899
F0.0076
F19.1975
F0.0346
F0.5388
F0.005
g11
(g15
S'\x00\x00\x00\x00\x00\xe0d@'
p3128
tp3129
Rp3130
tp3131
a(S'cpvert_11MeV_30tilt_355rot_det9.npy'
p3132
F0.3001
F0.004
F17.7577
F0.0381
F0.1721
F0.0023
g11
(g15
S'\x00\x00\x00\x00\x00\x00f@'
p3133
tp3134
Rp3135
tp3136
a(S'cpvert_11MeV_30tilt_35rot_det10.npy'
p3137
F0.2985
F0.0039
F15.7819
F0.0378
F0.1719
F0.0023
g11
(g15
S'\x00\x00\x00\x00\x00`c@'
p3138
tp3139
Rp3140
tp3141
a(S'cpvert_11MeV_30tilt_35rot_det11.npy'
p3142
F0.8765
F0.0082
F20.0772
F0.0317
F0.5377
F0.0052
g11
(g15
S'\x00\x00\x00\x00\x00\xa0d@'
p3143
tp3144
Rp3145
tp3146
a(S'cpvert_11MeV_30tilt_35rot_det12.npy'
p3147
F1.7875
F0.0106
F19.0664
F0.04
F1.1629
F0.0079
g11
(g15
S'\x00\x00\x00\x00\x00\x80f@'
p3148
tp3149
Rp3150
tp3151
a(S'cpvert_11MeV_30tilt_35rot_det13.npy'
p3152
F2.8961
F0.0112
F22.3158
F0.0517
F1.9535
F0.0086
g11
(g15
S'\x00\x00\x00\x00\x00 e@'
p3153
tp3154
Rp3155
tp3156
a(S'cpvert_11MeV_30tilt_35rot_det14.npy'
p3157
F3.9855
F0.016
F27.0199
F0.1108
F2.758
F0.0125
g11
(g15
S'\x00\x00\x00\x00\x00\xc0_@'
p3158
tp3159
Rp3160
tp3161
a(S'cpvert_11MeV_30tilt_35rot_det15.npy'
p3162
F5.0034
F0.0159
F42.4687
F0.3634
F3.5137
F0.015
g11
(g15
S'\x00\x00\x00\x00\x00\x00O@'
p3163
tp3164
Rp3165
tp3166
a(S'cpvert_11MeV_30tilt_35rot_det4.npy'
p3167
F4.9669
F0.0148
F40.4859
F0.2838
F3.4761
F0.0129
g11
(g15
S'\x00\x00\x00\x00\x00\x80U@'
p3168
tp3169
Rp3170
tp3171
a(S'cpvert_11MeV_30tilt_35rot_det5.npy'
p3172
F4.0009
F0.014
F25.2194
F0.0858
F2.7617
F0.0113
g11
(g15
S'\x00\x00\x00\x00\x00\xa0d@'
p3173
tp3174
Rp3175
tp3176
a(S'cpvert_11MeV_30tilt_35rot_det6.npy'
p3177
F2.9031
F0.0114
F19.7249
F0.0579
F1.9458
F0.0091
g11
(g15
S'\x00\x00\x00\x00\x00\x80d@'
p3178
tp3179
Rp3180
tp3181
a(S'cpvert_11MeV_30tilt_35rot_det7.npy'
p3182
F1.7946
F0.01
F17.8971
F0.0439
F1.1553
F0.0074
g11
(g15
S'\x00\x00\x00\x00\x00\xc0f@'
p3183
tp3184
Rp3185
tp3186
a(S'cpvert_11MeV_30tilt_35rot_det8.npy'
p3187
F0.9148
F0.0073
F19.2721
F0.0293
F0.5538
F0.0048
g11
(g15
S'\x00\x00\x00\x00\x00\x80e@'
p3188
tp3189
Rp3190
tp3191
a(S'cpvert_11MeV_30tilt_35rot_det9.npy'
p3192
F0.3089
F0.0037
F17.6939
F0.034
F0.1779
F0.0021
g11
(g15
S'\x00\x00\x00\x00\x00\x80g@'
p3193
tp3194
Rp3195
tp3196
a(S'cpvert_11MeV_30tilt_45rot_det10.npy'
p3197
F0.2953
F0.0036
F15.7839
F0.0361
F0.171
F0.0022
g11
(g15
S'\x00\x00\x00\x00\x00`g@'
p3198
tp3199
Rp3200
tp3201
a(S'cpvert_11MeV_30tilt_45rot_det11.npy'
p3202
F0.9014
F0.0071
F19.964
F0.0322
F0.5504
F0.0047
g11
(g15
S'\x00\x00\x00\x00\x00`e@'
p3203
tp3204
Rp3205
tp3206
a(S'cpvert_11MeV_30tilt_45rot_det12.npy'
p3207
F1.8167
F0.0105
F19.0967
F0.0425
F1.175
F0.0075
g11
(g15
S'\x00\x00\x00\x00\x00\xe0c@'
p3208
tp3209
Rp3210
tp3211
a(S'cpvert_11MeV_30tilt_45rot_det13.npy'
p3212
F2.9074
F0.0126
F22.2453
F0.0545
F1.9466
F0.0095
g11
(g15
S'\x00\x00\x00\x00\x00\xe0b@'
p3213
tp3214
Rp3215
tp3216
a(S'cpvert_11MeV_30tilt_45rot_det14.npy'
p3217
F4.0442
F0.0131
F27.1508
F0.114
F2.8059
F0.0108
g11
(g15
S'\x00\x00\x00\x00\x00``@'
p3218
tp3219
Rp3220
tp3221
a(S'cpvert_11MeV_30tilt_45rot_det15.npy'
p3222
F5.007
F0.0173
F41.5179
F0.2973
F3.5074
F0.0158
g11
(g15
S'\x00\x00\x00\x00\x00\xc0S@'
p3223
tp3224
Rp3225
tp3226
a(S'cpvert_11MeV_30tilt_45rot_det4.npy'
p3227
F4.947
F0.0187
F40.8338
F0.2934
F3.4661
F0.0178
g11
(g15
S'\x00\x00\x00\x00\x00\x80P@'
p3228
tp3229
Rp3230
tp3231
a(S'cpvert_11MeV_30tilt_45rot_det5.npy'
p3232
F3.9735
F0.0133
F25.2489
F0.1009
F2.7475
F0.0112
g11
(g15
S'\x00\x00\x00\x00\x00@`@'
p3233
tp3234
Rp3235
tp3236
a(S'cpvert_11MeV_30tilt_45rot_det6.npy'
p3237
F2.8748
F0.0136
F19.7847
F0.0611
F1.9315
F0.0105
g11
(g15
S'\x00\x00\x00\x00\x00 c@'
p3238
tp3239
Rp3240
tp3241
a(S'cpvert_11MeV_30tilt_45rot_det7.npy'
p3242
F1.7767
F0.0097
F17.9977
F0.0419
F1.1384
F0.0068
g11
(g15
S'\x00\x00\x00\x00\x00\xc0f@'
p3243
tp3244
Rp3245
tp3246
a(S'cpvert_11MeV_30tilt_45rot_det8.npy'
p3247
F0.882
F0.0068
F19.2896
F0.0317
F0.5358
F0.0044
g11
(g15
S'\x00\x00\x00\x00\x00\x00f@'
p3248
tp3249
Rp3250
tp3251
a(S'cpvert_11MeV_30tilt_45rot_det9.npy'
p3252
F0.3
F0.0034
F17.7906
F0.0411
F0.1716
F0.002
g11
(g15
S'\x00\x00\x00\x00\x00 h@'
p3253
tp3254
Rp3255
tp3256
a(S'cpvert_11MeV_30tilt_55rot_det10.npy'
p3257
F0.3013
F0.004
F15.747
F0.0368
F0.1735
F0.0023
g11
(g15
S'\x00\x00\x00\x00\x00\x00g@'
p3258
tp3259
Rp3260
tp3261
a(S'cpvert_11MeV_30tilt_55rot_det11.npy'
p3262
F0.8867
F0.0066
F19.9699
F0.0306
F0.5388
F0.0044
g11
(g15
S'\x00\x00\x00\x00\x00@f@'
p3263
tp3264
Rp3265
tp3266
a(S'cpvert_11MeV_30tilt_55rot_det12.npy'
p3267
F1.834
F0.0089
F19.0275
F0.0359
F1.1824
F0.0065
g11
(g15
S'\x00\x00\x00\x00\x00\xc0h@'
p3268
tp3269
Rp3270
tp3271
a(S'cpvert_11MeV_30tilt_55rot_det13.npy'
p3272
F2.9315
F0.011
F22.2796
F0.0498
F1.9673
F0.009
g11
(g15
S'\x00\x00\x00\x00\x00\xc0g@'
p3273
tp3274
Rp3275
tp3276
a(S'cpvert_11MeV_30tilt_55rot_det14.npy'
p3277
F4.0961
F0.0131
F27.0999
F0.0998
F2.8286
F0.0113
g11
(g15
S'\x00\x00\x00\x00\x00\xc0b@'
p3278
tp3279
Rp3280
tp3281
a(S'cpvert_11MeV_30tilt_55rot_det15.npy'
p3282
F5.0206
F0.0164
F41.6571
F0.2742
F3.5358
F0.0162
g11
(g15
S'\x00\x00\x00\x00\x00\x80S@'
p3283
tp3284
Rp3285
tp3286
a(S'cpvert_11MeV_30tilt_55rot_det4.npy'
p3287
F4.9227
F0.0147
F40.6841
F0.2679
F3.4608
F0.0147
g11
(g15
S'\x00\x00\x00\x00\x00\x80R@'
p3288
tp3289
Rp3290
tp3291
a(S'cpvert_11MeV_30tilt_55rot_det5.npy'
p3292
F3.9471
F0.0126
F25.1504
F0.1
F2.7331
F0.0104
g11
(g15
S'\x00\x00\x00\x00\x00\xc0_@'
p3293
tp3294
Rp3295
tp3296
a(S'cpvert_11MeV_30tilt_55rot_det6.npy'
p3297
F2.8338
F0.0117
F19.8757
F0.0487
F1.9108
F0.0092
g11
(g15
S'\x00\x00\x00\x00\x00@g@'
p3298
tp3299
Rp3300
tp3301
a(S'cpvert_11MeV_30tilt_55rot_det7.npy'
p3302
F1.7571
F0.0097
F18.0272
F0.0427
F1.1356
F0.0074
g11
(g15
S'\x00\x00\x00\x00\x00`d@'
p3303
tp3304
Rp3305
tp3306
a(S'cpvert_11MeV_30tilt_55rot_det8.npy'
p3307
F0.8749
F0.0074
F19.3365
F0.0314
F0.5317
F0.0047
g11
(g15
S'\x00\x00\x00\x00\x00\x00e@'
p3308
tp3309
Rp3310
tp3311
a(S'cpvert_11MeV_30tilt_55rot_det9.npy'
p3312
F0.2993
F0.0036
F17.8665
F0.04
F0.1716
F0.0022
g11
(g15
S'\x00\x00\x00\x00\x00\x00h@'
p3313
tp3314
Rp3315
tp3316
a(S'cpvert_11MeV_30tilt_5rot_det10.npy'
p3317
F0.2937
F0.0035
F15.8629
F0.0364
F0.1684
F0.0021
g11
(g15
S'\x00\x00\x00\x00\x00\x80f@'
p3318
tp3319
Rp3320
tp3321
a(S'cpvert_11MeV_30tilt_5rot_det11.npy'
p3322
F0.8592
F0.0073
F20.116
F0.0305
F0.5264
F0.0049
g11
(g15
S'\x00\x00\x00\x00\x00\xc0d@'
p3323
tp3324
Rp3325
tp3326
a(S'cpvert_11MeV_30tilt_5rot_det12.npy'
p3327
F1.7478
F0.0106
F19.1685
F0.0349
F1.1319
F0.0079
g11
(g15
S'\x00\x00\x00\x00\x00@g@'
p3328
tp3329
Rp3330
tp3331
a(S'cpvert_11MeV_30tilt_5rot_det13.npy'
p3332
F2.8454
F0.0134
F22.4726
F0.054
F1.9176
F0.0097
g11
(g15
S'\x00\x00\x00\x00\x00 c@'
p3333
tp3334
Rp3335
tp3336
a(S'cpvert_11MeV_30tilt_5rot_det14.npy'
p3337
F3.9627
F0.0136
F27.3235
F0.1023
F2.7429
F0.0114
g11
(g15
S'\x00\x00\x00\x00\x00\x80a@'
p3338
tp3339
Rp3340
tp3341
a(S'cpvert_11MeV_30tilt_5rot_det15.npy'
p3342
F4.9782
F0.0205
F42.67
F0.3333
F3.5018
F0.018
g11
(g15
S'\x00\x00\x00\x00\x00@P@'
p3343
tp3344
Rp3345
tp3346
a(S'cpvert_11MeV_30tilt_5rot_det4.npy'
p3347
F5.1479
F0.0165
F40.4359
F0.3363
F3.5697
F0.0151
g11
(g15
S'\x00\x00\x00\x00\x00\x80R@'
p3348
tp3349
Rp3350
tp3351
a(S'cpvert_11MeV_30tilt_5rot_det5.npy'
p3352
F4.2003
F0.0142
F25.1577
F0.1024
F2.859
F0.0114
g11
(g15
S'\x00\x00\x00\x00\x00`a@'
p3353
tp3354
Rp3355
tp3356
a(S'cpvert_11MeV_30tilt_5rot_det6.npy'
p3357
F3.0162
F0.0131
F19.6207
F0.0565
F1.9915
F0.0099
g11
(g15
S'\x00\x00\x00\x00\x00@c@'
p3358
tp3359
Rp3360
tp3361
a(S'cpvert_11MeV_30tilt_5rot_det7.npy'
p3362
F1.8516
F0.0104
F17.8395
F0.0452
F1.1794
F0.0073
g11
(g15
S'\x00\x00\x00\x00\x00\x00e@'
p3363
tp3364
Rp3365
tp3366
a(S'cpvert_11MeV_30tilt_5rot_det8.npy'
p3367
F0.8945
F0.0087
F19.1958
F0.0322
F0.5406
F0.0057
g11
(g15
S'\x00\x00\x00\x00\x00\x80d@'
p3368
tp3369
Rp3370
tp3371
a(S'cpvert_11MeV_30tilt_5rot_det9.npy'
p3372
F0.3015
F0.0042
F17.748
F0.0396
F0.1731
F0.0025
g11
(g15
S'\x00\x00\x00\x00\x00\x80f@'
p3373
tp3374
Rp3375
tp3376
a(S'cpvert_11MeV_30tilt_65rot_det10.npy'
p3377
F0.2966
F0.0038
F15.8213
F0.0374
F0.1705
F0.0022
g11
(g15
S'\x00\x00\x00\x00\x00`h@'
p3378
tp3379
Rp3380
tp3381
a(S'cpvert_11MeV_30tilt_65rot_det11.npy'
p3382
F0.8899
F0.0086
F19.9505
F0.0321
F0.5388
F0.0057
g11
(g15
S'\x00\x00\x00\x00\x00\x00e@'
p3383
tp3384
Rp3385
tp3386
a(S'cpvert_11MeV_30tilt_65rot_det12.npy'
p3387
F1.8475
F0.0114
F19.0574
F0.0373
F1.1872
F0.0083
g11
(g15
S'\x00\x00\x00\x00\x00 g@'
p3388
tp3389
Rp3390
tp3391
a(S'cpvert_11MeV_30tilt_65rot_det13.npy'
p3392
F2.9738
F0.0129
F22.1941
F0.0585
F1.9824
F0.0101
g11
(g15
S'\x00\x00\x00\x00\x00\x80b@'
p3393
tp3394
Rp3395
tp3396
a(S'cpvert_11MeV_30tilt_65rot_det14.npy'
p3397
F4.1049
F0.0151
F26.9837
F0.1073
F2.8358
F0.0126
g11
(g15
S'\x00\x00\x00\x00\x00\x80_@'
p3398
tp3399
Rp3400
tp3401
a(S'cpvert_11MeV_30tilt_65rot_det15.npy'
p3402
F5.0585
F0.0167
F42.1675
F0.3164
F3.538
F0.0166
g11
(g15
S'\x00\x00\x00\x00\x00\x80R@'
p3403
tp3404
Rp3405
tp3406
a(S'cpvert_11MeV_30tilt_65rot_det4.npy'
p3407
F4.9098
F0.0163
F40.8395
F0.2721
F3.4625
F0.0135
g11
(g15
S'\x00\x00\x00\x00\x00\x80S@'
p3408
tp3409
Rp3410
tp3411
a(S'cpvert_11MeV_30tilt_65rot_det5.npy'
p3412
F3.9378
F0.0163
F25.2911
F0.0995
F2.7262
F0.0125
g11
(g15
S'\x00\x00\x00\x00\x00\x80a@'
p3413
tp3414
Rp3415
tp3416
a(S'cpvert_11MeV_30tilt_65rot_det6.npy'
p3417
F2.8315
F0.012
F19.8639
F0.0553
F1.9131
F0.0091
g11
(g15
S'\x00\x00\x00\x00\x00`d@'
p3418
tp3419
Rp3420
tp3421
a(S'cpvert_11MeV_30tilt_65rot_det7.npy'
p3422
F1.749
F0.0086
F18.0136
F0.0398
F1.1325
F0.0065
g11
(g15
S'\x00\x00\x00\x00\x00\x00g@'
p3423
tp3424
Rp3425
tp3426
a(S'cpvert_11MeV_30tilt_65rot_det8.npy'
p3427
F0.8478
F0.0063
F19.3515
F0.033
F0.5164
F0.0044
g11
(g15
S'\x00\x00\x00\x00\x00\x80f@'
p3428
tp3429
Rp3430
tp3431
a(S'cpvert_11MeV_30tilt_65rot_det9.npy'
p3432
F0.2977
F0.0038
F17.8132
F0.0391
F0.1708
F0.0022
g11
(g15
S'\x00\x00\x00\x00\x00`d@'
p3433
tp3434
Rp3435
tp3436
a(S'cpvert_11MeV_30tilt_75rot_det10.npy'
p3437
F0.2969
F0.0038
F15.7628
F0.0346
F0.1705
F0.0023
g11
(g15
S'\x00\x00\x00\x00\x00@h@'
p3438
tp3439
Rp3440
tp3441
a(S'cpvert_11MeV_30tilt_75rot_det11.npy'
p3442
F0.902
F0.0068
F19.9378
F0.0293
F0.5471
F0.0046
g11
(g15
S'\x00\x00\x00\x00\x00 e@'
p3443
tp3444
Rp3445
tp3446
a(S'cpvert_11MeV_30tilt_75rot_det12.npy'
p3447
F1.8485
F0.0101
F18.9727
F0.0386
F1.1785
F0.0072
g11
(g15
S'\x00\x00\x00\x00\x00\xc0f@'
p3448
tp3449
Rp3450
tp3451
a(S'cpvert_11MeV_30tilt_75rot_det13.npy'
p3452
F2.9683
F0.0132
F22.1233
F0.0539
F1.9683
F0.0102
g11
(g15
S'\x00\x00\x00\x00\x00@g@'
p3453
tp3454
Rp3455
tp3456
a(S'cpvert_11MeV_30tilt_75rot_det14.npy'
p3457
F4.1782
F0.0147
F26.9362
F0.1258
F2.8573
F0.0133
g11
(g15
S'\x00\x00\x00\x00\x00\x00]@'
p3458
tp3459
Rp3460
tp3461
a(S'cpvert_11MeV_30tilt_75rot_det15.npy'
p3462
F5.106
F0.0188
F42.0153
F0.3165
F3.5591
F0.0159
g11
(g15
S'\x00\x00\x00\x00\x00\x00S@'
p3463
tp3464
Rp3465
tp3466
a(S'cpvert_11MeV_30tilt_75rot_det4.npy'
p3467
F4.9447
F0.0144
F40.7926
F0.2853
F3.4725
F0.0138
g11
(g15
S'\x00\x00\x00\x00\x00\x00U@'
p3468
tp3469
Rp3470
tp3471
a(S'cpvert_11MeV_30tilt_75rot_det5.npy'
p3472
F3.9545
F0.0149
F25.1819
F0.0985
F2.7416
F0.0123
g11
(g15
S'\x00\x00\x00\x00\x00 a@'
p3473
tp3474
Rp3475
tp3476
a(S'cpvert_11MeV_30tilt_75rot_det6.npy'
p3477
F2.8103
F0.0119
F19.9253
F0.0548
F1.8928
F0.0098
g11
(g15
S'\x00\x00\x00\x00\x00\x80d@'
p3478
tp3479
Rp3480
tp3481
a(S'cpvert_11MeV_30tilt_75rot_det7.npy'
p3482
F1.7044
F0.0106
F17.9979
F0.0405
F1.106
F0.0075
g11
(g15
S'\x00\x00\x00\x00\x00 d@'
p3483
tp3484
Rp3485
tp3486
a(S'cpvert_11MeV_30tilt_75rot_det8.npy'
p3487
F0.8502
F0.0073
F19.3576
F0.0323
F0.5199
F0.0049
g11
(g15
S'\x00\x00\x00\x00\x00\xe0e@'
p3488
tp3489
Rp3490
tp3491
a(S'cpvert_11MeV_30tilt_75rot_det9.npy'
p3492
F0.2872
F0.0035
F17.8405
F0.0405
F0.1652
F0.0021
g11
(g15
S'\x00\x00\x00\x00\x00 e@'
p3493
tp3494
Rp3495
tp3496
a(S'cpvert_11MeV_30tilt_85rot_det10.npy'
p3497
F0.2949
F0.004
F15.8519
F0.0347
F0.1692
F0.0024
g11
(g15
S'\x00\x00\x00\x00\x00\xc0d@'
p3498
tp3499
Rp3500
tp3501
a(S'cpvert_11MeV_30tilt_85rot_det11.npy'
p3502
F0.9069
F0.0074
F19.9471
F0.0323
F0.5483
F0.005
g11
(g15
S'\x00\x00\x00\x00\x00 c@'
p3503
tp3504
Rp3505
tp3506
a(S'cpvert_11MeV_30tilt_85rot_det12.npy'
p3507
F1.8656
F0.0122
F18.9822
F0.0461
F1.1883
F0.0084
g11
(g15
S'\x00\x00\x00\x00\x00\xc0`@'
p3508
tp3509
Rp3510
tp3511
a(S'cpvert_11MeV_30tilt_85rot_det13.npy'
p3512
F3.0191
F0.0119
F22.1532
F0.055
F1.9993
F0.0093
g11
(g15
S'\x00\x00\x00\x00\x00`d@'
p3513
tp3514
Rp3515
tp3516
a(S'cpvert_11MeV_30tilt_85rot_det14.npy'
p3517
F4.1961
F0.0165
F26.8632
F0.1122
F2.8522
F0.0128
g11
(g15
S'\x00\x00\x00\x00\x00\x00_@'
p3518
tp3519
Rp3520
tp3521
a(S'cpvert_11MeV_30tilt_85rot_det15.npy'
p3522
F5.1665
F0.0155
F42.0168
F0.2638
F3.569
F0.0139
g11
(g15
S'\x00\x00\x00\x00\x00\xc0U@'
p3523
tp3524
Rp3525
tp3526
a(S'cpvert_11MeV_30tilt_85rot_det4.npy'
p3527
F4.9538
F0.0157
F40.793
F0.246
F3.4776
F0.0136
g11
(g15
S'\x00\x00\x00\x00\x00\x80Y@'
p3528
tp3529
Rp3530
tp3531
a(S'cpvert_11MeV_30tilt_85rot_det5.npy'
p3532
F3.9734
F0.0136
F25.4305
F0.1052
F2.7508
F0.0107
g11
(g15
S'\x00\x00\x00\x00\x00\xe0b@'
p3533
tp3534
Rp3535
tp3536
a(S'cpvert_11MeV_30tilt_85rot_det6.npy'
p3537
F2.8229
F0.0111
F19.9103
F0.0507
F1.9081
F0.0087
g11
(g15
S'\x00\x00\x00\x00\x00\x00e@'
p3538
tp3539
Rp3540
tp3541
a(S'cpvert_11MeV_30tilt_85rot_det7.npy'
p3542
F1.7193
F0.0093
F18.0671
F0.0417
F1.1185
F0.007
g11
(g15
S'\x00\x00\x00\x00\x00\xa0g@'
p3543
tp3544
Rp3545
tp3546
a(S'cpvert_11MeV_30tilt_85rot_det8.npy'
p3547
F0.8532
F0.0073
F19.3952
F0.0347
F0.5221
F0.0048
g11
(g15
S'\x00\x00\x00\x00\x00\xc0d@'
p3548
tp3549
Rp3550
tp3551
a(S'cpvert_11MeV_30tilt_85rot_det9.npy'
p3552
F0.2848
F0.0038
F17.7986
F0.0377
F0.1623
F0.0023
g11
(g15
S'\x00\x00\x00\x00\x00@d@'
p3553
tp3554
Rp3555
tp3556
a(S'cpvert_11MeV_30tilt_95rot_det10.npy'
p3557
F0.2822
F0.0035
F15.85
F0.0321
F0.1623
F0.0021
g11
(g15
S'\x00\x00\x00\x00\x00@k@'
p3558
tp3559
Rp3560
tp3561
a(S'cpvert_11MeV_30tilt_95rot_det11.npy'
p3562
F0.883
F0.0085
F19.9006
F0.0368
F0.534
F0.0056
g11
(g15
S'\x00\x00\x00\x00\x00`c@'
p3563
tp3564
Rp3565
tp3566
a(S'cpvert_11MeV_30tilt_95rot_det12.npy'
p3567
F1.848
F0.0117
F19.0108
F0.0394
F1.1735
F0.0078
g11
(g15
S'\x00\x00\x00\x00\x00`g@'
p3568
tp3569
Rp3570
tp3571
a(S'cpvert_11MeV_30tilt_95rot_det13.npy'
p3572
F3.0161
F0.0123
F22.2697
F0.0568
F1.9935
F0.009
g11
(g15
S'\x00\x00\x00\x00\x00\x80e@'
p3573
tp3574
Rp3575
tp3576
a(S'cpvert_11MeV_30tilt_95rot_det14.npy'
p3577
F4.2241
F0.0139
F26.8426
F0.1064
F2.8516
F0.0109
g11
(g15
S'\x00\x00\x00\x00\x00\xc0a@'
p3578
tp3579
Rp3580
tp3581
a(S'cpvert_11MeV_30tilt_95rot_det15.npy'
p3582
F5.1895
F0.0146
F41.4178
F0.272
F3.5878
F0.0133
g11
(g15
S'\x00\x00\x00\x00\x00@Y@'
p3583
tp3584
Rp3585
tp3586
a(S'cpvert_11MeV_30tilt_95rot_det4.npy'
p3587
F5.0406
F0.0186
F40.9118
F0.362
F3.5368
F0.0169
g11
(g15
S'\x00\x00\x00\x00\x00\x00M@'
p3588
tp3589
Rp3590
tp3591
a(S'cpvert_11MeV_30tilt_95rot_det5.npy'
p3592
F4.0147
F0.0128
F25.3729
F0.1004
F2.7874
F0.0113
g11
(g15
S'\x00\x00\x00\x00\x00\xc0a@'
p3593
tp3594
Rp3595
tp3596
a(S'cpvert_11MeV_30tilt_95rot_det6.npy'
p3597
F2.8342
F0.0121
F19.9312
F0.0553
F1.9178
F0.0096
g11
(g15
S'\x00\x00\x00\x00\x00\xc0c@'
p3598
tp3599
Rp3600
tp3601
a(S'cpvert_11MeV_30tilt_95rot_det7.npy'
p3602
F1.724
F0.009
F18.0973
F0.0414
F1.1229
F0.0069
g11
(g15
S'\x00\x00\x00\x00\x00@e@'
p3603
tp3604
Rp3605
tp3606
a(S'cpvert_11MeV_30tilt_95rot_det8.npy'
p3607
F0.8369
F0.007
F19.3905
F0.0295
F0.5114
F0.0045
g11
(g15
S'\x00\x00\x00\x00\x00@g@'
p3608
tp3609
Rp3610
tp3611
a(S'cpvert_11MeV_30tilt_95rot_det9.npy'
p3612
F0.2902
F0.004
F17.9253
F0.038
F0.1666
F0.0024
g11
(g15
S'\x00\x00\x00\x00\x00\x00f@'
p3613
tp3614
Rp3615
tp3616
a(S'cpvert_11MeV_neg15tilt_105rot_det10.npy'
p3617
F0.29
F0.0042
F15.8966
F0.0379
F0.1664
F0.0025
g11
(g15
S'\x00\x00\x00\x00\x00\x80d@'
p3618
tp3619
Rp3620
tp3621
a(S'cpvert_11MeV_neg15tilt_105rot_det11.npy'
p3622
F0.8724
F0.0071
F20.0132
F0.0332
F0.5303
F0.0049
g11
(g15
S'\x00\x00\x00\x00\x00`d@'
p3623
tp3624
Rp3625
tp3626
a(S'cpvert_11MeV_neg15tilt_105rot_det12.npy'
p3627
F1.8033
F0.0127
F19.0939
F0.0424
F1.1561
F0.0092
g11
(g15
S'\x00\x00\x00\x00\x00 e@'
p3628
tp3629
Rp3630
tp3631
a(S'cpvert_11MeV_neg15tilt_105rot_det13.npy'
p3632
F2.989
F0.0133
F22.1574
F0.055
F1.9721
F0.0095
g11
(g15
S'\x00\x00\x00\x00\x00\xe0d@'
p3633
tp3634
Rp3635
tp3636
a(S'cpvert_11MeV_neg15tilt_105rot_det14.npy'
p3637
F4.1962
F0.0164
F26.8435
F0.1138
F2.8372
F0.0119
g11
(g15
S'\x00\x00\x00\x00\x00@[@'
p3638
tp3639
Rp3640
tp3641
a(S'cpvert_11MeV_neg15tilt_105rot_det15.npy'
p3642
F5.2185
F0.0237
F42.0235
F0.3137
F3.5717
F0.0187
g11
(g15
S'\x00\x00\x00\x00\x00\xc0Q@'
p3643
tp3644
Rp3645
tp3646
a(S'cpvert_11MeV_neg15tilt_105rot_det4.npy'
p3647
F5.0853
F0.0187
F39.6275
F0.2921
F3.5618
F0.0166
g11
(g15
S'\x00\x00\x00\x00\x00\x80S@'
p3648
tp3649
Rp3650
tp3651
a(S'cpvert_11MeV_neg15tilt_105rot_det5.npy'
p3652
F4.0287
F0.0142
F24.7136
F0.096
F2.7804
F0.0114
g11
(g15
S'\x00\x00\x00\x00\x00@_@'
p3653
tp3654
Rp3655
tp3656
a(S'cpvert_11MeV_neg15tilt_105rot_det6.npy'
p3657
F2.8656
F0.0123
F19.7332
F0.0525
F1.9291
F0.0098
g11
(g15
S'\x00\x00\x00\x00\x00\xe0b@'
p3658
tp3659
Rp3660
tp3661
a(S'cpvert_11MeV_neg15tilt_105rot_det7.npy'
p3662
F1.7451
F0.0105
F18.0534
F0.0392
F1.1326
F0.008
g11
(g15
S'\x00\x00\x00\x00\x00\xc0f@'
p3663
tp3664
Rp3665
tp3666
a(S'cpvert_11MeV_neg15tilt_105rot_det8.npy'
p3667
F0.8641
F0.0068
F19.3727
F0.0298
F0.5282
F0.0045
g11
(g15
S'\x00\x00\x00\x00\x00\x00f@'
p3668
tp3669
Rp3670
tp3671
a(S'cpvert_11MeV_neg15tilt_105rot_det9.npy'
p3672
F0.2877
F0.0039
F17.8957
F0.0449
F0.1652
F0.0023
g11
(g15
S'\x00\x00\x00\x00\x00\xa0b@'
p3673
tp3674
Rp3675
tp3676
a(S'cpvert_11MeV_neg15tilt_115rot_det10.npy'
p3677
F0.285
F0.0033
F15.8899
F0.0366
F0.1637
F0.002
g11
(g15
S'\x00\x00\x00\x00\x00\x80e@'
p3678
tp3679
Rp3680
tp3681
a(S'cpvert_11MeV_neg15tilt_115rot_det11.npy'
p3682
F0.8581
F0.007
F19.9959
F0.036
F0.5209
F0.0046
g11
(g15
S'\x00\x00\x00\x00\x00\xc0a@'
p3683
tp3684
Rp3685
tp3686
a(S'cpvert_11MeV_neg15tilt_115rot_det12.npy'
p3687
F1.8194
F0.0102
F19.1572
F0.04
F1.1641
F0.0073
g11
(g15
S'\x00\x00\x00\x00\x00`d@'
p3688
tp3689
Rp3690
tp3691
a(S'cpvert_11MeV_neg15tilt_115rot_det13.npy'
p3692
F2.9785
F0.0128
F22.2721
F0.0565
F1.9827
F0.0108
g11
(g15
S'\x00\x00\x00\x00\x00 c@'
p3693
tp3694
Rp3695
tp3696
a(S'cpvert_11MeV_neg15tilt_115rot_det14.npy'
p3697
F4.1817
F0.0143
F26.9677
F0.1071
F2.8356
F0.0115
g11
(g15
S'\x00\x00\x00\x00\x00@a@'
p3698
tp3699
Rp3700
tp3701
a(S'cpvert_11MeV_neg15tilt_115rot_det15.npy'
p3702
F5.2506
F0.016
F41.996
F0.2647
F3.6087
F0.0149
g11
(g15
S'\x00\x00\x00\x00\x00@U@'
p3703
tp3704
Rp3705
tp3706
a(S'cpvert_11MeV_neg15tilt_115rot_det4.npy'
p3707
F5.1179
F0.017
F39.7262
F0.3058
F3.549
F0.0141
g11
(g15
S'\x00\x00\x00\x00\x00\x00R@'
p3708
tp3709
Rp3710
tp3711
a(S'cpvert_11MeV_neg15tilt_115rot_det5.npy'
p3712
F4.0714
F0.0131
F24.9479
F0.1044
F2.8031
F0.0107
g11
(g15
S'\x00\x00\x00\x00\x00\xc0`@'
p3713
tp3714
Rp3715
tp3716
a(S'cpvert_11MeV_neg15tilt_115rot_det6.npy'
p3717
F2.8706
F0.0133
F19.6739
F0.0612
F1.9275
F0.0109
g11
(g15
S'\x00\x00\x00\x00\x00\xe0b@'
p3718
tp3719
Rp3720
tp3721
a(S'cpvert_11MeV_neg15tilt_115rot_det7.npy'
p3722
F1.749
F0.0117
F18.0035
F0.0502
F1.1341
F0.0087
g11
(g15
S'\x00\x00\x00\x00\x00\xe0c@'
p3723
tp3724
Rp3725
tp3726
a(S'cpvert_11MeV_neg15tilt_115rot_det8.npy'
p3727
F0.8563
F0.0075
F19.3323
F0.036
F0.5244
F0.005
g11
(g15
S'\x00\x00\x00\x00\x00\xe0c@'
p3728
tp3729
Rp3730
tp3731
a(S'cpvert_11MeV_neg15tilt_115rot_det9.npy'
p3732
F0.2814
F0.0036
F17.8307
F0.0383
F0.1609
F0.0021
g11
(g15
S'\x00\x00\x00\x00\x00 d@'
p3733
tp3734
Rp3735
tp3736
a(S'cpvert_11MeV_neg15tilt_125rot_det10.npy'
p3737
F0.29
F0.0038
F15.9164
F0.0343
F0.1672
F0.0022
g11
(g15
S'\x00\x00\x00\x00\x00\xc0g@'
p3738
tp3739
Rp3740
tp3741
a(S'cpvert_11MeV_neg15tilt_125rot_det11.npy'
p3742
F0.8753
F0.0071
F20.1189
F0.0346
F0.5352
F0.0048
g11
(g15
S'\x00\x00\x00\x00\x00\x80d@'
p3743
tp3744
Rp3745
tp3746
a(S'cpvert_11MeV_neg15tilt_125rot_det12.npy'
p3747
F1.762
F0.0101
F19.0682
F0.041
F1.1372
F0.0073
g11
(g15
S'\x00\x00\x00\x00\x00\x00f@'
p3748
tp3749
Rp3750
tp3751
a(S'cpvert_11MeV_neg15tilt_125rot_det13.npy'
p3752
F2.9328
F0.0118
F22.2113
F0.0556
F1.9554
F0.0092
g11
(g15
S'\x00\x00\x00\x00\x00\xc0e@'
p3753
tp3754
Rp3755
tp3756
a(S'cpvert_11MeV_neg15tilt_125rot_det14.npy'
p3757
F4.1568
F0.0142
F26.8426
F0.1057
F2.8305
F0.0114
g11
(g15
S'\x00\x00\x00\x00\x00\xc0`@'
p3758
tp3759
Rp3760
tp3761
a(S'cpvert_11MeV_neg15tilt_125rot_det15.npy'
p3762
F5.2082
F0.0169
F41.2925
F0.2637
F3.5801
F0.0159
g11
(g15
S'\x00\x00\x00\x00\x00\x80W@'
p3763
tp3764
Rp3765
tp3766
a(S'cpvert_11MeV_neg15tilt_125rot_det4.npy'
p3767
F5.1677
F0.017
F39.392
F0.2874
F3.5713
F0.0144
g11
(g15
S'\x00\x00\x00\x00\x00\x80Q@'
p3768
tp3769
Rp3770
tp3771
a(S'cpvert_11MeV_neg15tilt_125rot_det5.npy'
p3772
F4.0982
F0.015
F24.8327
F0.1109
F2.8117
F0.0125
g11
(g15
S'\x00\x00\x00\x00\x00\x00\\@'
p3773
tp3774
Rp3775
tp3776
a(S'cpvert_11MeV_neg15tilt_125rot_det6.npy'
p3777
F2.899
F0.0145
F19.6884
F0.0579
F1.9441
F0.0113
g11
(g15
S'\x00\x00\x00\x00\x00@c@'
p3778
tp3779
Rp3780
tp3781
a(S'cpvert_11MeV_neg15tilt_125rot_det7.npy'
p3782
F1.759
F0.0113
F17.9378
F0.0442
F1.1374
F0.0083
g11
(g15
S'\x00\x00\x00\x00\x00\x00c@'
p3783
tp3784
Rp3785
tp3786
a(S'cpvert_11MeV_neg15tilt_125rot_det8.npy'
p3787
F0.8747
F0.0072
F19.3982
F0.0322
F0.5347
F0.0048
g11
(g15
S'\x00\x00\x00\x00\x00\x80d@'
p3788
tp3789
Rp3790
tp3791
a(S'cpvert_11MeV_neg15tilt_125rot_det9.npy'
p3792
F0.2829
F0.0036
F17.871
F0.0389
F0.1637
F0.0022
g11
(g15
S'\x00\x00\x00\x00\x00`f@'
p3793
tp3794
Rp3795
tp3796
a(S'cpvert_11MeV_neg15tilt_135rot_det10.npy'
p3797
F0.2889
F0.0035
F15.9861
F0.0334
F0.1658
F0.0021
g11
(g15
S'\x00\x00\x00\x00\x00 h@'
p3798
tp3799
Rp3800
tp3801
a(S'cpvert_11MeV_neg15tilt_135rot_det11.npy'
p3802
F0.8654
F0.0065
F20.1649
F0.0287
F0.5276
F0.0043
g11
(g15
S'\x00\x00\x00\x00\x00\x80h@'
p3803
tp3804
Rp3805
tp3806
a(S'cpvert_11MeV_neg15tilt_135rot_det12.npy'
p3807
F1.7755
F0.0108
F19.0997
F0.0376
F1.1499
F0.0078
g11
(g15
S'\x00\x00\x00\x00\x00 e@'
p3808
tp3809
Rp3810
tp3811
a(S'cpvert_11MeV_neg15tilt_135rot_det13.npy'
p3812
F2.9223
F0.0127
F22.3361
F0.0569
F1.952
F0.0099
g11
(g15
S'\x00\x00\x00\x00\x00\x00c@'
p3813
tp3814
Rp3815
tp3816
a(S'cpvert_11MeV_neg15tilt_135rot_det14.npy'
p3817
F4.1
F0.0136
F26.835
F0.1129
F2.8022
F0.0111
g11
(g15
S'\x00\x00\x00\x00\x00 a@'
p3818
tp3819
Rp3820
tp3821
a(S'cpvert_11MeV_neg15tilt_135rot_det15.npy'
p3822
F5.2078
F0.021
F41.8916
F0.2967
F3.606
F0.0185
g11
(g15
S'\x00\x00\x00\x00\x00\x00R@'
p3823
tp3824
Rp3825
tp3826
a(S'cpvert_11MeV_neg15tilt_135rot_det4.npy'
p3827
F5.2127
F0.0174
F39.7567
F0.2639
F3.5865
F0.0166
g11
(g15
S'\x00\x00\x00\x00\x00@S@'
p3828
tp3829
Rp3830
tp3831
a(S'cpvert_11MeV_neg15tilt_135rot_det5.npy'
p3832
F4.0984
F0.0147
F24.6012
F0.0936
F2.8095
F0.0119
g11
(g15
S'\x00\x00\x00\x00\x00\x00`@'
p3833
tp3834
Rp3835
tp3836
a(S'cpvert_11MeV_neg15tilt_135rot_det6.npy'
p3837
F2.9326
F0.012
F19.7163
F0.0598
F1.9623
F0.0092
g11
(g15
S'\x00\x00\x00\x00\x00\xc0c@'
p3838
tp3839
Rp3840
tp3841
a(S'cpvert_11MeV_neg15tilt_135rot_det7.npy'
p3842
F1.7834
F0.01
F17.966
F0.042
F1.1489
F0.0072
g11
(g15
S'\x00\x00\x00\x00\x00\x80f@'
p3843
tp3844
Rp3845
tp3846
a(S'cpvert_11MeV_neg15tilt_135rot_det8.npy'
p3847
F0.8802
F0.0083
F19.3392
F0.0339
F0.5395
F0.0054
g11
(g15
S'\x00\x00\x00\x00\x00\x80b@'
p3848
tp3849
Rp3850
tp3851
a(S'cpvert_11MeV_neg15tilt_135rot_det9.npy'
p3852
F0.2872
F0.0038
F17.837
F0.0385
F0.1642
F0.0022
g11
(g15
S'\x00\x00\x00\x00\x00\x80f@'
p3853
tp3854
Rp3855
tp3856
a(S'cpvert_11MeV_neg15tilt_145rot_det10.npy'
p3857
F0.2925
F0.0035
F15.9822
F0.0354
F0.1676
F0.0021
g11
(g15
S'\x00\x00\x00\x00\x00`e@'
p3858
tp3859
Rp3860
tp3861
a(S'cpvert_11MeV_neg15tilt_145rot_det11.npy'
p3862
F0.8627
F0.0067
F20.1088
F0.0306
F0.5261
F0.0045
g11
(g15
S'\x00\x00\x00\x00\x00@e@'
p3863
tp3864
Rp3865
tp3866
a(S'cpvert_11MeV_neg15tilt_145rot_det12.npy'
p3867
F1.7799
F0.0103
F19.1859
F0.0379
F1.1585
F0.0076
g11
(g15
S'\x00\x00\x00\x00\x00@e@'
p3868
tp3869
Rp3870
tp3871
a(S'cpvert_11MeV_neg15tilt_145rot_det13.npy'
p3872
F2.9
F0.011
F22.3494
F0.0508
F1.9464
F0.0087
g11
(g15
S'\x00\x00\x00\x00\x00`e@'
p3873
tp3874
Rp3875
tp3876
a(S'cpvert_11MeV_neg15tilt_145rot_det14.npy'
p3877
F4.111
F0.0154
F27.3736
F0.113
F2.8227
F0.0123
g11
(g15
S'\x00\x00\x00\x00\x00\x80]@'
p3878
tp3879
Rp3880
tp3881
a(S'cpvert_11MeV_neg15tilt_145rot_det15.npy'
p3882
F5.1396
F0.0151
F41.7065
F0.2621
F3.5682
F0.0144
g11
(g15
S'\x00\x00\x00\x00\x00@Q@'
p3883
tp3884
Rp3885
tp3886
a(S'cpvert_11MeV_neg15tilt_145rot_det4.npy'
p3887
F5.2485
F0.016
F39.8075
F0.2774
F3.6021
F0.0143
g11
(g15
S'\x00\x00\x00\x00\x00@T@'
p3888
tp3889
Rp3890
tp3891
a(S'cpvert_11MeV_neg15tilt_145rot_det5.npy'
p3892
F4.1825
F0.0144
F24.9708
F0.1083
F2.8397
F0.0112
g11
(g15
S'\x00\x00\x00\x00\x00`a@'
p3893
tp3894
Rp3895
tp3896
a(S'cpvert_11MeV_neg15tilt_145rot_det6.npy'
p3897
F2.9532
F0.0121
F19.6297
F0.0527
F1.9678
F0.0091
g11
(g15
S'\x00\x00\x00\x00\x00\xc0e@'
p3898
tp3899
Rp3900
tp3901
a(S'cpvert_11MeV_neg15tilt_145rot_det7.npy'
p3902
F1.788
F0.0107
F17.9748
F0.0497
F1.1549
F0.0075
g11
(g15
S'\x00\x00\x00\x00\x00\xa0b@'
p3903
tp3904
Rp3905
tp3906
a(S'cpvert_11MeV_neg15tilt_145rot_det8.npy'
p3907
F0.8627
F0.0077
F19.3012
F0.0321
F0.5273
F0.0052
g11
(g15
S'\x00\x00\x00\x00\x00\x80e@'
p3908
tp3909
Rp3910
tp3911
a(S'cpvert_11MeV_neg15tilt_145rot_det9.npy'
p3912
F0.288
F0.004
F17.8267
F0.0406
F0.1652
F0.0024
g11
(g15
S'\x00\x00\x00\x00\x00@e@'
p3913
tp3914
Rp3915
tp3916
a(S'cpvert_11MeV_neg15tilt_15rot_det10.npy'
p3917
F0.2893
F0.0037
F15.8466
F0.0341
F0.1671
F0.0022
g11
(g15
S'\x00\x00\x00\x00\x00\xe0g@'
p3918
tp3919
Rp3920
tp3921
a(S'cpvert_11MeV_neg15tilt_15rot_det11.npy'
p3922
F0.8645
F0.0077
F20.0189
F0.0352
F0.5309
F0.0052
g11
(g15
S'\x00\x00\x00\x00\x00\xc0a@'
p3923
tp3924
Rp3925
tp3926
a(S'cpvert_11MeV_neg15tilt_15rot_det12.npy'
p3927
F1.8008
F0.009
F19.0897
F0.0334
F1.1698
F0.0066
g11
(g15
S'\x00\x00\x00\x00\x00\x80i@'
p3928
tp3929
Rp3930
tp3931
a(S'cpvert_11MeV_neg15tilt_15rot_det13.npy'
p3932
F2.8833
F0.0111
F22.2099
F0.0519
F1.9445
F0.0087
g11
(g15
S'\x00\x00\x00\x00\x00\xa0e@'
p3933
tp3934
Rp3935
tp3936
a(S'cpvert_11MeV_neg15tilt_15rot_det14.npy'
p3937
F4.0176
F0.0126
F26.8023
F0.095
F2.7838
F0.0111
g11
(g15
S'\x00\x00\x00\x00\x00\xe0a@'
p3938
tp3939
Rp3940
tp3941
a(S'cpvert_11MeV_neg15tilt_15rot_det15.npy'
p3942
F5.0161
F0.0174
F41.6221
F0.353
F3.5169
F0.0149
g11
(g15
S'\x00\x00\x00\x00\x00@P@'
p3943
tp3944
Rp3945
tp3946
a(S'cpvert_11MeV_neg15tilt_15rot_det4.npy'
p3947
F5.1195
F0.0161
F41.0223
F0.3031
F3.5562
F0.0149
g11
(g15
S'\x00\x00\x00\x00\x00\x80Q@'
p3948
tp3949
Rp3950
tp3951
a(S'cpvert_11MeV_neg15tilt_15rot_det5.npy'
p3952
F4.1454
F0.015
F25.1411
F0.094
F2.8504
F0.013
g11
(g15
S'\x00\x00\x00\x00\x00\x80^@'
p3953
tp3954
Rp3955
tp3956
a(S'cpvert_11MeV_neg15tilt_15rot_det6.npy'
p3957
F3.003
F0.0114
F19.7268
F0.0572
F1.9921
F0.009
g11
(g15
S'\x00\x00\x00\x00\x00\xc0c@'
p3958
tp3959
Rp3960
tp3961
a(S'cpvert_11MeV_neg15tilt_15rot_det7.npy'
p3962
F1.8485
F0.0111
F17.9271
F0.0453
F1.1837
F0.0081
g11
(g15
S'\x00\x00\x00\x00\x00`b@'
p3963
tp3964
Rp3965
tp3966
a(S'cpvert_11MeV_neg15tilt_15rot_det8.npy'
p3967
F0.9214
F0.0079
F19.3109
F0.0347
F0.5608
F0.0052
g11
(g15
S'\x00\x00\x00\x00\x00`c@'
p3968
tp3969
Rp3970
tp3971
a(S'cpvert_11MeV_neg15tilt_15rot_det9.npy'
p3972
F0.3025
F0.0036
F17.7242
F0.0357
F0.1753
F0.0021
g11
(g15
S'\x00\x00\x00\x00\x00\xc0f@'
p3973
tp3974
Rp3975
tp3976
a(S'cpvert_11MeV_neg15tilt_25rot_det10.npy'
p3977
F0.2841
F0.0039
F15.7944
F0.0365
F0.1639
F0.0023
g11
(g15
S'\x00\x00\x00\x00\x00\xc0e@'
p3978
tp3979
Rp3980
tp3981
a(S'cpvert_11MeV_neg15tilt_25rot_det11.npy'
p3982
F0.8653
F0.0061
F19.9611
F0.0272
F0.5258
F0.004
g11
(g15
S'\x00\x00\x00\x00\x00\xa0f@'
p3983
tp3984
Rp3985
tp3986
a(S'cpvert_11MeV_neg15tilt_25rot_det12.npy'
p3987
F1.7842
F0.0092
F19.0425
F0.0394
F1.1544
F0.0068
g11
(g15
S'\x00\x00\x00\x00\x00`g@'
p3988
tp3989
Rp3990
tp3991
a(S'cpvert_11MeV_neg15tilt_25rot_det13.npy'
p3992
F2.8907
F0.0117
F22.2387
F0.0548
F1.9474
F0.009
g11
(g15
S'\x00\x00\x00\x00\x00\x00c@'
p3993
tp3994
Rp3995
tp3996
a(S'cpvert_11MeV_neg15tilt_25rot_det14.npy'
p3997
F4.0392
F0.0124
F27.0407
F0.0954
F2.801
F0.01
g11
(g15
S'\x00\x00\x00\x00\x00\x80a@'
p3998
tp3999
Rp4000
tp4001
a(S'cpvert_11MeV_neg15tilt_25rot_det15.npy'
p4002
F4.9957
F0.0185
F41.4867
F0.315
F3.5094
F0.0143
g11
(g15
S'\x00\x00\x00\x00\x00@R@'
p4003
tp4004
Rp4005
tp4006
a(S'cpvert_11MeV_neg15tilt_25rot_det4.npy'
p4007
F5.054
F0.0152
F40.4762
F0.2756
F3.5298
F0.014
g11
(g15
S'\x00\x00\x00\x00\x00@U@'
p4008
tp4009
Rp4010
tp4011
a(S'cpvert_11MeV_neg15tilt_25rot_det5.npy'
p4012
F4.0922
F0.0146
F25.1363
F0.1018
F2.8091
F0.0115
g11
(g15
S'\x00\x00\x00\x00\x00\x00b@'
p4013
tp4014
Rp4015
tp4016
a(S'cpvert_11MeV_neg15tilt_25rot_det6.npy'
p4017
F2.9832
F0.0126
F19.8936
F0.0577
F1.9933
F0.0093
g11
(g15
S'\x00\x00\x00\x00\x00@b@'
p4018
tp4019
Rp4020
tp4021
a(S'cpvert_11MeV_neg15tilt_25rot_det7.npy'
p4022
F1.8417
F0.0104
F18.0426
F0.0441
F1.1787
F0.0073
g11
(g15
S'\x00\x00\x00\x00\x00 d@'
p4023
tp4024
Rp4025
tp4026
a(S'cpvert_11MeV_neg15tilt_25rot_det8.npy'
p4027
F0.9209
F0.0072
F19.3047
F0.031
F0.5578
F0.0046
g11
(g15
S'\x00\x00\x00\x00\x00 g@'
p4028
tp4029
Rp4030
tp4031
a(S'cpvert_11MeV_neg15tilt_25rot_det9.npy'
p4032
F0.3077
F0.0034
F17.7188
F0.0382
F0.1761
F0.002
g11
(g15
S'\x00\x00\x00\x00\x00\xa0f@'
p4033
tp4034
Rp4035
tp4036
a(S'cpvert_11MeV_neg15tilt_315rot_det10.npy'
p4037
F0.3019
F0.0038
F15.9129
F0.0367
F0.1742
F0.0023
g11
(g15
S'\x00\x00\x00\x00\x00\xc0e@'
p4038
tp4039
Rp4040
tp4041
a(S'cpvert_11MeV_neg15tilt_315rot_det11.npy'
p4042
F0.8732
F0.0071
F20.0327
F0.0308
F0.5346
F0.0048
g11
(g15
S'\x00\x00\x00\x00\x00\xa0g@'
p4043
tp4044
Rp4045
tp4046
a(S'cpvert_11MeV_neg15tilt_315rot_det12.npy'
p4047
F1.7967
F0.0101
F19.1537
F0.0373
F1.162
F0.0077
g11
(g15
S'\x00\x00\x00\x00\x00\xe0g@'
p4048
tp4049
Rp4050
tp4051
a(S'cpvert_11MeV_neg15tilt_315rot_det13.npy'
p4052
F2.961
F0.0142
F22.4048
F0.0605
F1.9762
F0.0109
g11
(g15
S'\x00\x00\x00\x00\x00\x00_@'
p4053
tp4054
Rp4055
tp4056
a(S'cpvert_11MeV_neg15tilt_315rot_det14.npy'
p4057
F4.1554
F0.0147
F26.9862
F0.1067
F2.8166
F0.0109
g11
(g15
S'\x00\x00\x00\x00\x00\x00`@'
p4058
tp4059
Rp4060
tp4061
a(S'cpvert_11MeV_neg15tilt_315rot_det15.npy'
p4062
F5.2044
F0.0192
F42.1908
F0.3079
F3.5686
F0.0154
g11
(g15
S'\x00\x00\x00\x00\x00\xc0P@'
p4063
tp4064
Rp4065
tp4066
a(S'cpvert_11MeV_neg15tilt_315rot_det4.npy'
p4067
F5.2039
F0.0191
F40.2547
F0.3019
F3.5665
F0.0166
g11
(g15
S'\x00\x00\x00\x00\x00\x80R@'
p4068
tp4069
Rp4070
tp4071
a(S'cpvert_11MeV_neg15tilt_315rot_det5.npy'
p4072
F4.1765
F0.0157
F25.1058
F0.1034
F2.8551
F0.0121
g11
(g15
S'\x00\x00\x00\x00\x00 `@'
p4073
tp4074
Rp4075
tp4076
a(S'cpvert_11MeV_neg15tilt_315rot_det6.npy'
p4077
F2.9608
F0.0113
F19.7535
F0.0561
F1.9823
F0.0086
g11
(g15
S'\x00\x00\x00\x00\x00@e@'
p4078
tp4079
Rp4080
tp4081
a(S'cpvert_11MeV_neg15tilt_315rot_det7.npy'
p4082
F1.8061
F0.0101
F17.9342
F0.0412
F1.1683
F0.0073
g11
(g15
S'\x00\x00\x00\x00\x00`e@'
p4083
tp4084
Rp4085
tp4086
a(S'cpvert_11MeV_neg15tilt_315rot_det8.npy'
p4087
F0.864
F0.0077
F19.291
F0.0343
F0.5272
F0.0052
g11
(g15
S'\x00\x00\x00\x00\x00@c@'
p4088
tp4089
Rp4090
tp4091
a(S'cpvert_11MeV_neg15tilt_315rot_det9.npy'
p4092
F0.2979
F0.0038
F17.8478
F0.0333
F0.1704
F0.0022
g11
(g15
S'\x00\x00\x00\x00\x00`f@'
p4093
tp4094
Rp4095
tp4096
a(S'cpvert_11MeV_neg15tilt_325rot_det10.npy'
p4097
F0.29
F0.0036
F15.9392
F0.0344
F0.1655
F0.0022
g11
(g15
S'\x00\x00\x00\x00\x00\xc0h@'
p4098
tp4099
Rp4100
tp4101
a(S'cpvert_11MeV_neg15tilt_325rot_det11.npy'
p4102
F0.8704
F0.0078
F19.9901
F0.032
F0.5312
F0.0052
g11
(g15
S'\x00\x00\x00\x00\x00 e@'
p4103
tp4104
Rp4105
tp4106
a(S'cpvert_11MeV_neg15tilt_325rot_det12.npy'
p4107
F1.7875
F0.0103
F19.0386
F0.0365
F1.1585
F0.0076
g11
(g15
S'\x00\x00\x00\x00\x00\x00f@'
p4108
tp4109
Rp4110
tp4111
a(S'cpvert_11MeV_neg15tilt_325rot_det13.npy'
p4112
F2.9363
F0.0146
F22.3235
F0.0573
F1.9741
F0.0109
g11
(g15
S'\x00\x00\x00\x00\x00\xc0d@'
p4113
tp4114
Rp4115
tp4116
a(S'cpvert_11MeV_neg15tilt_325rot_det14.npy'
p4117
F4.0936
F0.0163
F27.0082
F0.1131
F2.8107
F0.0137
g11
(g15
S'\x00\x00\x00\x00\x00\xc0_@'
p4118
tp4119
Rp4120
tp4121
a(S'cpvert_11MeV_neg15tilt_325rot_det15.npy'
p4122
F5.1839
F0.0155
F42.2238
F0.2785
F3.5951
F0.0132
g11
(g15
S'\x00\x00\x00\x00\x00\xc0V@'
p4123
tp4124
Rp4125
tp4126
a(S'cpvert_11MeV_neg15tilt_325rot_det4.npy'
p4127
F5.2442
F0.0181
F40.43
F0.2648
F3.5923
F0.0167
g11
(g15
S'\x00\x00\x00\x00\x00\xc0R@'
p4128
tp4129
Rp4130
tp4131
a(S'cpvert_11MeV_neg15tilt_325rot_det5.npy'
p4132
F4.1948
F0.0154
F25.2664
F0.1024
F2.8547
F0.0116
g11
(g15
S'\x00\x00\x00\x00\x00\x80a@'
p4133
tp4134
Rp4135
tp4136
a(S'cpvert_11MeV_neg15tilt_325rot_det6.npy'
p4137
F2.9919
F0.0128
F19.8108
F0.0571
F2.0003
F0.0096
g11
(g15
S'\x00\x00\x00\x00\x00\xa0c@'
p4138
tp4139
Rp4140
tp4141
a(S'cpvert_11MeV_neg15tilt_325rot_det7.npy'
p4142
F1.806
F0.0104
F17.9696
F0.0425
F1.1642
F0.0078
g11
(g15
S'\x00\x00\x00\x00\x00@e@'
p4143
tp4144
Rp4145
tp4146
a(S'cpvert_11MeV_neg15tilt_325rot_det8.npy'
p4147
F0.8833
F0.0076
F19.3442
F0.0367
F0.5398
F0.005
g11
(g15
S'\x00\x00\x00\x00\x00\xc0d@'
p4148
tp4149
Rp4150
tp4151
a(S'cpvert_11MeV_neg15tilt_325rot_det9.npy'
p4152
F0.2952
F0.0034
F17.7953
F0.0352
F0.1692
F0.002
g11
(g15
S'\x00\x00\x00\x00\x00\xe0h@'
p4153
tp4154
Rp4155
tp4156
a(S'cpvert_11MeV_neg15tilt_335rot_det10.npy'
p4157
F0.2934
F0.0036
F15.88
F0.0351
F0.1683
F0.0021
g11
(g15
S'\x00\x00\x00\x00\x00 h@'
p4158
tp4159
Rp4160
tp4161
a(S'cpvert_11MeV_neg15tilt_335rot_det11.npy'
p4162
F0.8551
F0.0071
F19.9973
F0.0321
F0.5226
F0.0047
g11
(g15
S'\x00\x00\x00\x00\x00\x00g@'
p4163
tp4164
Rp4165
tp4166
a(S'cpvert_11MeV_neg15tilt_335rot_det12.npy'
p4167
F1.8069
F0.0094
F19.1399
F0.0384
F1.1749
F0.0069
g11
(g15
S'\x00\x00\x00\x00\x00 e@'
p4168
tp4169
Rp4170
tp4171
a(S'cpvert_11MeV_neg15tilt_335rot_det13.npy'
p4172
F2.9046
F0.0114
F22.2471
F0.0544
F1.9592
F0.0085
g11
(g15
S'\x00\x00\x00\x00\x00@e@'
p4173
tp4174
Rp4175
tp4176
a(S'cpvert_11MeV_neg15tilt_335rot_det14.npy'
p4177
F4.0333
F0.0143
F26.8869
F0.109
F2.7775
F0.0116
g11
(g15
S'\x00\x00\x00\x00\x00\xc0a@'
p4178
tp4179
Rp4180
tp4181
a(S'cpvert_11MeV_neg15tilt_335rot_det15.npy'
p4182
F5.1211
F0.0228
F42.487
F0.3071
F3.55
F0.0191
g11
(g15
S'\x00\x00\x00\x00\x00\xc0Q@'
p4183
tp4184
Rp4185
tp4186
a(S'cpvert_11MeV_neg15tilt_335rot_det4.npy'
p4187
F5.2809
F0.0181
F40.788
F0.2783
F3.6249
F0.0161
g11
(g15
S'\x00\x00\x00\x00\x00@T@'
p4188
tp4189
Rp4190
tp4191
a(S'cpvert_11MeV_neg15tilt_335rot_det5.npy'
p4192
F4.2532
F0.0139
F25.2651
F0.0987
F2.8822
F0.0112
g11
(g15
S'\x00\x00\x00\x00\x00`a@'
p4193
tp4194
Rp4195
tp4196
a(S'cpvert_11MeV_neg15tilt_335rot_det6.npy'
p4197
F3.0144
F0.0141
F19.8323
F0.0529
F2.0043
F0.0101
g11
(g15
S'\x00\x00\x00\x00\x00@c@'
p4198
tp4199
Rp4200
tp4201
a(S'cpvert_11MeV_neg15tilt_335rot_det7.npy'
p4202
F1.8252
F0.0107
F18.0038
F0.0411
F1.1732
F0.0073
g11
(g15
S'\x00\x00\x00\x00\x00@h@'
p4203
tp4204
Rp4205
tp4206
a(S'cpvert_11MeV_neg15tilt_335rot_det8.npy'
p4207
F0.9009
F0.0069
F19.3062
F0.0338
F0.5506
F0.0046
g11
(g15
S'\x00\x00\x00\x00\x00\x80d@'
p4208
tp4209
Rp4210
tp4211
a(S'cpvert_11MeV_neg15tilt_335rot_det9.npy'
p4212
F0.2929
F0.0039
F17.7643
F0.0401
F0.1683
F0.0023
g11
(g15
S'\x00\x00\x00\x00\x00 d@'
p4213
tp4214
Rp4215
tp4216
a(S'cpvert_11MeV_neg15tilt_345rot_det10.npy'
p4217
F0.2898
F0.0036
F15.9424
F0.0377
F0.1661
F0.0022
g11
(g15
S'\x00\x00\x00\x00\x00`d@'
p4218
tp4219
Rp4220
tp4221
a(S'cpvert_11MeV_neg15tilt_345rot_det11.npy'
p4222
F0.8648
F0.0073
F19.9781
F0.0301
F0.5284
F0.005
g11
(g15
S'\x00\x00\x00\x00\x00\xe0g@'
p4223
tp4224
Rp4225
tp4226
a(S'cpvert_11MeV_neg15tilt_345rot_det12.npy'
p4227
F1.7702
F0.0088
F19.0643
F0.0385
F1.1502
F0.0064
g11
(g15
S'\x00\x00\x00\x00\x00\x80j@'
p4228
tp4229
Rp4230
tp4231
a(S'cpvert_11MeV_neg15tilt_345rot_det13.npy'
p4232
F2.9127
F0.013
F22.3364
F0.0538
F1.9628
F0.0099
g11
(g15
S'\x00\x00\x00\x00\x00\x00c@'
p4233
tp4234
Rp4235
tp4236
a(S'cpvert_11MeV_neg15tilt_345rot_det14.npy'
p4237
F4.057
F0.0142
F26.9698
F0.107
F2.8029
F0.0109
g11
(g15
S'\x00\x00\x00\x00\x00@`@'
p4238
tp4239
Rp4240
tp4241
a(S'cpvert_11MeV_neg15tilt_345rot_det15.npy'
p4242
F5.0688
F0.0177
F41.7724
F0.2704
F3.5251
F0.0141
g11
(g15
S'\x00\x00\x00\x00\x00@W@'
p4243
tp4244
Rp4245
tp4246
a(S'cpvert_11MeV_neg15tilt_345rot_det4.npy'
p4247
F5.2392
F0.0168
F40.4058
F0.2996
F3.6021
F0.0147
g11
(g15
S'\x00\x00\x00\x00\x00\x00T@'
p4248
tp4249
Rp4250
tp4251
a(S'cpvert_11MeV_neg15tilt_345rot_det5.npy'
p4252
F4.2306
F0.0128
F25.1571
F0.1074
F2.8605
F0.0108
g11
(g15
S'\x00\x00\x00\x00\x00\xc0a@'
p4253
tp4254
Rp4255
tp4256
a(S'cpvert_11MeV_neg15tilt_345rot_det6.npy'
p4257
F3.071
F0.0115
F19.812
F0.0549
F2.0351
F0.0088
g11
(g15
S'\x00\x00\x00\x00\x00@c@'
p4258
tp4259
Rp4260
tp4261
a(S'cpvert_11MeV_neg15tilt_345rot_det7.npy'
p4262
F1.8318
F0.0109
F17.8925
F0.0426
F1.1707
F0.0076
g11
(g15
S'\x00\x00\x00\x00\x00\xa0d@'
p4263
tp4264
Rp4265
tp4266
a(S'cpvert_11MeV_neg15tilt_345rot_det8.npy'
p4267
F0.9018
F0.0071
F19.2567
F0.0272
F0.5494
F0.0046
g11
(g15
S'\x00\x00\x00\x00\x00\xc0f@'
p4268
tp4269
Rp4270
tp4271
a(S'cpvert_11MeV_neg15tilt_345rot_det9.npy'
p4272
F0.3018
F0.0036
F17.7318
F0.0359
F0.1741
F0.0021
g11
(g15
S'\x00\x00\x00\x00\x00\x00h@'
p4273
tp4274
Rp4275
tp4276
a(S'cpvert_11MeV_neg15tilt_355rot_det10.npy'
p4277
F0.2923
F0.0038
F15.8394
F0.0359
F0.1671
F0.0022
g11
(g15
S'\x00\x00\x00\x00\x00 e@'
p4278
tp4279
Rp4280
tp4281
a(S'cpvert_11MeV_neg15tilt_355rot_det11.npy'
p4282
F0.8544
F0.0069
F20.009
F0.0336
F0.5207
F0.0044
g11
(g15
S'\x00\x00\x00\x00\x00\xc0d@'
p4283
tp4284
Rp4285
tp4286
a(S'cpvert_11MeV_neg15tilt_355rot_det12.npy'
p4287
F1.746
F0.0103
F19.0126
F0.0397
F1.1286
F0.0075
g11
(g15
S'\x00\x00\x00\x00\x00`h@'
p4288
tp4289
Rp4290
tp4291
a(S'cpvert_11MeV_neg15tilt_355rot_det13.npy'
p4292
F2.8694
F0.0143
F22.2913
F0.057
F1.9379
F0.0108
g11
(g15
S'\x00\x00\x00\x00\x00`g@'
p4293
tp4294
Rp4295
tp4296
a(S'cpvert_11MeV_neg15tilt_355rot_det14.npy'
p4297
F4.026
F0.0125
F27.0744
F0.0954
F2.7758
F0.0102
g11
(g15
S'\x00\x00\x00\x00\x00\xa0b@'
p4298
tp4299
Rp4300
tp4301
a(S'cpvert_11MeV_neg15tilt_355rot_det15.npy'
p4302
F5.0501
F0.0182
F41.8838
F0.2982
F3.5389
F0.0173
g11
(g15
S'\x00\x00\x00\x00\x00\xc0R@'
p4303
tp4304
Rp4305
tp4306
a(S'cpvert_11MeV_neg15tilt_355rot_det4.npy'
p4307
F5.1988
F0.0172
F40.5164
F0.3048
F3.583
F0.0148
g11
(g15
S'\x00\x00\x00\x00\x00\x00N@'
p4308
tp4309
Rp4310
tp4311
a(S'cpvert_11MeV_neg15tilt_355rot_det5.npy'
p4312
F4.224
F0.0145
F25.2636
F0.1073
F2.8696
F0.012
g11
(g15
S'\x00\x00\x00\x00\x00\xc0\\@'
p4313
tp4314
Rp4315
tp4316
a(S'cpvert_11MeV_neg15tilt_355rot_det6.npy'
p4317
F3.0265
F0.0126
F19.6234
F0.0594
F1.9988
F0.0093
g11
(g15
S'\x00\x00\x00\x00\x00`c@'
p4318
tp4319
Rp4320
tp4321
a(S'cpvert_11MeV_neg15tilt_355rot_det7.npy'
p4322
F1.8697
F0.0113
F17.9696
F0.0458
F1.1987
F0.0081
g11
(g15
S'\x00\x00\x00\x00\x00\x00e@'
p4323
tp4324
Rp4325
tp4326
a(S'cpvert_11MeV_neg15tilt_355rot_det8.npy'
p4327
F0.8997
F0.0073
F19.2791
F0.0336
F0.5468
F0.0049
g11
(g15
S'\x00\x00\x00\x00\x00\xa0d@'
p4328
tp4329
Rp4330
tp4331
a(S'cpvert_11MeV_neg15tilt_355rot_det9.npy'
p4332
F0.3038
F0.004
F17.7204
F0.0341
F0.1758
F0.0024
g11
(g15
S'\x00\x00\x00\x00\x00\xc0f@'
p4333
tp4334
Rp4335
tp4336
a(S'cpvert_11MeV_neg15tilt_35rot_det10.npy'
p4337
F0.2883
F0.0032
F15.8447
F0.0344
F0.1664
F0.0019
g11
(g15
S'\x00\x00\x00\x00\x00\xe0f@'
p4338
tp4339
Rp4340
tp4341
a(S'cpvert_11MeV_neg15tilt_35rot_det11.npy'
p4342
F0.8842
F0.0074
F19.9775
F0.0345
F0.5403
F0.0049
g11
(g15
S'\x00\x00\x00\x00\x00\xc0c@'
p4343
tp4344
Rp4345
tp4346
a(S'cpvert_11MeV_neg15tilt_35rot_det12.npy'
p4347
F1.7718
F0.0102
F19.0433
F0.0357
F1.1442
F0.0073
g11
(g15
S'\x00\x00\x00\x00\x00\xc0e@'
p4348
tp4349
Rp4350
tp4351
a(S'cpvert_11MeV_neg15tilt_35rot_det13.npy'
p4352
F2.8932
F0.013
F22.2579
F0.0535
F1.9476
F0.0102
g11
(g15
S'\x00\x00\x00\x00\x00\xa0e@'
p4353
tp4354
Rp4355
tp4356
a(S'cpvert_11MeV_neg15tilt_35rot_det14.npy'
p4357
F4.0414
F0.0127
F26.8025
F0.0941
F2.8008
F0.0102
g11
(g15
S'\x00\x00\x00\x00\x00`b@'
p4358
tp4359
Rp4360
tp4361
a(S'cpvert_11MeV_neg15tilt_35rot_det15.npy'
p4362
F5.011
F0.0137
F41.1871
F0.2787
F3.5194
F0.0131
g11
(g15
S'\x00\x00\x00\x00\x00@V@'
p4363
tp4364
Rp4365
tp4366
a(S'cpvert_11MeV_neg15tilt_35rot_det4.npy'
p4367
F5.0283
F0.0172
F40.7171
F0.3158
F3.5135
F0.0159
g11
(g15
S'\x00\x00\x00\x00\x00\x00S@'
p4368
tp4369
Rp4370
tp4371
a(S'cpvert_11MeV_neg15tilt_35rot_det5.npy'
p4372
F4.0951
F0.0147
F25.2828
F0.1125
F2.8214
F0.0133
g11
(g15
S'\x00\x00\x00\x00\x00@Y@'
p4373
tp4374
Rp4375
tp4376
a(S'cpvert_11MeV_neg15tilt_35rot_det6.npy'
p4377
F2.9152
F0.014
F19.8106
F0.0606
F1.9484
F0.0105
g11
(g15
S'\x00\x00\x00\x00\x00\x00d@'
p4378
tp4379
Rp4380
tp4381
a(S'cpvert_11MeV_neg15tilt_35rot_det7.npy'
p4382
F1.8023
F0.0093
F17.9323
F0.0454
F1.1592
F0.0067
g11
(g15
S'\x00\x00\x00\x00\x00\xc0d@'
p4383
tp4384
Rp4385
tp4386
a(S'cpvert_11MeV_neg15tilt_35rot_det8.npy'
p4387
F0.904
F0.0084
F19.2903
F0.037
F0.5498
F0.0056
g11
(g15
S'\x00\x00\x00\x00\x00 c@'
p4388
tp4389
Rp4390
tp4391
a(S'cpvert_11MeV_neg15tilt_35rot_det9.npy'
p4392
F0.3124
F0.0042
F17.836
F0.0356
F0.1792
F0.0025
g11
(g15
S'\x00\x00\x00\x00\x00\xc0e@'
p4393
tp4394
Rp4395
tp4396
a(S'cpvert_11MeV_neg15tilt_45rot_det10.npy'
p4397
F0.2956
F0.0043
F15.8947
F0.0368
F0.1715
F0.0026
g11
(g15
S'\x00\x00\x00\x00\x00\xe0e@'
p4398
tp4399
Rp4400
tp4401
a(S'cpvert_11MeV_neg15tilt_45rot_det11.npy'
p4402
F0.8883
F0.0066
F19.9523
F0.0292
F0.5408
F0.0045
g11
(g15
S'\x00\x00\x00\x00\x00`d@'
p4403
tp4404
Rp4405
tp4406
a(S'cpvert_11MeV_neg15tilt_45rot_det12.npy'
p4407
F1.8053
F0.01
F19.0113
F0.0438
F1.1643
F0.0073
g11
(g15
S'\x00\x00\x00\x00\x00 e@'
p4408
tp4409
Rp4410
tp4411
a(S'cpvert_11MeV_neg15tilt_45rot_det13.npy'
p4412
F2.9212
F0.0134
F22.3389
F0.0531
F1.9591
F0.0099
g11
(g15
S'\x00\x00\x00\x00\x00@e@'
p4413
tp4414
Rp4415
tp4416
a(S'cpvert_11MeV_neg15tilt_45rot_det14.npy'
p4417
F4.0689
F0.0132
F26.8279
F0.1041
F2.8162
F0.0118
g11
(g15
S'\x00\x00\x00\x00\x00@a@'
p4418
tp4419
Rp4420
tp4421
a(S'cpvert_11MeV_neg15tilt_45rot_det15.npy'
p4422
F5.0303
F0.0206
F41.9992
F0.31
F3.5264
F0.0164
g11
(g15
S'\x00\x00\x00\x00\x00\x80S@'
p4423
tp4424
Rp4425
tp4426
a(S'cpvert_11MeV_neg15tilt_45rot_det4.npy'
p4427
F4.979
F0.0216
F40.2424
F0.3451
F3.4986
F0.0174
g11
(g15
S'\x00\x00\x00\x00\x00\x00P@'
p4428
tp4429
Rp4430
tp4431
a(S'cpvert_11MeV_neg15tilt_45rot_det5.npy'
p4432
F4.0584
F0.015
F25.3238
F0.0937
F2.8028
F0.0129
g11
(g15
S'\x00\x00\x00\x00\x00 b@'
p4433
tp4434
Rp4435
tp4436
a(S'cpvert_11MeV_neg15tilt_45rot_det6.npy'
p4437
F2.8893
F0.0175
F19.8095
F0.066
F1.944
F0.0131
g11
(g15
S'\x00\x00\x00\x00\x00``@'
p4438
tp4439
Rp4440
tp4441
a(S'cpvert_11MeV_neg15tilt_45rot_det7.npy'
p4442
F1.7962
F0.0103
F18.0652
F0.0377
F1.1569
F0.0079
g11
(g15
S'\x00\x00\x00\x00\x00`f@'
p4443
tp4444
Rp4445
tp4446
a(S'cpvert_11MeV_neg15tilt_45rot_det8.npy'
p4447
F0.8897
F0.0083
F19.3413
F0.0354
F0.5404
F0.0054
g11
(g15
S'\x00\x00\x00\x00\x00@d@'
p4448
tp4449
Rp4450
tp4451
a(S'cpvert_11MeV_neg15tilt_45rot_det9.npy'
p4452
F0.3131
F0.0039
F17.8426
F0.0358
F0.1807
F0.0023
g11
(g15
S'\x00\x00\x00\x00\x00\xa0e@'
p4453
tp4454
Rp4455
tp4456
a(S'cpvert_11MeV_neg15tilt_55rot_det10.npy'
p4457
F0.2999
F0.0034
F15.8292
F0.0331
F0.1725
F0.002
g11
(g15
S'\x00\x00\x00\x00\x00\xc0h@'
p4458
tp4459
Rp4460
tp4461
a(S'cpvert_11MeV_neg15tilt_55rot_det11.npy'
p4462
F0.8814
F0.0073
F19.9053
F0.0332
F0.537
F0.0048
g11
(g15
S'\x00\x00\x00\x00\x00\x80d@'
p4463
tp4464
Rp4465
tp4466
a(S'cpvert_11MeV_neg15tilt_55rot_det12.npy'
p4467
F1.8006
F0.0102
F19.0265
F0.0427
F1.1598
F0.0072
g11
(g15
S'\x00\x00\x00\x00\x00\xa0e@'
p4468
tp4469
Rp4470
tp4471
a(S'cpvert_11MeV_neg15tilt_55rot_det13.npy'
p4472
F2.9609
F0.0144
F22.2418
F0.0617
F1.9868
F0.0108
g11
(g15
S'\x00\x00\x00\x00\x00\x00b@'
p4473
tp4474
Rp4475
tp4476
a(S'cpvert_11MeV_neg15tilt_55rot_det14.npy'
p4477
F4.0504
F0.0141
F26.7819
F0.0983
F2.7855
F0.0112
g11
(g15
S'\x00\x00\x00\x00\x00\x00b@'
p4478
tp4479
Rp4480
tp4481
a(S'cpvert_11MeV_neg15tilt_55rot_det15.npy'
p4482
F5.0713
F0.0172
F41.7234
F0.2809
F3.557
F0.015
g11
(g15
S'\x00\x00\x00\x00\x00\x80U@'
p4483
tp4484
Rp4485
tp4486
a(S'cpvert_11MeV_neg15tilt_55rot_det4.npy'
p4487
F5.0233
F0.0173
F40.7673
F0.2924
F3.5465
F0.0153
g11
(g15
S'\x00\x00\x00\x00\x00\xc0Q@'
p4488
tp4489
Rp4490
tp4491
a(S'cpvert_11MeV_neg15tilt_55rot_det5.npy'
p4492
F4.0231
F0.0137
F25.0304
F0.1022
F2.7785
F0.0114
g11
(g15
S'\x00\x00\x00\x00\x00\x00`@'
p4493
tp4494
Rp4495
tp4496
a(S'cpvert_11MeV_neg15tilt_55rot_det6.npy'
p4497
F2.8592
F0.0126
F19.699
F0.0566
F1.9189
F0.0092
g11
(g15
S'\x00\x00\x00\x00\x00\xc0f@'
p4498
tp4499
Rp4500
tp4501
a(S'cpvert_11MeV_neg15tilt_55rot_det7.npy'
p4502
F1.7638
F0.01
F17.9284
F0.0441
F1.1374
F0.0071
g11
(g15
S'\x00\x00\x00\x00\x00\x80e@'
p4503
tp4504
Rp4505
tp4506
a(S'cpvert_11MeV_neg15tilt_55rot_det8.npy'
p4507
F0.8908
F0.0066
F19.3739
F0.0287
F0.5417
F0.0045
g11
(g15
S'\x00\x00\x00\x00\x00\xc0e@'
p4508
tp4509
Rp4510
tp4511
a(S'cpvert_11MeV_neg15tilt_55rot_det9.npy'
p4512
F0.2997
F0.0043
F17.8199
F0.0409
F0.1731
F0.0025
g11
(g15
S'\x00\x00\x00\x00\x00`c@'
p4513
tp4514
Rp4515
tp4516
a(S'cpvert_11MeV_neg15tilt_5rot_det10.npy'
p4517
F0.2895
F0.0037
F15.8494
F0.0361
F0.1667
F0.0022
g11
(g15
S'\x00\x00\x00\x00\x00\x00f@'
p4518
tp4519
Rp4520
tp4521
a(S'cpvert_11MeV_neg15tilt_5rot_det11.npy'
p4522
F0.8537
F0.0069
F19.9704
F0.0303
F0.5234
F0.0047
g11
(g15
S'\x00\x00\x00\x00\x00\x80f@'
p4523
tp4524
Rp4525
tp4526
a(S'cpvert_11MeV_neg15tilt_5rot_det12.npy'
p4527
F1.7557
F0.0103
F18.994
F0.0393
F1.1377
F0.0075
g11
(g15
S'\x00\x00\x00\x00\x00\x00j@'
p4528
tp4529
Rp4530
tp4531
a(S'cpvert_11MeV_neg15tilt_5rot_det13.npy'
p4532
F2.8651
F0.0134
F22.2111
F0.0563
F1.934
F0.0103
g11
(g15
S'\x00\x00\x00\x00\x00\xe0e@'
p4533
tp4534
Rp4535
tp4536
a(S'cpvert_11MeV_neg15tilt_5rot_det14.npy'
p4537
F4.039
F0.0125
F27.006
F0.1026
F2.8071
F0.0108
g11
(g15
S'\x00\x00\x00\x00\x00\xa0b@'
p4538
tp4539
Rp4540
tp4541
a(S'cpvert_11MeV_neg15tilt_5rot_det15.npy'
p4542
F5.0435
F0.0158
F41.8814
F0.2702
F3.5364
F0.0153
g11
(g15
S'\x00\x00\x00\x00\x00\x00T@'
p4543
tp4544
Rp4545
tp4546
a(S'cpvert_11MeV_neg15tilt_5rot_det4.npy'
p4547
F5.1529
F0.015
F40.4987
F0.2546
F3.5926
F0.0141
g11
(g15
S'\x00\x00\x00\x00\x00\xc0S@'
p4548
tp4549
Rp4550
tp4551
a(S'cpvert_11MeV_neg15tilt_5rot_det5.npy'
p4552
F4.1534
F0.0156
F25.1767
F0.1039
F2.8302
F0.0122
g11
(g15
S'\x00\x00\x00\x00\x00`a@'
p4553
tp4554
Rp4555
tp4556
a(S'cpvert_11MeV_neg15tilt_5rot_det6.npy'
p4557
F3.025
F0.0126
F19.7729
F0.0578
F2.0033
F0.0097
g11
(g15
S'\x00\x00\x00\x00\x00@c@'
p4558
tp4559
Rp4560
tp4561
a(S'cpvert_11MeV_neg15tilt_5rot_det7.npy'
p4562
F1.8603
F0.0113
F17.9819
F0.0461
F1.1881
F0.0082
g11
(g15
S'\x00\x00\x00\x00\x00\xc0c@'
p4563
tp4564
Rp4565
tp4566
a(S'cpvert_11MeV_neg15tilt_5rot_det8.npy'
p4567
F0.9106
F0.0071
F19.2391
F0.0325
F0.5533
F0.0048
g11
(g15
S'\x00\x00\x00\x00\x00\xe0d@'
p4568
tp4569
Rp4570
tp4571
a(S'cpvert_11MeV_neg15tilt_5rot_det9.npy'
p4572
F0.3164
F0.0039
F17.7436
F0.0358
F0.1828
F0.0023
g11
(g15
S'\x00\x00\x00\x00\x00\x80f@'
p4573
tp4574
Rp4575
tp4576
a(S'cpvert_11MeV_neg15tilt_65rot_det10.npy'
p4577
F0.2981
F0.0041
F15.8276
F0.0355
F0.1729
F0.0024
g11
(g15
S'\x00\x00\x00\x00\x00 c@'
p4578
tp4579
Rp4580
tp4581
a(S'cpvert_11MeV_neg15tilt_65rot_det11.npy'
p4582
F0.8915
F0.0073
F19.9517
F0.0343
F0.5411
F0.0049
g11
(g15
S'\x00\x00\x00\x00\x00\xa0d@'
p4583
tp4584
Rp4585
tp4586
a(S'cpvert_11MeV_neg15tilt_65rot_det12.npy'
p4587
F1.8362
F0.0105
F19.0863
F0.0394
F1.1756
F0.0077
g11
(g15
S'\x00\x00\x00\x00\x00\xa0c@'
p4588
tp4589
Rp4590
tp4591
a(S'cpvert_11MeV_neg15tilt_65rot_det13.npy'
p4592
F2.9441
F0.0145
F22.0942
F0.0622
F1.9556
F0.0109
g11
(g15
S'\x00\x00\x00\x00\x00\xe0a@'
p4593
tp4594
Rp4595
tp4596
a(S'cpvert_11MeV_neg15tilt_65rot_det14.npy'
p4597
F4.115
F0.015
F26.9426
F0.1103
F2.8203
F0.0124
g11
(g15
S'\x00\x00\x00\x00\x00 `@'
p4598
tp4599
Rp4600
tp4601
a(S'cpvert_11MeV_neg15tilt_65rot_det15.npy'
p4602
F5.1069
F0.0184
F41.1784
F0.3369
F3.5677
F0.0158
g11
(g15
S'\x00\x00\x00\x00\x00\x00N@'
p4603
tp4604
Rp4605
tp4606
a(S'cpvert_11MeV_neg15tilt_65rot_det4.npy'
p4607
F5.0159
F0.0159
F40.7217
F0.3206
F3.5006
F0.0165
g11
(g15
S'\x00\x00\x00\x00\x00@Q@'
p4608
tp4609
Rp4610
tp4611
a(S'cpvert_11MeV_neg15tilt_65rot_det5.npy'
p4612
F4.0279
F0.0125
F25.0251
F0.1061
F2.7841
F0.0106
g11
(g15
S'\x00\x00\x00\x00\x00\xc0`@'
p4613
tp4614
Rp4615
tp4616
a(S'cpvert_11MeV_neg15tilt_65rot_det6.npy'
p4617
F2.8986
F0.0119
F19.72
F0.0575
F1.9493
F0.0098
g11
(g15
S'\x00\x00\x00\x00\x00``@'
p4618
tp4619
Rp4620
tp4621
a(S'cpvert_11MeV_neg15tilt_65rot_det7.npy'
p4622
F1.761
F0.0101
F18.0338
F0.0441
F1.1407
F0.0074
g11
(g15
S'\x00\x00\x00\x00\x00@d@'
p4623
tp4624
Rp4625
tp4626
a(S'cpvert_11MeV_neg15tilt_65rot_det8.npy'
p4627
F0.8773
F0.0075
F19.3637
F0.0383
F0.5354
F0.005
g11
(g15
S'\x00\x00\x00\x00\x00`a@'
p4628
tp4629
Rp4630
tp4631
a(S'cpvert_11MeV_neg15tilt_65rot_det9.npy'
p4632
F0.2942
F0.0041
F17.8129
F0.0367
F0.1684
F0.0024
g11
(g15
S'\x00\x00\x00\x00\x00 g@'
p4633
tp4634
Rp4635
tp4636
a(S'cpvert_11MeV_neg15tilt_75rot_det10.npy'
p4637
F0.2959
F0.0041
F15.8233
F0.0387
F0.1695
F0.0024
g11
(g15
S'\x00\x00\x00\x00\x00`e@'
p4638
tp4639
Rp4640
tp4641
a(S'cpvert_11MeV_neg15tilt_75rot_det11.npy'
p4642
F0.8853
F0.0085
F20.0126
F0.0403
F0.536
F0.0058
g11
(g15
S'\x00\x00\x00\x00\x00\xe0`@'
p4643
tp4644
Rp4645
tp4646
a(S'cpvert_11MeV_neg15tilt_75rot_det12.npy'
p4647
F1.8492
F0.01
F19.0781
F0.039
F1.183
F0.007
g11
(g15
S'\x00\x00\x00\x00\x00 h@'
p4648
tp4649
Rp4650
tp4651
a(S'cpvert_11MeV_neg15tilt_75rot_det13.npy'
p4652
F2.9668
F0.0123
F22.2032
F0.0547
F1.9685
F0.0099
g11
(g15
S'\x00\x00\x00\x00\x00\xe0c@'
p4653
tp4654
Rp4655
tp4656
a(S'cpvert_11MeV_neg15tilt_75rot_det14.npy'
p4657
F4.1679
F0.0156
F26.9479
F0.1207
F2.8578
F0.0128
g11
(g15
S'\x00\x00\x00\x00\x00\xc0]@'
p4658
tp4659
Rp4660
tp4661
a(S'cpvert_11MeV_neg15tilt_75rot_det15.npy'
p4662
F5.107
F0.019
F41.0774
F0.2977
F3.5574
F0.0175
g11
(g15
S'\x00\x00\x00\x00\x00\x00N@'
p4663
tp4664
Rp4665
tp4666
a(S'cpvert_11MeV_neg15tilt_75rot_det4.npy'
p4667
F4.993
F0.0202
F40.1504
F0.2907
F3.5113
F0.0168
g11
(g15
S'\x00\x00\x00\x00\x00\x00W@'
p4668
tp4669
Rp4670
tp4671
a(S'cpvert_11MeV_neg15tilt_75rot_det5.npy'
p4672
F4.0049
F0.0137
F25.0997
F0.1067
F2.7712
F0.0116
g11
(g15
S'\x00\x00\x00\x00\x00\xc0`@'
p4673
tp4674
Rp4675
tp4676
a(S'cpvert_11MeV_neg15tilt_75rot_det6.npy'
p4677
F2.8749
F0.013
F19.7545
F0.0544
F1.9391
F0.0106
g11
(g15
S'\x00\x00\x00\x00\x00\xa0b@'
p4678
tp4679
Rp4680
tp4681
a(S'cpvert_11MeV_neg15tilt_75rot_det7.npy'
p4682
F1.7548
F0.0099
F17.9624
F0.0439
F1.1383
F0.0073
g11
(g15
S'\x00\x00\x00\x00\x00`e@'
p4683
tp4684
Rp4685
tp4686
a(S'cpvert_11MeV_neg15tilt_75rot_det8.npy'
p4687
F0.8702
F0.0059
F19.3994
F0.0321
F0.5323
F0.0041
g11
(g15
S'\x00\x00\x00\x00\x00\x00e@'
p4688
tp4689
Rp4690
tp4691
a(S'cpvert_11MeV_neg15tilt_75rot_det9.npy'
p4692
F0.3013
F0.0036
F17.8919
F0.04
F0.1726
F0.0021
g11
(g15
S'\x00\x00\x00\x00\x00@c@'
p4693
tp4694
Rp4695
tp4696
a(S'cpvert_11MeV_neg15tilt_85rot_det10.npy'
p4697
F0.2871
F0.004
F15.8747
F0.0359
F0.1659
F0.0023
g11
(g15
S'\x00\x00\x00\x00\x00\xc0d@'
p4698
tp4699
Rp4700
tp4701
a(S'cpvert_11MeV_neg15tilt_85rot_det11.npy'
p4702
F0.8974
F0.0073
F19.9916
F0.0311
F0.5428
F0.0051
g11
(g15
S'\x00\x00\x00\x00\x00\xa0a@'
p4703
tp4704
Rp4705
tp4706
a(S'cpvert_11MeV_neg15tilt_85rot_det12.npy'
p4707
F1.8666
F0.0107
F19.1678
F0.0415
F1.1921
F0.0078
g11
(g15
S'\x00\x00\x00\x00\x00\x00f@'
p4708
tp4709
Rp4710
tp4711
a(S'cpvert_11MeV_neg15tilt_85rot_det13.npy'
p4712
F2.9819
F0.0132
F22.1141
F0.0556
F1.9725
F0.01
g11
(g15
S'\x00\x00\x00\x00\x00`d@'
p4713
tp4714
Rp4715
tp4716
a(S'cpvert_11MeV_neg15tilt_85rot_det14.npy'
p4717
F4.1668
F0.0138
F26.8899
F0.1084
F2.8383
F0.0115
g11
(g15
S'\x00\x00\x00\x00\x00``@'
p4718
tp4719
Rp4720
tp4721
a(S'cpvert_11MeV_neg15tilt_85rot_det15.npy'
p4722
F5.1342
F0.0213
F41.5096
F0.3273
F3.573
F0.0193
g11
(g15
S'\x00\x00\x00\x00\x00@R@'
p4723
tp4724
Rp4725
tp4726
a(S'cpvert_11MeV_neg15tilt_85rot_det4.npy'
p4727
F5.0034
F0.0198
F40.0065
F0.2989
F3.4795
F0.0176
g11
(g15
S'\x00\x00\x00\x00\x00\x80R@'
p4728
tp4729
Rp4730
tp4731
a(S'cpvert_11MeV_neg15tilt_85rot_det5.npy'
p4732
F3.9952
F0.0147
F25.0914
F0.1043
F2.7685
F0.0118
g11
(g15
S'\x00\x00\x00\x00\x00\xa0`@'
p4733
tp4734
Rp4735
tp4736
a(S'cpvert_11MeV_neg15tilt_85rot_det6.npy'
p4737
F2.8462
F0.0144
F19.7963
F0.0588
F1.9124
F0.0104
g11
(g15
S'\x00\x00\x00\x00\x00\x80d@'
p4738
tp4739
Rp4740
tp4741
a(S'cpvert_11MeV_neg15tilt_85rot_det7.npy'
p4742
F1.75
F0.0108
F17.9192
F0.0467
F1.1351
F0.0079
g11
(g15
S'\x00\x00\x00\x00\x00@d@'
p4743
tp4744
Rp4745
tp4746
a(S'cpvert_11MeV_neg15tilt_85rot_det8.npy'
p4747
F0.8538
F0.0071
F19.3818
F0.036
F0.521
F0.0048
g11
(g15
S'\x00\x00\x00\x00\x00\x80b@'
p4748
tp4749
Rp4750
tp4751
a(S'cpvert_11MeV_neg15tilt_85rot_det9.npy'
p4752
F0.2988
F0.0042
F17.9282
F0.0382
F0.1712
F0.0025
g11
(g15
S'\x00\x00\x00\x00\x00\xe0b@'
p4753
tp4754
Rp4755
tp4756
a(S'cpvert_11MeV_neg15tilt_95rot_det10.npy'
p4757
F0.2881
F0.0038
F15.8792
F0.0389
F0.1655
F0.0023
g11
(g15
S'\x00\x00\x00\x00\x00\xc0d@'
p4758
tp4759
Rp4760
tp4761
a(S'cpvert_11MeV_neg15tilt_95rot_det11.npy'
p4762
F0.8658
F0.0077
F20.0493
F0.0313
F0.5247
F0.005
g11
(g15
S'\x00\x00\x00\x00\x00`d@'
p4763
tp4764
Rp4765
tp4766
a(S'cpvert_11MeV_neg15tilt_95rot_det12.npy'
p4767
F1.8108
F0.0104
F19.0462
F0.0423
F1.1547
F0.0073
g11
(g15
S'\x00\x00\x00\x00\x00\xe0d@'
p4768
tp4769
Rp4770
tp4771
a(S'cpvert_11MeV_neg15tilt_95rot_det13.npy'
p4772
F3.0082
F0.0126
F22.2615
F0.0538
F1.9908
F0.0096
g11
(g15
S'\x00\x00\x00\x00\x00\x80d@'
p4773
tp4774
Rp4775
tp4776
a(S'cpvert_11MeV_neg15tilt_95rot_det14.npy'
p4777
F4.1955
F0.0151
F26.5473
F0.1188
F2.8493
F0.0119
g11
(g15
S'\x00\x00\x00\x00\x00\x80Z@'
p4778
tp4779
Rp4780
tp4781
a(S'cpvert_11MeV_neg15tilt_95rot_det15.npy'
p4782
F5.1988
F0.0179
F41.8372
F0.3313
F3.5826
F0.0168
g11
(g15
S'\x00\x00\x00\x00\x00\x00R@'
p4783
tp4784
Rp4785
tp4786
a(S'cpvert_11MeV_neg15tilt_95rot_det4.npy'
p4787
F5.0753
F0.015
F39.6926
F0.2761
F3.5467
F0.0144
g11
(g15
S'\x00\x00\x00\x00\x00\xc0S@'
p4788
tp4789
Rp4790
tp4791
a(S'cpvert_11MeV_neg15tilt_95rot_det5.npy'
p4792
F4.0354
F0.0142
F25.1039
F0.1063
F2.7956
F0.0118
g11
(g15
S'\x00\x00\x00\x00\x00\xe0a@'
p4793
tp4794
Rp4795
tp4796
a(S'cpvert_11MeV_neg15tilt_95rot_det6.npy'
p4797
F2.8678
F0.0129
F19.8368
F0.0542
F1.9348
F0.0097
g11
(g15
S'\x00\x00\x00\x00\x00\x00d@'
p4798
tp4799
Rp4800
tp4801
a(S'cpvert_11MeV_neg15tilt_95rot_det7.npy'
p4802
F1.7341
F0.0111
F17.9807
F0.0446
F1.1262
F0.008
g11
(g15
S'\x00\x00\x00\x00\x00\xc0d@'
p4803
tp4804
Rp4805
tp4806
a(S'cpvert_11MeV_neg15tilt_95rot_det8.npy'
p4807
F0.8629
F0.0076
F19.3644
F0.0318
F0.5265
F0.0051
g11
(g15
S'\x00\x00\x00\x00\x00`e@'
p4808
tp4809
Rp4810
tp4811
a(S'cpvert_11MeV_neg15tilt_95rot_det9.npy'
p4812
F0.2831
F0.0039
F17.8887
F0.0359
F0.1624
F0.0023
g11
(g15
S'\x00\x00\x00\x00\x00@f@'
p4813
tp4814
Rp4815
tp4816
a(S'cpvert_11MeV_neg30tilt_105rot_det10.npy'
p4817
F0.2881
F0.0026
F15.8535
F0.0224
F0.1672
F0.0015
g11
(g15
S'\x00\x00\x00\x00\x00\xe0{@'
p4818
tp4819
Rp4820
tp4821
a(S'cpvert_11MeV_neg30tilt_105rot_det11.npy'
p4822
F0.8618
F0.0048
F19.9575
F0.0208
F0.5272
F0.0031
g11
(g15
S'\x00\x00\x00\x00\x00\xa0x@'
p4823
tp4824
Rp4825
tp4826
a(S'cpvert_11MeV_neg30tilt_105rot_det12.npy'
p4827
F1.817
F0.0064
F18.9181
F0.0251
F1.1652
F0.0046
g11
(g15
S'\x00\x00\x00\x00\x00\x00{@'
p4828
tp4829
Rp4830
tp4831
a(S'cpvert_11MeV_neg30tilt_105rot_det13.npy'
p4832
F2.9748
F0.009
F22.0067
F0.037
F1.9727
F0.0066
g11
(g15
S'\x00\x00\x00\x00\x00\xb0v@'
p4833
tp4834
Rp4835
tp4836
a(S'cpvert_11MeV_neg30tilt_105rot_det14.npy'
p4837
F4.2253
F0.0096
F26.8513
F0.0671
F2.8616
F0.0076
g11
(g15
S'\x00\x00\x00\x00\x00\xf0r@'
p4838
tp4839
Rp4840
tp4841
a(S'cpvert_11MeV_neg30tilt_105rot_det15.npy'
p4842
F5.195
F0.0131
F41.1953
F0.1999
F3.5645
F0.0112
g11
(g15
S'\x00\x00\x00\x00\x00\x80e@'
p4843
tp4844
Rp4845
tp4846
a(S'cpvert_11MeV_neg30tilt_105rot_det4.npy'
p4847
F4.9823
F0.0122
F40.6053
F0.1806
F3.4941
F0.0102
g11
(g15
S'\x00\x00\x00\x00\x00\xc0i@'
p4848
tp4849
Rp4850
tp4851
a(S'cpvert_11MeV_neg30tilt_105rot_det5.npy'
p4852
F3.9537
F0.0106
F25.2681
F0.0677
F2.7311
F0.0084
g11
(g15
S'\x00\x00\x00\x00\x00\xa0t@'
p4853
tp4854
Rp4855
tp4856
a(S'cpvert_11MeV_neg30tilt_105rot_det6.npy'
p4857
F2.7982
F0.0082
F19.8685
F0.0366
F1.8916
F0.0062
g11
(g15
S'\x00\x00\x00\x00\x00\x90y@'
p4858
tp4859
Rp4860
tp4861
a(S'cpvert_11MeV_neg30tilt_105rot_det7.npy'
p4862
F1.7197
F0.0062
F18.0827
F0.0267
F1.1203
F0.0046
g11
(g15
S'\x00\x00\x00\x00\x00\x90x@'
p4863
tp4864
Rp4865
tp4866
a(S'cpvert_11MeV_neg30tilt_105rot_det8.npy'
p4867
F0.8493
F0.0046
F19.4218
F0.0204
F0.5226
F0.0031
g11
(g15
S'\x00\x00\x00\x00\x000x@'
p4868
tp4869
Rp4870
tp4871
a(S'cpvert_11MeV_neg30tilt_105rot_det9.npy'
p4872
F0.2894
F0.0024
F17.9409
F0.0251
F0.1686
F0.0014
g11
(g15
S'\x00\x00\x00\x00\x00\xe0y@'
p4873
tp4874
Rp4875
tp4876
a(S'cpvert_11MeV_neg30tilt_115rot_det10.npy'
p4877
F0.2841
F0.0041
F15.8017
F0.0384
F0.1642
F0.0023
g11
(g15
S'\x00\x00\x00\x00\x00 e@'
p4878
tp4879
Rp4880
tp4881
a(S'cpvert_11MeV_neg30tilt_115rot_det11.npy'
p4882
F0.8558
F0.0078
F19.9907
F0.0348
F0.5232
F0.0053
g11
(g15
S'\x00\x00\x00\x00\x00\xc0a@'
p4883
tp4884
Rp4885
tp4886
a(S'cpvert_11MeV_neg30tilt_115rot_det12.npy'
p4887
F1.795
F0.011
F18.947
F0.0404
F1.1544
F0.0078
g11
(g15
S'\x00\x00\x00\x00\x00 d@'
p4888
tp4889
Rp4890
tp4891
a(S'cpvert_11MeV_neg30tilt_115rot_det13.npy'
p4892
F2.9573
F0.0131
F22.0861
F0.0557
F1.9709
F0.0105
g11
(g15
S'\x00\x00\x00\x00\x00\x80d@'
p4893
tp4894
Rp4895
tp4896
a(S'cpvert_11MeV_neg30tilt_115rot_det14.npy'
p4897
F4.2234
F0.0141
F26.7007
F0.1088
F2.8696
F0.0119
g11
(g15
S'\x00\x00\x00\x00\x00\x80_@'
p4898
tp4899
Rp4900
tp4901
a(S'cpvert_11MeV_neg30tilt_115rot_det15.npy'
p4902
F5.2453
F0.0184
F40.8281
F0.2848
F3.6016
F0.0147
g11
(g15
S'\x00\x00\x00\x00\x00\x00V@'
p4903
tp4904
Rp4905
tp4906
a(S'cpvert_11MeV_neg30tilt_115rot_det4.npy'
p4907
F5.0629
F0.0183
F40.9872
F0.3286
F3.5197
F0.0158
g11
(g15
S'\x00\x00\x00\x00\x00\xc0Q@'
p4908
tp4909
Rp4910
tp4911
a(S'cpvert_11MeV_neg30tilt_115rot_det5.npy'
p4912
F4.0175
F0.0136
F25.2009
F0.1076
F2.7748
F0.0111
g11
(g15
S'\x00\x00\x00\x00\x00\xc0\\@'
p4913
tp4914
Rp4915
tp4916
a(S'cpvert_11MeV_neg30tilt_115rot_det6.npy'
p4917
F2.8382
F0.0111
F19.9158
F0.0599
F1.9156
F0.0092
g11
(g15
S'\x00\x00\x00\x00\x00`c@'
p4918
tp4919
Rp4920
tp4921
a(S'cpvert_11MeV_neg30tilt_115rot_det7.npy'
p4922
F1.7113
F0.0107
F18.0767
F0.0442
F1.112
F0.0079
g11
(g15
S'\x00\x00\x00\x00\x00\xc0e@'
p4923
tp4924
Rp4925
tp4926
a(S'cpvert_11MeV_neg30tilt_115rot_det8.npy'
p4927
F0.8411
F0.0078
F19.4211
F0.037
F0.5163
F0.0052
g11
(g15
S'\x00\x00\x00\x00\x00\xc0b@'
p4928
tp4929
Rp4930
tp4931
a(S'cpvert_11MeV_neg30tilt_115rot_det9.npy'
p4932
F0.2864
F0.0034
F17.921
F0.0346
F0.1665
F0.002
g11
(g15
S'\x00\x00\x00\x00\x00`f@'
p4933
tp4934
Rp4935
tp4936
a(S'cpvert_11MeV_neg30tilt_125rot_det10.npy'
p4937
F0.274
F0.0038
F15.9288
F0.0378
F0.1595
F0.0022
g11
(g15
S'\x00\x00\x00\x00\x00\x80a@'
p4938
tp4939
Rp4940
tp4941
a(S'cpvert_11MeV_neg30tilt_125rot_det11.npy'
p4942
F0.8404
F0.0081
F20.0186
F0.0362
F0.5163
F0.0053
g11
(g15
S'\x00\x00\x00\x00\x00\xe0a@'
p4943
tp4944
Rp4945
tp4946
a(S'cpvert_11MeV_neg30tilt_125rot_det12.npy'
p4947
F1.784
F0.0091
F18.969
F0.0384
F1.1568
F0.0066
g11
(g15
S'\x00\x00\x00\x00\x00\xe0g@'
p4948
tp4949
Rp4950
tp4951
a(S'cpvert_11MeV_neg30tilt_125rot_det13.npy'
p4952
F2.908
F0.0135
F22.1065
F0.0517
F1.941
F0.0102
g11
(g15
S'\x00\x00\x00\x00\x00\xc0d@'
p4953
tp4954
Rp4955
tp4956
a(S'cpvert_11MeV_neg30tilt_125rot_det14.npy'
p4957
F4.1513
F0.0168
F26.8102
F0.1097
F2.8334
F0.0127
g11
(g15
S'\x00\x00\x00\x00\x00\x00]@'
p4958
tp4959
Rp4960
tp4961
a(S'cpvert_11MeV_neg30tilt_125rot_det15.npy'
p4962
F5.243
F0.0161
F41.3331
F0.3046
F3.5942
F0.0156
g11
(g15
S'\x00\x00\x00\x00\x00\xc0U@'
p4963
tp4964
Rp4965
tp4966
a(S'cpvert_11MeV_neg30tilt_125rot_det4.npy'
p4967
F5.1349
F0.0161
F41.0702
F0.2825
F3.5534
F0.0124
g11
(g15
S'\x00\x00\x00\x00\x00\x80Q@'
p4968
tp4969
Rp4970
tp4971
a(S'cpvert_11MeV_neg30tilt_125rot_det5.npy'
p4972
F4.0004
F0.0159
F24.9006
F0.1163
F2.737
F0.013
g11
(g15
S'\x00\x00\x00\x00\x00\x00\\@'
p4973
tp4974
Rp4975
tp4976
a(S'cpvert_11MeV_neg30tilt_125rot_det6.npy'
p4977
F2.8925
F0.0119
F19.8769
F0.0594
F1.9472
F0.0089
g11
(g15
S'\x00\x00\x00\x00\x00\xe0`@'
p4978
tp4979
Rp4980
tp4981
a(S'cpvert_11MeV_neg30tilt_125rot_det7.npy'
p4982
F1.7282
F0.0105
F18.0942
F0.047
F1.1218
F0.0073
g11
(g15
S'\x00\x00\x00\x00\x00\xc0a@'
p4983
tp4984
Rp4985
tp4986
a(S'cpvert_11MeV_neg30tilt_125rot_det8.npy'
p4987
F0.8406
F0.0072
F19.3989
F0.0319
F0.5172
F0.0048
g11
(g15
S'\x00\x00\x00\x00\x00\xe0e@'
p4988
tp4989
Rp4990
tp4991
a(S'cpvert_11MeV_neg30tilt_125rot_det9.npy'
p4992
F0.2943
F0.0036
F17.9164
F0.0373
F0.1711
F0.0022
g11
(g15
S'\x00\x00\x00\x00\x00\xc0f@'
p4993
tp4994
Rp4995
tp4996
a(S'cpvert_11MeV_neg30tilt_135rot_det10.npy'
p4997
F0.2764
F0.0035
F15.912
F0.0364
F0.1604
F0.0021
g11
(g15
S'\x00\x00\x00\x00\x00\xa0f@'
p4998
tp4999
Rp5000
tp5001
a(S'cpvert_11MeV_neg30tilt_135rot_det11.npy'
p5002
F0.8536
F0.0066
F20.0323
F0.0355
F0.5245
F0.0046
g11
(g15
S'\x00\x00\x00\x00\x00\x00a@'
p5003
tp5004
Rp5005
tp5006
a(S'cpvert_11MeV_neg30tilt_135rot_det12.npy'
p5007
F1.7524
F0.01
F18.9471
F0.0375
F1.1374
F0.0074
g11
(g15
S'\x00\x00\x00\x00\x00\xe0e@'
p5008
tp5009
Rp5010
tp5011
a(S'cpvert_11MeV_neg30tilt_135rot_det13.npy'
p5012
F2.8936
F0.0126
F22.1336
F0.0515
F1.9447
F0.0098
g11
(g15
S'\x00\x00\x00\x00\x00\xe0c@'
p5013
tp5014
Rp5015
tp5016
a(S'cpvert_11MeV_neg30tilt_135rot_det14.npy'
p5017
F4.1106
F0.0143
F26.7702
F0.106
F2.8089
F0.011
g11
(g15
S'\x00\x00\x00\x00\x00\x80`@'
p5018
tp5019
Rp5020
tp5021
a(S'cpvert_11MeV_neg30tilt_135rot_det15.npy'
p5022
F5.2097
F0.0178
F41.2533
F0.2986
F3.6008
F0.0148
g11
(g15
S'\x00\x00\x00\x00\x00\xc0U@'
p5023
tp5024
Rp5025
tp5026
a(S'cpvert_11MeV_neg30tilt_135rot_det4.npy'
p5027
F5.2044
F0.0174
F40.5023
F0.2632
F3.588
F0.0182
g11
(g15
S'\x00\x00\x00\x00\x00\x00O@'
p5028
tp5029
Rp5030
tp5031
a(S'cpvert_11MeV_neg30tilt_135rot_det5.npy'
p5032
F4.1351
F0.0162
F25.1498
F0.1065
F2.8326
F0.0122
g11
(g15
S'\x00\x00\x00\x00\x00\x00`@'
p5033
tp5034
Rp5035
tp5036
a(S'cpvert_11MeV_neg30tilt_135rot_det6.npy'
p5037
F2.8843
F0.0146
F19.795
F0.056
F1.9285
F0.0109
g11
(g15
S'\x00\x00\x00\x00\x00 e@'
p5038
tp5039
Rp5040
tp5041
a(S'cpvert_11MeV_neg30tilt_135rot_det7.npy'
p5042
F1.7621
F0.0109
F18.0429
F0.041
F1.1397
F0.0079
g11
(g15
S'\x00\x00\x00\x00\x00 c@'
p5043
tp5044
Rp5045
tp5046
a(S'cpvert_11MeV_neg30tilt_135rot_det8.npy'
p5047
F0.8449
F0.007
F19.4513
F0.0337
F0.5212
F0.0048
g11
(g15
S'\x00\x00\x00\x00\x00 c@'
p5048
tp5049
Rp5050
tp5051
a(S'cpvert_11MeV_neg30tilt_135rot_det9.npy'
p5052
F0.2926
F0.004
F17.8939
F0.0385
F0.1708
F0.0025
g11
(g15
S'\x00\x00\x00\x00\x00\x80b@'
p5053
tp5054
Rp5055
tp5056
a(S'cpvert_11MeV_neg30tilt_145rot_det10.npy'
p5057
F0.2761
F0.0036
F15.9435
F0.0388
F0.1609
F0.0022
g11
(g15
S'\x00\x00\x00\x00\x00\x80a@'
p5058
tp5059
Rp5060
tp5061
a(S'cpvert_11MeV_neg30tilt_145rot_det11.npy'
p5062
F0.829
F0.007
F20.0391
F0.0341
F0.5084
F0.0046
g11
(g15
S'\x00\x00\x00\x00\x00 c@'
p5063
tp5064
Rp5065
tp5066
a(S'cpvert_11MeV_neg30tilt_145rot_det12.npy'
p5067
F1.7372
F0.011
F19.0373
F0.0444
F1.1317
F0.0082
g11
(g15
S'\x00\x00\x00\x00\x00@a@'
p5068
tp5069
Rp5070
tp5071
a(S'cpvert_11MeV_neg30tilt_145rot_det13.npy'
p5072
F2.8753
F0.0141
F22.2236
F0.0611
F1.941
F0.0108
g11
(g15
S'\x00\x00\x00\x00\x00\xa0`@'
p5073
tp5074
Rp5075
tp5076
a(S'cpvert_11MeV_neg30tilt_145rot_det14.npy'
p5077
F4.0593
F0.0138
F26.6607
F0.0986
F2.806
F0.0119
g11
(g15
S'\x00\x00\x00\x00\x00\xe0b@'
p5078
tp5079
Rp5080
tp5081
a(S'cpvert_11MeV_neg30tilt_145rot_det15.npy'
p5082
F5.1717
F0.0176
F41.5635
F0.3159
F3.6029
F0.0163
g11
(g15
S'\x00\x00\x00\x00\x00\x00O@'
p5083
tp5084
Rp5085
tp5086
a(S'cpvert_11MeV_neg30tilt_145rot_det4.npy'
p5087
F5.2114
F0.0175
F40.0952
F0.3003
F3.5794
F0.0167
g11
(g15
S'\x00\x00\x00\x00\x00@S@'
p5088
tp5089
Rp5090
tp5091
a(S'cpvert_11MeV_neg30tilt_145rot_det5.npy'
p5092
F4.1542
F0.0162
F25.1843
F0.1214
F2.8294
F0.013
g11
(g15
S'\x00\x00\x00\x00\x00\xc0Z@'
p5093
tp5094
Rp5095
tp5096
a(S'cpvert_11MeV_neg30tilt_145rot_det6.npy'
p5097
F2.9098
F0.0132
F19.7116
F0.058
F1.9361
F0.0098
g11
(g15
S'\x00\x00\x00\x00\x00@b@'
p5098
tp5099
Rp5100
tp5101
a(S'cpvert_11MeV_neg30tilt_145rot_det7.npy'
p5102
F1.7629
F0.0102
F17.9901
F0.0444
F1.1373
F0.0072
g11
(g15
S'\x00\x00\x00\x00\x00\x80f@'
p5103
tp5104
Rp5105
tp5106
a(S'cpvert_11MeV_neg30tilt_145rot_det8.npy'
p5107
F0.8664
F0.0082
F19.3697
F0.0314
F0.531
F0.0054
g11
(g15
S'\x00\x00\x00\x00\x00\xc0b@'
p5108
tp5109
Rp5110
tp5111
a(S'cpvert_11MeV_neg30tilt_145rot_det9.npy'
p5112
F0.2857
F0.0038
F17.8094
F0.0375
F0.1666
F0.0022
g11
(g15
S'\x00\x00\x00\x00\x00`d@'
p5113
tp5114
Rp5115
tp5116
a(S'cpvert_11MeV_neg30tilt_15rot_det10.npy'
p5117
F0.2863
F0.0036
F15.8805
F0.0392
F0.166
F0.0021
g11
(g15
S'\x00\x00\x00\x00\x00`f@'
p5118
tp5119
Rp5120
tp5121
a(S'cpvert_11MeV_neg30tilt_15rot_det11.npy'
p5122
F0.842
F0.007
F20.0102
F0.0341
F0.516
F0.0049
g11
(g15
S'\x00\x00\x00\x00\x00\x80b@'
p5123
tp5124
Rp5125
tp5126
a(S'cpvert_11MeV_neg30tilt_15rot_det12.npy'
p5127
F1.7392
F0.0095
F19.1256
F0.0375
F1.1321
F0.0069
g11
(g15
S'\x00\x00\x00\x00\x00 g@'
p5128
tp5129
Rp5130
tp5131
a(S'cpvert_11MeV_neg30tilt_15rot_det13.npy'
p5132
F2.8029
F0.0127
F22.228
F0.0573
F1.8909
F0.0097
g11
(g15
S'\x00\x00\x00\x00\x00\xe0b@'
p5133
tp5134
Rp5135
tp5136
a(S'cpvert_11MeV_neg30tilt_15rot_det14.npy'
p5137
F3.9478
F0.0118
F27.1228
F0.1014
F2.7385
F0.0102
g11
(g15
S'\x00\x00\x00\x00\x00`c@'
p5138
tp5139
Rp5140
tp5141
a(S'cpvert_11MeV_neg30tilt_15rot_det15.npy'
p5142
F4.9658
F0.0181
F42.1481
F0.2828
F3.5135
F0.0151
g11
(g15
S'\x00\x00\x00\x00\x00@S@'
p5143
tp5144
Rp5145
tp5146
a(S'cpvert_11MeV_neg30tilt_15rot_det4.npy'
p5147
F5.0935
F0.0183
F40.7437
F0.27
F3.5646
F0.0141
g11
(g15
S'\x00\x00\x00\x00\x00\x80V@'
p5148
tp5149
Rp5150
tp5151
a(S'cpvert_11MeV_neg30tilt_15rot_det5.npy'
p5152
F4.1088
F0.0167
F25.0852
F0.1036
F2.8202
F0.0124
g11
(g15
S'\x00\x00\x00\x00\x00 a@'
p5153
tp5154
Rp5155
tp5156
a(S'cpvert_11MeV_neg30tilt_15rot_det6.npy'
p5157
F2.999
F0.0138
F19.7269
F0.0635
F2.0032
F0.0107
g11
(g15
S'\x00\x00\x00\x00\x00\xa0a@'
p5158
tp5159
Rp5160
tp5161
a(S'cpvert_11MeV_neg30tilt_15rot_det7.npy'
p5162
F1.8477
F0.0121
F17.8932
F0.0464
F1.1825
F0.0084
g11
(g15
S'\x00\x00\x00\x00\x00\xa0b@'
p5163
tp5164
Rp5165
tp5166
a(S'cpvert_11MeV_neg30tilt_15rot_det8.npy'
p5167
F0.9145
F0.0082
F19.2023
F0.0351
F0.557
F0.0052
g11
(g15
S'\x00\x00\x00\x00\x00\xa0c@'
p5168
tp5169
Rp5170
tp5171
a(S'cpvert_11MeV_neg30tilt_15rot_det9.npy'
p5172
F0.3041
F0.0038
F17.7456
F0.0371
F0.1768
F0.0022
g11
(g15
S'\x00\x00\x00\x00\x00\xc0e@'
p5173
tp5174
Rp5175
tp5176
a(S'cpvert_11MeV_neg30tilt_25rot_det10.npy'
p5177
F0.2856
F0.0035
F15.7761
F0.0382
F0.1656
F0.002
g11
(g15
S'\x00\x00\x00\x00\x00\xe0e@'
p5178
tp5179
Rp5180
tp5181
a(S'cpvert_11MeV_neg30tilt_25rot_det11.npy'
p5182
F0.8354
F0.0071
F19.9913
F0.0329
F0.5113
F0.0047
g11
(g15
S'\x00\x00\x00\x00\x00\xc0b@'
p5183
tp5184
Rp5185
tp5186
a(S'cpvert_11MeV_neg30tilt_25rot_det12.npy'
p5187
F1.744
F0.0109
F19.0294
F0.0416
F1.1299
F0.008
g11
(g15
S'\x00\x00\x00\x00\x00 d@'
p5188
tp5189
Rp5190
tp5191
a(S'cpvert_11MeV_neg30tilt_25rot_det13.npy'
p5192
F2.8033
F0.0114
F22.2005
F0.0534
F1.8928
F0.0093
g11
(g15
S'\x00\x00\x00\x00\x00`f@'
p5193
tp5194
Rp5195
tp5196
a(S'cpvert_11MeV_neg30tilt_25rot_det14.npy'
p5197
F3.9333
F0.0118
F27.0951
F0.1036
F2.7319
F0.0099
g11
(g15
S'\x00\x00\x00\x00\x00@b@'
p5198
tp5199
Rp5200
tp5201
a(S'cpvert_11MeV_neg30tilt_25rot_det15.npy'
p5202
F4.9368
F0.0159
F42.168
F0.2981
F3.4847
F0.0153
g11
(g15
S'\x00\x00\x00\x00\x00@Q@'
p5203
tp5204
Rp5205
tp5206
a(S'cpvert_11MeV_neg30tilt_25rot_det4.npy'
p5207
F5.0426
F0.0153
F40.2679
F0.2606
F3.5212
F0.0132
g11
(g15
S'\x00\x00\x00\x00\x00\x00T@'
p5208
tp5209
Rp5210
tp5211
a(S'cpvert_11MeV_neg30tilt_25rot_det5.npy'
p5212
F4.0795
F0.0174
F25.2798
F0.1003
F2.8065
F0.0141
g11
(g15
S'\x00\x00\x00\x00\x00\xe0a@'
p5213
tp5214
Rp5215
tp5216
a(S'cpvert_11MeV_neg30tilt_25rot_det6.npy'
p5217
F2.9957
F0.0118
F19.7373
F0.0565
F2.0108
F0.0087
g11
(g15
S'\x00\x00\x00\x00\x00\xe0b@'
p5218
tp5219
Rp5220
tp5221
a(S'cpvert_11MeV_neg30tilt_25rot_det7.npy'
p5222
F1.8368
F0.0106
F17.8432
F0.0458
F1.1806
F0.0077
g11
(g15
S'\x00\x00\x00\x00\x00`c@'
p5223
tp5224
Rp5225
tp5226
a(S'cpvert_11MeV_neg30tilt_25rot_det8.npy'
p5227
F0.9427
F0.0075
F19.2482
F0.0315
F0.5734
F0.0049
g11
(g15
S'\x00\x00\x00\x00\x00\xa0c@'
p5228
tp5229
Rp5230
tp5231
a(S'cpvert_11MeV_neg30tilt_25rot_det9.npy'
p5232
F0.2999
F0.0042
F17.6813
F0.0366
F0.1739
F0.0024
g11
(g15
S'\x00\x00\x00\x00\x00\x80e@'
p5233
tp5234
Rp5235
tp5236
a(S'cpvert_11MeV_neg30tilt_315rot_det10.npy'
p5237
F0.295
F0.0041
F16.0053
F0.0373
F0.1706
F0.0025
g11
(g15
S'\x00\x00\x00\x00\x00\x80e@'
p5238
tp5239
Rp5240
tp5241
a(S'cpvert_11MeV_neg30tilt_315rot_det11.npy'
p5242
F0.8673
F0.0073
F20.0966
F0.0319
F0.5324
F0.005
g11
(g15
S'\x00\x00\x00\x00\x00\x00e@'
p5243
tp5244
Rp5245
tp5246
a(S'cpvert_11MeV_neg30tilt_315rot_det12.npy'
p5247
F1.8069
F0.0107
F19.1504
F0.0414
F1.1732
F0.0074
g11
(g15
S'\x00\x00\x00\x00\x00`d@'
p5248
tp5249
Rp5250
tp5251
a(S'cpvert_11MeV_neg30tilt_315rot_det13.npy'
p5252
F2.9737
F0.0129
F22.5402
F0.0562
F1.9975
F0.01
g11
(g15
S'\x00\x00\x00\x00\x00\xa0a@'
p5253
tp5254
Rp5255
tp5256
a(S'cpvert_11MeV_neg30tilt_315rot_det14.npy'
p5257
F4.1739
F0.0148
F27.3454
F0.0993
F2.8652
F0.0117
g11
(g15
S'\x00\x00\x00\x00\x00 a@'
p5258
tp5259
Rp5260
tp5261
a(S'cpvert_11MeV_neg30tilt_315rot_det15.npy'
p5262
F5.256
F0.0169
F42.8052
F0.3265
F3.6257
F0.0182
g11
(g15
S'\x00\x00\x00\x00\x00\x80L@'
p5263
tp5264
Rp5265
tp5266
a(S'cpvert_11MeV_neg30tilt_315rot_det4.npy'
p5267
F5.2017
F0.0169
F40.4699
F0.3001
F3.5879
F0.0159
g11
(g15
S'\x00\x00\x00\x00\x00\xc0Q@'
p5268
tp5269
Rp5270
tp5271
a(S'cpvert_11MeV_neg30tilt_315rot_det5.npy'
p5272
F4.1039
F0.019
F24.8974
F0.1101
F2.8001
F0.0144
g11
(g15
S'\x00\x00\x00\x00\x00\xe0a@'
p5273
tp5274
Rp5275
tp5276
a(S'cpvert_11MeV_neg30tilt_315rot_det6.npy'
p5277
F2.8881
F0.0125
F19.5533
F0.0549
F1.9316
F0.0096
g11
(g15
S'\x00\x00\x00\x00\x00\x00d@'
p5278
tp5279
Rp5280
tp5281
a(S'cpvert_11MeV_neg30tilt_315rot_det7.npy'
p5282
F1.7431
F0.0115
F17.9234
F0.051
F1.126
F0.0081
g11
(g15
S'\x00\x00\x00\x00\x00@b@'
p5283
tp5284
Rp5285
tp5286
a(S'cpvert_11MeV_neg30tilt_315rot_det8.npy'
p5287
F0.8241
F0.0066
F19.2346
F0.0312
F0.5048
F0.0044
g11
(g15
S'\x00\x00\x00\x00\x00@d@'
p5288
tp5289
Rp5290
tp5291
a(S'cpvert_11MeV_neg30tilt_315rot_det9.npy'
p5292
F0.2751
F0.0035
F17.7314
F0.0357
F0.1572
F0.0021
g11
(g15
S'\x00\x00\x00\x00\x00\xc0f@'
p5293
tp5294
Rp5295
tp5296
a(S'cpvert_11MeV_neg30tilt_325rot_det10.npy'
p5297
F0.2961
F0.0039
F15.9204
F0.0356
F0.1693
F0.0023
g11
(g15
S'\x00\x00\x00\x00\x00`c@'
p5298
tp5299
Rp5300
tp5301
a(S'cpvert_11MeV_neg30tilt_325rot_det11.npy'
p5302
F0.8791
F0.008
F20.108
F0.0346
F0.5402
F0.0054
g11
(g15
S'\x00\x00\x00\x00\x00\xe0a@'
p5303
tp5304
Rp5305
tp5306
a(S'cpvert_11MeV_neg30tilt_325rot_det12.npy'
p5307
F1.7828
F0.0113
F19.2435
F0.0382
F1.1562
F0.0081
g11
(g15
S'\x00\x00\x00\x00\x00\xc0c@'
p5308
tp5309
Rp5310
tp5311
a(S'cpvert_11MeV_neg30tilt_325rot_det13.npy'
p5312
F2.9343
F0.014
F22.4995
F0.0554
F1.9774
F0.0102
g11
(g15
S'\x00\x00\x00\x00\x00\xc0e@'
p5313
tp5314
Rp5315
tp5316
a(S'cpvert_11MeV_neg30tilt_325rot_det14.npy'
p5317
F4.1305
F0.0144
F27.2973
F0.1101
F2.8397
F0.012
g11
(g15
S'\x00\x00\x00\x00\x00\x80]@'
p5318
tp5319
Rp5320
tp5321
a(S'cpvert_11MeV_neg30tilt_325rot_det15.npy'
p5322
F5.1619
F0.0187
F42.5144
F0.2722
F3.5734
F0.0166
g11
(g15
S'\x00\x00\x00\x00\x00@P@'
p5323
tp5324
Rp5325
tp5326
a(S'cpvert_11MeV_neg30tilt_325rot_det4.npy'
p5327
F5.2401
F0.0148
F39.8816
F0.2596
F3.5888
F0.0135
g11
(g15
S'\x00\x00\x00\x00\x00\x00V@'
p5328
tp5329
Rp5330
tp5331
a(S'cpvert_11MeV_neg30tilt_325rot_det5.npy'
p5332
F4.1777
F0.015
F25.0879
F0.1051
F2.8508
F0.0122
g11
(g15
S'\x00\x00\x00\x00\x00@_@'
p5333
tp5334
Rp5335
tp5336
a(S'cpvert_11MeV_neg30tilt_325rot_det6.npy'
p5337
F2.9408
F0.0135
F19.5911
F0.0579
F1.9614
F0.0102
g11
(g15
S'\x00\x00\x00\x00\x00@d@'
p5338
tp5339
Rp5340
tp5341
a(S'cpvert_11MeV_neg30tilt_325rot_det7.npy'
p5342
F1.7443
F0.0104
F17.8381
F0.0431
F1.1239
F0.0074
g11
(g15
S'\x00\x00\x00\x00\x00\x00g@'
p5343
tp5344
Rp5345
tp5346
a(S'cpvert_11MeV_neg30tilt_325rot_det8.npy'
p5347
F0.8445
F0.007
F19.2552
F0.0334
F0.5143
F0.0046
g11
(g15
S'\x00\x00\x00\x00\x00\xc0d@'
p5348
tp5349
Rp5350
tp5351
a(S'cpvert_11MeV_neg30tilt_325rot_det9.npy'
p5352
F0.2775
F0.0037
F17.7495
F0.0354
F0.1591
F0.0022
g11
(g15
S'\x00\x00\x00\x00\x00\xa0e@'
p5353
tp5354
Rp5355
tp5356
a(S'cpvert_11MeV_neg30tilt_335rot_det10.npy'
p5357
F0.2881
F0.004
F15.947
F0.0333
F0.1659
F0.0023
g11
(g15
S'\x00\x00\x00\x00\x00\xa0g@'
p5358
tp5359
Rp5360
tp5361
a(S'cpvert_11MeV_neg30tilt_335rot_det11.npy'
p5362
F0.846
F0.0073
F20.0844
F0.0344
F0.5181
F0.0051
g11
(g15
S'\x00\x00\x00\x00\x00`c@'
p5363
tp5364
Rp5365
tp5366
a(S'cpvert_11MeV_neg30tilt_335rot_det12.npy'
p5367
F1.7744
F0.0094
F19.1332
F0.0394
F1.1575
F0.0068
g11
(g15
S'\x00\x00\x00\x00\x00\xc0e@'
p5368
tp5369
Rp5370
tp5371
a(S'cpvert_11MeV_neg30tilt_335rot_det13.npy'
p5372
F2.9154
F0.0116
F22.4926
F0.0553
F1.9722
F0.0086
g11
(g15
S'\x00\x00\x00\x00\x00\x00f@'
p5373
tp5374
Rp5375
tp5376
a(S'cpvert_11MeV_neg30tilt_335rot_det14.npy'
p5377
F4.1014
F0.0131
F27.5415
F0.1071
F2.8257
F0.0111
g11
(g15
S'\x00\x00\x00\x00\x00\xc0_@'
p5378
tp5379
Rp5380
tp5381
a(S'cpvert_11MeV_neg30tilt_335rot_det15.npy'
p5382
F5.1466
F0.0157
F42.4623
F0.2907
F3.6062
F0.0118
g11
(g15
S'\x00\x00\x00\x00\x00\xc0P@'
p5383
tp5384
Rp5385
tp5386
a(S'cpvert_11MeV_neg30tilt_335rot_det4.npy'
p5387
F5.1984
F0.0209
F39.5748
F0.29
F3.5579
F0.0177
g11
(g15
S'\x00\x00\x00\x00\x00\x00V@'
p5388
tp5389
Rp5390
tp5391
a(S'cpvert_11MeV_neg30tilt_335rot_det5.npy'
p5392
F4.1846
F0.0207
F25.0334
F0.1021
F2.8247
F0.0151
g11
(g15
S'\x00\x00\x00\x00\x00\xa0a@'
p5393
tp5394
Rp5395
tp5396
a(S'cpvert_11MeV_neg30tilt_335rot_det6.npy'
p5397
F2.9743
F0.0149
F19.5928
F0.0622
F1.9777
F0.0106
g11
(g15
S'\x00\x00\x00\x00\x00\x00c@'
p5398
tp5399
Rp5400
tp5401
a(S'cpvert_11MeV_neg30tilt_335rot_det7.npy'
p5402
F1.8012
F0.0109
F17.8164
F0.0445
F1.1578
F0.0077
g11
(g15
S'\x00\x00\x00\x00\x00@d@'
p5403
tp5404
Rp5405
tp5406
a(S'cpvert_11MeV_neg30tilt_335rot_det8.npy'
p5407
F0.8607
F0.0072
F19.2001
F0.0339
F0.5251
F0.0046
g11
(g15
S'\x00\x00\x00\x00\x00\xa0e@'
p5408
tp5409
Rp5410
tp5411
a(S'cpvert_11MeV_neg30tilt_335rot_det9.npy'
p5412
F0.2834
F0.0038
F17.8017
F0.0389
F0.1643
F0.0022
g11
(g15
S'\x00\x00\x00\x00\x00@d@'
p5413
tp5414
Rp5415
tp5416
a(S'cpvert_11MeV_neg30tilt_345rot_det10.npy'
p5417
F0.286
F0.0035
F15.9246
F0.0332
F0.1642
F0.0021
g11
(g15
S'\x00\x00\x00\x00\x00\x80g@'
p5418
tp5419
Rp5420
tp5421
a(S'cpvert_11MeV_neg30tilt_345rot_det11.npy'
p5422
F0.8422
F0.0071
F20.0364
F0.0336
F0.5174
F0.0047
g11
(g15
S'\x00\x00\x00\x00\x00\x80d@'
p5423
tp5424
Rp5425
tp5426
a(S'cpvert_11MeV_neg30tilt_345rot_det12.npy'
p5427
F1.7483
F0.0098
F19.1694
F0.0363
F1.1417
F0.0073
g11
(g15
S'\x00\x00\x00\x00\x00\xc0h@'
p5428
tp5429
Rp5430
tp5431
a(S'cpvert_11MeV_neg30tilt_345rot_det13.npy'
p5432
F2.8453
F0.0137
F22.3281
F0.0548
F1.9213
F0.0105
g11
(g15
S'\x00\x00\x00\x00\x00\x80f@'
p5433
tp5434
Rp5435
tp5436
a(S'cpvert_11MeV_neg30tilt_345rot_det14.npy'
p5437
F4.0399
F0.0146
F27.3436
F0.1022
F2.8072
F0.0127
g11
(g15
S'\x00\x00\x00\x00\x00@_@'
p5438
tp5439
Rp5440
tp5441
a(S'cpvert_11MeV_neg30tilt_345rot_det15.npy'
p5442
F5.0883
F0.0184
F42.6496
F0.3104
F3.5792
F0.0174
g11
(g15
S'\x00\x00\x00\x00\x00\x80P@'
p5443
tp5444
Rp5445
tp5446
a(S'cpvert_11MeV_neg30tilt_345rot_det4.npy'
p5447
F5.2603
F0.017
F40.5272
F0.3139
F3.6298
F0.0146
g11
(g15
S'\x00\x00\x00\x00\x00@R@'
p5448
tp5449
Rp5450
tp5451
a(S'cpvert_11MeV_neg30tilt_345rot_det5.npy'
p5452
F4.2349
F0.015
F24.9932
F0.1066
F2.8664
F0.0122
g11
(g15
S'\x00\x00\x00\x00\x00\x00`@'
p5453
tp5454
Rp5455
tp5456
a(S'cpvert_11MeV_neg30tilt_345rot_det6.npy'
p5457
F3.0153
F0.0145
F19.6406
F0.0617
F1.9891
F0.0107
g11
(g15
S'\x00\x00\x00\x00\x00\xa0a@'
p5458
tp5459
Rp5460
tp5461
a(S'cpvert_11MeV_neg30tilt_345rot_det7.npy'
p5462
F1.8031
F0.0107
F17.8122
F0.0435
F1.1544
F0.0078
g11
(g15
S'\x00\x00\x00\x00\x00\x00c@'
p5463
tp5464
Rp5465
tp5466
a(S'cpvert_11MeV_neg30tilt_345rot_det8.npy'
p5467
F0.8719
F0.008
F19.2504
F0.0351
F0.5314
F0.0052
g11
(g15
S'\x00\x00\x00\x00\x00\x00e@'
p5468
tp5469
Rp5470
tp5471
a(S'cpvert_11MeV_neg30tilt_345rot_det9.npy'
p5472
F0.2851
F0.0036
F17.6896
F0.0328
F0.1645
F0.0022
g11
(g15
S'\x00\x00\x00\x00\x00\xa0i@'
p5473
tp5474
Rp5475
tp5476
a(S'cpvert_11MeV_neg30tilt_355rot_det10.npy'
p5477
F0.2825
F0.0035
F15.8833
F0.0369
F0.1632
F0.0021
g11
(g15
S'\x00\x00\x00\x00\x00`e@'
p5478
tp5479
Rp5480
tp5481
a(S'cpvert_11MeV_neg30tilt_355rot_det11.npy'
p5482
F0.8453
F0.0082
F20.0349
F0.0303
F0.5195
F0.0053
g11
(g15
S'\x00\x00\x00\x00\x00 e@'
p5483
tp5484
Rp5485
tp5486
a(S'cpvert_11MeV_neg30tilt_355rot_det12.npy'
p5487
F1.7416
F0.0097
F19.1434
F0.0368
F1.1327
F0.0072
g11
(g15
S'\x00\x00\x00\x00\x00@f@'
p5488
tp5489
Rp5490
tp5491
a(S'cpvert_11MeV_neg30tilt_355rot_det13.npy'
p5492
F2.8193
F0.0131
F22.3652
F0.0502
F1.9088
F0.01
g11
(g15
S'\x00\x00\x00\x00\x00\x80f@'
p5493
tp5494
Rp5495
tp5496
a(S'cpvert_11MeV_neg30tilt_355rot_det14.npy'
p5497
F3.9518
F0.0188
F27.0407
F0.1035
F2.7529
F0.0137
g11
(g15
S'\x00\x00\x00\x00\x00 `@'
p5498
tp5499
Rp5500
tp5501
a(S'cpvert_11MeV_neg30tilt_355rot_det15.npy'
p5502
F5.0259
F0.019
F42.4317
F0.3082
F3.5239
F0.0173
g11
(g15
S'\x00\x00\x00\x00\x00@Q@'
p5503
tp5504
Rp5505
tp5506
a(S'cpvert_11MeV_neg30tilt_355rot_det4.npy'
p5507
F5.1904
F0.0198
F40.2381
F0.2905
F3.5952
F0.0169
g11
(g15
S'\x00\x00\x00\x00\x00\x80S@'
p5508
tp5509
Rp5510
tp5511
a(S'cpvert_11MeV_neg30tilt_355rot_det5.npy'
p5512
F4.2191
F0.0162
F25.0107
F0.0938
F2.8621
F0.0126
g11
(g15
S'\x00\x00\x00\x00\x00\xa0c@'
p5513
tp5514
Rp5515
tp5516
a(S'cpvert_11MeV_neg30tilt_355rot_det6.npy'
p5517
F3.0049
F0.0141
F19.623
F0.0564
F1.9864
F0.0103
g11
(g15
S'\x00\x00\x00\x00\x00 e@'
p5518
tp5519
Rp5520
tp5521
a(S'cpvert_11MeV_neg30tilt_355rot_det7.npy'
p5522
F1.8496
F0.0102
F17.823
F0.0412
F1.175
F0.0071
g11
(g15
S'\x00\x00\x00\x00\x00`g@'
p5523
tp5524
Rp5525
tp5526
a(S'cpvert_11MeV_neg30tilt_355rot_det8.npy'
p5527
F0.8935
F0.0074
F19.1884
F0.0307
F0.5442
F0.0048
g11
(g15
S'\x00\x00\x00\x00\x00\x00h@'
p5528
tp5529
Rp5530
tp5531
a(S'cpvert_11MeV_neg30tilt_355rot_det9.npy'
p5532
F0.2925
F0.004
F17.7493
F0.0423
F0.169
F0.0024
g11
(g15
S'\x00\x00\x00\x00\x00\xc0c@'
p5533
tp5534
Rp5535
tp5536
a(S'cpvert_11MeV_neg30tilt_35rot_det10.npy'
p5537
F0.2917
F0.0035
F15.7987
F0.0336
F0.1686
F0.0021
g11
(g15
S'\x00\x00\x00\x00\x00\xa0h@'
p5538
tp5539
Rp5540
tp5541
a(S'cpvert_11MeV_neg30tilt_35rot_det11.npy'
p5542
F0.8571
F0.007
F19.9765
F0.0334
F0.5265
F0.0048
g11
(g15
S'\x00\x00\x00\x00\x00 e@'
p5543
tp5544
Rp5545
tp5546
a(S'cpvert_11MeV_neg30tilt_35rot_det12.npy'
p5547
F1.7533
F0.0094
F19.0789
F0.0397
F1.1369
F0.0072
g11
(g15
S'\x00\x00\x00\x00\x00\x80e@'
p5548
tp5549
Rp5550
tp5551
a(S'cpvert_11MeV_neg30tilt_35rot_det13.npy'
p5552
F2.7948
F0.0149
F22.2554
F0.0611
F1.88
F0.011
g11
(g15
S'\x00\x00\x00\x00\x00\x00e@'
p5553
tp5554
Rp5555
tp5556
a(S'cpvert_11MeV_neg30tilt_35rot_det14.npy'
p5557
F3.9445
F0.0125
F27.1687
F0.1072
F2.7297
F0.0102
g11
(g15
S'\x00\x00\x00\x00\x00\x80a@'
p5558
tp5559
Rp5560
tp5561
a(S'cpvert_11MeV_neg30tilt_35rot_det15.npy'
p5562
F4.9054
F0.0163
F41.7974
F0.2651
F3.4578
F0.0137
g11
(g15
S'\x00\x00\x00\x00\x00\xc0S@'
p5563
tp5564
Rp5565
tp5566
a(S'cpvert_11MeV_neg30tilt_35rot_det4.npy'
p5567
F4.9732
F0.0177
F40.5548
F0.2988
F3.4974
F0.0146
g11
(g15
S'\x00\x00\x00\x00\x00\xc0V@'
p5568
tp5569
Rp5570
tp5571
a(S'cpvert_11MeV_neg30tilt_35rot_det5.npy'
p5572
F4.0587
F0.0145
F25.2593
F0.1109
F2.8057
F0.0112
g11
(g15
S'\x00\x00\x00\x00\x00\x80_@'
p5573
tp5574
Rp5575
tp5576
a(S'cpvert_11MeV_neg30tilt_35rot_det6.npy'
p5577
F2.9379
F0.0118
F19.8298
F0.0525
F1.9791
F0.0095
g11
(g15
S'\x00\x00\x00\x00\x00\x80e@'
p5578
tp5579
Rp5580
tp5581
a(S'cpvert_11MeV_neg30tilt_35rot_det7.npy'
p5582
F1.8161
F0.0111
F17.9261
F0.0508
F1.1721
F0.008
g11
(g15
S'\x00\x00\x00\x00\x00`b@'
p5583
tp5584
Rp5585
tp5586
a(S'cpvert_11MeV_neg30tilt_35rot_det8.npy'
p5587
F0.9067
F0.0071
F19.255
F0.0327
F0.5531
F0.0049
g11
(g15
S'\x00\x00\x00\x00\x00\xa0e@'
p5588
tp5589
Rp5590
tp5591
a(S'cpvert_11MeV_neg30tilt_35rot_det9.npy'
p5592
F0.3101
F0.0036
F17.703
F0.0369
F0.1808
F0.0022
g11
(g15
S'\x00\x00\x00\x00\x00\xe0c@'
p5593
tp5594
Rp5595
tp5596
a(S'cpvert_11MeV_neg30tilt_45rot_det10.npy'
p5597
F0.2938
F0.004
F15.761
F0.037
F0.1703
F0.0024
g11
(g15
S'\x00\x00\x00\x00\x00\xa0d@'
p5598
tp5599
Rp5600
tp5601
a(S'cpvert_11MeV_neg30tilt_45rot_det11.npy'
p5602
F0.8691
F0.0067
F19.9337
F0.0304
F0.5312
F0.0045
g11
(g15
S'\x00\x00\x00\x00\x00 g@'
p5603
tp5604
Rp5605
tp5606
a(S'cpvert_11MeV_neg30tilt_45rot_det12.npy'
p5607
F1.7625
F0.0095
F18.9975
F0.041
F1.1357
F0.007
g11
(g15
S'\x00\x00\x00\x00\x00`e@'
p5608
tp5609
Rp5610
tp5611
a(S'cpvert_11MeV_neg30tilt_45rot_det13.npy'
p5612
F2.8514
F0.0123
F22.1632
F0.0554
F1.919
F0.0097
g11
(g15
S'\x00\x00\x00\x00\x00@c@'
p5613
tp5614
Rp5615
tp5616
a(S'cpvert_11MeV_neg30tilt_45rot_det14.npy'
p5617
F3.9632
F0.0129
F27.0046
F0.0982
F2.7369
F0.0105
g11
(g15
S'\x00\x00\x00\x00\x00\x80b@'
p5618
tp5619
Rp5620
tp5621
a(S'cpvert_11MeV_neg30tilt_45rot_det15.npy'
p5622
F4.9271
F0.0136
F42.1217
F0.2868
F3.453
F0.0128
g11
(g15
S'\x00\x00\x00\x00\x00\x00S@'
p5623
tp5624
Rp5625
tp5626
a(S'cpvert_11MeV_neg30tilt_45rot_det4.npy'
p5627
F4.9496
F0.0174
F40.5074
F0.3261
F3.4786
F0.0178
g11
(g15
S'\x00\x00\x00\x00\x00\x80Q@'
p5628
tp5629
Rp5630
tp5631
a(S'cpvert_11MeV_neg30tilt_45rot_det5.npy'
p5632
F4.0219
F0.0122
F25.1939
F0.0874
F2.7874
F0.0098
g11
(g15
S'\x00\x00\x00\x00\x00@d@'
p5633
tp5634
Rp5635
tp5636
a(S'cpvert_11MeV_neg30tilt_45rot_det6.npy'
p5637
F2.8844
F0.0114
F19.765
F0.0536
F1.9469
F0.0089
g11
(g15
S'\x00\x00\x00\x00\x00\xc0e@'
p5638
tp5639
Rp5640
tp5641
a(S'cpvert_11MeV_neg30tilt_45rot_det7.npy'
p5642
F1.7967
F0.0099
F18.0184
F0.0454
F1.1621
F0.0074
g11
(g15
S'\x00\x00\x00\x00\x00\xe0f@'
p5643
tp5644
Rp5645
tp5646
a(S'cpvert_11MeV_neg30tilt_45rot_det8.npy'
p5647
F0.8988
F0.0076
F19.2834
F0.0312
F0.5515
F0.0052
g11
(g15
S'\x00\x00\x00\x00\x00\xc0e@'
p5648
tp5649
Rp5650
tp5651
a(S'cpvert_11MeV_neg30tilt_45rot_det9.npy'
p5652
F0.3122
F0.0038
F17.7446
F0.036
F0.1815
F0.0022
g11
(g15
S'\x00\x00\x00\x00\x00\x00g@'
p5653
tp5654
Rp5655
tp5656
a(S'cpvert_11MeV_neg30tilt_55rot_det10.npy'
p5657
F0.3006
F0.0039
F15.7471
F0.038
F0.1733
F0.0022
g11
(g15
S'\x00\x00\x00\x00\x00\xa0e@'
p5658
tp5659
Rp5660
tp5661
a(S'cpvert_11MeV_neg30tilt_55rot_det11.npy'
p5662
F0.8792
F0.0072
F19.9396
F0.0308
F0.533
F0.0048
g11
(g15
S'\x00\x00\x00\x00\x00 e@'
p5663
tp5664
Rp5665
tp5666
a(S'cpvert_11MeV_neg30tilt_55rot_det12.npy'
p5667
F1.7979
F0.01
F18.9957
F0.0387
F1.1604
F0.0076
g11
(g15
S'\x00\x00\x00\x00\x00\xc0e@'
p5668
tp5669
Rp5670
tp5671
a(S'cpvert_11MeV_neg30tilt_55rot_det13.npy'
p5672
F2.8795
F0.0109
F22.1751
F0.0557
F1.9286
F0.0087
g11
(g15
S'\x00\x00\x00\x00\x00\x00f@'
p5673
tp5674
Rp5675
tp5676
a(S'cpvert_11MeV_neg30tilt_55rot_det14.npy'
p5677
F3.9759
F0.0144
F26.9313
F0.1049
F2.7378
F0.0117
g11
(g15
S'\x00\x00\x00\x00\x00``@'
p5678
tp5679
Rp5680
tp5681
a(S'cpvert_11MeV_neg30tilt_55rot_det15.npy'
p5682
F4.9278
F0.0177
F42.0188
F0.3132
F3.4481
F0.0137
g11
(g15
S'\x00\x00\x00\x00\x00\x00Q@'
p5683
tp5684
Rp5685
tp5686
a(S'cpvert_11MeV_neg30tilt_55rot_det4.npy'
p5687
F4.9362
F0.0192
F40.7623
F0.2681
F3.4721
F0.0167
g11
(g15
S'\x00\x00\x00\x00\x00\xc0S@'
p5688
tp5689
Rp5690
tp5691
a(S'cpvert_11MeV_neg30tilt_55rot_det5.npy'
p5692
F3.9833
F0.0148
F25.3017
F0.1048
F2.7675
F0.0117
g11
(g15
S'\x00\x00\x00\x00\x00\xa0`@'
p5693
tp5694
Rp5695
tp5696
a(S'cpvert_11MeV_neg30tilt_55rot_det6.npy'
p5697
F2.8838
F0.0127
F19.8021
F0.0699
F1.9515
F0.0101
g11
(g15
S'\x00\x00\x00\x00\x00\x00a@'
p5698
tp5699
Rp5700
tp5701
a(S'cpvert_11MeV_neg30tilt_55rot_det7.npy'
p5702
F1.7751
F0.0099
F17.8928
F0.0416
F1.1521
F0.007
g11
(g15
S'\x00\x00\x00\x00\x00`f@'
p5703
tp5704
Rp5705
tp5706
a(S'cpvert_11MeV_neg30tilt_55rot_det8.npy'
p5707
F0.8753
F0.0068
F19.3136
F0.0348
F0.5379
F0.0044
g11
(g15
S'\x00\x00\x00\x00\x00\xe0d@'
p5708
tp5709
Rp5710
tp5711
a(S'cpvert_11MeV_neg30tilt_55rot_det9.npy'
p5712
F0.3094
F0.0039
F17.8153
F0.0358
F0.1801
F0.0023
g11
(g15
S'\x00\x00\x00\x00\x00\x80f@'
p5713
tp5714
Rp5715
tp5716
a(S'cpvert_11MeV_neg30tilt_5rot_det10.npy'
p5717
F0.2881
F0.0036
F15.9457
F0.0317
F0.1659
F0.0021
g11
(g15
S'\x00\x00\x00\x00\x00\x00g@'
p5718
tp5719
Rp5720
tp5721
a(S'cpvert_11MeV_neg30tilt_5rot_det11.npy'
p5722
F0.8571
F0.0079
F20.0659
F0.0319
F0.5244
F0.0053
g11
(g15
S'\x00\x00\x00\x00\x00\xc0a@'
p5723
tp5724
Rp5725
tp5726
a(S'cpvert_11MeV_neg30tilt_5rot_det12.npy'
p5727
F1.7343
F0.0103
F19.1439
F0.0394
F1.1274
F0.0076
g11
(g15
S'\x00\x00\x00\x00\x00\xa0f@'
p5728
tp5729
Rp5730
tp5731
a(S'cpvert_11MeV_neg30tilt_5rot_det13.npy'
p5732
F2.83
F0.0107
F22.3875
F0.0539
F1.9162
F0.0085
g11
(g15
S'\x00\x00\x00\x00\x00\xe0g@'
p5733
tp5734
Rp5735
tp5736
a(S'cpvert_11MeV_neg30tilt_5rot_det14.npy'
p5737
F3.9513
F0.0145
F27.1623
F0.1151
F2.7359
F0.0121
g11
(g15
S'\x00\x00\x00\x00\x00\xc0_@'
p5738
tp5739
Rp5740
tp5741
a(S'cpvert_11MeV_neg30tilt_5rot_det15.npy'
p5742
F4.9924
F0.0167
F42.4107
F0.2955
F3.5151
F0.0163
g11
(g15
S'\x00\x00\x00\x00\x00\x80O@'
p5743
tp5744
Rp5745
tp5746
a(S'cpvert_11MeV_neg30tilt_5rot_det4.npy'
p5747
F5.1352
F0.0176
F40.5535
F0.2856
F3.5688
F0.015
g11
(g15
S'\x00\x00\x00\x00\x00@S@'
p5748
tp5749
Rp5750
tp5751
a(S'cpvert_11MeV_neg30tilt_5rot_det5.npy'
p5752
F4.1624
F0.016
F25.1567
F0.1032
F2.8414
F0.0128
g11
(g15
S'\x00\x00\x00\x00\x00\xc0a@'
p5753
tp5754
Rp5755
tp5756
a(S'cpvert_11MeV_neg30tilt_5rot_det6.npy'
p5757
F3.0301
F0.0124
F19.7434
F0.0586
F2.008
F0.0096
g11
(g15
S'\x00\x00\x00\x00\x00@e@'
p5758
tp5759
Rp5760
tp5761
a(S'cpvert_11MeV_neg30tilt_5rot_det7.npy'
p5762
F1.8682
F0.011
F17.9184
F0.0469
F1.1927
F0.0079
g11
(g15
S'\x00\x00\x00\x00\x00 b@'
p5763
tp5764
Rp5765
tp5766
a(S'cpvert_11MeV_neg30tilt_5rot_det8.npy'
p5767
F0.899
F0.0098
F19.2592
F0.0339
F0.5477
F0.0063
g11
(g15
S'\x00\x00\x00\x00\x00\xc0e@'
p5768
tp5769
Rp5770
tp5771
a(S'cpvert_11MeV_neg30tilt_5rot_det9.npy'
p5772
F0.2951
F0.0038
F17.6874
F0.0367
F0.1713
F0.0022
g11
(g15
S'\x00\x00\x00\x00\x00\xe0f@'
p5773
tp5774
Rp5775
tp5776
a(S'cpvert_11MeV_neg30tilt_65rot_det10.npy'
p5777
F0.2973
F0.0039
F15.706
F0.0367
F0.1719
F0.0022
g11
(g15
S'\x00\x00\x00\x00\x00\xe0e@'
p5778
tp5779
Rp5780
tp5781
a(S'cpvert_11MeV_neg30tilt_65rot_det11.npy'
p5782
F0.8914
F0.007
F19.9043
F0.0314
F0.5429
F0.0045
g11
(g15
S'\x00\x00\x00\x00\x00`f@'
p5783
tp5784
Rp5785
tp5786
a(S'cpvert_11MeV_neg30tilt_65rot_det12.npy'
p5787
F1.8112
F0.0104
F18.8841
F0.041
F1.1606
F0.0075
g11
(g15
S'\x00\x00\x00\x00\x00@d@'
p5788
tp5789
Rp5790
tp5791
a(S'cpvert_11MeV_neg30tilt_65rot_det13.npy'
p5792
F2.9267
F0.0105
F22.213
F0.0546
F1.9558
F0.0085
g11
(g15
S'\x00\x00\x00\x00\x00\xe0e@'
p5793
tp5794
Rp5795
tp5796
a(S'cpvert_11MeV_neg30tilt_65rot_det14.npy'
p5797
F4.0244
F0.0119
F26.7424
F0.1014
F2.7619
F0.0101
g11
(g15
S'\x00\x00\x00\x00\x00 a@'
p5798
tp5799
Rp5800
tp5801
a(S'cpvert_11MeV_neg30tilt_65rot_det15.npy'
p5802
F4.9887
F0.0152
F41.6551
F0.3127
F3.4773
F0.0153
g11
(g15
S'\x00\x00\x00\x00\x00\x80R@'
p5803
tp5804
Rp5805
tp5806
a(S'cpvert_11MeV_neg30tilt_65rot_det4.npy'
p5807
F4.9296
F0.0211
F41.3551
F0.3412
F3.4823
F0.0173
g11
(g15
S'\x00\x00\x00\x00\x00\xc0Q@'
p5808
tp5809
Rp5810
tp5811
a(S'cpvert_11MeV_neg30tilt_65rot_det5.npy'
p5812
F3.9589
F0.0148
F25.3242
F0.1025
F2.749
F0.0123
g11
(g15
S'\x00\x00\x00\x00\x00@]@'
p5813
tp5814
Rp5815
tp5816
a(S'cpvert_11MeV_neg30tilt_65rot_det6.npy'
p5817
F2.8461
F0.0113
F19.7726
F0.0559
F1.9227
F0.0088
g11
(g15
S'\x00\x00\x00\x00\x00\xa0b@'
p5818
tp5819
Rp5820
tp5821
a(S'cpvert_11MeV_neg30tilt_65rot_det7.npy'
p5822
F1.7553
F0.0097
F18.0322
F0.0409
F1.143
F0.0073
g11
(g15
S'\x00\x00\x00\x00\x00 d@'
p5823
tp5824
Rp5825
tp5826
a(S'cpvert_11MeV_neg30tilt_65rot_det8.npy'
p5827
F0.871
F0.0075
F19.3578
F0.0355
F0.5355
F0.0052
g11
(g15
S'\x00\x00\x00\x00\x00\xa0c@'
p5828
tp5829
Rp5830
tp5831
a(S'cpvert_11MeV_neg30tilt_65rot_det9.npy'
p5832
F0.3007
F0.0038
F17.7739
F0.0335
F0.1753
F0.0023
g11
(g15
S'\x00\x00\x00\x00\x00\xa0d@'
p5833
tp5834
Rp5835
tp5836
a(S'cpvert_11MeV_neg30tilt_75rot_det10.npy'
p5837
F0.3008
F0.0045
F15.72
F0.0403
F0.1737
F0.0026
g11
(g15
S'\x00\x00\x00\x00\x00 c@'
p5838
tp5839
Rp5840
tp5841
a(S'cpvert_11MeV_neg30tilt_75rot_det11.npy'
p5842
F0.9075
F0.0071
F19.9013
F0.0289
F0.5496
F0.0045
g11
(g15
S'\x00\x00\x00\x00\x00`f@'
p5843
tp5844
Rp5845
tp5846
a(S'cpvert_11MeV_neg30tilt_75rot_det12.npy'
p5847
F1.8326
F0.0113
F18.9733
F0.0452
F1.1711
F0.0081
g11
(g15
S'\x00\x00\x00\x00\x00 c@'
p5848
tp5849
Rp5850
tp5851
a(S'cpvert_11MeV_neg30tilt_75rot_det13.npy'
p5852
F2.9825
F0.0134
F22.2656
F0.0604
F1.9826
F0.0103
g11
(g15
S'\x00\x00\x00\x00\x00 c@'
p5853
tp5854
Rp5855
tp5856
a(S'cpvert_11MeV_neg30tilt_75rot_det14.npy'
p5857
F4.0965
F0.0138
F26.9018
F0.0997
F2.8085
F0.011
g11
(g15
S'\x00\x00\x00\x00\x00\x00a@'
p5858
tp5859
Rp5860
tp5861
a(S'cpvert_11MeV_neg30tilt_75rot_det15.npy'
p5862
F5.0445
F0.0157
F42.041
F0.3157
F3.5085
F0.0144
g11
(g15
S'\x00\x00\x00\x00\x00\x80P@'
p5863
tp5864
Rp5865
tp5866
a(S'cpvert_11MeV_neg30tilt_75rot_det4.npy'
p5867
F4.8786
F0.018
F40.5091
F0.3052
F3.4362
F0.0155
g11
(g15
S'\x00\x00\x00\x00\x00\xc0Q@'
p5868
tp5869
Rp5870
tp5871
a(S'cpvert_11MeV_neg30tilt_75rot_det5.npy'
p5872
F3.9589
F0.0159
F25.5959
F0.1101
F2.7599
F0.0136
g11
(g15
S'\x00\x00\x00\x00\x00@Z@'
p5873
tp5874
Rp5875
tp5876
a(S'cpvert_11MeV_neg30tilt_75rot_det6.npy'
p5877
F2.8341
F0.0116
F19.8342
F0.057
F1.9226
F0.0088
g11
(g15
S'\x00\x00\x00\x00\x00 c@'
p5878
tp5879
Rp5880
tp5881
a(S'cpvert_11MeV_neg30tilt_75rot_det7.npy'
p5882
F1.7403
F0.0101
F18.0146
F0.0444
F1.1355
F0.0076
g11
(g15
S'\x00\x00\x00\x00\x00\xc0d@'
p5883
tp5884
Rp5885
tp5886
a(S'cpvert_11MeV_neg30tilt_75rot_det8.npy'
p5887
F0.8772
F0.0068
F19.3886
F0.0358
F0.5399
F0.0046
g11
(g15
S'\x00\x00\x00\x00\x00`b@'
p5888
tp5889
Rp5890
tp5891
a(S'cpvert_11MeV_neg30tilt_75rot_det9.npy'
p5892
F0.2984
F0.0037
F17.8141
F0.0396
F0.1746
F0.0022
g11
(g15
S'\x00\x00\x00\x00\x00\xa0f@'
p5893
tp5894
Rp5895
tp5896
a(S'cpvert_11MeV_neg30tilt_85rot_det10.npy'
p5897
F0.2967
F0.0039
F15.8439
F0.04
F0.1731
F0.0023
g11
(g15
S'\x00\x00\x00\x00\x00\xc0e@'
p5898
tp5899
Rp5900
tp5901
a(S'cpvert_11MeV_neg30tilt_85rot_det11.npy'
p5902
F0.8888
F0.0074
F19.8434
F0.0296
F0.5386
F0.0049
g11
(g15
S'\x00\x00\x00\x00\x00\xa0e@'
p5903
tp5904
Rp5905
tp5906
a(S'cpvert_11MeV_neg30tilt_85rot_det12.npy'
p5907
F1.8468
F0.0114
F19.0716
F0.044
F1.1799
F0.008
g11
(g15
S'\x00\x00\x00\x00\x00\x00d@'
p5908
tp5909
Rp5910
tp5911
a(S'cpvert_11MeV_neg30tilt_85rot_det13.npy'
p5912
F2.9953
F0.0132
F22.1272
F0.0573
F1.9824
F0.0101
g11
(g15
S'\x00\x00\x00\x00\x00\x00d@'
p5913
tp5914
Rp5915
tp5916
a(S'cpvert_11MeV_neg30tilt_85rot_det14.npy'
p5917
F4.1439
F0.0142
F26.8848
F0.1164
F2.8129
F0.0113
g11
(g15
S'\x00\x00\x00\x00\x00\xc0_@'
p5918
tp5919
Rp5920
tp5921
a(S'cpvert_11MeV_neg30tilt_85rot_det15.npy'
p5922
F5.0754
F0.0177
F41.6124
F0.2905
F3.5173
F0.0143
g11
(g15
S'\x00\x00\x00\x00\x00\xc0S@'
p5923
tp5924
Rp5925
tp5926
a(S'cpvert_11MeV_neg30tilt_85rot_det4.npy'
p5927
F4.8819
F0.0232
F40.5372
F0.2962
F3.4563
F0.0186
g11
(g15
S'\x00\x00\x00\x00\x00\x80O@'
p5928
tp5929
Rp5930
tp5931
a(S'cpvert_11MeV_neg30tilt_85rot_det5.npy'
p5932
F3.923
F0.0141
F25.2624
F0.1083
F2.7228
F0.0115
g11
(g15
S'\x00\x00\x00\x00\x00\x80a@'
p5933
tp5934
Rp5935
tp5936
a(S'cpvert_11MeV_neg30tilt_85rot_det6.npy'
p5937
F2.814
F0.0132
F19.8494
F0.0628
F1.9038
F0.0099
g11
(g15
S'\x00\x00\x00\x00\x00 c@'
p5938
tp5939
Rp5940
tp5941
a(S'cpvert_11MeV_neg30tilt_85rot_det7.npy'
p5942
F1.7219
F0.0096
F18.0514
F0.044
F1.1215
F0.0071
g11
(g15
S'\x00\x00\x00\x00\x00\xc0e@'
p5943
tp5944
Rp5945
tp5946
a(S'cpvert_11MeV_neg30tilt_85rot_det8.npy'
p5947
F0.8721
F0.0069
F19.401
F0.0334
F0.539
F0.0047
g11
(g15
S'\x00\x00\x00\x00\x00\xc0a@'
p5948
tp5949
Rp5950
tp5951
a(S'cpvert_11MeV_neg30tilt_85rot_det9.npy'
p5952
F0.2975
F0.0037
F17.8546
F0.0371
F0.1741
F0.0022
g11
(g15
S'\x00\x00\x00\x00\x00\xc0e@'
p5953
tp5954
Rp5955
tp5956
a(S'cpvert_11MeV_neg30tilt_95rot_det10.npy'
p5957
F0.2878
F0.0045
F15.7985
F0.044
F0.1664
F0.0026
g11
(g15
S'\x00\x00\x00\x00\x00@c@'
p5958
tp5959
Rp5960
tp5961
a(S'cpvert_11MeV_neg30tilt_95rot_det11.npy'
p5962
F0.8672
F0.0075
F19.8942
F0.0337
F0.5291
F0.0049
g11
(g15
S'\x00\x00\x00\x00\x00\x00d@'
p5963
tp5964
Rp5965
tp5966
a(S'cpvert_11MeV_neg30tilt_95rot_det12.npy'
p5967
F1.8194
F0.0119
F18.9645
F0.0451
F1.1633
F0.0081
g11
(g15
S'\x00\x00\x00\x00\x00\xe0b@'
p5968
tp5969
Rp5970
tp5971
a(S'cpvert_11MeV_neg30tilt_95rot_det13.npy'
p5972
F3.0077
F0.0139
F22.0318
F0.0572
F1.9877
F0.0107
g11
(g15
S'\x00\x00\x00\x00\x00\xa0c@'
p5973
tp5974
Rp5975
tp5976
a(S'cpvert_11MeV_neg30tilt_95rot_det14.npy'
p5977
F4.2075
F0.0136
F26.8145
F0.1046
F2.8572
F0.0106
g11
(g15
S'\x00\x00\x00\x00\x00\xa0`@'
p5978
tp5979
Rp5980
tp5981
a(S'cpvert_11MeV_neg30tilt_95rot_det15.npy'
p5982
F5.1684
F0.0168
F41.2541
F0.2946
F3.5494
F0.0134
g11
(g15
S'\x00\x00\x00\x00\x00\x00S@'
p5983
tp5984
Rp5985
tp5986
a(S'cpvert_11MeV_neg30tilt_95rot_det4.npy'
p5987
F4.9098
F0.0156
F40.1598
F0.2867
F3.4356
F0.015
g11
(g15
S'\x00\x00\x00\x00\x00\x80Q@'
p5988
tp5989
Rp5990
tp5991
a(S'cpvert_11MeV_neg30tilt_95rot_det5.npy'
p5992
F3.9626
F0.0155
F25.4408
F0.101
F2.7482
F0.0128
g11
(g15
S'\x00\x00\x00\x00\x00\x80a@'
p5993
tp5994
Rp5995
tp5996
a(S'cpvert_11MeV_neg30tilt_95rot_det6.npy'
p5997
F2.8156
F0.0128
F19.8282
F0.0608
F1.9028
F0.0096
g11
(g15
S'\x00\x00\x00\x00\x00\xe0a@'
p5998
tp5999
Rp6000
tp6001
a(S'cpvert_11MeV_neg30tilt_95rot_det7.npy'
p6002
F1.7185
F0.0106
F18.0952
F0.0462
F1.123
F0.0076
g11
(g15
S'\x00\x00\x00\x00\x00`b@'
p6003
tp6004
Rp6005
tp6006
a(S'cpvert_11MeV_neg30tilt_95rot_det8.npy'
p6007
F0.8545
F0.0074
F19.4446
F0.0359
F0.5269
F0.0049
g11
(g15
S'\x00\x00\x00\x00\x00\xa0c@'
p6008
tp6009
Rp6010
tp6011
a(S'cpvert_11MeV_neg30tilt_95rot_det9.npy'
p6012
F0.2955
F0.0037
F17.9463
F0.0345
F0.1721
F0.0022
g11
(g15
S'\x00\x00\x00\x00\x00\x00e@'
p6013
tp6014
Rp6015
tp6016
a.